   1              		.cpu cortex-m4
   2              		.eabi_attribute 20, 1
   3              		.eabi_attribute 21, 1
   4              		.eabi_attribute 23, 3
   5              		.eabi_attribute 24, 1
   6              		.eabi_attribute 25, 1
   7              		.eabi_attribute 26, 1
   8              		.eabi_attribute 30, 6
   9              		.eabi_attribute 34, 1
  10              		.eabi_attribute 18, 4
  11              		.file	"gd32f4xx_timer.c"
  12              		.text
  13              	.Ltext0:
  14              		.cfi_sections	.debug_frame
  15              		.section	.text.timer_deinit,"ax",%progbits
  16              		.align	1
  17              		.global	timer_deinit
  18              		.arch armv7e-m
  19              		.syntax unified
  20              		.thumb
  21              		.thumb_func
  22              		.fpu softvfp
  24              	timer_deinit:
  25              	.LFB123:
  26              		.file 1 "C:/Users/leonardo/Desktop/Code/Github/DawnBGC/Libraries/FWLIB/src/gd32f4xx_timer.c"
   1:C:/Users/leonardo/Desktop/Code/Github/DawnBGC/Libraries/FWLIB/src\gd32f4xx_timer.c **** /*!
   2:C:/Users/leonardo/Desktop/Code/Github/DawnBGC/Libraries/FWLIB/src\gd32f4xx_timer.c ****     \file  gd32f4xx_timer.c
   3:C:/Users/leonardo/Desktop/Code/Github/DawnBGC/Libraries/FWLIB/src\gd32f4xx_timer.c ****     \brief TIMER driver
   4:C:/Users/leonardo/Desktop/Code/Github/DawnBGC/Libraries/FWLIB/src\gd32f4xx_timer.c **** */
   5:C:/Users/leonardo/Desktop/Code/Github/DawnBGC/Libraries/FWLIB/src\gd32f4xx_timer.c **** 
   6:C:/Users/leonardo/Desktop/Code/Github/DawnBGC/Libraries/FWLIB/src\gd32f4xx_timer.c **** /*
   7:C:/Users/leonardo/Desktop/Code/Github/DawnBGC/Libraries/FWLIB/src\gd32f4xx_timer.c ****     Copyright (C) 2016 GigaDevice
   8:C:/Users/leonardo/Desktop/Code/Github/DawnBGC/Libraries/FWLIB/src\gd32f4xx_timer.c **** 
   9:C:/Users/leonardo/Desktop/Code/Github/DawnBGC/Libraries/FWLIB/src\gd32f4xx_timer.c ****     2016-08-15, V1.0.1, firmware for GD32F4xx
  10:C:/Users/leonardo/Desktop/Code/Github/DawnBGC/Libraries/FWLIB/src\gd32f4xx_timer.c **** */
  11:C:/Users/leonardo/Desktop/Code/Github/DawnBGC/Libraries/FWLIB/src\gd32f4xx_timer.c **** 
  12:C:/Users/leonardo/Desktop/Code/Github/DawnBGC/Libraries/FWLIB/src\gd32f4xx_timer.c **** #include "gd32f4xx_timer.h"
  13:C:/Users/leonardo/Desktop/Code/Github/DawnBGC/Libraries/FWLIB/src\gd32f4xx_timer.c **** 
  14:C:/Users/leonardo/Desktop/Code/Github/DawnBGC/Libraries/FWLIB/src\gd32f4xx_timer.c **** /*!
  15:C:/Users/leonardo/Desktop/Code/Github/DawnBGC/Libraries/FWLIB/src\gd32f4xx_timer.c ****     \brief      deinit a TIMER
  16:C:/Users/leonardo/Desktop/Code/Github/DawnBGC/Libraries/FWLIB/src\gd32f4xx_timer.c ****     \param[in]  timer_periph: TIMERx(x=0..13)
  17:C:/Users/leonardo/Desktop/Code/Github/DawnBGC/Libraries/FWLIB/src\gd32f4xx_timer.c ****     \param[out] none
  18:C:/Users/leonardo/Desktop/Code/Github/DawnBGC/Libraries/FWLIB/src\gd32f4xx_timer.c ****     \retval     none
  19:C:/Users/leonardo/Desktop/Code/Github/DawnBGC/Libraries/FWLIB/src\gd32f4xx_timer.c **** */
  20:C:/Users/leonardo/Desktop/Code/Github/DawnBGC/Libraries/FWLIB/src\gd32f4xx_timer.c **** void timer_deinit(uint32_t timer_periph)
  21:C:/Users/leonardo/Desktop/Code/Github/DawnBGC/Libraries/FWLIB/src\gd32f4xx_timer.c **** {
  27              		.loc 1 21 1
  28              		.cfi_startproc
  29              		@ args = 0, pretend = 0, frame = 8
  30              		@ frame_needed = 1, uses_anonymous_args = 0
  31 0000 80B5     		push	{r7, lr}
  32              		.cfi_def_cfa_offset 8
  33              		.cfi_offset 7, -8
  34              		.cfi_offset 14, -4
  35 0002 82B0     		sub	sp, sp, #8
  36              		.cfi_def_cfa_offset 16
  37 0004 00AF     		add	r7, sp, #0
  38              		.cfi_def_cfa_register 7
  39 0006 7860     		str	r0, [r7, #4]
  22:C:/Users/leonardo/Desktop/Code/Github/DawnBGC/Libraries/FWLIB/src\gd32f4xx_timer.c ****     switch(timer_periph){
  40              		.loc 1 22 5
  41 0008 7B68     		ldr	r3, [r7, #4]
  42 000a 7F4A     		ldr	r2, .L19
  43 000c 9342     		cmp	r3, r2
  44 000e 00F0D180 		beq	.L2
  45 0012 7B68     		ldr	r3, [r7, #4]
  46 0014 7C4A     		ldr	r2, .L19
  47 0016 9342     		cmp	r3, r2
  48 0018 00F2F080 		bhi	.L18
  49 001c 7B68     		ldr	r3, [r7, #4]
  50 001e 7B4A     		ldr	r2, .L19+4
  51 0020 9342     		cmp	r3, r2
  52 0022 00F0BE80 		beq	.L4
  53 0026 7B68     		ldr	r3, [r7, #4]
  54 0028 784A     		ldr	r2, .L19+4
  55 002a 9342     		cmp	r3, r2
  56 002c 00F2E680 		bhi	.L18
  57 0030 7B68     		ldr	r3, [r7, #4]
  58 0032 774A     		ldr	r2, .L19+8
  59 0034 9342     		cmp	r3, r2
  60 0036 00F0AB80 		beq	.L5
  61 003a 7B68     		ldr	r3, [r7, #4]
  62 003c 744A     		ldr	r2, .L19+8
  63 003e 9342     		cmp	r3, r2
  64 0040 00F2DC80 		bhi	.L18
  65 0044 7B68     		ldr	r3, [r7, #4]
  66 0046 734A     		ldr	r2, .L19+12
  67 0048 9342     		cmp	r3, r2
  68 004a 00F09880 		beq	.L6
  69 004e 7B68     		ldr	r3, [r7, #4]
  70 0050 704A     		ldr	r2, .L19+12
  71 0052 9342     		cmp	r3, r2
  72 0054 00F2D280 		bhi	.L18
  73 0058 7B68     		ldr	r3, [r7, #4]
  74 005a 6F4A     		ldr	r2, .L19+16
  75 005c 9342     		cmp	r3, r2
  76 005e 4FD0     		beq	.L7
  77 0060 7B68     		ldr	r3, [r7, #4]
  78 0062 6D4A     		ldr	r2, .L19+16
  79 0064 9342     		cmp	r3, r2
  80 0066 00F2C980 		bhi	.L18
  81 006a 7B68     		ldr	r3, [r7, #4]
  82 006c 6B4A     		ldr	r2, .L19+20
  83 006e 9342     		cmp	r3, r2
  84 0070 00F0BB80 		beq	.L8
  85 0074 7B68     		ldr	r3, [r7, #4]
  86 0076 694A     		ldr	r2, .L19+20
  87 0078 9342     		cmp	r3, r2
  88 007a 00F2BF80 		bhi	.L18
  89 007e 7B68     		ldr	r3, [r7, #4]
  90 0080 674A     		ldr	r2, .L19+24
  91 0082 9342     		cmp	r3, r2
  92 0084 00F0A880 		beq	.L9
  93 0088 7B68     		ldr	r3, [r7, #4]
  94 008a 654A     		ldr	r2, .L19+24
  95 008c 9342     		cmp	r3, r2
  96 008e 00F2B580 		bhi	.L18
  97 0092 7B68     		ldr	r3, [r7, #4]
  98 0094 634A     		ldr	r2, .L19+28
  99 0096 9342     		cmp	r3, r2
 100 0098 00F09580 		beq	.L10
 101 009c 7B68     		ldr	r3, [r7, #4]
 102 009e 614A     		ldr	r2, .L19+28
 103 00a0 9342     		cmp	r3, r2
 104 00a2 00F2AB80 		bhi	.L18
 105 00a6 7B68     		ldr	r3, [r7, #4]
 106 00a8 5F4A     		ldr	r2, .L19+32
 107 00aa 9342     		cmp	r3, r2
 108 00ac 5ED0     		beq	.L11
 109 00ae 7B68     		ldr	r3, [r7, #4]
 110 00b0 5D4A     		ldr	r2, .L19+32
 111 00b2 9342     		cmp	r3, r2
 112 00b4 00F2A280 		bhi	.L18
 113 00b8 7B68     		ldr	r3, [r7, #4]
 114 00ba 5C4A     		ldr	r2, .L19+36
 115 00bc 9342     		cmp	r3, r2
 116 00be 4CD0     		beq	.L12
 117 00c0 7B68     		ldr	r3, [r7, #4]
 118 00c2 5A4A     		ldr	r2, .L19+36
 119 00c4 9342     		cmp	r3, r2
 120 00c6 00F29980 		bhi	.L18
 121 00ca 7B68     		ldr	r3, [r7, #4]
 122 00cc 584A     		ldr	r2, .L19+40
 123 00ce 9342     		cmp	r3, r2
 124 00d0 3AD0     		beq	.L13
 125 00d2 7B68     		ldr	r3, [r7, #4]
 126 00d4 564A     		ldr	r2, .L19+40
 127 00d6 9342     		cmp	r3, r2
 128 00d8 00F29080 		bhi	.L18
 129 00dc 7B68     		ldr	r3, [r7, #4]
 130 00de 554A     		ldr	r2, .L19+44
 131 00e0 9342     		cmp	r3, r2
 132 00e2 28D0     		beq	.L14
 133 00e4 7B68     		ldr	r3, [r7, #4]
 134 00e6 534A     		ldr	r2, .L19+44
 135 00e8 9342     		cmp	r3, r2
 136 00ea 00F28780 		bhi	.L18
 137 00ee 7B68     		ldr	r3, [r7, #4]
 138 00f0 B3F1804F 		cmp	r3, #1073741824
 139 00f4 0DD0     		beq	.L15
 140 00f6 7B68     		ldr	r3, [r7, #4]
 141 00f8 4F4A     		ldr	r2, .L19+48
 142 00fa 9342     		cmp	r3, r2
 143 00fc 12D0     		beq	.L16
  23:C:/Users/leonardo/Desktop/Code/Github/DawnBGC/Libraries/FWLIB/src\gd32f4xx_timer.c ****     case TIMER0:
  24:C:/Users/leonardo/Desktop/Code/Github/DawnBGC/Libraries/FWLIB/src\gd32f4xx_timer.c ****         /* reset TIMER0 */
  25:C:/Users/leonardo/Desktop/Code/Github/DawnBGC/Libraries/FWLIB/src\gd32f4xx_timer.c ****         rcu_periph_reset_enable(RCU_TIMER0RST);
  26:C:/Users/leonardo/Desktop/Code/Github/DawnBGC/Libraries/FWLIB/src\gd32f4xx_timer.c ****         rcu_periph_reset_disable(RCU_TIMER0RST);
  27:C:/Users/leonardo/Desktop/Code/Github/DawnBGC/Libraries/FWLIB/src\gd32f4xx_timer.c ****         break;
  28:C:/Users/leonardo/Desktop/Code/Github/DawnBGC/Libraries/FWLIB/src\gd32f4xx_timer.c ****     case TIMER1:
  29:C:/Users/leonardo/Desktop/Code/Github/DawnBGC/Libraries/FWLIB/src\gd32f4xx_timer.c ****         /* reset TIMER1 */
  30:C:/Users/leonardo/Desktop/Code/Github/DawnBGC/Libraries/FWLIB/src\gd32f4xx_timer.c ****         rcu_periph_reset_enable(RCU_TIMER1RST);
  31:C:/Users/leonardo/Desktop/Code/Github/DawnBGC/Libraries/FWLIB/src\gd32f4xx_timer.c ****         rcu_periph_reset_disable(RCU_TIMER1RST);
  32:C:/Users/leonardo/Desktop/Code/Github/DawnBGC/Libraries/FWLIB/src\gd32f4xx_timer.c ****         break;
  33:C:/Users/leonardo/Desktop/Code/Github/DawnBGC/Libraries/FWLIB/src\gd32f4xx_timer.c ****     case TIMER2:
  34:C:/Users/leonardo/Desktop/Code/Github/DawnBGC/Libraries/FWLIB/src\gd32f4xx_timer.c ****         /* reset TIMER2 */
  35:C:/Users/leonardo/Desktop/Code/Github/DawnBGC/Libraries/FWLIB/src\gd32f4xx_timer.c ****         rcu_periph_reset_enable(RCU_TIMER2RST);
  36:C:/Users/leonardo/Desktop/Code/Github/DawnBGC/Libraries/FWLIB/src\gd32f4xx_timer.c ****         rcu_periph_reset_disable(RCU_TIMER2RST);
  37:C:/Users/leonardo/Desktop/Code/Github/DawnBGC/Libraries/FWLIB/src\gd32f4xx_timer.c ****         break;
  38:C:/Users/leonardo/Desktop/Code/Github/DawnBGC/Libraries/FWLIB/src\gd32f4xx_timer.c ****     case TIMER3:
  39:C:/Users/leonardo/Desktop/Code/Github/DawnBGC/Libraries/FWLIB/src\gd32f4xx_timer.c ****         /* reset TIMER3 */
  40:C:/Users/leonardo/Desktop/Code/Github/DawnBGC/Libraries/FWLIB/src\gd32f4xx_timer.c ****         rcu_periph_reset_enable(RCU_TIMER3RST);
  41:C:/Users/leonardo/Desktop/Code/Github/DawnBGC/Libraries/FWLIB/src\gd32f4xx_timer.c ****         rcu_periph_reset_disable(RCU_TIMER3RST);
  42:C:/Users/leonardo/Desktop/Code/Github/DawnBGC/Libraries/FWLIB/src\gd32f4xx_timer.c ****         break;
  43:C:/Users/leonardo/Desktop/Code/Github/DawnBGC/Libraries/FWLIB/src\gd32f4xx_timer.c ****     case TIMER4:
  44:C:/Users/leonardo/Desktop/Code/Github/DawnBGC/Libraries/FWLIB/src\gd32f4xx_timer.c ****         /* reset TIMER4 */
  45:C:/Users/leonardo/Desktop/Code/Github/DawnBGC/Libraries/FWLIB/src\gd32f4xx_timer.c ****         rcu_periph_reset_enable(RCU_TIMER4RST);
  46:C:/Users/leonardo/Desktop/Code/Github/DawnBGC/Libraries/FWLIB/src\gd32f4xx_timer.c ****         rcu_periph_reset_disable(RCU_TIMER4RST);
  47:C:/Users/leonardo/Desktop/Code/Github/DawnBGC/Libraries/FWLIB/src\gd32f4xx_timer.c ****         break;
  48:C:/Users/leonardo/Desktop/Code/Github/DawnBGC/Libraries/FWLIB/src\gd32f4xx_timer.c ****     case TIMER5:
  49:C:/Users/leonardo/Desktop/Code/Github/DawnBGC/Libraries/FWLIB/src\gd32f4xx_timer.c ****         /* reset TIMER5 */
  50:C:/Users/leonardo/Desktop/Code/Github/DawnBGC/Libraries/FWLIB/src\gd32f4xx_timer.c ****         rcu_periph_reset_enable(RCU_TIMER5RST);
  51:C:/Users/leonardo/Desktop/Code/Github/DawnBGC/Libraries/FWLIB/src\gd32f4xx_timer.c ****         rcu_periph_reset_disable(RCU_TIMER5RST);
  52:C:/Users/leonardo/Desktop/Code/Github/DawnBGC/Libraries/FWLIB/src\gd32f4xx_timer.c ****         break;
  53:C:/Users/leonardo/Desktop/Code/Github/DawnBGC/Libraries/FWLIB/src\gd32f4xx_timer.c ****     case TIMER6:
  54:C:/Users/leonardo/Desktop/Code/Github/DawnBGC/Libraries/FWLIB/src\gd32f4xx_timer.c ****         /* reset TIMER6 */
  55:C:/Users/leonardo/Desktop/Code/Github/DawnBGC/Libraries/FWLIB/src\gd32f4xx_timer.c ****         rcu_periph_reset_enable(RCU_TIMER6RST);
  56:C:/Users/leonardo/Desktop/Code/Github/DawnBGC/Libraries/FWLIB/src\gd32f4xx_timer.c ****         rcu_periph_reset_disable(RCU_TIMER6RST);
  57:C:/Users/leonardo/Desktop/Code/Github/DawnBGC/Libraries/FWLIB/src\gd32f4xx_timer.c ****         break;
  58:C:/Users/leonardo/Desktop/Code/Github/DawnBGC/Libraries/FWLIB/src\gd32f4xx_timer.c ****     case TIMER7:
  59:C:/Users/leonardo/Desktop/Code/Github/DawnBGC/Libraries/FWLIB/src\gd32f4xx_timer.c ****         /* reset TIMER7 */
  60:C:/Users/leonardo/Desktop/Code/Github/DawnBGC/Libraries/FWLIB/src\gd32f4xx_timer.c ****         rcu_periph_reset_enable(RCU_TIMER7RST);
  61:C:/Users/leonardo/Desktop/Code/Github/DawnBGC/Libraries/FWLIB/src\gd32f4xx_timer.c ****         rcu_periph_reset_disable(RCU_TIMER7RST);
  62:C:/Users/leonardo/Desktop/Code/Github/DawnBGC/Libraries/FWLIB/src\gd32f4xx_timer.c ****         break;
  63:C:/Users/leonardo/Desktop/Code/Github/DawnBGC/Libraries/FWLIB/src\gd32f4xx_timer.c ****     case TIMER8:
  64:C:/Users/leonardo/Desktop/Code/Github/DawnBGC/Libraries/FWLIB/src\gd32f4xx_timer.c ****         /* reset TIMER8 */
  65:C:/Users/leonardo/Desktop/Code/Github/DawnBGC/Libraries/FWLIB/src\gd32f4xx_timer.c ****         rcu_periph_reset_enable(RCU_TIMER8RST);
  66:C:/Users/leonardo/Desktop/Code/Github/DawnBGC/Libraries/FWLIB/src\gd32f4xx_timer.c ****         rcu_periph_reset_disable(RCU_TIMER8RST);
  67:C:/Users/leonardo/Desktop/Code/Github/DawnBGC/Libraries/FWLIB/src\gd32f4xx_timer.c ****         break;
  68:C:/Users/leonardo/Desktop/Code/Github/DawnBGC/Libraries/FWLIB/src\gd32f4xx_timer.c ****     case TIMER9:
  69:C:/Users/leonardo/Desktop/Code/Github/DawnBGC/Libraries/FWLIB/src\gd32f4xx_timer.c ****         /* reset TIMER9 */
  70:C:/Users/leonardo/Desktop/Code/Github/DawnBGC/Libraries/FWLIB/src\gd32f4xx_timer.c ****         rcu_periph_reset_enable(RCU_TIMER9RST);
  71:C:/Users/leonardo/Desktop/Code/Github/DawnBGC/Libraries/FWLIB/src\gd32f4xx_timer.c ****         rcu_periph_reset_disable(RCU_TIMER9RST);
  72:C:/Users/leonardo/Desktop/Code/Github/DawnBGC/Libraries/FWLIB/src\gd32f4xx_timer.c ****         break;
  73:C:/Users/leonardo/Desktop/Code/Github/DawnBGC/Libraries/FWLIB/src\gd32f4xx_timer.c ****     case TIMER10:
  74:C:/Users/leonardo/Desktop/Code/Github/DawnBGC/Libraries/FWLIB/src\gd32f4xx_timer.c ****         /* reset TIMER10 */
  75:C:/Users/leonardo/Desktop/Code/Github/DawnBGC/Libraries/FWLIB/src\gd32f4xx_timer.c ****         rcu_periph_reset_enable(RCU_TIMER10RST);
  76:C:/Users/leonardo/Desktop/Code/Github/DawnBGC/Libraries/FWLIB/src\gd32f4xx_timer.c ****         rcu_periph_reset_disable(RCU_TIMER10RST);
  77:C:/Users/leonardo/Desktop/Code/Github/DawnBGC/Libraries/FWLIB/src\gd32f4xx_timer.c ****         break;
  78:C:/Users/leonardo/Desktop/Code/Github/DawnBGC/Libraries/FWLIB/src\gd32f4xx_timer.c ****     case TIMER11:
  79:C:/Users/leonardo/Desktop/Code/Github/DawnBGC/Libraries/FWLIB/src\gd32f4xx_timer.c ****         /* reset TIMER11 */
  80:C:/Users/leonardo/Desktop/Code/Github/DawnBGC/Libraries/FWLIB/src\gd32f4xx_timer.c ****         rcu_periph_reset_enable(RCU_TIMER11RST);
  81:C:/Users/leonardo/Desktop/Code/Github/DawnBGC/Libraries/FWLIB/src\gd32f4xx_timer.c ****         rcu_periph_reset_disable(RCU_TIMER11RST);
  82:C:/Users/leonardo/Desktop/Code/Github/DawnBGC/Libraries/FWLIB/src\gd32f4xx_timer.c ****         break;
  83:C:/Users/leonardo/Desktop/Code/Github/DawnBGC/Libraries/FWLIB/src\gd32f4xx_timer.c ****     case TIMER12:
  84:C:/Users/leonardo/Desktop/Code/Github/DawnBGC/Libraries/FWLIB/src\gd32f4xx_timer.c ****         /* reset TIMER12 */
  85:C:/Users/leonardo/Desktop/Code/Github/DawnBGC/Libraries/FWLIB/src\gd32f4xx_timer.c ****         rcu_periph_reset_enable(RCU_TIMER12RST);
  86:C:/Users/leonardo/Desktop/Code/Github/DawnBGC/Libraries/FWLIB/src\gd32f4xx_timer.c ****         rcu_periph_reset_disable(RCU_TIMER12RST);
  87:C:/Users/leonardo/Desktop/Code/Github/DawnBGC/Libraries/FWLIB/src\gd32f4xx_timer.c ****         break;
  88:C:/Users/leonardo/Desktop/Code/Github/DawnBGC/Libraries/FWLIB/src\gd32f4xx_timer.c ****     case TIMER13:
  89:C:/Users/leonardo/Desktop/Code/Github/DawnBGC/Libraries/FWLIB/src\gd32f4xx_timer.c ****         /* reset TIMER13 */
  90:C:/Users/leonardo/Desktop/Code/Github/DawnBGC/Libraries/FWLIB/src\gd32f4xx_timer.c ****         rcu_periph_reset_enable(RCU_TIMER13RST);
  91:C:/Users/leonardo/Desktop/Code/Github/DawnBGC/Libraries/FWLIB/src\gd32f4xx_timer.c ****         rcu_periph_reset_disable(RCU_TIMER13RST);
  92:C:/Users/leonardo/Desktop/Code/Github/DawnBGC/Libraries/FWLIB/src\gd32f4xx_timer.c ****         break;
  93:C:/Users/leonardo/Desktop/Code/Github/DawnBGC/Libraries/FWLIB/src\gd32f4xx_timer.c ****     default:
  94:C:/Users/leonardo/Desktop/Code/Github/DawnBGC/Libraries/FWLIB/src\gd32f4xx_timer.c ****         break;
 144              		.loc 1 94 9
 145 00fe 7DE0     		b	.L18
 146              	.L7:
  25:C:/Users/leonardo/Desktop/Code/Github/DawnBGC/Libraries/FWLIB/src\gd32f4xx_timer.c ****         rcu_periph_reset_disable(RCU_TIMER0RST);
 147              		.loc 1 25 9
 148 0100 4FF41060 		mov	r0, #2304
 149 0104 FFF7FEFF 		bl	rcu_periph_reset_enable
  26:C:/Users/leonardo/Desktop/Code/Github/DawnBGC/Libraries/FWLIB/src\gd32f4xx_timer.c ****         break;
 150              		.loc 1 26 9
 151 0108 4FF41060 		mov	r0, #2304
 152 010c FFF7FEFF 		bl	rcu_periph_reset_disable
  27:C:/Users/leonardo/Desktop/Code/Github/DawnBGC/Libraries/FWLIB/src\gd32f4xx_timer.c ****     case TIMER1:
 153              		.loc 1 27 9
 154 0110 75E0     		b	.L17
 155              	.L15:
  30:C:/Users/leonardo/Desktop/Code/Github/DawnBGC/Libraries/FWLIB/src\gd32f4xx_timer.c ****         rcu_periph_reset_disable(RCU_TIMER1RST);
 156              		.loc 1 30 9
 157 0112 4FF40060 		mov	r0, #2048
 158 0116 FFF7FEFF 		bl	rcu_periph_reset_enable
  31:C:/Users/leonardo/Desktop/Code/Github/DawnBGC/Libraries/FWLIB/src\gd32f4xx_timer.c ****         break;
 159              		.loc 1 31 9
 160 011a 4FF40060 		mov	r0, #2048
 161 011e FFF7FEFF 		bl	rcu_periph_reset_disable
  32:C:/Users/leonardo/Desktop/Code/Github/DawnBGC/Libraries/FWLIB/src\gd32f4xx_timer.c ****     case TIMER2:
 162              		.loc 1 32 9
 163 0122 6CE0     		b	.L17
 164              	.L16:
  35:C:/Users/leonardo/Desktop/Code/Github/DawnBGC/Libraries/FWLIB/src\gd32f4xx_timer.c ****         rcu_periph_reset_disable(RCU_TIMER2RST);
 165              		.loc 1 35 9
 166 0124 40F60100 		movw	r0, #2049
 167 0128 FFF7FEFF 		bl	rcu_periph_reset_enable
  36:C:/Users/leonardo/Desktop/Code/Github/DawnBGC/Libraries/FWLIB/src\gd32f4xx_timer.c ****         break;
 168              		.loc 1 36 9
 169 012c 40F60100 		movw	r0, #2049
 170 0130 FFF7FEFF 		bl	rcu_periph_reset_disable
  37:C:/Users/leonardo/Desktop/Code/Github/DawnBGC/Libraries/FWLIB/src\gd32f4xx_timer.c ****     case TIMER3:
 171              		.loc 1 37 9
 172 0134 63E0     		b	.L17
 173              	.L14:
  40:C:/Users/leonardo/Desktop/Code/Github/DawnBGC/Libraries/FWLIB/src\gd32f4xx_timer.c ****         rcu_periph_reset_disable(RCU_TIMER3RST);
 174              		.loc 1 40 9
 175 0136 40F60200 		movw	r0, #2050
 176 013a FFF7FEFF 		bl	rcu_periph_reset_enable
  41:C:/Users/leonardo/Desktop/Code/Github/DawnBGC/Libraries/FWLIB/src\gd32f4xx_timer.c ****         break;
 177              		.loc 1 41 9
 178 013e 40F60200 		movw	r0, #2050
 179 0142 FFF7FEFF 		bl	rcu_periph_reset_disable
  42:C:/Users/leonardo/Desktop/Code/Github/DawnBGC/Libraries/FWLIB/src\gd32f4xx_timer.c ****     case TIMER4:
 180              		.loc 1 42 9
 181 0146 5AE0     		b	.L17
 182              	.L13:
  45:C:/Users/leonardo/Desktop/Code/Github/DawnBGC/Libraries/FWLIB/src\gd32f4xx_timer.c ****         rcu_periph_reset_disable(RCU_TIMER4RST);
 183              		.loc 1 45 9
 184 0148 40F60300 		movw	r0, #2051
 185 014c FFF7FEFF 		bl	rcu_periph_reset_enable
  46:C:/Users/leonardo/Desktop/Code/Github/DawnBGC/Libraries/FWLIB/src\gd32f4xx_timer.c ****         break;
 186              		.loc 1 46 9
 187 0150 40F60300 		movw	r0, #2051
 188 0154 FFF7FEFF 		bl	rcu_periph_reset_disable
  47:C:/Users/leonardo/Desktop/Code/Github/DawnBGC/Libraries/FWLIB/src\gd32f4xx_timer.c ****     case TIMER5:
 189              		.loc 1 47 9
 190 0158 51E0     		b	.L17
 191              	.L12:
  50:C:/Users/leonardo/Desktop/Code/Github/DawnBGC/Libraries/FWLIB/src\gd32f4xx_timer.c ****         rcu_periph_reset_disable(RCU_TIMER5RST);
 192              		.loc 1 50 9
 193 015a 40F60400 		movw	r0, #2052
 194 015e FFF7FEFF 		bl	rcu_periph_reset_enable
  51:C:/Users/leonardo/Desktop/Code/Github/DawnBGC/Libraries/FWLIB/src\gd32f4xx_timer.c ****         break;
 195              		.loc 1 51 9
 196 0162 40F60400 		movw	r0, #2052
 197 0166 FFF7FEFF 		bl	rcu_periph_reset_disable
  52:C:/Users/leonardo/Desktop/Code/Github/DawnBGC/Libraries/FWLIB/src\gd32f4xx_timer.c ****     case TIMER6:
 198              		.loc 1 52 9
 199 016a 48E0     		b	.L17
 200              	.L11:
  55:C:/Users/leonardo/Desktop/Code/Github/DawnBGC/Libraries/FWLIB/src\gd32f4xx_timer.c ****         rcu_periph_reset_disable(RCU_TIMER6RST);
 201              		.loc 1 55 9
 202 016c 40F60500 		movw	r0, #2053
 203 0170 FFF7FEFF 		bl	rcu_periph_reset_enable
  56:C:/Users/leonardo/Desktop/Code/Github/DawnBGC/Libraries/FWLIB/src\gd32f4xx_timer.c ****         break;
 204              		.loc 1 56 9
 205 0174 40F60500 		movw	r0, #2053
 206 0178 FFF7FEFF 		bl	rcu_periph_reset_disable
  57:C:/Users/leonardo/Desktop/Code/Github/DawnBGC/Libraries/FWLIB/src\gd32f4xx_timer.c ****     case TIMER7:
 207              		.loc 1 57 9
 208 017c 3FE0     		b	.L17
 209              	.L6:
  60:C:/Users/leonardo/Desktop/Code/Github/DawnBGC/Libraries/FWLIB/src\gd32f4xx_timer.c ****         rcu_periph_reset_disable(RCU_TIMER7RST);
 210              		.loc 1 60 9
 211 017e 40F60110 		movw	r0, #2305
 212 0182 FFF7FEFF 		bl	rcu_periph_reset_enable
  61:C:/Users/leonardo/Desktop/Code/Github/DawnBGC/Libraries/FWLIB/src\gd32f4xx_timer.c ****         break;
 213              		.loc 1 61 9
 214 0186 40F60110 		movw	r0, #2305
 215 018a FFF7FEFF 		bl	rcu_periph_reset_disable
  62:C:/Users/leonardo/Desktop/Code/Github/DawnBGC/Libraries/FWLIB/src\gd32f4xx_timer.c ****     case TIMER8:
 216              		.loc 1 62 9
 217 018e 36E0     		b	.L17
 218              	.L5:
  65:C:/Users/leonardo/Desktop/Code/Github/DawnBGC/Libraries/FWLIB/src\gd32f4xx_timer.c ****         rcu_periph_reset_disable(RCU_TIMER8RST);
 219              		.loc 1 65 9
 220 0190 4FF41160 		mov	r0, #2320
 221 0194 FFF7FEFF 		bl	rcu_periph_reset_enable
  66:C:/Users/leonardo/Desktop/Code/Github/DawnBGC/Libraries/FWLIB/src\gd32f4xx_timer.c ****         break;
 222              		.loc 1 66 9
 223 0198 4FF41160 		mov	r0, #2320
 224 019c FFF7FEFF 		bl	rcu_periph_reset_disable
  67:C:/Users/leonardo/Desktop/Code/Github/DawnBGC/Libraries/FWLIB/src\gd32f4xx_timer.c ****     case TIMER9:
 225              		.loc 1 67 9
 226 01a0 2DE0     		b	.L17
 227              	.L4:
  70:C:/Users/leonardo/Desktop/Code/Github/DawnBGC/Libraries/FWLIB/src\gd32f4xx_timer.c ****         rcu_periph_reset_disable(RCU_TIMER9RST);
 228              		.loc 1 70 9
 229 01a2 40F61110 		movw	r0, #2321
 230 01a6 FFF7FEFF 		bl	rcu_periph_reset_enable
  71:C:/Users/leonardo/Desktop/Code/Github/DawnBGC/Libraries/FWLIB/src\gd32f4xx_timer.c ****         break;
 231              		.loc 1 71 9
 232 01aa 40F61110 		movw	r0, #2321
 233 01ae FFF7FEFF 		bl	rcu_periph_reset_disable
  72:C:/Users/leonardo/Desktop/Code/Github/DawnBGC/Libraries/FWLIB/src\gd32f4xx_timer.c ****     case TIMER10:
 234              		.loc 1 72 9
 235 01b2 24E0     		b	.L17
 236              	.L2:
  75:C:/Users/leonardo/Desktop/Code/Github/DawnBGC/Libraries/FWLIB/src\gd32f4xx_timer.c ****         rcu_periph_reset_disable(RCU_TIMER10RST);
 237              		.loc 1 75 9
 238 01b4 40F61210 		movw	r0, #2322
 239 01b8 FFF7FEFF 		bl	rcu_periph_reset_enable
  76:C:/Users/leonardo/Desktop/Code/Github/DawnBGC/Libraries/FWLIB/src\gd32f4xx_timer.c ****         break;
 240              		.loc 1 76 9
 241 01bc 40F61210 		movw	r0, #2322
 242 01c0 FFF7FEFF 		bl	rcu_periph_reset_disable
  77:C:/Users/leonardo/Desktop/Code/Github/DawnBGC/Libraries/FWLIB/src\gd32f4xx_timer.c ****     case TIMER11:
 243              		.loc 1 77 9
 244 01c4 1BE0     		b	.L17
 245              	.L10:
  80:C:/Users/leonardo/Desktop/Code/Github/DawnBGC/Libraries/FWLIB/src\gd32f4xx_timer.c ****         rcu_periph_reset_disable(RCU_TIMER11RST);
 246              		.loc 1 80 9
 247 01c6 40F60600 		movw	r0, #2054
 248 01ca FFF7FEFF 		bl	rcu_periph_reset_enable
  81:C:/Users/leonardo/Desktop/Code/Github/DawnBGC/Libraries/FWLIB/src\gd32f4xx_timer.c ****         break;
 249              		.loc 1 81 9
 250 01ce 40F60600 		movw	r0, #2054
 251 01d2 FFF7FEFF 		bl	rcu_periph_reset_disable
  82:C:/Users/leonardo/Desktop/Code/Github/DawnBGC/Libraries/FWLIB/src\gd32f4xx_timer.c ****     case TIMER12:
 252              		.loc 1 82 9
 253 01d6 12E0     		b	.L17
 254              	.L9:
  85:C:/Users/leonardo/Desktop/Code/Github/DawnBGC/Libraries/FWLIB/src\gd32f4xx_timer.c ****         rcu_periph_reset_disable(RCU_TIMER12RST);
 255              		.loc 1 85 9
 256 01d8 40F60700 		movw	r0, #2055
 257 01dc FFF7FEFF 		bl	rcu_periph_reset_enable
  86:C:/Users/leonardo/Desktop/Code/Github/DawnBGC/Libraries/FWLIB/src\gd32f4xx_timer.c ****         break;
 258              		.loc 1 86 9
 259 01e0 40F60700 		movw	r0, #2055
 260 01e4 FFF7FEFF 		bl	rcu_periph_reset_disable
  87:C:/Users/leonardo/Desktop/Code/Github/DawnBGC/Libraries/FWLIB/src\gd32f4xx_timer.c ****     case TIMER13:
 261              		.loc 1 87 9
 262 01e8 09E0     		b	.L17
 263              	.L8:
  90:C:/Users/leonardo/Desktop/Code/Github/DawnBGC/Libraries/FWLIB/src\gd32f4xx_timer.c ****         rcu_periph_reset_disable(RCU_TIMER13RST);
 264              		.loc 1 90 9
 265 01ea 40F60800 		movw	r0, #2056
 266 01ee FFF7FEFF 		bl	rcu_periph_reset_enable
  91:C:/Users/leonardo/Desktop/Code/Github/DawnBGC/Libraries/FWLIB/src\gd32f4xx_timer.c ****         break;
 267              		.loc 1 91 9
 268 01f2 40F60800 		movw	r0, #2056
 269 01f6 FFF7FEFF 		bl	rcu_periph_reset_disable
  92:C:/Users/leonardo/Desktop/Code/Github/DawnBGC/Libraries/FWLIB/src\gd32f4xx_timer.c ****     default:
 270              		.loc 1 92 9
 271 01fa 00E0     		b	.L17
 272              	.L18:
 273              		.loc 1 94 9
 274 01fc 00BF     		nop
 275              	.L17:
  95:C:/Users/leonardo/Desktop/Code/Github/DawnBGC/Libraries/FWLIB/src\gd32f4xx_timer.c ****     }
  96:C:/Users/leonardo/Desktop/Code/Github/DawnBGC/Libraries/FWLIB/src\gd32f4xx_timer.c **** }
 276              		.loc 1 96 1
 277 01fe 00BF     		nop
 278 0200 0837     		adds	r7, r7, #8
 279              		.cfi_def_cfa_offset 8
 280 0202 BD46     		mov	sp, r7
 281              		.cfi_def_cfa_register 13
 282              		@ sp needed
 283 0204 80BD     		pop	{r7, pc}
 284              	.L20:
 285 0206 00BF     		.align	2
 286              	.L19:
 287 0208 00480140 		.word	1073825792
 288 020c 00440140 		.word	1073824768
 289 0210 00400140 		.word	1073823744
 290 0214 00040140 		.word	1073808384
 291 0218 00000140 		.word	1073807360
 292 021c 00200040 		.word	1073750016
 293 0220 001C0040 		.word	1073748992
 294 0224 00180040 		.word	1073747968
 295 0228 00140040 		.word	1073746944
 296 022c 00100040 		.word	1073745920
 297 0230 000C0040 		.word	1073744896
 298 0234 00080040 		.word	1073743872
 299 0238 00040040 		.word	1073742848
 300              		.cfi_endproc
 301              	.LFE123:
 303              		.section	.text.timer_init,"ax",%progbits
 304              		.align	1
 305              		.global	timer_init
 306              		.syntax unified
 307              		.thumb
 308              		.thumb_func
 309              		.fpu softvfp
 311              	timer_init:
 312              	.LFB124:
  97:C:/Users/leonardo/Desktop/Code/Github/DawnBGC/Libraries/FWLIB/src\gd32f4xx_timer.c **** 
  98:C:/Users/leonardo/Desktop/Code/Github/DawnBGC/Libraries/FWLIB/src\gd32f4xx_timer.c **** /*!
  99:C:/Users/leonardo/Desktop/Code/Github/DawnBGC/Libraries/FWLIB/src\gd32f4xx_timer.c ****     \brief      initialize TIMER counter
 100:C:/Users/leonardo/Desktop/Code/Github/DawnBGC/Libraries/FWLIB/src\gd32f4xx_timer.c ****     \param[in]  timer_periph: TIMERx(x=0..13)
 101:C:/Users/leonardo/Desktop/Code/Github/DawnBGC/Libraries/FWLIB/src\gd32f4xx_timer.c ****     \param[in]  timer_initpara: init parameter struct
 102:C:/Users/leonardo/Desktop/Code/Github/DawnBGC/Libraries/FWLIB/src\gd32f4xx_timer.c ****                 prescaler: prescaler value of the counter clock,0~65535
 103:C:/Users/leonardo/Desktop/Code/Github/DawnBGC/Libraries/FWLIB/src\gd32f4xx_timer.c ****                 alignedmode: TIMER_COUNTER_EDGE,TIMER_COUNTER_CENTER_DOWN,TIMER_COUNTER_CENTER_UP,T
 104:C:/Users/leonardo/Desktop/Code/Github/DawnBGC/Libraries/FWLIB/src\gd32f4xx_timer.c ****                 counterdirection: TIMER_COUNTER_UP,TIMER_COUNTER_DOWN
 105:C:/Users/leonardo/Desktop/Code/Github/DawnBGC/Libraries/FWLIB/src\gd32f4xx_timer.c ****                 period: counter auto reload value,(TIMER1,TIMER4,32 bit)
 106:C:/Users/leonardo/Desktop/Code/Github/DawnBGC/Libraries/FWLIB/src\gd32f4xx_timer.c ****                 clockdivision: TIMER_CKDIV_DIV1,TIMER_CKDIV_DIV2,TIMER_CKDIV_DIV4
 107:C:/Users/leonardo/Desktop/Code/Github/DawnBGC/Libraries/FWLIB/src\gd32f4xx_timer.c ****                 repetitioncounter: counter repetition value,0~255
 108:C:/Users/leonardo/Desktop/Code/Github/DawnBGC/Libraries/FWLIB/src\gd32f4xx_timer.c ****     \param[out] none
 109:C:/Users/leonardo/Desktop/Code/Github/DawnBGC/Libraries/FWLIB/src\gd32f4xx_timer.c ****     \retval     none
 110:C:/Users/leonardo/Desktop/Code/Github/DawnBGC/Libraries/FWLIB/src\gd32f4xx_timer.c **** */
 111:C:/Users/leonardo/Desktop/Code/Github/DawnBGC/Libraries/FWLIB/src\gd32f4xx_timer.c **** void timer_init(uint32_t timer_periph, timer_parameter_struct* timer_initpara)
 112:C:/Users/leonardo/Desktop/Code/Github/DawnBGC/Libraries/FWLIB/src\gd32f4xx_timer.c **** {
 313              		.loc 1 112 1
 314              		.cfi_startproc
 315              		@ args = 0, pretend = 0, frame = 8
 316              		@ frame_needed = 1, uses_anonymous_args = 0
 317              		@ link register save eliminated.
 318 0000 80B4     		push	{r7}
 319              		.cfi_def_cfa_offset 4
 320              		.cfi_offset 7, -4
 321 0002 83B0     		sub	sp, sp, #12
 322              		.cfi_def_cfa_offset 16
 323 0004 00AF     		add	r7, sp, #0
 324              		.cfi_def_cfa_register 7
 325 0006 7860     		str	r0, [r7, #4]
 326 0008 3960     		str	r1, [r7]
 113:C:/Users/leonardo/Desktop/Code/Github/DawnBGC/Libraries/FWLIB/src\gd32f4xx_timer.c ****     /* configure the counter prescaler value */
 114:C:/Users/leonardo/Desktop/Code/Github/DawnBGC/Libraries/FWLIB/src\gd32f4xx_timer.c ****     TIMER_PSC(timer_periph) = (uint16_t)timer_initpara->prescaler;
 327              		.loc 1 114 55
 328 000a 3B68     		ldr	r3, [r7]
 329 000c 1A88     		ldrh	r2, [r3]
 330              		.loc 1 114 5
 331 000e 7B68     		ldr	r3, [r7, #4]
 332 0010 2833     		adds	r3, r3, #40
 333              		.loc 1 114 29
 334 0012 1A60     		str	r2, [r3]
 115:C:/Users/leonardo/Desktop/Code/Github/DawnBGC/Libraries/FWLIB/src\gd32f4xx_timer.c **** 
 116:C:/Users/leonardo/Desktop/Code/Github/DawnBGC/Libraries/FWLIB/src\gd32f4xx_timer.c ****     /* configure the counter direction and aligned mode */
 117:C:/Users/leonardo/Desktop/Code/Github/DawnBGC/Libraries/FWLIB/src\gd32f4xx_timer.c ****     if((TIMER0 == timer_periph) || (TIMER1 == timer_periph) || (TIMER2 == timer_periph)
 335              		.loc 1 117 7
 336 0014 7B68     		ldr	r3, [r7, #4]
 337 0016 314A     		ldr	r2, .L27
 338 0018 9342     		cmp	r3, r2
 339 001a 13D0     		beq	.L22
 340              		.loc 1 117 33 discriminator 1
 341 001c 7B68     		ldr	r3, [r7, #4]
 342 001e B3F1804F 		cmp	r3, #1073741824
 343 0022 0FD0     		beq	.L22
 344              		.loc 1 117 61 discriminator 2
 345 0024 7B68     		ldr	r3, [r7, #4]
 346 0026 2E4A     		ldr	r2, .L27+4
 347 0028 9342     		cmp	r3, r2
 348 002a 0BD0     		beq	.L22
 118:C:/Users/leonardo/Desktop/Code/Github/DawnBGC/Libraries/FWLIB/src\gd32f4xx_timer.c ****         || (TIMER3 == timer_periph) || (TIMER4 == timer_periph) || (TIMER7 == timer_periph)){
 349              		.loc 1 118 9
 350 002c 7B68     		ldr	r3, [r7, #4]
 351 002e 2D4A     		ldr	r2, .L27+8
 352 0030 9342     		cmp	r3, r2
 353 0032 07D0     		beq	.L22
 354              		.loc 1 118 37 discriminator 1
 355 0034 7B68     		ldr	r3, [r7, #4]
 356 0036 2C4A     		ldr	r2, .L27+12
 357 0038 9342     		cmp	r3, r2
 358 003a 03D0     		beq	.L22
 359              		.loc 1 118 65 discriminator 2
 360 003c 7B68     		ldr	r3, [r7, #4]
 361 003e 2B4A     		ldr	r2, .L27+16
 362 0040 9342     		cmp	r3, r2
 363 0042 15D1     		bne	.L23
 364              	.L22:
 119:C:/Users/leonardo/Desktop/Code/Github/DawnBGC/Libraries/FWLIB/src\gd32f4xx_timer.c ****         TIMER_CTL0(timer_periph) &= ~(uint32_t)(TIMER_CTL0_DIR|TIMER_CTL0_CAM);
 365              		.loc 1 119 34
 366 0044 7B68     		ldr	r3, [r7, #4]
 367 0046 1A68     		ldr	r2, [r3]
 368 0048 7B68     		ldr	r3, [r7, #4]
 369 004a 22F07002 		bic	r2, r2, #112
 370 004e 1A60     		str	r2, [r3]
 120:C:/Users/leonardo/Desktop/Code/Github/DawnBGC/Libraries/FWLIB/src\gd32f4xx_timer.c ****         TIMER_CTL0(timer_periph) |= (uint32_t)timer_initpara->alignedmode;
 371              		.loc 1 120 34
 372 0050 7B68     		ldr	r3, [r7, #4]
 373 0052 1A68     		ldr	r2, [r3]
 374              		.loc 1 120 61
 375 0054 3B68     		ldr	r3, [r7]
 376 0056 5B88     		ldrh	r3, [r3, #2]
 377              		.loc 1 120 37
 378 0058 1946     		mov	r1, r3
 379              		.loc 1 120 34
 380 005a 7B68     		ldr	r3, [r7, #4]
 381 005c 0A43     		orrs	r2, r2, r1
 382 005e 1A60     		str	r2, [r3]
 121:C:/Users/leonardo/Desktop/Code/Github/DawnBGC/Libraries/FWLIB/src\gd32f4xx_timer.c ****         TIMER_CTL0(timer_periph) |= (uint32_t)timer_initpara->counterdirection;
 383              		.loc 1 121 34
 384 0060 7B68     		ldr	r3, [r7, #4]
 385 0062 1A68     		ldr	r2, [r3]
 386              		.loc 1 121 61
 387 0064 3B68     		ldr	r3, [r7]
 388 0066 9B88     		ldrh	r3, [r3, #4]
 389              		.loc 1 121 37
 390 0068 1946     		mov	r1, r3
 391              		.loc 1 121 34
 392 006a 7B68     		ldr	r3, [r7, #4]
 393 006c 0A43     		orrs	r2, r2, r1
 394 006e 1A60     		str	r2, [r3]
 395              	.L23:
 122:C:/Users/leonardo/Desktop/Code/Github/DawnBGC/Libraries/FWLIB/src\gd32f4xx_timer.c ****     }
 123:C:/Users/leonardo/Desktop/Code/Github/DawnBGC/Libraries/FWLIB/src\gd32f4xx_timer.c **** 
 124:C:/Users/leonardo/Desktop/Code/Github/DawnBGC/Libraries/FWLIB/src\gd32f4xx_timer.c ****     /* configure the autoreload value */
 125:C:/Users/leonardo/Desktop/Code/Github/DawnBGC/Libraries/FWLIB/src\gd32f4xx_timer.c ****     TIMER_CAR(timer_periph) = (uint32_t)timer_initpara->period;
 396              		.loc 1 125 5
 397 0070 7B68     		ldr	r3, [r7, #4]
 398 0072 2C33     		adds	r3, r3, #44
 399 0074 1A46     		mov	r2, r3
 400              		.loc 1 125 55
 401 0076 3B68     		ldr	r3, [r7]
 402 0078 9B68     		ldr	r3, [r3, #8]
 403              		.loc 1 125 29
 404 007a 1360     		str	r3, [r2]
 126:C:/Users/leonardo/Desktop/Code/Github/DawnBGC/Libraries/FWLIB/src\gd32f4xx_timer.c **** 
 127:C:/Users/leonardo/Desktop/Code/Github/DawnBGC/Libraries/FWLIB/src\gd32f4xx_timer.c ****     if((TIMER5 != timer_periph) && (TIMER6 != timer_periph)){
 405              		.loc 1 127 7
 406 007c 7B68     		ldr	r3, [r7, #4]
 407 007e 1C4A     		ldr	r2, .L27+20
 408 0080 9342     		cmp	r3, r2
 409 0082 11D0     		beq	.L24
 410              		.loc 1 127 33 discriminator 1
 411 0084 7B68     		ldr	r3, [r7, #4]
 412 0086 1B4A     		ldr	r2, .L27+24
 413 0088 9342     		cmp	r3, r2
 414 008a 0DD0     		beq	.L24
 128:C:/Users/leonardo/Desktop/Code/Github/DawnBGC/Libraries/FWLIB/src\gd32f4xx_timer.c ****         /* reset the CKDIV bit */
 129:C:/Users/leonardo/Desktop/Code/Github/DawnBGC/Libraries/FWLIB/src\gd32f4xx_timer.c ****         TIMER_CTL0(timer_periph) &= ~(uint32_t)TIMER_CTL0_CKDIV;
 415              		.loc 1 129 34
 416 008c 7B68     		ldr	r3, [r7, #4]
 417 008e 1A68     		ldr	r2, [r3]
 418 0090 7B68     		ldr	r3, [r7, #4]
 419 0092 22F44072 		bic	r2, r2, #768
 420 0096 1A60     		str	r2, [r3]
 130:C:/Users/leonardo/Desktop/Code/Github/DawnBGC/Libraries/FWLIB/src\gd32f4xx_timer.c ****         TIMER_CTL0(timer_periph) |= (uint32_t)timer_initpara->clockdivision;
 421              		.loc 1 130 34
 422 0098 7B68     		ldr	r3, [r7, #4]
 423 009a 1A68     		ldr	r2, [r3]
 424              		.loc 1 130 61
 425 009c 3B68     		ldr	r3, [r7]
 426 009e 9B89     		ldrh	r3, [r3, #12]
 427              		.loc 1 130 37
 428 00a0 1946     		mov	r1, r3
 429              		.loc 1 130 34
 430 00a2 7B68     		ldr	r3, [r7, #4]
 431 00a4 0A43     		orrs	r2, r2, r1
 432 00a6 1A60     		str	r2, [r3]
 433              	.L24:
 131:C:/Users/leonardo/Desktop/Code/Github/DawnBGC/Libraries/FWLIB/src\gd32f4xx_timer.c ****     }
 132:C:/Users/leonardo/Desktop/Code/Github/DawnBGC/Libraries/FWLIB/src\gd32f4xx_timer.c **** 
 133:C:/Users/leonardo/Desktop/Code/Github/DawnBGC/Libraries/FWLIB/src\gd32f4xx_timer.c ****     if((TIMER0 == timer_periph) || (TIMER7 == timer_periph)){
 434              		.loc 1 133 7
 435 00a8 7B68     		ldr	r3, [r7, #4]
 436 00aa 0C4A     		ldr	r2, .L27
 437 00ac 9342     		cmp	r3, r2
 438 00ae 03D0     		beq	.L25
 439              		.loc 1 133 33 discriminator 1
 440 00b0 7B68     		ldr	r3, [r7, #4]
 441 00b2 0E4A     		ldr	r2, .L27+16
 442 00b4 9342     		cmp	r3, r2
 443 00b6 04D1     		bne	.L26
 444              	.L25:
 134:C:/Users/leonardo/Desktop/Code/Github/DawnBGC/Libraries/FWLIB/src\gd32f4xx_timer.c ****         /* configure the repetition counter value */
 135:C:/Users/leonardo/Desktop/Code/Github/DawnBGC/Libraries/FWLIB/src\gd32f4xx_timer.c ****         TIMER_CREP(timer_periph) = (uint32_t)timer_initpara->repetitioncounter;
 445              		.loc 1 135 60
 446 00b8 3B68     		ldr	r3, [r7]
 447 00ba 9A7B     		ldrb	r2, [r3, #14]	@ zero_extendqisi2
 448              		.loc 1 135 9
 449 00bc 7B68     		ldr	r3, [r7, #4]
 450 00be 3033     		adds	r3, r3, #48
 451              		.loc 1 135 34
 452 00c0 1A60     		str	r2, [r3]
 453              	.L26:
 136:C:/Users/leonardo/Desktop/Code/Github/DawnBGC/Libraries/FWLIB/src\gd32f4xx_timer.c ****     }
 137:C:/Users/leonardo/Desktop/Code/Github/DawnBGC/Libraries/FWLIB/src\gd32f4xx_timer.c **** 
 138:C:/Users/leonardo/Desktop/Code/Github/DawnBGC/Libraries/FWLIB/src\gd32f4xx_timer.c ****     /* generate an update event */
 139:C:/Users/leonardo/Desktop/Code/Github/DawnBGC/Libraries/FWLIB/src\gd32f4xx_timer.c ****     TIMER_SWEVG(timer_periph) |= (uint32_t)TIMER_SWEVG_UPG;
 454              		.loc 1 139 31
 455 00c2 7B68     		ldr	r3, [r7, #4]
 456 00c4 1433     		adds	r3, r3, #20
 457 00c6 1B68     		ldr	r3, [r3]
 458 00c8 7A68     		ldr	r2, [r7, #4]
 459 00ca 1432     		adds	r2, r2, #20
 460 00cc 43F00103 		orr	r3, r3, #1
 461 00d0 1360     		str	r3, [r2]
 140:C:/Users/leonardo/Desktop/Code/Github/DawnBGC/Libraries/FWLIB/src\gd32f4xx_timer.c **** }
 462              		.loc 1 140 1
 463 00d2 00BF     		nop
 464 00d4 0C37     		adds	r7, r7, #12
 465              		.cfi_def_cfa_offset 4
 466 00d6 BD46     		mov	sp, r7
 467              		.cfi_def_cfa_register 13
 468              		@ sp needed
 469 00d8 80BC     		pop	{r7}
 470              		.cfi_restore 7
 471              		.cfi_def_cfa_offset 0
 472 00da 7047     		bx	lr
 473              	.L28:
 474              		.align	2
 475              	.L27:
 476 00dc 00000140 		.word	1073807360
 477 00e0 00040040 		.word	1073742848
 478 00e4 00080040 		.word	1073743872
 479 00e8 000C0040 		.word	1073744896
 480 00ec 00040140 		.word	1073808384
 481 00f0 00100040 		.word	1073745920
 482 00f4 00140040 		.word	1073746944
 483              		.cfi_endproc
 484              	.LFE124:
 486              		.section	.text.timer_enable,"ax",%progbits
 487              		.align	1
 488              		.global	timer_enable
 489              		.syntax unified
 490              		.thumb
 491              		.thumb_func
 492              		.fpu softvfp
 494              	timer_enable:
 495              	.LFB125:
 141:C:/Users/leonardo/Desktop/Code/Github/DawnBGC/Libraries/FWLIB/src\gd32f4xx_timer.c **** 
 142:C:/Users/leonardo/Desktop/Code/Github/DawnBGC/Libraries/FWLIB/src\gd32f4xx_timer.c **** /*!
 143:C:/Users/leonardo/Desktop/Code/Github/DawnBGC/Libraries/FWLIB/src\gd32f4xx_timer.c ****     \brief      enable a TIMER
 144:C:/Users/leonardo/Desktop/Code/Github/DawnBGC/Libraries/FWLIB/src\gd32f4xx_timer.c ****     \param[in]  timer_periph: TIMERx(x=0..13)
 145:C:/Users/leonardo/Desktop/Code/Github/DawnBGC/Libraries/FWLIB/src\gd32f4xx_timer.c ****     \param[out] none
 146:C:/Users/leonardo/Desktop/Code/Github/DawnBGC/Libraries/FWLIB/src\gd32f4xx_timer.c ****     \retval     none
 147:C:/Users/leonardo/Desktop/Code/Github/DawnBGC/Libraries/FWLIB/src\gd32f4xx_timer.c **** */
 148:C:/Users/leonardo/Desktop/Code/Github/DawnBGC/Libraries/FWLIB/src\gd32f4xx_timer.c **** void timer_enable(uint32_t timer_periph)
 149:C:/Users/leonardo/Desktop/Code/Github/DawnBGC/Libraries/FWLIB/src\gd32f4xx_timer.c **** {
 496              		.loc 1 149 1
 497              		.cfi_startproc
 498              		@ args = 0, pretend = 0, frame = 8
 499              		@ frame_needed = 1, uses_anonymous_args = 0
 500              		@ link register save eliminated.
 501 0000 80B4     		push	{r7}
 502              		.cfi_def_cfa_offset 4
 503              		.cfi_offset 7, -4
 504 0002 83B0     		sub	sp, sp, #12
 505              		.cfi_def_cfa_offset 16
 506 0004 00AF     		add	r7, sp, #0
 507              		.cfi_def_cfa_register 7
 508 0006 7860     		str	r0, [r7, #4]
 150:C:/Users/leonardo/Desktop/Code/Github/DawnBGC/Libraries/FWLIB/src\gd32f4xx_timer.c ****     TIMER_CTL0(timer_periph) |= (uint32_t)TIMER_CTL0_CEN;
 509              		.loc 1 150 30
 510 0008 7B68     		ldr	r3, [r7, #4]
 511 000a 1A68     		ldr	r2, [r3]
 512 000c 7B68     		ldr	r3, [r7, #4]
 513 000e 42F00102 		orr	r2, r2, #1
 514 0012 1A60     		str	r2, [r3]
 151:C:/Users/leonardo/Desktop/Code/Github/DawnBGC/Libraries/FWLIB/src\gd32f4xx_timer.c **** }
 515              		.loc 1 151 1
 516 0014 00BF     		nop
 517 0016 0C37     		adds	r7, r7, #12
 518              		.cfi_def_cfa_offset 4
 519 0018 BD46     		mov	sp, r7
 520              		.cfi_def_cfa_register 13
 521              		@ sp needed
 522 001a 80BC     		pop	{r7}
 523              		.cfi_restore 7
 524              		.cfi_def_cfa_offset 0
 525 001c 7047     		bx	lr
 526              		.cfi_endproc
 527              	.LFE125:
 529              		.section	.text.timer_disable,"ax",%progbits
 530              		.align	1
 531              		.global	timer_disable
 532              		.syntax unified
 533              		.thumb
 534              		.thumb_func
 535              		.fpu softvfp
 537              	timer_disable:
 538              	.LFB126:
 152:C:/Users/leonardo/Desktop/Code/Github/DawnBGC/Libraries/FWLIB/src\gd32f4xx_timer.c **** 
 153:C:/Users/leonardo/Desktop/Code/Github/DawnBGC/Libraries/FWLIB/src\gd32f4xx_timer.c **** /*!
 154:C:/Users/leonardo/Desktop/Code/Github/DawnBGC/Libraries/FWLIB/src\gd32f4xx_timer.c ****     \brief      disable a TIMER
 155:C:/Users/leonardo/Desktop/Code/Github/DawnBGC/Libraries/FWLIB/src\gd32f4xx_timer.c ****     \param[in]  timer_periph: TIMERx(x=0..13)
 156:C:/Users/leonardo/Desktop/Code/Github/DawnBGC/Libraries/FWLIB/src\gd32f4xx_timer.c ****     \param[out] none
 157:C:/Users/leonardo/Desktop/Code/Github/DawnBGC/Libraries/FWLIB/src\gd32f4xx_timer.c ****     \retval     none
 158:C:/Users/leonardo/Desktop/Code/Github/DawnBGC/Libraries/FWLIB/src\gd32f4xx_timer.c **** */
 159:C:/Users/leonardo/Desktop/Code/Github/DawnBGC/Libraries/FWLIB/src\gd32f4xx_timer.c **** void timer_disable(uint32_t timer_periph)
 160:C:/Users/leonardo/Desktop/Code/Github/DawnBGC/Libraries/FWLIB/src\gd32f4xx_timer.c **** {
 539              		.loc 1 160 1
 540              		.cfi_startproc
 541              		@ args = 0, pretend = 0, frame = 8
 542              		@ frame_needed = 1, uses_anonymous_args = 0
 543              		@ link register save eliminated.
 544 0000 80B4     		push	{r7}
 545              		.cfi_def_cfa_offset 4
 546              		.cfi_offset 7, -4
 547 0002 83B0     		sub	sp, sp, #12
 548              		.cfi_def_cfa_offset 16
 549 0004 00AF     		add	r7, sp, #0
 550              		.cfi_def_cfa_register 7
 551 0006 7860     		str	r0, [r7, #4]
 161:C:/Users/leonardo/Desktop/Code/Github/DawnBGC/Libraries/FWLIB/src\gd32f4xx_timer.c ****     TIMER_CTL0(timer_periph) &= ~(uint32_t)TIMER_CTL0_CEN;
 552              		.loc 1 161 30
 553 0008 7B68     		ldr	r3, [r7, #4]
 554 000a 1A68     		ldr	r2, [r3]
 555 000c 7B68     		ldr	r3, [r7, #4]
 556 000e 22F00102 		bic	r2, r2, #1
 557 0012 1A60     		str	r2, [r3]
 162:C:/Users/leonardo/Desktop/Code/Github/DawnBGC/Libraries/FWLIB/src\gd32f4xx_timer.c **** }
 558              		.loc 1 162 1
 559 0014 00BF     		nop
 560 0016 0C37     		adds	r7, r7, #12
 561              		.cfi_def_cfa_offset 4
 562 0018 BD46     		mov	sp, r7
 563              		.cfi_def_cfa_register 13
 564              		@ sp needed
 565 001a 80BC     		pop	{r7}
 566              		.cfi_restore 7
 567              		.cfi_def_cfa_offset 0
 568 001c 7047     		bx	lr
 569              		.cfi_endproc
 570              	.LFE126:
 572              		.section	.text.timer_auto_reload_shadow_enable,"ax",%progbits
 573              		.align	1
 574              		.global	timer_auto_reload_shadow_enable
 575              		.syntax unified
 576              		.thumb
 577              		.thumb_func
 578              		.fpu softvfp
 580              	timer_auto_reload_shadow_enable:
 581              	.LFB127:
 163:C:/Users/leonardo/Desktop/Code/Github/DawnBGC/Libraries/FWLIB/src\gd32f4xx_timer.c **** 
 164:C:/Users/leonardo/Desktop/Code/Github/DawnBGC/Libraries/FWLIB/src\gd32f4xx_timer.c **** /*!
 165:C:/Users/leonardo/Desktop/Code/Github/DawnBGC/Libraries/FWLIB/src\gd32f4xx_timer.c ****     \brief      enable the auto reload shadow function
 166:C:/Users/leonardo/Desktop/Code/Github/DawnBGC/Libraries/FWLIB/src\gd32f4xx_timer.c ****     \param[in]  timer_periph: TIMERx(x=0..13)
 167:C:/Users/leonardo/Desktop/Code/Github/DawnBGC/Libraries/FWLIB/src\gd32f4xx_timer.c ****     \param[out] none
 168:C:/Users/leonardo/Desktop/Code/Github/DawnBGC/Libraries/FWLIB/src\gd32f4xx_timer.c ****     \retval     none
 169:C:/Users/leonardo/Desktop/Code/Github/DawnBGC/Libraries/FWLIB/src\gd32f4xx_timer.c **** */
 170:C:/Users/leonardo/Desktop/Code/Github/DawnBGC/Libraries/FWLIB/src\gd32f4xx_timer.c **** void timer_auto_reload_shadow_enable(uint32_t timer_periph)
 171:C:/Users/leonardo/Desktop/Code/Github/DawnBGC/Libraries/FWLIB/src\gd32f4xx_timer.c **** {
 582              		.loc 1 171 1
 583              		.cfi_startproc
 584              		@ args = 0, pretend = 0, frame = 8
 585              		@ frame_needed = 1, uses_anonymous_args = 0
 586              		@ link register save eliminated.
 587 0000 80B4     		push	{r7}
 588              		.cfi_def_cfa_offset 4
 589              		.cfi_offset 7, -4
 590 0002 83B0     		sub	sp, sp, #12
 591              		.cfi_def_cfa_offset 16
 592 0004 00AF     		add	r7, sp, #0
 593              		.cfi_def_cfa_register 7
 594 0006 7860     		str	r0, [r7, #4]
 172:C:/Users/leonardo/Desktop/Code/Github/DawnBGC/Libraries/FWLIB/src\gd32f4xx_timer.c ****     TIMER_CTL0(timer_periph) |= (uint32_t)TIMER_CTL0_ARSE;
 595              		.loc 1 172 30
 596 0008 7B68     		ldr	r3, [r7, #4]
 597 000a 1A68     		ldr	r2, [r3]
 598 000c 7B68     		ldr	r3, [r7, #4]
 599 000e 42F08002 		orr	r2, r2, #128
 600 0012 1A60     		str	r2, [r3]
 173:C:/Users/leonardo/Desktop/Code/Github/DawnBGC/Libraries/FWLIB/src\gd32f4xx_timer.c **** }
 601              		.loc 1 173 1
 602 0014 00BF     		nop
 603 0016 0C37     		adds	r7, r7, #12
 604              		.cfi_def_cfa_offset 4
 605 0018 BD46     		mov	sp, r7
 606              		.cfi_def_cfa_register 13
 607              		@ sp needed
 608 001a 80BC     		pop	{r7}
 609              		.cfi_restore 7
 610              		.cfi_def_cfa_offset 0
 611 001c 7047     		bx	lr
 612              		.cfi_endproc
 613              	.LFE127:
 615              		.section	.text.timer_auto_reload_shadow_disable,"ax",%progbits
 616              		.align	1
 617              		.global	timer_auto_reload_shadow_disable
 618              		.syntax unified
 619              		.thumb
 620              		.thumb_func
 621              		.fpu softvfp
 623              	timer_auto_reload_shadow_disable:
 624              	.LFB128:
 174:C:/Users/leonardo/Desktop/Code/Github/DawnBGC/Libraries/FWLIB/src\gd32f4xx_timer.c **** 
 175:C:/Users/leonardo/Desktop/Code/Github/DawnBGC/Libraries/FWLIB/src\gd32f4xx_timer.c **** /*!
 176:C:/Users/leonardo/Desktop/Code/Github/DawnBGC/Libraries/FWLIB/src\gd32f4xx_timer.c ****     \brief      disable the auto reload shadow function
 177:C:/Users/leonardo/Desktop/Code/Github/DawnBGC/Libraries/FWLIB/src\gd32f4xx_timer.c ****     \param[in]  timer_periph: TIMERx(x=0..13)
 178:C:/Users/leonardo/Desktop/Code/Github/DawnBGC/Libraries/FWLIB/src\gd32f4xx_timer.c ****     \param[out] none
 179:C:/Users/leonardo/Desktop/Code/Github/DawnBGC/Libraries/FWLIB/src\gd32f4xx_timer.c ****     \retval     none
 180:C:/Users/leonardo/Desktop/Code/Github/DawnBGC/Libraries/FWLIB/src\gd32f4xx_timer.c **** */
 181:C:/Users/leonardo/Desktop/Code/Github/DawnBGC/Libraries/FWLIB/src\gd32f4xx_timer.c **** void timer_auto_reload_shadow_disable(uint32_t timer_periph)
 182:C:/Users/leonardo/Desktop/Code/Github/DawnBGC/Libraries/FWLIB/src\gd32f4xx_timer.c **** {
 625              		.loc 1 182 1
 626              		.cfi_startproc
 627              		@ args = 0, pretend = 0, frame = 8
 628              		@ frame_needed = 1, uses_anonymous_args = 0
 629              		@ link register save eliminated.
 630 0000 80B4     		push	{r7}
 631              		.cfi_def_cfa_offset 4
 632              		.cfi_offset 7, -4
 633 0002 83B0     		sub	sp, sp, #12
 634              		.cfi_def_cfa_offset 16
 635 0004 00AF     		add	r7, sp, #0
 636              		.cfi_def_cfa_register 7
 637 0006 7860     		str	r0, [r7, #4]
 183:C:/Users/leonardo/Desktop/Code/Github/DawnBGC/Libraries/FWLIB/src\gd32f4xx_timer.c ****     TIMER_CTL0(timer_periph) &= ~(uint32_t)TIMER_CTL0_ARSE;
 638              		.loc 1 183 30
 639 0008 7B68     		ldr	r3, [r7, #4]
 640 000a 1A68     		ldr	r2, [r3]
 641 000c 7B68     		ldr	r3, [r7, #4]
 642 000e 22F08002 		bic	r2, r2, #128
 643 0012 1A60     		str	r2, [r3]
 184:C:/Users/leonardo/Desktop/Code/Github/DawnBGC/Libraries/FWLIB/src\gd32f4xx_timer.c **** }
 644              		.loc 1 184 1
 645 0014 00BF     		nop
 646 0016 0C37     		adds	r7, r7, #12
 647              		.cfi_def_cfa_offset 4
 648 0018 BD46     		mov	sp, r7
 649              		.cfi_def_cfa_register 13
 650              		@ sp needed
 651 001a 80BC     		pop	{r7}
 652              		.cfi_restore 7
 653              		.cfi_def_cfa_offset 0
 654 001c 7047     		bx	lr
 655              		.cfi_endproc
 656              	.LFE128:
 658              		.section	.text.timer_update_event_enable,"ax",%progbits
 659              		.align	1
 660              		.global	timer_update_event_enable
 661              		.syntax unified
 662              		.thumb
 663              		.thumb_func
 664              		.fpu softvfp
 666              	timer_update_event_enable:
 667              	.LFB129:
 185:C:/Users/leonardo/Desktop/Code/Github/DawnBGC/Libraries/FWLIB/src\gd32f4xx_timer.c **** 
 186:C:/Users/leonardo/Desktop/Code/Github/DawnBGC/Libraries/FWLIB/src\gd32f4xx_timer.c **** /*!
 187:C:/Users/leonardo/Desktop/Code/Github/DawnBGC/Libraries/FWLIB/src\gd32f4xx_timer.c ****     \brief      enable the update event
 188:C:/Users/leonardo/Desktop/Code/Github/DawnBGC/Libraries/FWLIB/src\gd32f4xx_timer.c ****     \param[in]  timer_periph: TIMERx(x=0..13)
 189:C:/Users/leonardo/Desktop/Code/Github/DawnBGC/Libraries/FWLIB/src\gd32f4xx_timer.c ****     \param[out] none
 190:C:/Users/leonardo/Desktop/Code/Github/DawnBGC/Libraries/FWLIB/src\gd32f4xx_timer.c ****     \retval     none
 191:C:/Users/leonardo/Desktop/Code/Github/DawnBGC/Libraries/FWLIB/src\gd32f4xx_timer.c **** */
 192:C:/Users/leonardo/Desktop/Code/Github/DawnBGC/Libraries/FWLIB/src\gd32f4xx_timer.c **** void timer_update_event_enable(uint32_t timer_periph)
 193:C:/Users/leonardo/Desktop/Code/Github/DawnBGC/Libraries/FWLIB/src\gd32f4xx_timer.c **** {
 668              		.loc 1 193 1
 669              		.cfi_startproc
 670              		@ args = 0, pretend = 0, frame = 8
 671              		@ frame_needed = 1, uses_anonymous_args = 0
 672              		@ link register save eliminated.
 673 0000 80B4     		push	{r7}
 674              		.cfi_def_cfa_offset 4
 675              		.cfi_offset 7, -4
 676 0002 83B0     		sub	sp, sp, #12
 677              		.cfi_def_cfa_offset 16
 678 0004 00AF     		add	r7, sp, #0
 679              		.cfi_def_cfa_register 7
 680 0006 7860     		str	r0, [r7, #4]
 194:C:/Users/leonardo/Desktop/Code/Github/DawnBGC/Libraries/FWLIB/src\gd32f4xx_timer.c ****     TIMER_CTL0(timer_periph) &= ~(uint32_t)TIMER_CTL0_UPDIS;
 681              		.loc 1 194 30
 682 0008 7B68     		ldr	r3, [r7, #4]
 683 000a 1A68     		ldr	r2, [r3]
 684 000c 7B68     		ldr	r3, [r7, #4]
 685 000e 22F00202 		bic	r2, r2, #2
 686 0012 1A60     		str	r2, [r3]
 195:C:/Users/leonardo/Desktop/Code/Github/DawnBGC/Libraries/FWLIB/src\gd32f4xx_timer.c **** }
 687              		.loc 1 195 1
 688 0014 00BF     		nop
 689 0016 0C37     		adds	r7, r7, #12
 690              		.cfi_def_cfa_offset 4
 691 0018 BD46     		mov	sp, r7
 692              		.cfi_def_cfa_register 13
 693              		@ sp needed
 694 001a 80BC     		pop	{r7}
 695              		.cfi_restore 7
 696              		.cfi_def_cfa_offset 0
 697 001c 7047     		bx	lr
 698              		.cfi_endproc
 699              	.LFE129:
 701              		.section	.text.timer_update_event_disable,"ax",%progbits
 702              		.align	1
 703              		.global	timer_update_event_disable
 704              		.syntax unified
 705              		.thumb
 706              		.thumb_func
 707              		.fpu softvfp
 709              	timer_update_event_disable:
 710              	.LFB130:
 196:C:/Users/leonardo/Desktop/Code/Github/DawnBGC/Libraries/FWLIB/src\gd32f4xx_timer.c **** 
 197:C:/Users/leonardo/Desktop/Code/Github/DawnBGC/Libraries/FWLIB/src\gd32f4xx_timer.c **** /*!
 198:C:/Users/leonardo/Desktop/Code/Github/DawnBGC/Libraries/FWLIB/src\gd32f4xx_timer.c ****     \brief      disable the update event
 199:C:/Users/leonardo/Desktop/Code/Github/DawnBGC/Libraries/FWLIB/src\gd32f4xx_timer.c ****     \param[in]  timer_periph: TIMERx(x=0..13)
 200:C:/Users/leonardo/Desktop/Code/Github/DawnBGC/Libraries/FWLIB/src\gd32f4xx_timer.c ****     \param[out] none
 201:C:/Users/leonardo/Desktop/Code/Github/DawnBGC/Libraries/FWLIB/src\gd32f4xx_timer.c ****     \retval     none
 202:C:/Users/leonardo/Desktop/Code/Github/DawnBGC/Libraries/FWLIB/src\gd32f4xx_timer.c **** */
 203:C:/Users/leonardo/Desktop/Code/Github/DawnBGC/Libraries/FWLIB/src\gd32f4xx_timer.c **** void timer_update_event_disable(uint32_t timer_periph)
 204:C:/Users/leonardo/Desktop/Code/Github/DawnBGC/Libraries/FWLIB/src\gd32f4xx_timer.c **** {
 711              		.loc 1 204 1
 712              		.cfi_startproc
 713              		@ args = 0, pretend = 0, frame = 8
 714              		@ frame_needed = 1, uses_anonymous_args = 0
 715              		@ link register save eliminated.
 716 0000 80B4     		push	{r7}
 717              		.cfi_def_cfa_offset 4
 718              		.cfi_offset 7, -4
 719 0002 83B0     		sub	sp, sp, #12
 720              		.cfi_def_cfa_offset 16
 721 0004 00AF     		add	r7, sp, #0
 722              		.cfi_def_cfa_register 7
 723 0006 7860     		str	r0, [r7, #4]
 205:C:/Users/leonardo/Desktop/Code/Github/DawnBGC/Libraries/FWLIB/src\gd32f4xx_timer.c ****     TIMER_CTL0(timer_periph) |= (uint32_t) TIMER_CTL0_UPDIS;
 724              		.loc 1 205 30
 725 0008 7B68     		ldr	r3, [r7, #4]
 726 000a 1A68     		ldr	r2, [r3]
 727 000c 7B68     		ldr	r3, [r7, #4]
 728 000e 42F00202 		orr	r2, r2, #2
 729 0012 1A60     		str	r2, [r3]
 206:C:/Users/leonardo/Desktop/Code/Github/DawnBGC/Libraries/FWLIB/src\gd32f4xx_timer.c **** }
 730              		.loc 1 206 1
 731 0014 00BF     		nop
 732 0016 0C37     		adds	r7, r7, #12
 733              		.cfi_def_cfa_offset 4
 734 0018 BD46     		mov	sp, r7
 735              		.cfi_def_cfa_register 13
 736              		@ sp needed
 737 001a 80BC     		pop	{r7}
 738              		.cfi_restore 7
 739              		.cfi_def_cfa_offset 0
 740 001c 7047     		bx	lr
 741              		.cfi_endproc
 742              	.LFE130:
 744              		.section	.text.timer_counter_alignment,"ax",%progbits
 745              		.align	1
 746              		.global	timer_counter_alignment
 747              		.syntax unified
 748              		.thumb
 749              		.thumb_func
 750              		.fpu softvfp
 752              	timer_counter_alignment:
 753              	.LFB131:
 207:C:/Users/leonardo/Desktop/Code/Github/DawnBGC/Libraries/FWLIB/src\gd32f4xx_timer.c **** 
 208:C:/Users/leonardo/Desktop/Code/Github/DawnBGC/Libraries/FWLIB/src\gd32f4xx_timer.c **** /*!
 209:C:/Users/leonardo/Desktop/Code/Github/DawnBGC/Libraries/FWLIB/src\gd32f4xx_timer.c ****     \brief      set TIMER counter alignment mode
 210:C:/Users/leonardo/Desktop/Code/Github/DawnBGC/Libraries/FWLIB/src\gd32f4xx_timer.c ****     \param[in]  timer_periph: TIMERx(x=0..4,7)
 211:C:/Users/leonardo/Desktop/Code/Github/DawnBGC/Libraries/FWLIB/src\gd32f4xx_timer.c ****     \param[in]  timer_aligned: 
 212:C:/Users/leonardo/Desktop/Code/Github/DawnBGC/Libraries/FWLIB/src\gd32f4xx_timer.c ****       \arg        TIMER_COUNTER_EDGE: edge-aligned mode
 213:C:/Users/leonardo/Desktop/Code/Github/DawnBGC/Libraries/FWLIB/src\gd32f4xx_timer.c ****       \arg        TIMER_COUNTER_CENTER_DOWN: center-aligned and counting down assert mode
 214:C:/Users/leonardo/Desktop/Code/Github/DawnBGC/Libraries/FWLIB/src\gd32f4xx_timer.c ****       \arg        TIMER_COUNTER_CENTER_UP: center-aligned and counting up assert mode
 215:C:/Users/leonardo/Desktop/Code/Github/DawnBGC/Libraries/FWLIB/src\gd32f4xx_timer.c ****       \arg        TIMER_COUNTER_CENTER_BOTH: center-aligned and counting up/down assert mode
 216:C:/Users/leonardo/Desktop/Code/Github/DawnBGC/Libraries/FWLIB/src\gd32f4xx_timer.c ****     \param[out] none
 217:C:/Users/leonardo/Desktop/Code/Github/DawnBGC/Libraries/FWLIB/src\gd32f4xx_timer.c ****     \retval     none
 218:C:/Users/leonardo/Desktop/Code/Github/DawnBGC/Libraries/FWLIB/src\gd32f4xx_timer.c **** */
 219:C:/Users/leonardo/Desktop/Code/Github/DawnBGC/Libraries/FWLIB/src\gd32f4xx_timer.c **** void timer_counter_alignment(uint32_t timer_periph,uint16_t timer_aligned)
 220:C:/Users/leonardo/Desktop/Code/Github/DawnBGC/Libraries/FWLIB/src\gd32f4xx_timer.c **** {
 754              		.loc 1 220 1
 755              		.cfi_startproc
 756              		@ args = 0, pretend = 0, frame = 8
 757              		@ frame_needed = 1, uses_anonymous_args = 0
 758              		@ link register save eliminated.
 759 0000 80B4     		push	{r7}
 760              		.cfi_def_cfa_offset 4
 761              		.cfi_offset 7, -4
 762 0002 83B0     		sub	sp, sp, #12
 763              		.cfi_def_cfa_offset 16
 764 0004 00AF     		add	r7, sp, #0
 765              		.cfi_def_cfa_register 7
 766 0006 7860     		str	r0, [r7, #4]
 767 0008 0B46     		mov	r3, r1
 768 000a 7B80     		strh	r3, [r7, #2]	@ movhi
 221:C:/Users/leonardo/Desktop/Code/Github/DawnBGC/Libraries/FWLIB/src\gd32f4xx_timer.c ****     TIMER_CTL0(timer_periph) &= ~(uint32_t)TIMER_CTL0_CAM;
 769              		.loc 1 221 30
 770 000c 7B68     		ldr	r3, [r7, #4]
 771 000e 1A68     		ldr	r2, [r3]
 772 0010 7B68     		ldr	r3, [r7, #4]
 773 0012 22F06002 		bic	r2, r2, #96
 774 0016 1A60     		str	r2, [r3]
 222:C:/Users/leonardo/Desktop/Code/Github/DawnBGC/Libraries/FWLIB/src\gd32f4xx_timer.c ****     TIMER_CTL0(timer_periph) |= (uint32_t)timer_aligned;
 775              		.loc 1 222 30
 776 0018 7B68     		ldr	r3, [r7, #4]
 777 001a 1968     		ldr	r1, [r3]
 778              		.loc 1 222 33
 779 001c 7A88     		ldrh	r2, [r7, #2]
 780              		.loc 1 222 30
 781 001e 7B68     		ldr	r3, [r7, #4]
 782 0020 0A43     		orrs	r2, r2, r1
 783 0022 1A60     		str	r2, [r3]
 223:C:/Users/leonardo/Desktop/Code/Github/DawnBGC/Libraries/FWLIB/src\gd32f4xx_timer.c **** }
 784              		.loc 1 223 1
 785 0024 00BF     		nop
 786 0026 0C37     		adds	r7, r7, #12
 787              		.cfi_def_cfa_offset 4
 788 0028 BD46     		mov	sp, r7
 789              		.cfi_def_cfa_register 13
 790              		@ sp needed
 791 002a 80BC     		pop	{r7}
 792              		.cfi_restore 7
 793              		.cfi_def_cfa_offset 0
 794 002c 7047     		bx	lr
 795              		.cfi_endproc
 796              	.LFE131:
 798              		.section	.text.timer_counter_up_direction,"ax",%progbits
 799              		.align	1
 800              		.global	timer_counter_up_direction
 801              		.syntax unified
 802              		.thumb
 803              		.thumb_func
 804              		.fpu softvfp
 806              	timer_counter_up_direction:
 807              	.LFB132:
 224:C:/Users/leonardo/Desktop/Code/Github/DawnBGC/Libraries/FWLIB/src\gd32f4xx_timer.c **** 
 225:C:/Users/leonardo/Desktop/Code/Github/DawnBGC/Libraries/FWLIB/src\gd32f4xx_timer.c **** /*!
 226:C:/Users/leonardo/Desktop/Code/Github/DawnBGC/Libraries/FWLIB/src\gd32f4xx_timer.c ****     \brief      set TIMER counter up direction
 227:C:/Users/leonardo/Desktop/Code/Github/DawnBGC/Libraries/FWLIB/src\gd32f4xx_timer.c ****     \param[in]  timer_periph: TIMERx(x=0..4,7)
 228:C:/Users/leonardo/Desktop/Code/Github/DawnBGC/Libraries/FWLIB/src\gd32f4xx_timer.c ****     \param[out] none
 229:C:/Users/leonardo/Desktop/Code/Github/DawnBGC/Libraries/FWLIB/src\gd32f4xx_timer.c ****     \retval     none
 230:C:/Users/leonardo/Desktop/Code/Github/DawnBGC/Libraries/FWLIB/src\gd32f4xx_timer.c **** */
 231:C:/Users/leonardo/Desktop/Code/Github/DawnBGC/Libraries/FWLIB/src\gd32f4xx_timer.c **** void timer_counter_up_direction(uint32_t timer_periph)
 232:C:/Users/leonardo/Desktop/Code/Github/DawnBGC/Libraries/FWLIB/src\gd32f4xx_timer.c **** {
 808              		.loc 1 232 1
 809              		.cfi_startproc
 810              		@ args = 0, pretend = 0, frame = 8
 811              		@ frame_needed = 1, uses_anonymous_args = 0
 812              		@ link register save eliminated.
 813 0000 80B4     		push	{r7}
 814              		.cfi_def_cfa_offset 4
 815              		.cfi_offset 7, -4
 816 0002 83B0     		sub	sp, sp, #12
 817              		.cfi_def_cfa_offset 16
 818 0004 00AF     		add	r7, sp, #0
 819              		.cfi_def_cfa_register 7
 820 0006 7860     		str	r0, [r7, #4]
 233:C:/Users/leonardo/Desktop/Code/Github/DawnBGC/Libraries/FWLIB/src\gd32f4xx_timer.c ****     TIMER_CTL0(timer_periph) &= ~(uint32_t)TIMER_CTL0_DIR;
 821              		.loc 1 233 30
 822 0008 7B68     		ldr	r3, [r7, #4]
 823 000a 1A68     		ldr	r2, [r3]
 824 000c 7B68     		ldr	r3, [r7, #4]
 825 000e 22F01002 		bic	r2, r2, #16
 826 0012 1A60     		str	r2, [r3]
 234:C:/Users/leonardo/Desktop/Code/Github/DawnBGC/Libraries/FWLIB/src\gd32f4xx_timer.c **** }
 827              		.loc 1 234 1
 828 0014 00BF     		nop
 829 0016 0C37     		adds	r7, r7, #12
 830              		.cfi_def_cfa_offset 4
 831 0018 BD46     		mov	sp, r7
 832              		.cfi_def_cfa_register 13
 833              		@ sp needed
 834 001a 80BC     		pop	{r7}
 835              		.cfi_restore 7
 836              		.cfi_def_cfa_offset 0
 837 001c 7047     		bx	lr
 838              		.cfi_endproc
 839              	.LFE132:
 841              		.section	.text.timer_counter_down_direction,"ax",%progbits
 842              		.align	1
 843              		.global	timer_counter_down_direction
 844              		.syntax unified
 845              		.thumb
 846              		.thumb_func
 847              		.fpu softvfp
 849              	timer_counter_down_direction:
 850              	.LFB133:
 235:C:/Users/leonardo/Desktop/Code/Github/DawnBGC/Libraries/FWLIB/src\gd32f4xx_timer.c **** 
 236:C:/Users/leonardo/Desktop/Code/Github/DawnBGC/Libraries/FWLIB/src\gd32f4xx_timer.c **** /*!
 237:C:/Users/leonardo/Desktop/Code/Github/DawnBGC/Libraries/FWLIB/src\gd32f4xx_timer.c ****     \brief      set TIMER counter down direction
 238:C:/Users/leonardo/Desktop/Code/Github/DawnBGC/Libraries/FWLIB/src\gd32f4xx_timer.c ****     \param[in]  timer_periph: TIMERx(x=0..4,7)
 239:C:/Users/leonardo/Desktop/Code/Github/DawnBGC/Libraries/FWLIB/src\gd32f4xx_timer.c ****     \param[out] none
 240:C:/Users/leonardo/Desktop/Code/Github/DawnBGC/Libraries/FWLIB/src\gd32f4xx_timer.c ****     \retval     none
 241:C:/Users/leonardo/Desktop/Code/Github/DawnBGC/Libraries/FWLIB/src\gd32f4xx_timer.c **** */
 242:C:/Users/leonardo/Desktop/Code/Github/DawnBGC/Libraries/FWLIB/src\gd32f4xx_timer.c **** void timer_counter_down_direction(uint32_t timer_periph)
 243:C:/Users/leonardo/Desktop/Code/Github/DawnBGC/Libraries/FWLIB/src\gd32f4xx_timer.c **** {
 851              		.loc 1 243 1
 852              		.cfi_startproc
 853              		@ args = 0, pretend = 0, frame = 8
 854              		@ frame_needed = 1, uses_anonymous_args = 0
 855              		@ link register save eliminated.
 856 0000 80B4     		push	{r7}
 857              		.cfi_def_cfa_offset 4
 858              		.cfi_offset 7, -4
 859 0002 83B0     		sub	sp, sp, #12
 860              		.cfi_def_cfa_offset 16
 861 0004 00AF     		add	r7, sp, #0
 862              		.cfi_def_cfa_register 7
 863 0006 7860     		str	r0, [r7, #4]
 244:C:/Users/leonardo/Desktop/Code/Github/DawnBGC/Libraries/FWLIB/src\gd32f4xx_timer.c ****     TIMER_CTL0(timer_periph) |= (uint32_t)TIMER_CTL0_DIR;
 864              		.loc 1 244 30
 865 0008 7B68     		ldr	r3, [r7, #4]
 866 000a 1A68     		ldr	r2, [r3]
 867 000c 7B68     		ldr	r3, [r7, #4]
 868 000e 42F01002 		orr	r2, r2, #16
 869 0012 1A60     		str	r2, [r3]
 245:C:/Users/leonardo/Desktop/Code/Github/DawnBGC/Libraries/FWLIB/src\gd32f4xx_timer.c **** }
 870              		.loc 1 245 1
 871 0014 00BF     		nop
 872 0016 0C37     		adds	r7, r7, #12
 873              		.cfi_def_cfa_offset 4
 874 0018 BD46     		mov	sp, r7
 875              		.cfi_def_cfa_register 13
 876              		@ sp needed
 877 001a 80BC     		pop	{r7}
 878              		.cfi_restore 7
 879              		.cfi_def_cfa_offset 0
 880 001c 7047     		bx	lr
 881              		.cfi_endproc
 882              	.LFE133:
 884              		.section	.text.timer_prescaler_config,"ax",%progbits
 885              		.align	1
 886              		.global	timer_prescaler_config
 887              		.syntax unified
 888              		.thumb
 889              		.thumb_func
 890              		.fpu softvfp
 892              	timer_prescaler_config:
 893              	.LFB134:
 246:C:/Users/leonardo/Desktop/Code/Github/DawnBGC/Libraries/FWLIB/src\gd32f4xx_timer.c **** 
 247:C:/Users/leonardo/Desktop/Code/Github/DawnBGC/Libraries/FWLIB/src\gd32f4xx_timer.c **** /*!
 248:C:/Users/leonardo/Desktop/Code/Github/DawnBGC/Libraries/FWLIB/src\gd32f4xx_timer.c ****     \brief      configure TIMER prescaler
 249:C:/Users/leonardo/Desktop/Code/Github/DawnBGC/Libraries/FWLIB/src\gd32f4xx_timer.c ****     \param[in]  timer_periph: TIMERx(x=0..13)
 250:C:/Users/leonardo/Desktop/Code/Github/DawnBGC/Libraries/FWLIB/src\gd32f4xx_timer.c ****     \param[in]  timer_prescaler: prescaler value
 251:C:/Users/leonardo/Desktop/Code/Github/DawnBGC/Libraries/FWLIB/src\gd32f4xx_timer.c ****     \param[in]  timer_pscreload: prescaler reload mode
 252:C:/Users/leonardo/Desktop/Code/Github/DawnBGC/Libraries/FWLIB/src\gd32f4xx_timer.c ****       \arg        TIMER_PSC_RELOAD_NOW: the prescaler is loaded right now
 253:C:/Users/leonardo/Desktop/Code/Github/DawnBGC/Libraries/FWLIB/src\gd32f4xx_timer.c ****       \arg        TIMER_PSC_RELOAD_UPDATE: the prescaler is loaded at the next update event
 254:C:/Users/leonardo/Desktop/Code/Github/DawnBGC/Libraries/FWLIB/src\gd32f4xx_timer.c ****     \param[out] none
 255:C:/Users/leonardo/Desktop/Code/Github/DawnBGC/Libraries/FWLIB/src\gd32f4xx_timer.c ****     \retval     none
 256:C:/Users/leonardo/Desktop/Code/Github/DawnBGC/Libraries/FWLIB/src\gd32f4xx_timer.c **** */
 257:C:/Users/leonardo/Desktop/Code/Github/DawnBGC/Libraries/FWLIB/src\gd32f4xx_timer.c **** void timer_prescaler_config(uint32_t timer_periph,uint16_t timer_prescaler,uint8_t timer_pscreload)
 258:C:/Users/leonardo/Desktop/Code/Github/DawnBGC/Libraries/FWLIB/src\gd32f4xx_timer.c **** {
 894              		.loc 1 258 1
 895              		.cfi_startproc
 896              		@ args = 0, pretend = 0, frame = 8
 897              		@ frame_needed = 1, uses_anonymous_args = 0
 898              		@ link register save eliminated.
 899 0000 80B4     		push	{r7}
 900              		.cfi_def_cfa_offset 4
 901              		.cfi_offset 7, -4
 902 0002 83B0     		sub	sp, sp, #12
 903              		.cfi_def_cfa_offset 16
 904 0004 00AF     		add	r7, sp, #0
 905              		.cfi_def_cfa_register 7
 906 0006 7860     		str	r0, [r7, #4]
 907 0008 0B46     		mov	r3, r1
 908 000a 7B80     		strh	r3, [r7, #2]	@ movhi
 909 000c 1346     		mov	r3, r2
 910 000e 7B70     		strb	r3, [r7, #1]
 259:C:/Users/leonardo/Desktop/Code/Github/DawnBGC/Libraries/FWLIB/src\gd32f4xx_timer.c ****     TIMER_PSC(timer_periph) = (uint32_t)timer_prescaler;
 911              		.loc 1 259 5
 912 0010 7B68     		ldr	r3, [r7, #4]
 913 0012 2833     		adds	r3, r3, #40
 914 0014 1A46     		mov	r2, r3
 915              		.loc 1 259 31
 916 0016 7B88     		ldrh	r3, [r7, #2]
 917              		.loc 1 259 29
 918 0018 1360     		str	r3, [r2]
 260:C:/Users/leonardo/Desktop/Code/Github/DawnBGC/Libraries/FWLIB/src\gd32f4xx_timer.c ****     
 261:C:/Users/leonardo/Desktop/Code/Github/DawnBGC/Libraries/FWLIB/src\gd32f4xx_timer.c ****     if(TIMER_PSC_RELOAD_NOW == timer_pscreload){
 919              		.loc 1 261 7
 920 001a 7B78     		ldrb	r3, [r7, #1]	@ zero_extendqisi2
 921 001c 002B     		cmp	r3, #0
 922 001e 07D1     		bne	.L40
 262:C:/Users/leonardo/Desktop/Code/Github/DawnBGC/Libraries/FWLIB/src\gd32f4xx_timer.c ****         TIMER_SWEVG(timer_periph) |= (uint32_t)TIMER_SWEVG_UPG;
 923              		.loc 1 262 35
 924 0020 7B68     		ldr	r3, [r7, #4]
 925 0022 1433     		adds	r3, r3, #20
 926 0024 1B68     		ldr	r3, [r3]
 927 0026 7A68     		ldr	r2, [r7, #4]
 928 0028 1432     		adds	r2, r2, #20
 929 002a 43F00103 		orr	r3, r3, #1
 930 002e 1360     		str	r3, [r2]
 931              	.L40:
 263:C:/Users/leonardo/Desktop/Code/Github/DawnBGC/Libraries/FWLIB/src\gd32f4xx_timer.c ****     }
 264:C:/Users/leonardo/Desktop/Code/Github/DawnBGC/Libraries/FWLIB/src\gd32f4xx_timer.c **** }
 932              		.loc 1 264 1
 933 0030 00BF     		nop
 934 0032 0C37     		adds	r7, r7, #12
 935              		.cfi_def_cfa_offset 4
 936 0034 BD46     		mov	sp, r7
 937              		.cfi_def_cfa_register 13
 938              		@ sp needed
 939 0036 80BC     		pop	{r7}
 940              		.cfi_restore 7
 941              		.cfi_def_cfa_offset 0
 942 0038 7047     		bx	lr
 943              		.cfi_endproc
 944              	.LFE134:
 946              		.section	.text.timer_repetition_value_config,"ax",%progbits
 947              		.align	1
 948              		.global	timer_repetition_value_config
 949              		.syntax unified
 950              		.thumb
 951              		.thumb_func
 952              		.fpu softvfp
 954              	timer_repetition_value_config:
 955              	.LFB135:
 265:C:/Users/leonardo/Desktop/Code/Github/DawnBGC/Libraries/FWLIB/src\gd32f4xx_timer.c **** 
 266:C:/Users/leonardo/Desktop/Code/Github/DawnBGC/Libraries/FWLIB/src\gd32f4xx_timer.c **** /*!
 267:C:/Users/leonardo/Desktop/Code/Github/DawnBGC/Libraries/FWLIB/src\gd32f4xx_timer.c ****     \brief      configure TIMER repetition register value
 268:C:/Users/leonardo/Desktop/Code/Github/DawnBGC/Libraries/FWLIB/src\gd32f4xx_timer.c ****     \param[in]  timer_periph: TIMERx(x=0,7)
 269:C:/Users/leonardo/Desktop/Code/Github/DawnBGC/Libraries/FWLIB/src\gd32f4xx_timer.c ****     \param[in]  timer_repetition: the counter repetition value,0~255
 270:C:/Users/leonardo/Desktop/Code/Github/DawnBGC/Libraries/FWLIB/src\gd32f4xx_timer.c ****     \param[out] none
 271:C:/Users/leonardo/Desktop/Code/Github/DawnBGC/Libraries/FWLIB/src\gd32f4xx_timer.c ****     \retval     none
 272:C:/Users/leonardo/Desktop/Code/Github/DawnBGC/Libraries/FWLIB/src\gd32f4xx_timer.c **** */
 273:C:/Users/leonardo/Desktop/Code/Github/DawnBGC/Libraries/FWLIB/src\gd32f4xx_timer.c **** void timer_repetition_value_config(uint32_t timer_periph,uint16_t timer_repetition)
 274:C:/Users/leonardo/Desktop/Code/Github/DawnBGC/Libraries/FWLIB/src\gd32f4xx_timer.c **** {
 956              		.loc 1 274 1
 957              		.cfi_startproc
 958              		@ args = 0, pretend = 0, frame = 8
 959              		@ frame_needed = 1, uses_anonymous_args = 0
 960              		@ link register save eliminated.
 961 0000 80B4     		push	{r7}
 962              		.cfi_def_cfa_offset 4
 963              		.cfi_offset 7, -4
 964 0002 83B0     		sub	sp, sp, #12
 965              		.cfi_def_cfa_offset 16
 966 0004 00AF     		add	r7, sp, #0
 967              		.cfi_def_cfa_register 7
 968 0006 7860     		str	r0, [r7, #4]
 969 0008 0B46     		mov	r3, r1
 970 000a 7B80     		strh	r3, [r7, #2]	@ movhi
 275:C:/Users/leonardo/Desktop/Code/Github/DawnBGC/Libraries/FWLIB/src\gd32f4xx_timer.c ****     TIMER_CREP(timer_periph) = (uint32_t)timer_repetition;
 971              		.loc 1 275 5
 972 000c 7B68     		ldr	r3, [r7, #4]
 973 000e 3033     		adds	r3, r3, #48
 974 0010 1A46     		mov	r2, r3
 975              		.loc 1 275 32
 976 0012 7B88     		ldrh	r3, [r7, #2]
 977              		.loc 1 275 30
 978 0014 1360     		str	r3, [r2]
 276:C:/Users/leonardo/Desktop/Code/Github/DawnBGC/Libraries/FWLIB/src\gd32f4xx_timer.c **** } 
 979              		.loc 1 276 1
 980 0016 00BF     		nop
 981 0018 0C37     		adds	r7, r7, #12
 982              		.cfi_def_cfa_offset 4
 983 001a BD46     		mov	sp, r7
 984              		.cfi_def_cfa_register 13
 985              		@ sp needed
 986 001c 80BC     		pop	{r7}
 987              		.cfi_restore 7
 988              		.cfi_def_cfa_offset 0
 989 001e 7047     		bx	lr
 990              		.cfi_endproc
 991              	.LFE135:
 993              		.section	.text.timer_autoreload_value_config,"ax",%progbits
 994              		.align	1
 995              		.global	timer_autoreload_value_config
 996              		.syntax unified
 997              		.thumb
 998              		.thumb_func
 999              		.fpu softvfp
 1001              	timer_autoreload_value_config:
 1002              	.LFB136:
 277:C:/Users/leonardo/Desktop/Code/Github/DawnBGC/Libraries/FWLIB/src\gd32f4xx_timer.c ****  
 278:C:/Users/leonardo/Desktop/Code/Github/DawnBGC/Libraries/FWLIB/src\gd32f4xx_timer.c **** /*!
 279:C:/Users/leonardo/Desktop/Code/Github/DawnBGC/Libraries/FWLIB/src\gd32f4xx_timer.c ****     \brief      configure TIMER autoreload register value
 280:C:/Users/leonardo/Desktop/Code/Github/DawnBGC/Libraries/FWLIB/src\gd32f4xx_timer.c ****     \param[in]  timer_periph: TIMERx(x=0..13)
 281:C:/Users/leonardo/Desktop/Code/Github/DawnBGC/Libraries/FWLIB/src\gd32f4xx_timer.c ****     \param[in]  timer_autoreload: the counter auto-reload value
 282:C:/Users/leonardo/Desktop/Code/Github/DawnBGC/Libraries/FWLIB/src\gd32f4xx_timer.c ****     \param[out] none
 283:C:/Users/leonardo/Desktop/Code/Github/DawnBGC/Libraries/FWLIB/src\gd32f4xx_timer.c ****     \retval     none
 284:C:/Users/leonardo/Desktop/Code/Github/DawnBGC/Libraries/FWLIB/src\gd32f4xx_timer.c **** */         
 285:C:/Users/leonardo/Desktop/Code/Github/DawnBGC/Libraries/FWLIB/src\gd32f4xx_timer.c **** void timer_autoreload_value_config(uint32_t timer_periph,uint32_t timer_autoreload)
 286:C:/Users/leonardo/Desktop/Code/Github/DawnBGC/Libraries/FWLIB/src\gd32f4xx_timer.c **** {
 1003              		.loc 1 286 1
 1004              		.cfi_startproc
 1005              		@ args = 0, pretend = 0, frame = 8
 1006              		@ frame_needed = 1, uses_anonymous_args = 0
 1007              		@ link register save eliminated.
 1008 0000 80B4     		push	{r7}
 1009              		.cfi_def_cfa_offset 4
 1010              		.cfi_offset 7, -4
 1011 0002 83B0     		sub	sp, sp, #12
 1012              		.cfi_def_cfa_offset 16
 1013 0004 00AF     		add	r7, sp, #0
 1014              		.cfi_def_cfa_register 7
 1015 0006 7860     		str	r0, [r7, #4]
 1016 0008 3960     		str	r1, [r7]
 287:C:/Users/leonardo/Desktop/Code/Github/DawnBGC/Libraries/FWLIB/src\gd32f4xx_timer.c ****     TIMER_CAR(timer_periph) = (uint32_t)timer_autoreload;
 1017              		.loc 1 287 5
 1018 000a 7B68     		ldr	r3, [r7, #4]
 1019 000c 2C33     		adds	r3, r3, #44
 1020 000e 1A46     		mov	r2, r3
 1021              		.loc 1 287 29
 1022 0010 3B68     		ldr	r3, [r7]
 1023 0012 1360     		str	r3, [r2]
 288:C:/Users/leonardo/Desktop/Code/Github/DawnBGC/Libraries/FWLIB/src\gd32f4xx_timer.c **** }
 1024              		.loc 1 288 1
 1025 0014 00BF     		nop
 1026 0016 0C37     		adds	r7, r7, #12
 1027              		.cfi_def_cfa_offset 4
 1028 0018 BD46     		mov	sp, r7
 1029              		.cfi_def_cfa_register 13
 1030              		@ sp needed
 1031 001a 80BC     		pop	{r7}
 1032              		.cfi_restore 7
 1033              		.cfi_def_cfa_offset 0
 1034 001c 7047     		bx	lr
 1035              		.cfi_endproc
 1036              	.LFE136:
 1038              		.section	.text.timer_counter_value_config,"ax",%progbits
 1039              		.align	1
 1040              		.global	timer_counter_value_config
 1041              		.syntax unified
 1042              		.thumb
 1043              		.thumb_func
 1044              		.fpu softvfp
 1046              	timer_counter_value_config:
 1047              	.LFB137:
 289:C:/Users/leonardo/Desktop/Code/Github/DawnBGC/Libraries/FWLIB/src\gd32f4xx_timer.c **** 
 290:C:/Users/leonardo/Desktop/Code/Github/DawnBGC/Libraries/FWLIB/src\gd32f4xx_timer.c **** /*!
 291:C:/Users/leonardo/Desktop/Code/Github/DawnBGC/Libraries/FWLIB/src\gd32f4xx_timer.c ****     \brief      configure TIMER counter register value
 292:C:/Users/leonardo/Desktop/Code/Github/DawnBGC/Libraries/FWLIB/src\gd32f4xx_timer.c ****     \param[in]  timer_periph: TIMERx(x=0..13)
 293:C:/Users/leonardo/Desktop/Code/Github/DawnBGC/Libraries/FWLIB/src\gd32f4xx_timer.c ****     \param[in]  timer_counter: the counter value
 294:C:/Users/leonardo/Desktop/Code/Github/DawnBGC/Libraries/FWLIB/src\gd32f4xx_timer.c ****     \param[out] none
 295:C:/Users/leonardo/Desktop/Code/Github/DawnBGC/Libraries/FWLIB/src\gd32f4xx_timer.c ****     \retval     none
 296:C:/Users/leonardo/Desktop/Code/Github/DawnBGC/Libraries/FWLIB/src\gd32f4xx_timer.c **** */         
 297:C:/Users/leonardo/Desktop/Code/Github/DawnBGC/Libraries/FWLIB/src\gd32f4xx_timer.c **** void timer_counter_value_config(uint32_t timer_periph , uint32_t timer_counter)
 298:C:/Users/leonardo/Desktop/Code/Github/DawnBGC/Libraries/FWLIB/src\gd32f4xx_timer.c **** {
 1048              		.loc 1 298 1
 1049              		.cfi_startproc
 1050              		@ args = 0, pretend = 0, frame = 8
 1051              		@ frame_needed = 1, uses_anonymous_args = 0
 1052              		@ link register save eliminated.
 1053 0000 80B4     		push	{r7}
 1054              		.cfi_def_cfa_offset 4
 1055              		.cfi_offset 7, -4
 1056 0002 83B0     		sub	sp, sp, #12
 1057              		.cfi_def_cfa_offset 16
 1058 0004 00AF     		add	r7, sp, #0
 1059              		.cfi_def_cfa_register 7
 1060 0006 7860     		str	r0, [r7, #4]
 1061 0008 3960     		str	r1, [r7]
 299:C:/Users/leonardo/Desktop/Code/Github/DawnBGC/Libraries/FWLIB/src\gd32f4xx_timer.c ****     TIMER_CNT(timer_periph) = (uint32_t)timer_counter;
 1062              		.loc 1 299 5
 1063 000a 7B68     		ldr	r3, [r7, #4]
 1064 000c 2433     		adds	r3, r3, #36
 1065 000e 1A46     		mov	r2, r3
 1066              		.loc 1 299 29
 1067 0010 3B68     		ldr	r3, [r7]
 1068 0012 1360     		str	r3, [r2]
 300:C:/Users/leonardo/Desktop/Code/Github/DawnBGC/Libraries/FWLIB/src\gd32f4xx_timer.c **** }
 1069              		.loc 1 300 1
 1070 0014 00BF     		nop
 1071 0016 0C37     		adds	r7, r7, #12
 1072              		.cfi_def_cfa_offset 4
 1073 0018 BD46     		mov	sp, r7
 1074              		.cfi_def_cfa_register 13
 1075              		@ sp needed
 1076 001a 80BC     		pop	{r7}
 1077              		.cfi_restore 7
 1078              		.cfi_def_cfa_offset 0
 1079 001c 7047     		bx	lr
 1080              		.cfi_endproc
 1081              	.LFE137:
 1083              		.section	.text.timer_counter_read,"ax",%progbits
 1084              		.align	1
 1085              		.global	timer_counter_read
 1086              		.syntax unified
 1087              		.thumb
 1088              		.thumb_func
 1089              		.fpu softvfp
 1091              	timer_counter_read:
 1092              	.LFB138:
 301:C:/Users/leonardo/Desktop/Code/Github/DawnBGC/Libraries/FWLIB/src\gd32f4xx_timer.c **** 
 302:C:/Users/leonardo/Desktop/Code/Github/DawnBGC/Libraries/FWLIB/src\gd32f4xx_timer.c **** /*!
 303:C:/Users/leonardo/Desktop/Code/Github/DawnBGC/Libraries/FWLIB/src\gd32f4xx_timer.c ****     \brief      read TIMER counter value
 304:C:/Users/leonardo/Desktop/Code/Github/DawnBGC/Libraries/FWLIB/src\gd32f4xx_timer.c ****     \param[in]  timer_periph: TIMERx(x=0..13)
 305:C:/Users/leonardo/Desktop/Code/Github/DawnBGC/Libraries/FWLIB/src\gd32f4xx_timer.c ****     \param[out] none
 306:C:/Users/leonardo/Desktop/Code/Github/DawnBGC/Libraries/FWLIB/src\gd32f4xx_timer.c ****     \retval     counter value
 307:C:/Users/leonardo/Desktop/Code/Github/DawnBGC/Libraries/FWLIB/src\gd32f4xx_timer.c **** */         
 308:C:/Users/leonardo/Desktop/Code/Github/DawnBGC/Libraries/FWLIB/src\gd32f4xx_timer.c **** uint32_t timer_counter_read(uint32_t timer_periph)
 309:C:/Users/leonardo/Desktop/Code/Github/DawnBGC/Libraries/FWLIB/src\gd32f4xx_timer.c **** {
 1093              		.loc 1 309 1
 1094              		.cfi_startproc
 1095              		@ args = 0, pretend = 0, frame = 16
 1096              		@ frame_needed = 1, uses_anonymous_args = 0
 1097              		@ link register save eliminated.
 1098 0000 80B4     		push	{r7}
 1099              		.cfi_def_cfa_offset 4
 1100              		.cfi_offset 7, -4
 1101 0002 85B0     		sub	sp, sp, #20
 1102              		.cfi_def_cfa_offset 24
 1103 0004 00AF     		add	r7, sp, #0
 1104              		.cfi_def_cfa_register 7
 1105 0006 7860     		str	r0, [r7, #4]
 310:C:/Users/leonardo/Desktop/Code/Github/DawnBGC/Libraries/FWLIB/src\gd32f4xx_timer.c ****     uint32_t count_value = 0U;
 1106              		.loc 1 310 14
 1107 0008 0023     		movs	r3, #0
 1108 000a FB60     		str	r3, [r7, #12]
 311:C:/Users/leonardo/Desktop/Code/Github/DawnBGC/Libraries/FWLIB/src\gd32f4xx_timer.c ****     count_value = TIMER_CNT(timer_periph);
 1109              		.loc 1 311 19
 1110 000c 7B68     		ldr	r3, [r7, #4]
 1111 000e 2433     		adds	r3, r3, #36
 1112              		.loc 1 311 17
 1113 0010 1B68     		ldr	r3, [r3]
 1114 0012 FB60     		str	r3, [r7, #12]
 312:C:/Users/leonardo/Desktop/Code/Github/DawnBGC/Libraries/FWLIB/src\gd32f4xx_timer.c ****     return (count_value);
 1115              		.loc 1 312 12
 1116 0014 FB68     		ldr	r3, [r7, #12]
 313:C:/Users/leonardo/Desktop/Code/Github/DawnBGC/Libraries/FWLIB/src\gd32f4xx_timer.c **** }
 1117              		.loc 1 313 1
 1118 0016 1846     		mov	r0, r3
 1119 0018 1437     		adds	r7, r7, #20
 1120              		.cfi_def_cfa_offset 4
 1121 001a BD46     		mov	sp, r7
 1122              		.cfi_def_cfa_register 13
 1123              		@ sp needed
 1124 001c 80BC     		pop	{r7}
 1125              		.cfi_restore 7
 1126              		.cfi_def_cfa_offset 0
 1127 001e 7047     		bx	lr
 1128              		.cfi_endproc
 1129              	.LFE138:
 1131              		.section	.text.timer_prescaler_read,"ax",%progbits
 1132              		.align	1
 1133              		.global	timer_prescaler_read
 1134              		.syntax unified
 1135              		.thumb
 1136              		.thumb_func
 1137              		.fpu softvfp
 1139              	timer_prescaler_read:
 1140              	.LFB139:
 314:C:/Users/leonardo/Desktop/Code/Github/DawnBGC/Libraries/FWLIB/src\gd32f4xx_timer.c **** 
 315:C:/Users/leonardo/Desktop/Code/Github/DawnBGC/Libraries/FWLIB/src\gd32f4xx_timer.c **** /*!
 316:C:/Users/leonardo/Desktop/Code/Github/DawnBGC/Libraries/FWLIB/src\gd32f4xx_timer.c ****     \brief      read TIMER prescaler value
 317:C:/Users/leonardo/Desktop/Code/Github/DawnBGC/Libraries/FWLIB/src\gd32f4xx_timer.c ****     \param[in]  timer_periph: TIMERx(x=0..13)
 318:C:/Users/leonardo/Desktop/Code/Github/DawnBGC/Libraries/FWLIB/src\gd32f4xx_timer.c ****     \param[out] none
 319:C:/Users/leonardo/Desktop/Code/Github/DawnBGC/Libraries/FWLIB/src\gd32f4xx_timer.c ****     \retval     prescaler register value
 320:C:/Users/leonardo/Desktop/Code/Github/DawnBGC/Libraries/FWLIB/src\gd32f4xx_timer.c **** */         
 321:C:/Users/leonardo/Desktop/Code/Github/DawnBGC/Libraries/FWLIB/src\gd32f4xx_timer.c **** uint16_t timer_prescaler_read(uint32_t timer_periph)
 322:C:/Users/leonardo/Desktop/Code/Github/DawnBGC/Libraries/FWLIB/src\gd32f4xx_timer.c **** {
 1141              		.loc 1 322 1
 1142              		.cfi_startproc
 1143              		@ args = 0, pretend = 0, frame = 16
 1144              		@ frame_needed = 1, uses_anonymous_args = 0
 1145              		@ link register save eliminated.
 1146 0000 80B4     		push	{r7}
 1147              		.cfi_def_cfa_offset 4
 1148              		.cfi_offset 7, -4
 1149 0002 85B0     		sub	sp, sp, #20
 1150              		.cfi_def_cfa_offset 24
 1151 0004 00AF     		add	r7, sp, #0
 1152              		.cfi_def_cfa_register 7
 1153 0006 7860     		str	r0, [r7, #4]
 323:C:/Users/leonardo/Desktop/Code/Github/DawnBGC/Libraries/FWLIB/src\gd32f4xx_timer.c ****     uint16_t prescaler_value = 0U;
 1154              		.loc 1 323 14
 1155 0008 0023     		movs	r3, #0
 1156 000a FB81     		strh	r3, [r7, #14]	@ movhi
 324:C:/Users/leonardo/Desktop/Code/Github/DawnBGC/Libraries/FWLIB/src\gd32f4xx_timer.c ****     prescaler_value = (uint16_t)(TIMER_CAR(timer_periph));
 1157              		.loc 1 324 34
 1158 000c 7B68     		ldr	r3, [r7, #4]
 1159 000e 2C33     		adds	r3, r3, #44
 1160 0010 1B68     		ldr	r3, [r3]
 1161              		.loc 1 324 21
 1162 0012 FB81     		strh	r3, [r7, #14]	@ movhi
 325:C:/Users/leonardo/Desktop/Code/Github/DawnBGC/Libraries/FWLIB/src\gd32f4xx_timer.c ****     return (prescaler_value);
 1163              		.loc 1 325 12
 1164 0014 FB89     		ldrh	r3, [r7, #14]
 326:C:/Users/leonardo/Desktop/Code/Github/DawnBGC/Libraries/FWLIB/src\gd32f4xx_timer.c **** }
 1165              		.loc 1 326 1
 1166 0016 1846     		mov	r0, r3
 1167 0018 1437     		adds	r7, r7, #20
 1168              		.cfi_def_cfa_offset 4
 1169 001a BD46     		mov	sp, r7
 1170              		.cfi_def_cfa_register 13
 1171              		@ sp needed
 1172 001c 80BC     		pop	{r7}
 1173              		.cfi_restore 7
 1174              		.cfi_def_cfa_offset 0
 1175 001e 7047     		bx	lr
 1176              		.cfi_endproc
 1177              	.LFE139:
 1179              		.section	.text.timer_single_pulse_mode_config,"ax",%progbits
 1180              		.align	1
 1181              		.global	timer_single_pulse_mode_config
 1182              		.syntax unified
 1183              		.thumb
 1184              		.thumb_func
 1185              		.fpu softvfp
 1187              	timer_single_pulse_mode_config:
 1188              	.LFB140:
 327:C:/Users/leonardo/Desktop/Code/Github/DawnBGC/Libraries/FWLIB/src\gd32f4xx_timer.c **** 
 328:C:/Users/leonardo/Desktop/Code/Github/DawnBGC/Libraries/FWLIB/src\gd32f4xx_timer.c **** /*!
 329:C:/Users/leonardo/Desktop/Code/Github/DawnBGC/Libraries/FWLIB/src\gd32f4xx_timer.c ****     \brief      configure TIMER single pulse mode
 330:C:/Users/leonardo/Desktop/Code/Github/DawnBGC/Libraries/FWLIB/src\gd32f4xx_timer.c ****     \param[in]  timer_periph: TIMERx(x=0..8,11)
 331:C:/Users/leonardo/Desktop/Code/Github/DawnBGC/Libraries/FWLIB/src\gd32f4xx_timer.c ****     \param[in]  timer_spmode: 
 332:C:/Users/leonardo/Desktop/Code/Github/DawnBGC/Libraries/FWLIB/src\gd32f4xx_timer.c ****       \arg        TIMER_SP_MODE_SINGLE: single pulse mode
 333:C:/Users/leonardo/Desktop/Code/Github/DawnBGC/Libraries/FWLIB/src\gd32f4xx_timer.c ****       \arg        TIMER_SP_MODE_REPETITIVE: repetitive pulse mode
 334:C:/Users/leonardo/Desktop/Code/Github/DawnBGC/Libraries/FWLIB/src\gd32f4xx_timer.c ****     \param[out] none
 335:C:/Users/leonardo/Desktop/Code/Github/DawnBGC/Libraries/FWLIB/src\gd32f4xx_timer.c ****     \retval     none
 336:C:/Users/leonardo/Desktop/Code/Github/DawnBGC/Libraries/FWLIB/src\gd32f4xx_timer.c **** */
 337:C:/Users/leonardo/Desktop/Code/Github/DawnBGC/Libraries/FWLIB/src\gd32f4xx_timer.c **** void timer_single_pulse_mode_config(uint32_t timer_periph,uint8_t timer_spmode)
 338:C:/Users/leonardo/Desktop/Code/Github/DawnBGC/Libraries/FWLIB/src\gd32f4xx_timer.c **** {
 1189              		.loc 1 338 1
 1190              		.cfi_startproc
 1191              		@ args = 0, pretend = 0, frame = 8
 1192              		@ frame_needed = 1, uses_anonymous_args = 0
 1193              		@ link register save eliminated.
 1194 0000 80B4     		push	{r7}
 1195              		.cfi_def_cfa_offset 4
 1196              		.cfi_offset 7, -4
 1197 0002 83B0     		sub	sp, sp, #12
 1198              		.cfi_def_cfa_offset 16
 1199 0004 00AF     		add	r7, sp, #0
 1200              		.cfi_def_cfa_register 7
 1201 0006 7860     		str	r0, [r7, #4]
 1202 0008 0B46     		mov	r3, r1
 1203 000a FB70     		strb	r3, [r7, #3]
 339:C:/Users/leonardo/Desktop/Code/Github/DawnBGC/Libraries/FWLIB/src\gd32f4xx_timer.c ****     if(TIMER_SP_MODE_SINGLE == timer_spmode){
 1204              		.loc 1 339 7
 1205 000c FB78     		ldrb	r3, [r7, #3]	@ zero_extendqisi2
 1206 000e 002B     		cmp	r3, #0
 1207 0010 06D1     		bne	.L49
 340:C:/Users/leonardo/Desktop/Code/Github/DawnBGC/Libraries/FWLIB/src\gd32f4xx_timer.c ****         TIMER_CTL0(timer_periph) |= (uint32_t)TIMER_CTL0_SPM;
 1208              		.loc 1 340 34
 1209 0012 7B68     		ldr	r3, [r7, #4]
 1210 0014 1A68     		ldr	r2, [r3]
 1211 0016 7B68     		ldr	r3, [r7, #4]
 1212 0018 42F00802 		orr	r2, r2, #8
 1213 001c 1A60     		str	r2, [r3]
 341:C:/Users/leonardo/Desktop/Code/Github/DawnBGC/Libraries/FWLIB/src\gd32f4xx_timer.c ****     }else if(TIMER_SP_MODE_REPETITIVE == timer_spmode){
 342:C:/Users/leonardo/Desktop/Code/Github/DawnBGC/Libraries/FWLIB/src\gd32f4xx_timer.c ****         TIMER_CTL0(timer_periph) &= ~((uint32_t)TIMER_CTL0_SPM);
 343:C:/Users/leonardo/Desktop/Code/Github/DawnBGC/Libraries/FWLIB/src\gd32f4xx_timer.c ****     }else{
 344:C:/Users/leonardo/Desktop/Code/Github/DawnBGC/Libraries/FWLIB/src\gd32f4xx_timer.c ****     }
 345:C:/Users/leonardo/Desktop/Code/Github/DawnBGC/Libraries/FWLIB/src\gd32f4xx_timer.c **** }
 1214              		.loc 1 345 1
 1215 001e 08E0     		b	.L51
 1216              	.L49:
 341:C:/Users/leonardo/Desktop/Code/Github/DawnBGC/Libraries/FWLIB/src\gd32f4xx_timer.c ****     }else if(TIMER_SP_MODE_REPETITIVE == timer_spmode){
 1217              		.loc 1 341 13
 1218 0020 FB78     		ldrb	r3, [r7, #3]	@ zero_extendqisi2
 1219 0022 012B     		cmp	r3, #1
 1220 0024 05D1     		bne	.L51
 342:C:/Users/leonardo/Desktop/Code/Github/DawnBGC/Libraries/FWLIB/src\gd32f4xx_timer.c ****     }else{
 1221              		.loc 1 342 34
 1222 0026 7B68     		ldr	r3, [r7, #4]
 1223 0028 1A68     		ldr	r2, [r3]
 1224 002a 7B68     		ldr	r3, [r7, #4]
 1225 002c 22F00802 		bic	r2, r2, #8
 1226 0030 1A60     		str	r2, [r3]
 1227              	.L51:
 1228              		.loc 1 345 1
 1229 0032 00BF     		nop
 1230 0034 0C37     		adds	r7, r7, #12
 1231              		.cfi_def_cfa_offset 4
 1232 0036 BD46     		mov	sp, r7
 1233              		.cfi_def_cfa_register 13
 1234              		@ sp needed
 1235 0038 80BC     		pop	{r7}
 1236              		.cfi_restore 7
 1237              		.cfi_def_cfa_offset 0
 1238 003a 7047     		bx	lr
 1239              		.cfi_endproc
 1240              	.LFE140:
 1242              		.section	.text.timer_update_source_config,"ax",%progbits
 1243              		.align	1
 1244              		.global	timer_update_source_config
 1245              		.syntax unified
 1246              		.thumb
 1247              		.thumb_func
 1248              		.fpu softvfp
 1250              	timer_update_source_config:
 1251              	.LFB141:
 346:C:/Users/leonardo/Desktop/Code/Github/DawnBGC/Libraries/FWLIB/src\gd32f4xx_timer.c **** 
 347:C:/Users/leonardo/Desktop/Code/Github/DawnBGC/Libraries/FWLIB/src\gd32f4xx_timer.c **** /*!
 348:C:/Users/leonardo/Desktop/Code/Github/DawnBGC/Libraries/FWLIB/src\gd32f4xx_timer.c ****     \brief      configure TIMER update source 
 349:C:/Users/leonardo/Desktop/Code/Github/DawnBGC/Libraries/FWLIB/src\gd32f4xx_timer.c ****     \param[in]  timer_periph: TIMERx(x=0..13)
 350:C:/Users/leonardo/Desktop/Code/Github/DawnBGC/Libraries/FWLIB/src\gd32f4xx_timer.c ****     \param[in]  timer_update: 
 351:C:/Users/leonardo/Desktop/Code/Github/DawnBGC/Libraries/FWLIB/src\gd32f4xx_timer.c ****       \arg        TIMER_UPDATE_SRC_GLOBAL: update generate by setting of UPG bit or the counter ove
 352:C:/Users/leonardo/Desktop/Code/Github/DawnBGC/Libraries/FWLIB/src\gd32f4xx_timer.c ****       \arg        TIMER_UPDATE_SRC_REGULAR: update generate only by counter overflow/underflow
 353:C:/Users/leonardo/Desktop/Code/Github/DawnBGC/Libraries/FWLIB/src\gd32f4xx_timer.c ****     \param[out] none
 354:C:/Users/leonardo/Desktop/Code/Github/DawnBGC/Libraries/FWLIB/src\gd32f4xx_timer.c ****     \retval     none
 355:C:/Users/leonardo/Desktop/Code/Github/DawnBGC/Libraries/FWLIB/src\gd32f4xx_timer.c **** */
 356:C:/Users/leonardo/Desktop/Code/Github/DawnBGC/Libraries/FWLIB/src\gd32f4xx_timer.c **** void timer_update_source_config(uint32_t timer_periph,uint8_t timer_update)
 357:C:/Users/leonardo/Desktop/Code/Github/DawnBGC/Libraries/FWLIB/src\gd32f4xx_timer.c **** {
 1252              		.loc 1 357 1
 1253              		.cfi_startproc
 1254              		@ args = 0, pretend = 0, frame = 8
 1255              		@ frame_needed = 1, uses_anonymous_args = 0
 1256              		@ link register save eliminated.
 1257 0000 80B4     		push	{r7}
 1258              		.cfi_def_cfa_offset 4
 1259              		.cfi_offset 7, -4
 1260 0002 83B0     		sub	sp, sp, #12
 1261              		.cfi_def_cfa_offset 16
 1262 0004 00AF     		add	r7, sp, #0
 1263              		.cfi_def_cfa_register 7
 1264 0006 7860     		str	r0, [r7, #4]
 1265 0008 0B46     		mov	r3, r1
 1266 000a FB70     		strb	r3, [r7, #3]
 358:C:/Users/leonardo/Desktop/Code/Github/DawnBGC/Libraries/FWLIB/src\gd32f4xx_timer.c ****     if(TIMER_UPDATE_SRC_REGULAR == timer_update){
 1267              		.loc 1 358 7
 1268 000c FB78     		ldrb	r3, [r7, #3]	@ zero_extendqisi2
 1269 000e 002B     		cmp	r3, #0
 1270 0010 06D1     		bne	.L53
 359:C:/Users/leonardo/Desktop/Code/Github/DawnBGC/Libraries/FWLIB/src\gd32f4xx_timer.c ****         TIMER_CTL0(timer_periph) |= (uint32_t)TIMER_CTL0_UPS;
 1271              		.loc 1 359 34
 1272 0012 7B68     		ldr	r3, [r7, #4]
 1273 0014 1A68     		ldr	r2, [r3]
 1274 0016 7B68     		ldr	r3, [r7, #4]
 1275 0018 42F00402 		orr	r2, r2, #4
 1276 001c 1A60     		str	r2, [r3]
 360:C:/Users/leonardo/Desktop/Code/Github/DawnBGC/Libraries/FWLIB/src\gd32f4xx_timer.c ****     }else if(timer_update == TIMER_UPDATE_SRC_GLOBAL){
 361:C:/Users/leonardo/Desktop/Code/Github/DawnBGC/Libraries/FWLIB/src\gd32f4xx_timer.c ****         TIMER_CTL0(timer_periph) &= ~(uint32_t)TIMER_CTL0_UPS;
 362:C:/Users/leonardo/Desktop/Code/Github/DawnBGC/Libraries/FWLIB/src\gd32f4xx_timer.c ****     }else{
 363:C:/Users/leonardo/Desktop/Code/Github/DawnBGC/Libraries/FWLIB/src\gd32f4xx_timer.c ****     }
 364:C:/Users/leonardo/Desktop/Code/Github/DawnBGC/Libraries/FWLIB/src\gd32f4xx_timer.c **** }
 1277              		.loc 1 364 1
 1278 001e 08E0     		b	.L55
 1279              	.L53:
 360:C:/Users/leonardo/Desktop/Code/Github/DawnBGC/Libraries/FWLIB/src\gd32f4xx_timer.c ****     }else if(timer_update == TIMER_UPDATE_SRC_GLOBAL){
 1280              		.loc 1 360 13
 1281 0020 FB78     		ldrb	r3, [r7, #3]	@ zero_extendqisi2
 1282 0022 012B     		cmp	r3, #1
 1283 0024 05D1     		bne	.L55
 361:C:/Users/leonardo/Desktop/Code/Github/DawnBGC/Libraries/FWLIB/src\gd32f4xx_timer.c ****     }else{
 1284              		.loc 1 361 34
 1285 0026 7B68     		ldr	r3, [r7, #4]
 1286 0028 1A68     		ldr	r2, [r3]
 1287 002a 7B68     		ldr	r3, [r7, #4]
 1288 002c 22F00402 		bic	r2, r2, #4
 1289 0030 1A60     		str	r2, [r3]
 1290              	.L55:
 1291              		.loc 1 364 1
 1292 0032 00BF     		nop
 1293 0034 0C37     		adds	r7, r7, #12
 1294              		.cfi_def_cfa_offset 4
 1295 0036 BD46     		mov	sp, r7
 1296              		.cfi_def_cfa_register 13
 1297              		@ sp needed
 1298 0038 80BC     		pop	{r7}
 1299              		.cfi_restore 7
 1300              		.cfi_def_cfa_offset 0
 1301 003a 7047     		bx	lr
 1302              		.cfi_endproc
 1303              	.LFE141:
 1305              		.section	.text.timer_interrupt_enable,"ax",%progbits
 1306              		.align	1
 1307              		.global	timer_interrupt_enable
 1308              		.syntax unified
 1309              		.thumb
 1310              		.thumb_func
 1311              		.fpu softvfp
 1313              	timer_interrupt_enable:
 1314              	.LFB142:
 365:C:/Users/leonardo/Desktop/Code/Github/DawnBGC/Libraries/FWLIB/src\gd32f4xx_timer.c **** 
 366:C:/Users/leonardo/Desktop/Code/Github/DawnBGC/Libraries/FWLIB/src\gd32f4xx_timer.c **** /*!
 367:C:/Users/leonardo/Desktop/Code/Github/DawnBGC/Libraries/FWLIB/src\gd32f4xx_timer.c ****     \brief      enable the TIMER interrupt
 368:C:/Users/leonardo/Desktop/Code/Github/DawnBGC/Libraries/FWLIB/src\gd32f4xx_timer.c ****     \param[in]  timer_periph: please refer to the following parameters 
 369:C:/Users/leonardo/Desktop/Code/Github/DawnBGC/Libraries/FWLIB/src\gd32f4xx_timer.c ****     \param[in]  timer_interrupt: timer interrupt enable source
 370:C:/Users/leonardo/Desktop/Code/Github/DawnBGC/Libraries/FWLIB/src\gd32f4xx_timer.c ****       \arg        TIMER_INT_UP: update interrupt enable, TIMERx(x=0..13)
 371:C:/Users/leonardo/Desktop/Code/Github/DawnBGC/Libraries/FWLIB/src\gd32f4xx_timer.c ****       \arg        TIMER_INT_CH0: channel 0 interrupt enable, TIMERx(x=0..4,7..13)
 372:C:/Users/leonardo/Desktop/Code/Github/DawnBGC/Libraries/FWLIB/src\gd32f4xx_timer.c ****       \arg        TIMER_INT_CH1: channel 1 interrupt enable, TIMERx(x=0..4,7,8,11)
 373:C:/Users/leonardo/Desktop/Code/Github/DawnBGC/Libraries/FWLIB/src\gd32f4xx_timer.c ****       \arg        TIMER_INT_CH2: channel 2 interrupt enable, TIMERx(x=0..4,7)
 374:C:/Users/leonardo/Desktop/Code/Github/DawnBGC/Libraries/FWLIB/src\gd32f4xx_timer.c ****       \arg        TIMER_INT_CH3: channel 3 interrupt enable , TIMERx(x=0..4,7)
 375:C:/Users/leonardo/Desktop/Code/Github/DawnBGC/Libraries/FWLIB/src\gd32f4xx_timer.c ****       \arg        TIMER_INT_CMT: commutation interrupt enable, TIMERx(x=0,7)
 376:C:/Users/leonardo/Desktop/Code/Github/DawnBGC/Libraries/FWLIB/src\gd32f4xx_timer.c ****       \arg        TIMER_INT_TRG: trigger interrupt enable, TIMERx(x=0..4,7,8,11)
 377:C:/Users/leonardo/Desktop/Code/Github/DawnBGC/Libraries/FWLIB/src\gd32f4xx_timer.c ****       \arg        TIMER_INT_BRK: break interrupt enable, TIMERx(x=0,7)
 378:C:/Users/leonardo/Desktop/Code/Github/DawnBGC/Libraries/FWLIB/src\gd32f4xx_timer.c ****     \param[out] none
 379:C:/Users/leonardo/Desktop/Code/Github/DawnBGC/Libraries/FWLIB/src\gd32f4xx_timer.c ****     \retval     none
 380:C:/Users/leonardo/Desktop/Code/Github/DawnBGC/Libraries/FWLIB/src\gd32f4xx_timer.c **** */
 381:C:/Users/leonardo/Desktop/Code/Github/DawnBGC/Libraries/FWLIB/src\gd32f4xx_timer.c **** void timer_interrupt_enable(uint32_t timer_periph,uint32_t timer_interrupt)
 382:C:/Users/leonardo/Desktop/Code/Github/DawnBGC/Libraries/FWLIB/src\gd32f4xx_timer.c **** {
 1315              		.loc 1 382 1
 1316              		.cfi_startproc
 1317              		@ args = 0, pretend = 0, frame = 8
 1318              		@ frame_needed = 1, uses_anonymous_args = 0
 1319              		@ link register save eliminated.
 1320 0000 80B4     		push	{r7}
 1321              		.cfi_def_cfa_offset 4
 1322              		.cfi_offset 7, -4
 1323 0002 83B0     		sub	sp, sp, #12
 1324              		.cfi_def_cfa_offset 16
 1325 0004 00AF     		add	r7, sp, #0
 1326              		.cfi_def_cfa_register 7
 1327 0006 7860     		str	r0, [r7, #4]
 1328 0008 3960     		str	r1, [r7]
 383:C:/Users/leonardo/Desktop/Code/Github/DawnBGC/Libraries/FWLIB/src\gd32f4xx_timer.c ****     TIMER_DMAINTEN(timer_periph) |= (uint32_t) timer_interrupt; 
 1329              		.loc 1 383 34
 1330 000a 7B68     		ldr	r3, [r7, #4]
 1331 000c 0C33     		adds	r3, r3, #12
 1332 000e 1A68     		ldr	r2, [r3]
 1333 0010 7B68     		ldr	r3, [r7, #4]
 1334 0012 0C33     		adds	r3, r3, #12
 1335 0014 1946     		mov	r1, r3
 1336 0016 3B68     		ldr	r3, [r7]
 1337 0018 1343     		orrs	r3, r3, r2
 1338 001a 0B60     		str	r3, [r1]
 384:C:/Users/leonardo/Desktop/Code/Github/DawnBGC/Libraries/FWLIB/src\gd32f4xx_timer.c **** }
 1339              		.loc 1 384 1
 1340 001c 00BF     		nop
 1341 001e 0C37     		adds	r7, r7, #12
 1342              		.cfi_def_cfa_offset 4
 1343 0020 BD46     		mov	sp, r7
 1344              		.cfi_def_cfa_register 13
 1345              		@ sp needed
 1346 0022 80BC     		pop	{r7}
 1347              		.cfi_restore 7
 1348              		.cfi_def_cfa_offset 0
 1349 0024 7047     		bx	lr
 1350              		.cfi_endproc
 1351              	.LFE142:
 1353              		.section	.text.timer_interrupt_disable,"ax",%progbits
 1354              		.align	1
 1355              		.global	timer_interrupt_disable
 1356              		.syntax unified
 1357              		.thumb
 1358              		.thumb_func
 1359              		.fpu softvfp
 1361              	timer_interrupt_disable:
 1362              	.LFB143:
 385:C:/Users/leonardo/Desktop/Code/Github/DawnBGC/Libraries/FWLIB/src\gd32f4xx_timer.c **** 
 386:C:/Users/leonardo/Desktop/Code/Github/DawnBGC/Libraries/FWLIB/src\gd32f4xx_timer.c **** /*!
 387:C:/Users/leonardo/Desktop/Code/Github/DawnBGC/Libraries/FWLIB/src\gd32f4xx_timer.c ****     \brief      disable the TIMER interrupt
 388:C:/Users/leonardo/Desktop/Code/Github/DawnBGC/Libraries/FWLIB/src\gd32f4xx_timer.c ****     \param[in]  timer_periph: please refer to the following parameters
 389:C:/Users/leonardo/Desktop/Code/Github/DawnBGC/Libraries/FWLIB/src\gd32f4xx_timer.c ****     \param[in]  timer_interrupt: timer interrupt source enable 
 390:C:/Users/leonardo/Desktop/Code/Github/DawnBGC/Libraries/FWLIB/src\gd32f4xx_timer.c ****       \arg        TIMER_INT_UP: update interrupt enable, TIMERx(x=0..13)
 391:C:/Users/leonardo/Desktop/Code/Github/DawnBGC/Libraries/FWLIB/src\gd32f4xx_timer.c ****       \arg        TIMER_INT_CH0: channel 0 interrupt enable, TIMERx(x=0..4,7..13)
 392:C:/Users/leonardo/Desktop/Code/Github/DawnBGC/Libraries/FWLIB/src\gd32f4xx_timer.c ****       \arg        TIMER_INT_CH1: channel 1 interrupt enable, TIMERx(x=0..4,7,8,11)
 393:C:/Users/leonardo/Desktop/Code/Github/DawnBGC/Libraries/FWLIB/src\gd32f4xx_timer.c ****       \arg        TIMER_INT_CH2: channel 2 interrupt enable, TIMERx(x=0..4,7)
 394:C:/Users/leonardo/Desktop/Code/Github/DawnBGC/Libraries/FWLIB/src\gd32f4xx_timer.c ****       \arg        TIMER_INT_CH3: channel 3 interrupt enable , TIMERx(x=0..4,7)
 395:C:/Users/leonardo/Desktop/Code/Github/DawnBGC/Libraries/FWLIB/src\gd32f4xx_timer.c ****       \arg        TIMER_INT_CMT: commutation interrupt enable, TIMERx(x=0,7)
 396:C:/Users/leonardo/Desktop/Code/Github/DawnBGC/Libraries/FWLIB/src\gd32f4xx_timer.c ****       \arg        TIMER_INT_TRG: trigger interrupt enable, TIMERx(x=0..4,7,8,11)
 397:C:/Users/leonardo/Desktop/Code/Github/DawnBGC/Libraries/FWLIB/src\gd32f4xx_timer.c ****       \arg        TIMER_INT_BRK: break interrupt enable, TIMERx(x=0,7)
 398:C:/Users/leonardo/Desktop/Code/Github/DawnBGC/Libraries/FWLIB/src\gd32f4xx_timer.c ****     \param[out] none
 399:C:/Users/leonardo/Desktop/Code/Github/DawnBGC/Libraries/FWLIB/src\gd32f4xx_timer.c ****     \retval     none
 400:C:/Users/leonardo/Desktop/Code/Github/DawnBGC/Libraries/FWLIB/src\gd32f4xx_timer.c **** */
 401:C:/Users/leonardo/Desktop/Code/Github/DawnBGC/Libraries/FWLIB/src\gd32f4xx_timer.c **** void timer_interrupt_disable(uint32_t timer_periph,uint32_t timer_interrupt)
 402:C:/Users/leonardo/Desktop/Code/Github/DawnBGC/Libraries/FWLIB/src\gd32f4xx_timer.c **** {
 1363              		.loc 1 402 1
 1364              		.cfi_startproc
 1365              		@ args = 0, pretend = 0, frame = 8
 1366              		@ frame_needed = 1, uses_anonymous_args = 0
 1367              		@ link register save eliminated.
 1368 0000 80B4     		push	{r7}
 1369              		.cfi_def_cfa_offset 4
 1370              		.cfi_offset 7, -4
 1371 0002 83B0     		sub	sp, sp, #12
 1372              		.cfi_def_cfa_offset 16
 1373 0004 00AF     		add	r7, sp, #0
 1374              		.cfi_def_cfa_register 7
 1375 0006 7860     		str	r0, [r7, #4]
 1376 0008 3960     		str	r1, [r7]
 403:C:/Users/leonardo/Desktop/Code/Github/DawnBGC/Libraries/FWLIB/src\gd32f4xx_timer.c ****     TIMER_DMAINTEN(timer_periph) &= (~(uint32_t)timer_interrupt); 
 1377              		.loc 1 403 34
 1378 000a 7B68     		ldr	r3, [r7, #4]
 1379 000c 0C33     		adds	r3, r3, #12
 1380 000e 1A68     		ldr	r2, [r3]
 1381              		.loc 1 403 38
 1382 0010 3B68     		ldr	r3, [r7]
 1383 0012 DB43     		mvns	r3, r3
 1384              		.loc 1 403 34
 1385 0014 7968     		ldr	r1, [r7, #4]
 1386 0016 0C31     		adds	r1, r1, #12
 1387 0018 1340     		ands	r3, r3, r2
 1388 001a 0B60     		str	r3, [r1]
 404:C:/Users/leonardo/Desktop/Code/Github/DawnBGC/Libraries/FWLIB/src\gd32f4xx_timer.c **** }
 1389              		.loc 1 404 1
 1390 001c 00BF     		nop
 1391 001e 0C37     		adds	r7, r7, #12
 1392              		.cfi_def_cfa_offset 4
 1393 0020 BD46     		mov	sp, r7
 1394              		.cfi_def_cfa_register 13
 1395              		@ sp needed
 1396 0022 80BC     		pop	{r7}
 1397              		.cfi_restore 7
 1398              		.cfi_def_cfa_offset 0
 1399 0024 7047     		bx	lr
 1400              		.cfi_endproc
 1401              	.LFE143:
 1403              		.section	.text.timer_interrupt_flag_get,"ax",%progbits
 1404              		.align	1
 1405              		.global	timer_interrupt_flag_get
 1406              		.syntax unified
 1407              		.thumb
 1408              		.thumb_func
 1409              		.fpu softvfp
 1411              	timer_interrupt_flag_get:
 1412              	.LFB144:
 405:C:/Users/leonardo/Desktop/Code/Github/DawnBGC/Libraries/FWLIB/src\gd32f4xx_timer.c **** 
 406:C:/Users/leonardo/Desktop/Code/Github/DawnBGC/Libraries/FWLIB/src\gd32f4xx_timer.c **** /*!
 407:C:/Users/leonardo/Desktop/Code/Github/DawnBGC/Libraries/FWLIB/src\gd32f4xx_timer.c ****     \brief      get timer interrupt flag
 408:C:/Users/leonardo/Desktop/Code/Github/DawnBGC/Libraries/FWLIB/src\gd32f4xx_timer.c ****     \param[in]  timer_periph: please refer to the following parameters
 409:C:/Users/leonardo/Desktop/Code/Github/DawnBGC/Libraries/FWLIB/src\gd32f4xx_timer.c ****     \param[in]  timer_interrupt: the timer interrupt bits
 410:C:/Users/leonardo/Desktop/Code/Github/DawnBGC/Libraries/FWLIB/src\gd32f4xx_timer.c ****       \arg        TIMER_INT_UP: update interrupt flag,TIMERx(x=0..13)
 411:C:/Users/leonardo/Desktop/Code/Github/DawnBGC/Libraries/FWLIB/src\gd32f4xx_timer.c ****       \arg        TIMER_INT_CH0: channel 0 interrupt flag,TIMERx(x=0..4,7..13)
 412:C:/Users/leonardo/Desktop/Code/Github/DawnBGC/Libraries/FWLIB/src\gd32f4xx_timer.c ****       \arg        TIMER_INT_CH1: channel 1 interrupt flag,TIMERx(x=0..4,7,8,11)
 413:C:/Users/leonardo/Desktop/Code/Github/DawnBGC/Libraries/FWLIB/src\gd32f4xx_timer.c ****       \arg        TIMER_INT_CH2: channel 2 interrupt flag,TIMERx(x=0..4,7)
 414:C:/Users/leonardo/Desktop/Code/Github/DawnBGC/Libraries/FWLIB/src\gd32f4xx_timer.c ****       \arg        TIMER_INT_CH3: channel 3 interrupt flag,TIMERx(x=0..4,7)
 415:C:/Users/leonardo/Desktop/Code/Github/DawnBGC/Libraries/FWLIB/src\gd32f4xx_timer.c ****       \arg        TIMER_INT_CMT: channel commutation interrupt flag,TIMERx(x=0,7) 
 416:C:/Users/leonardo/Desktop/Code/Github/DawnBGC/Libraries/FWLIB/src\gd32f4xx_timer.c ****       \arg        TIMER_INT_TRG: trigger interrupt flag,TIMERx(x=0,7,8,11)
 417:C:/Users/leonardo/Desktop/Code/Github/DawnBGC/Libraries/FWLIB/src\gd32f4xx_timer.c ****       \arg        TIMER_INT_BRK:  break interrupt flag,TIMERx(x=0,7)
 418:C:/Users/leonardo/Desktop/Code/Github/DawnBGC/Libraries/FWLIB/src\gd32f4xx_timer.c ****     \param[out] none
 419:C:/Users/leonardo/Desktop/Code/Github/DawnBGC/Libraries/FWLIB/src\gd32f4xx_timer.c ****     \retval     FlagStatus: SET or RESET
 420:C:/Users/leonardo/Desktop/Code/Github/DawnBGC/Libraries/FWLIB/src\gd32f4xx_timer.c **** */
 421:C:/Users/leonardo/Desktop/Code/Github/DawnBGC/Libraries/FWLIB/src\gd32f4xx_timer.c **** FlagStatus timer_interrupt_flag_get(uint32_t timer_periph,uint32_t timer_interrupt)
 422:C:/Users/leonardo/Desktop/Code/Github/DawnBGC/Libraries/FWLIB/src\gd32f4xx_timer.c **** {
 1413              		.loc 1 422 1
 1414              		.cfi_startproc
 1415              		@ args = 0, pretend = 0, frame = 16
 1416              		@ frame_needed = 1, uses_anonymous_args = 0
 1417              		@ link register save eliminated.
 1418 0000 80B4     		push	{r7}
 1419              		.cfi_def_cfa_offset 4
 1420              		.cfi_offset 7, -4
 1421 0002 85B0     		sub	sp, sp, #20
 1422              		.cfi_def_cfa_offset 24
 1423 0004 00AF     		add	r7, sp, #0
 1424              		.cfi_def_cfa_register 7
 1425 0006 7860     		str	r0, [r7, #4]
 1426 0008 3960     		str	r1, [r7]
 423:C:/Users/leonardo/Desktop/Code/Github/DawnBGC/Libraries/FWLIB/src\gd32f4xx_timer.c ****     uint32_t val;
 424:C:/Users/leonardo/Desktop/Code/Github/DawnBGC/Libraries/FWLIB/src\gd32f4xx_timer.c ****     val = (TIMER_DMAINTEN(timer_periph) & timer_interrupt);
 1427              		.loc 1 424 12
 1428 000a 7B68     		ldr	r3, [r7, #4]
 1429 000c 0C33     		adds	r3, r3, #12
 1430 000e 1B68     		ldr	r3, [r3]
 1431              		.loc 1 424 9
 1432 0010 3A68     		ldr	r2, [r7]
 1433 0012 1340     		ands	r3, r3, r2
 1434 0014 FB60     		str	r3, [r7, #12]
 425:C:/Users/leonardo/Desktop/Code/Github/DawnBGC/Libraries/FWLIB/src\gd32f4xx_timer.c ****     if((RESET != (TIMER_INTF(timer_periph) & timer_interrupt) ) && (RESET != val)){
 1435              		.loc 1 425 19
 1436 0016 7B68     		ldr	r3, [r7, #4]
 1437 0018 1033     		adds	r3, r3, #16
 1438 001a 1A68     		ldr	r2, [r3]
 1439              		.loc 1 425 44
 1440 001c 3B68     		ldr	r3, [r7]
 1441 001e 1340     		ands	r3, r3, r2
 1442              		.loc 1 425 7
 1443 0020 002B     		cmp	r3, #0
 1444 0022 04D0     		beq	.L59
 1445              		.loc 1 425 65 discriminator 1
 1446 0024 FB68     		ldr	r3, [r7, #12]
 1447 0026 002B     		cmp	r3, #0
 1448 0028 01D0     		beq	.L59
 426:C:/Users/leonardo/Desktop/Code/Github/DawnBGC/Libraries/FWLIB/src\gd32f4xx_timer.c ****         return SET;
 1449              		.loc 1 426 16
 1450 002a 0123     		movs	r3, #1
 1451 002c 00E0     		b	.L60
 1452              	.L59:
 427:C:/Users/leonardo/Desktop/Code/Github/DawnBGC/Libraries/FWLIB/src\gd32f4xx_timer.c ****     }else{
 428:C:/Users/leonardo/Desktop/Code/Github/DawnBGC/Libraries/FWLIB/src\gd32f4xx_timer.c ****         return RESET;
 1453              		.loc 1 428 16
 1454 002e 0023     		movs	r3, #0
 1455              	.L60:
 429:C:/Users/leonardo/Desktop/Code/Github/DawnBGC/Libraries/FWLIB/src\gd32f4xx_timer.c ****     }
 430:C:/Users/leonardo/Desktop/Code/Github/DawnBGC/Libraries/FWLIB/src\gd32f4xx_timer.c **** }
 1456              		.loc 1 430 1
 1457 0030 1846     		mov	r0, r3
 1458 0032 1437     		adds	r7, r7, #20
 1459              		.cfi_def_cfa_offset 4
 1460 0034 BD46     		mov	sp, r7
 1461              		.cfi_def_cfa_register 13
 1462              		@ sp needed
 1463 0036 80BC     		pop	{r7}
 1464              		.cfi_restore 7
 1465              		.cfi_def_cfa_offset 0
 1466 0038 7047     		bx	lr
 1467              		.cfi_endproc
 1468              	.LFE144:
 1470              		.section	.text.timer_interrupt_flag_clear,"ax",%progbits
 1471              		.align	1
 1472              		.global	timer_interrupt_flag_clear
 1473              		.syntax unified
 1474              		.thumb
 1475              		.thumb_func
 1476              		.fpu softvfp
 1478              	timer_interrupt_flag_clear:
 1479              	.LFB145:
 431:C:/Users/leonardo/Desktop/Code/Github/DawnBGC/Libraries/FWLIB/src\gd32f4xx_timer.c **** 
 432:C:/Users/leonardo/Desktop/Code/Github/DawnBGC/Libraries/FWLIB/src\gd32f4xx_timer.c **** /*!
 433:C:/Users/leonardo/Desktop/Code/Github/DawnBGC/Libraries/FWLIB/src\gd32f4xx_timer.c ****     \brief      clear TIMER interrupt flag
 434:C:/Users/leonardo/Desktop/Code/Github/DawnBGC/Libraries/FWLIB/src\gd32f4xx_timer.c ****     \param[in]  timer_periph: please refer to the following parameters
 435:C:/Users/leonardo/Desktop/Code/Github/DawnBGC/Libraries/FWLIB/src\gd32f4xx_timer.c ****     \param[in]  timer_interrupt: the timer interrupt bits
 436:C:/Users/leonardo/Desktop/Code/Github/DawnBGC/Libraries/FWLIB/src\gd32f4xx_timer.c ****       \arg        TIMER_INT_UP: update interrupt flag,TIMERx(x=0..13)
 437:C:/Users/leonardo/Desktop/Code/Github/DawnBGC/Libraries/FWLIB/src\gd32f4xx_timer.c ****       \arg        TIMER_INT_CH0: channel 0 interrupt flag,TIMERx(x=0..4,7..13)
 438:C:/Users/leonardo/Desktop/Code/Github/DawnBGC/Libraries/FWLIB/src\gd32f4xx_timer.c ****       \arg        TIMER_INT_CH1: channel 1 interrupt flag,TIMERx(x=0..4,7,8,11)
 439:C:/Users/leonardo/Desktop/Code/Github/DawnBGC/Libraries/FWLIB/src\gd32f4xx_timer.c ****       \arg        TIMER_INT_CH2: channel 2 interrupt flag,TIMERx(x=0..4,7)
 440:C:/Users/leonardo/Desktop/Code/Github/DawnBGC/Libraries/FWLIB/src\gd32f4xx_timer.c ****       \arg        TIMER_INT_CH3: channel 3 interrupt flag,TIMERx(x=0..4,7)
 441:C:/Users/leonardo/Desktop/Code/Github/DawnBGC/Libraries/FWLIB/src\gd32f4xx_timer.c ****       \arg        TIMER_INT_CMT: channel commutation interrupt flag,TIMERx(x=0,7) 
 442:C:/Users/leonardo/Desktop/Code/Github/DawnBGC/Libraries/FWLIB/src\gd32f4xx_timer.c ****       \arg        TIMER_INT_TRG: trigger interrupt flag,TIMERx(x=0,7,8,11)
 443:C:/Users/leonardo/Desktop/Code/Github/DawnBGC/Libraries/FWLIB/src\gd32f4xx_timer.c ****       \arg        TIMER_INT_BRK:  break interrupt flag,TIMERx(x=0,7)
 444:C:/Users/leonardo/Desktop/Code/Github/DawnBGC/Libraries/FWLIB/src\gd32f4xx_timer.c ****     \param[out] none
 445:C:/Users/leonardo/Desktop/Code/Github/DawnBGC/Libraries/FWLIB/src\gd32f4xx_timer.c ****     \retval     none
 446:C:/Users/leonardo/Desktop/Code/Github/DawnBGC/Libraries/FWLIB/src\gd32f4xx_timer.c **** */
 447:C:/Users/leonardo/Desktop/Code/Github/DawnBGC/Libraries/FWLIB/src\gd32f4xx_timer.c **** void timer_interrupt_flag_clear(uint32_t timer_periph,uint32_t timer_interrupt)
 448:C:/Users/leonardo/Desktop/Code/Github/DawnBGC/Libraries/FWLIB/src\gd32f4xx_timer.c **** {
 1480              		.loc 1 448 1
 1481              		.cfi_startproc
 1482              		@ args = 0, pretend = 0, frame = 8
 1483              		@ frame_needed = 1, uses_anonymous_args = 0
 1484              		@ link register save eliminated.
 1485 0000 80B4     		push	{r7}
 1486              		.cfi_def_cfa_offset 4
 1487              		.cfi_offset 7, -4
 1488 0002 83B0     		sub	sp, sp, #12
 1489              		.cfi_def_cfa_offset 16
 1490 0004 00AF     		add	r7, sp, #0
 1491              		.cfi_def_cfa_register 7
 1492 0006 7860     		str	r0, [r7, #4]
 1493 0008 3960     		str	r1, [r7]
 449:C:/Users/leonardo/Desktop/Code/Github/DawnBGC/Libraries/FWLIB/src\gd32f4xx_timer.c ****     TIMER_INTF(timer_periph) &= (~(uint32_t)timer_interrupt);
 1494              		.loc 1 449 30
 1495 000a 7B68     		ldr	r3, [r7, #4]
 1496 000c 1033     		adds	r3, r3, #16
 1497 000e 1A68     		ldr	r2, [r3]
 1498              		.loc 1 449 34
 1499 0010 3B68     		ldr	r3, [r7]
 1500 0012 DB43     		mvns	r3, r3
 1501              		.loc 1 449 30
 1502 0014 7968     		ldr	r1, [r7, #4]
 1503 0016 1031     		adds	r1, r1, #16
 1504 0018 1340     		ands	r3, r3, r2
 1505 001a 0B60     		str	r3, [r1]
 450:C:/Users/leonardo/Desktop/Code/Github/DawnBGC/Libraries/FWLIB/src\gd32f4xx_timer.c **** }
 1506              		.loc 1 450 1
 1507 001c 00BF     		nop
 1508 001e 0C37     		adds	r7, r7, #12
 1509              		.cfi_def_cfa_offset 4
 1510 0020 BD46     		mov	sp, r7
 1511              		.cfi_def_cfa_register 13
 1512              		@ sp needed
 1513 0022 80BC     		pop	{r7}
 1514              		.cfi_restore 7
 1515              		.cfi_def_cfa_offset 0
 1516 0024 7047     		bx	lr
 1517              		.cfi_endproc
 1518              	.LFE145:
 1520              		.section	.text.timer_flag_get,"ax",%progbits
 1521              		.align	1
 1522              		.global	timer_flag_get
 1523              		.syntax unified
 1524              		.thumb
 1525              		.thumb_func
 1526              		.fpu softvfp
 1528              	timer_flag_get:
 1529              	.LFB146:
 451:C:/Users/leonardo/Desktop/Code/Github/DawnBGC/Libraries/FWLIB/src\gd32f4xx_timer.c **** 
 452:C:/Users/leonardo/Desktop/Code/Github/DawnBGC/Libraries/FWLIB/src\gd32f4xx_timer.c **** /*!
 453:C:/Users/leonardo/Desktop/Code/Github/DawnBGC/Libraries/FWLIB/src\gd32f4xx_timer.c ****     \brief      get TIMER flags
 454:C:/Users/leonardo/Desktop/Code/Github/DawnBGC/Libraries/FWLIB/src\gd32f4xx_timer.c ****     \param[in]  timer_periph: please refer to the following parameters
 455:C:/Users/leonardo/Desktop/Code/Github/DawnBGC/Libraries/FWLIB/src\gd32f4xx_timer.c ****     \param[in]  timer_flag: the timer interrupt flags
 456:C:/Users/leonardo/Desktop/Code/Github/DawnBGC/Libraries/FWLIB/src\gd32f4xx_timer.c ****       \arg        TIMER_FLAG_UP: update flag,TIMERx(x=0..13)
 457:C:/Users/leonardo/Desktop/Code/Github/DawnBGC/Libraries/FWLIB/src\gd32f4xx_timer.c ****       \arg        TIMER_FLAG_CH0: channel 0 flag,TIMERx(x=0..4,7..13)
 458:C:/Users/leonardo/Desktop/Code/Github/DawnBGC/Libraries/FWLIB/src\gd32f4xx_timer.c ****       \arg        TIMER_FLAG_CH1: channel 1 flag,TIMERx(x=0..4,7,8,11)
 459:C:/Users/leonardo/Desktop/Code/Github/DawnBGC/Libraries/FWLIB/src\gd32f4xx_timer.c ****       \arg        TIMER_FLAG_CH2: channel 2 flag,TIMERx(x=0..4,7)
 460:C:/Users/leonardo/Desktop/Code/Github/DawnBGC/Libraries/FWLIB/src\gd32f4xx_timer.c ****       \arg        TIMER_FLAG_CH3: channel 3 flag,TIMERx(x=0..4,7)
 461:C:/Users/leonardo/Desktop/Code/Github/DawnBGC/Libraries/FWLIB/src\gd32f4xx_timer.c ****       \arg        TIMER_FLAG_CMT: channel control update flag,TIMERx(x=0,7) 
 462:C:/Users/leonardo/Desktop/Code/Github/DawnBGC/Libraries/FWLIB/src\gd32f4xx_timer.c ****       \arg        TIMER_FLAG_TRG: trigger flag,TIMERx(x=0,7,8,11) 
 463:C:/Users/leonardo/Desktop/Code/Github/DawnBGC/Libraries/FWLIB/src\gd32f4xx_timer.c ****       \arg        TIMER_FLAG_BRK: break flag,TIMERx(x=0,7)
 464:C:/Users/leonardo/Desktop/Code/Github/DawnBGC/Libraries/FWLIB/src\gd32f4xx_timer.c ****       \arg        TIMER_FLAG_CH0OF: channel 0 overcapture flag,TIMERx(x=0..4,7..11)
 465:C:/Users/leonardo/Desktop/Code/Github/DawnBGC/Libraries/FWLIB/src\gd32f4xx_timer.c ****       \arg        TIMER_FLAG_CH1OF: channel 1 overcapture flag,TIMERx(x=0..4,7,8,11)
 466:C:/Users/leonardo/Desktop/Code/Github/DawnBGC/Libraries/FWLIB/src\gd32f4xx_timer.c ****       \arg        TIMER_FLAG_CH2OF: channel 2 overcapture flag,TIMERx(x=0..4,7)
 467:C:/Users/leonardo/Desktop/Code/Github/DawnBGC/Libraries/FWLIB/src\gd32f4xx_timer.c ****       \arg        TIMER_FLAG_CH3OF: channel 3 overcapture flag,TIMERx(x=0..4,7)
 468:C:/Users/leonardo/Desktop/Code/Github/DawnBGC/Libraries/FWLIB/src\gd32f4xx_timer.c ****     \param[out] none
 469:C:/Users/leonardo/Desktop/Code/Github/DawnBGC/Libraries/FWLIB/src\gd32f4xx_timer.c ****     \retval     FlagStatus: SET or RESET
 470:C:/Users/leonardo/Desktop/Code/Github/DawnBGC/Libraries/FWLIB/src\gd32f4xx_timer.c **** */
 471:C:/Users/leonardo/Desktop/Code/Github/DawnBGC/Libraries/FWLIB/src\gd32f4xx_timer.c **** FlagStatus timer_flag_get(uint32_t timer_periph , uint32_t timer_flag)
 472:C:/Users/leonardo/Desktop/Code/Github/DawnBGC/Libraries/FWLIB/src\gd32f4xx_timer.c **** {
 1530              		.loc 1 472 1
 1531              		.cfi_startproc
 1532              		@ args = 0, pretend = 0, frame = 8
 1533              		@ frame_needed = 1, uses_anonymous_args = 0
 1534              		@ link register save eliminated.
 1535 0000 80B4     		push	{r7}
 1536              		.cfi_def_cfa_offset 4
 1537              		.cfi_offset 7, -4
 1538 0002 83B0     		sub	sp, sp, #12
 1539              		.cfi_def_cfa_offset 16
 1540 0004 00AF     		add	r7, sp, #0
 1541              		.cfi_def_cfa_register 7
 1542 0006 7860     		str	r0, [r7, #4]
 1543 0008 3960     		str	r1, [r7]
 473:C:/Users/leonardo/Desktop/Code/Github/DawnBGC/Libraries/FWLIB/src\gd32f4xx_timer.c ****     if(RESET != (TIMER_INTF(timer_periph) & timer_flag)){
 1544              		.loc 1 473 18
 1545 000a 7B68     		ldr	r3, [r7, #4]
 1546 000c 1033     		adds	r3, r3, #16
 1547 000e 1A68     		ldr	r2, [r3]
 1548              		.loc 1 473 43
 1549 0010 3B68     		ldr	r3, [r7]
 1550 0012 1340     		ands	r3, r3, r2
 1551              		.loc 1 473 7
 1552 0014 002B     		cmp	r3, #0
 1553 0016 01D0     		beq	.L63
 474:C:/Users/leonardo/Desktop/Code/Github/DawnBGC/Libraries/FWLIB/src\gd32f4xx_timer.c ****         return SET;
 1554              		.loc 1 474 16
 1555 0018 0123     		movs	r3, #1
 1556 001a 00E0     		b	.L64
 1557              	.L63:
 475:C:/Users/leonardo/Desktop/Code/Github/DawnBGC/Libraries/FWLIB/src\gd32f4xx_timer.c ****     }else{
 476:C:/Users/leonardo/Desktop/Code/Github/DawnBGC/Libraries/FWLIB/src\gd32f4xx_timer.c ****         return RESET;
 1558              		.loc 1 476 16
 1559 001c 0023     		movs	r3, #0
 1560              	.L64:
 477:C:/Users/leonardo/Desktop/Code/Github/DawnBGC/Libraries/FWLIB/src\gd32f4xx_timer.c ****     }
 478:C:/Users/leonardo/Desktop/Code/Github/DawnBGC/Libraries/FWLIB/src\gd32f4xx_timer.c **** }
 1561              		.loc 1 478 1
 1562 001e 1846     		mov	r0, r3
 1563 0020 0C37     		adds	r7, r7, #12
 1564              		.cfi_def_cfa_offset 4
 1565 0022 BD46     		mov	sp, r7
 1566              		.cfi_def_cfa_register 13
 1567              		@ sp needed
 1568 0024 80BC     		pop	{r7}
 1569              		.cfi_restore 7
 1570              		.cfi_def_cfa_offset 0
 1571 0026 7047     		bx	lr
 1572              		.cfi_endproc
 1573              	.LFE146:
 1575              		.section	.text.timer_flag_clear,"ax",%progbits
 1576              		.align	1
 1577              		.global	timer_flag_clear
 1578              		.syntax unified
 1579              		.thumb
 1580              		.thumb_func
 1581              		.fpu softvfp
 1583              	timer_flag_clear:
 1584              	.LFB147:
 479:C:/Users/leonardo/Desktop/Code/Github/DawnBGC/Libraries/FWLIB/src\gd32f4xx_timer.c **** 
 480:C:/Users/leonardo/Desktop/Code/Github/DawnBGC/Libraries/FWLIB/src\gd32f4xx_timer.c **** /*!
 481:C:/Users/leonardo/Desktop/Code/Github/DawnBGC/Libraries/FWLIB/src\gd32f4xx_timer.c ****     \brief      clear TIMER flags
 482:C:/Users/leonardo/Desktop/Code/Github/DawnBGC/Libraries/FWLIB/src\gd32f4xx_timer.c ****     \param[in]  timer_periph: please refer to the following parameters
 483:C:/Users/leonardo/Desktop/Code/Github/DawnBGC/Libraries/FWLIB/src\gd32f4xx_timer.c ****     \param[in]  timer_flag: the timer interrupt flags
 484:C:/Users/leonardo/Desktop/Code/Github/DawnBGC/Libraries/FWLIB/src\gd32f4xx_timer.c ****       \arg        TIMER_FLAG_UP: update flag,TIMERx(x=0..13)
 485:C:/Users/leonardo/Desktop/Code/Github/DawnBGC/Libraries/FWLIB/src\gd32f4xx_timer.c ****       \arg        TIMER_FLAG_CH0: channel 0 flag,TIMERx(x=0..4,7..13)
 486:C:/Users/leonardo/Desktop/Code/Github/DawnBGC/Libraries/FWLIB/src\gd32f4xx_timer.c ****       \arg        TIMER_FLAG_CH1: channel 1 flag,TIMERx(x=0..4,7,8,11)
 487:C:/Users/leonardo/Desktop/Code/Github/DawnBGC/Libraries/FWLIB/src\gd32f4xx_timer.c ****       \arg        TIMER_FLAG_CH2: channel 2 flag,TIMERx(x=0..4,7)
 488:C:/Users/leonardo/Desktop/Code/Github/DawnBGC/Libraries/FWLIB/src\gd32f4xx_timer.c ****       \arg        TIMER_FLAG_CH3: channel 3 flag,TIMERx(x=0..4,7)
 489:C:/Users/leonardo/Desktop/Code/Github/DawnBGC/Libraries/FWLIB/src\gd32f4xx_timer.c ****       \arg        TIMER_FLAG_CMT: channel control update flag,TIMERx(x=0,7) 
 490:C:/Users/leonardo/Desktop/Code/Github/DawnBGC/Libraries/FWLIB/src\gd32f4xx_timer.c ****       \arg        TIMER_FLAG_TRG: trigger flag,TIMERx(x=0,7,8,11) 
 491:C:/Users/leonardo/Desktop/Code/Github/DawnBGC/Libraries/FWLIB/src\gd32f4xx_timer.c ****       \arg        TIMER_FLAG_BRK: break flag,TIMERx(x=0,7)
 492:C:/Users/leonardo/Desktop/Code/Github/DawnBGC/Libraries/FWLIB/src\gd32f4xx_timer.c ****       \arg        TIMER_FLAG_CH0OF: channel 0 overcapture flag,TIMERx(x=0..4,7..11)
 493:C:/Users/leonardo/Desktop/Code/Github/DawnBGC/Libraries/FWLIB/src\gd32f4xx_timer.c ****       \arg        TIMER_FLAG_CH1OF: channel 1 overcapture flag,TIMERx(x=0..4,7,8,11)
 494:C:/Users/leonardo/Desktop/Code/Github/DawnBGC/Libraries/FWLIB/src\gd32f4xx_timer.c ****       \arg        TIMER_FLAG_CH2OF: channel 2 overcapture flag,TIMERx(x=0..4,7)
 495:C:/Users/leonardo/Desktop/Code/Github/DawnBGC/Libraries/FWLIB/src\gd32f4xx_timer.c ****       \arg        TIMER_FLAG_CH3OF: channel 3 overcapture flag,TIMERx(x=0..4,7)
 496:C:/Users/leonardo/Desktop/Code/Github/DawnBGC/Libraries/FWLIB/src\gd32f4xx_timer.c ****     \param[out] none
 497:C:/Users/leonardo/Desktop/Code/Github/DawnBGC/Libraries/FWLIB/src\gd32f4xx_timer.c ****     \retval     none
 498:C:/Users/leonardo/Desktop/Code/Github/DawnBGC/Libraries/FWLIB/src\gd32f4xx_timer.c **** */
 499:C:/Users/leonardo/Desktop/Code/Github/DawnBGC/Libraries/FWLIB/src\gd32f4xx_timer.c **** void timer_flag_clear(uint32_t timer_periph , uint32_t timer_flag)
 500:C:/Users/leonardo/Desktop/Code/Github/DawnBGC/Libraries/FWLIB/src\gd32f4xx_timer.c **** {
 1585              		.loc 1 500 1
 1586              		.cfi_startproc
 1587              		@ args = 0, pretend = 0, frame = 8
 1588              		@ frame_needed = 1, uses_anonymous_args = 0
 1589              		@ link register save eliminated.
 1590 0000 80B4     		push	{r7}
 1591              		.cfi_def_cfa_offset 4
 1592              		.cfi_offset 7, -4
 1593 0002 83B0     		sub	sp, sp, #12
 1594              		.cfi_def_cfa_offset 16
 1595 0004 00AF     		add	r7, sp, #0
 1596              		.cfi_def_cfa_register 7
 1597 0006 7860     		str	r0, [r7, #4]
 1598 0008 3960     		str	r1, [r7]
 501:C:/Users/leonardo/Desktop/Code/Github/DawnBGC/Libraries/FWLIB/src\gd32f4xx_timer.c ****     TIMER_INTF(timer_periph) &= (~(uint32_t)timer_flag);
 1599              		.loc 1 501 30
 1600 000a 7B68     		ldr	r3, [r7, #4]
 1601 000c 1033     		adds	r3, r3, #16
 1602 000e 1A68     		ldr	r2, [r3]
 1603              		.loc 1 501 34
 1604 0010 3B68     		ldr	r3, [r7]
 1605 0012 DB43     		mvns	r3, r3
 1606              		.loc 1 501 30
 1607 0014 7968     		ldr	r1, [r7, #4]
 1608 0016 1031     		adds	r1, r1, #16
 1609 0018 1340     		ands	r3, r3, r2
 1610 001a 0B60     		str	r3, [r1]
 502:C:/Users/leonardo/Desktop/Code/Github/DawnBGC/Libraries/FWLIB/src\gd32f4xx_timer.c **** }
 1611              		.loc 1 502 1
 1612 001c 00BF     		nop
 1613 001e 0C37     		adds	r7, r7, #12
 1614              		.cfi_def_cfa_offset 4
 1615 0020 BD46     		mov	sp, r7
 1616              		.cfi_def_cfa_register 13
 1617              		@ sp needed
 1618 0022 80BC     		pop	{r7}
 1619              		.cfi_restore 7
 1620              		.cfi_def_cfa_offset 0
 1621 0024 7047     		bx	lr
 1622              		.cfi_endproc
 1623              	.LFE147:
 1625              		.section	.text.timer_dma_enable,"ax",%progbits
 1626              		.align	1
 1627              		.global	timer_dma_enable
 1628              		.syntax unified
 1629              		.thumb
 1630              		.thumb_func
 1631              		.fpu softvfp
 1633              	timer_dma_enable:
 1634              	.LFB148:
 503:C:/Users/leonardo/Desktop/Code/Github/DawnBGC/Libraries/FWLIB/src\gd32f4xx_timer.c **** 
 504:C:/Users/leonardo/Desktop/Code/Github/DawnBGC/Libraries/FWLIB/src\gd32f4xx_timer.c **** /*!
 505:C:/Users/leonardo/Desktop/Code/Github/DawnBGC/Libraries/FWLIB/src\gd32f4xx_timer.c ****     \brief      enable the TIMER DMA
 506:C:/Users/leonardo/Desktop/Code/Github/DawnBGC/Libraries/FWLIB/src\gd32f4xx_timer.c ****     \param[in]  timer_periph: TIMERx(x=0,1,2,5,14,15,16)
 507:C:/Users/leonardo/Desktop/Code/Github/DawnBGC/Libraries/FWLIB/src\gd32f4xx_timer.c ****     \param[in]  timer_dma: timer DMA source enable 
 508:C:/Users/leonardo/Desktop/Code/Github/DawnBGC/Libraries/FWLIB/src\gd32f4xx_timer.c ****       \arg        TIMER_DMA_UPD:  update DMA enable,TIMERx(x=0..7)
 509:C:/Users/leonardo/Desktop/Code/Github/DawnBGC/Libraries/FWLIB/src\gd32f4xx_timer.c ****       \arg        TIMER_DMA_CH0D: channel 0 DMA enable,TIMERx(x=0..4,7)
 510:C:/Users/leonardo/Desktop/Code/Github/DawnBGC/Libraries/FWLIB/src\gd32f4xx_timer.c ****       \arg        TIMER_DMA_CH1D: channel 1 DMA enable,TIMERx(x=0..4,7)
 511:C:/Users/leonardo/Desktop/Code/Github/DawnBGC/Libraries/FWLIB/src\gd32f4xx_timer.c ****       \arg        TIMER_DMA_CH2D: channel 2 DMA enable,TIMERx(x=0..4,7)
 512:C:/Users/leonardo/Desktop/Code/Github/DawnBGC/Libraries/FWLIB/src\gd32f4xx_timer.c ****       \arg        TIMER_DMA_CH3D: channel 3 DMA enable,TIMERx(x=0..4,7)
 513:C:/Users/leonardo/Desktop/Code/Github/DawnBGC/Libraries/FWLIB/src\gd32f4xx_timer.c ****       \arg        TIMER_DMA_CMTD: commutation DMA request enable,TIMERx(x=0,7)
 514:C:/Users/leonardo/Desktop/Code/Github/DawnBGC/Libraries/FWLIB/src\gd32f4xx_timer.c ****       \arg        TIMER_DMA_TRGD: trigger DMA enable,TIMERx(x=0..4,7)
 515:C:/Users/leonardo/Desktop/Code/Github/DawnBGC/Libraries/FWLIB/src\gd32f4xx_timer.c ****     \param[out] none
 516:C:/Users/leonardo/Desktop/Code/Github/DawnBGC/Libraries/FWLIB/src\gd32f4xx_timer.c ****     \retval     none
 517:C:/Users/leonardo/Desktop/Code/Github/DawnBGC/Libraries/FWLIB/src\gd32f4xx_timer.c **** */
 518:C:/Users/leonardo/Desktop/Code/Github/DawnBGC/Libraries/FWLIB/src\gd32f4xx_timer.c **** void timer_dma_enable(uint32_t timer_periph,uint16_t timer_dma)
 519:C:/Users/leonardo/Desktop/Code/Github/DawnBGC/Libraries/FWLIB/src\gd32f4xx_timer.c **** {
 1635              		.loc 1 519 1
 1636              		.cfi_startproc
 1637              		@ args = 0, pretend = 0, frame = 8
 1638              		@ frame_needed = 1, uses_anonymous_args = 0
 1639              		@ link register save eliminated.
 1640 0000 80B4     		push	{r7}
 1641              		.cfi_def_cfa_offset 4
 1642              		.cfi_offset 7, -4
 1643 0002 83B0     		sub	sp, sp, #12
 1644              		.cfi_def_cfa_offset 16
 1645 0004 00AF     		add	r7, sp, #0
 1646              		.cfi_def_cfa_register 7
 1647 0006 7860     		str	r0, [r7, #4]
 1648 0008 0B46     		mov	r3, r1
 1649 000a 7B80     		strh	r3, [r7, #2]	@ movhi
 520:C:/Users/leonardo/Desktop/Code/Github/DawnBGC/Libraries/FWLIB/src\gd32f4xx_timer.c ****     TIMER_DMAINTEN(timer_periph) |= (uint32_t) timer_dma; 
 1650              		.loc 1 520 34
 1651 000c 7B68     		ldr	r3, [r7, #4]
 1652 000e 0C33     		adds	r3, r3, #12
 1653 0010 1A68     		ldr	r2, [r3]
 1654              		.loc 1 520 37
 1655 0012 7B88     		ldrh	r3, [r7, #2]
 1656              		.loc 1 520 34
 1657 0014 7968     		ldr	r1, [r7, #4]
 1658 0016 0C31     		adds	r1, r1, #12
 1659 0018 1343     		orrs	r3, r3, r2
 1660 001a 0B60     		str	r3, [r1]
 521:C:/Users/leonardo/Desktop/Code/Github/DawnBGC/Libraries/FWLIB/src\gd32f4xx_timer.c **** }
 1661              		.loc 1 521 1
 1662 001c 00BF     		nop
 1663 001e 0C37     		adds	r7, r7, #12
 1664              		.cfi_def_cfa_offset 4
 1665 0020 BD46     		mov	sp, r7
 1666              		.cfi_def_cfa_register 13
 1667              		@ sp needed
 1668 0022 80BC     		pop	{r7}
 1669              		.cfi_restore 7
 1670              		.cfi_def_cfa_offset 0
 1671 0024 7047     		bx	lr
 1672              		.cfi_endproc
 1673              	.LFE148:
 1675              		.section	.text.timer_dma_disable,"ax",%progbits
 1676              		.align	1
 1677              		.global	timer_dma_disable
 1678              		.syntax unified
 1679              		.thumb
 1680              		.thumb_func
 1681              		.fpu softvfp
 1683              	timer_dma_disable:
 1684              	.LFB149:
 522:C:/Users/leonardo/Desktop/Code/Github/DawnBGC/Libraries/FWLIB/src\gd32f4xx_timer.c **** 
 523:C:/Users/leonardo/Desktop/Code/Github/DawnBGC/Libraries/FWLIB/src\gd32f4xx_timer.c **** /*!
 524:C:/Users/leonardo/Desktop/Code/Github/DawnBGC/Libraries/FWLIB/src\gd32f4xx_timer.c ****     \brief      disable the TIMER DMA
 525:C:/Users/leonardo/Desktop/Code/Github/DawnBGC/Libraries/FWLIB/src\gd32f4xx_timer.c ****     \param[in]  timer_periph: please refer to the following parameters
 526:C:/Users/leonardo/Desktop/Code/Github/DawnBGC/Libraries/FWLIB/src\gd32f4xx_timer.c ****     \param[in]  timer_dma: timer DMA source enable 
 527:C:/Users/leonardo/Desktop/Code/Github/DawnBGC/Libraries/FWLIB/src\gd32f4xx_timer.c ****       \arg        TIMER_DMA_UPD:  update DMA enable,TIMERx(x=0..7)
 528:C:/Users/leonardo/Desktop/Code/Github/DawnBGC/Libraries/FWLIB/src\gd32f4xx_timer.c ****       \arg        TIMER_DMA_CH0D: channel 0 DMA enable,TIMERx(x=0..4,7)
 529:C:/Users/leonardo/Desktop/Code/Github/DawnBGC/Libraries/FWLIB/src\gd32f4xx_timer.c ****       \arg        TIMER_DMA_CH1D: channel 1 DMA enable,TIMERx(x=0..4,7)
 530:C:/Users/leonardo/Desktop/Code/Github/DawnBGC/Libraries/FWLIB/src\gd32f4xx_timer.c ****       \arg        TIMER_DMA_CH2D: channel 2 DMA enable,TIMERx(x=0..4,7)
 531:C:/Users/leonardo/Desktop/Code/Github/DawnBGC/Libraries/FWLIB/src\gd32f4xx_timer.c ****       \arg        TIMER_DMA_CH3D: channel 3 DMA enable,TIMERx(x=0..4,7)
 532:C:/Users/leonardo/Desktop/Code/Github/DawnBGC/Libraries/FWLIB/src\gd32f4xx_timer.c ****       \arg        TIMER_DMA_CMTD: commutation DMA request enable,TIMERx(x=0,7)
 533:C:/Users/leonardo/Desktop/Code/Github/DawnBGC/Libraries/FWLIB/src\gd32f4xx_timer.c ****       \arg        TIMER_DMA_TRGD: trigger DMA enable,TIMERx(x=0..4,7)
 534:C:/Users/leonardo/Desktop/Code/Github/DawnBGC/Libraries/FWLIB/src\gd32f4xx_timer.c ****     \param[out] none
 535:C:/Users/leonardo/Desktop/Code/Github/DawnBGC/Libraries/FWLIB/src\gd32f4xx_timer.c ****     \retval     none
 536:C:/Users/leonardo/Desktop/Code/Github/DawnBGC/Libraries/FWLIB/src\gd32f4xx_timer.c **** */
 537:C:/Users/leonardo/Desktop/Code/Github/DawnBGC/Libraries/FWLIB/src\gd32f4xx_timer.c **** void timer_dma_disable(uint32_t timer_periph,uint16_t timer_dma)
 538:C:/Users/leonardo/Desktop/Code/Github/DawnBGC/Libraries/FWLIB/src\gd32f4xx_timer.c **** {
 1685              		.loc 1 538 1
 1686              		.cfi_startproc
 1687              		@ args = 0, pretend = 0, frame = 8
 1688              		@ frame_needed = 1, uses_anonymous_args = 0
 1689              		@ link register save eliminated.
 1690 0000 80B4     		push	{r7}
 1691              		.cfi_def_cfa_offset 4
 1692              		.cfi_offset 7, -4
 1693 0002 83B0     		sub	sp, sp, #12
 1694              		.cfi_def_cfa_offset 16
 1695 0004 00AF     		add	r7, sp, #0
 1696              		.cfi_def_cfa_register 7
 1697 0006 7860     		str	r0, [r7, #4]
 1698 0008 0B46     		mov	r3, r1
 1699 000a 7B80     		strh	r3, [r7, #2]	@ movhi
 539:C:/Users/leonardo/Desktop/Code/Github/DawnBGC/Libraries/FWLIB/src\gd32f4xx_timer.c ****     TIMER_DMAINTEN(timer_periph) &= (~(uint32_t)(timer_dma)); 
 1700              		.loc 1 539 34
 1701 000c 7B68     		ldr	r3, [r7, #4]
 1702 000e 0C33     		adds	r3, r3, #12
 1703 0010 1A68     		ldr	r2, [r3]
 1704              		.loc 1 539 39
 1705 0012 7B88     		ldrh	r3, [r7, #2]
 1706              		.loc 1 539 38
 1707 0014 DB43     		mvns	r3, r3
 1708              		.loc 1 539 34
 1709 0016 7968     		ldr	r1, [r7, #4]
 1710 0018 0C31     		adds	r1, r1, #12
 1711 001a 1340     		ands	r3, r3, r2
 1712 001c 0B60     		str	r3, [r1]
 540:C:/Users/leonardo/Desktop/Code/Github/DawnBGC/Libraries/FWLIB/src\gd32f4xx_timer.c **** }
 1713              		.loc 1 540 1
 1714 001e 00BF     		nop
 1715 0020 0C37     		adds	r7, r7, #12
 1716              		.cfi_def_cfa_offset 4
 1717 0022 BD46     		mov	sp, r7
 1718              		.cfi_def_cfa_register 13
 1719              		@ sp needed
 1720 0024 80BC     		pop	{r7}
 1721              		.cfi_restore 7
 1722              		.cfi_def_cfa_offset 0
 1723 0026 7047     		bx	lr
 1724              		.cfi_endproc
 1725              	.LFE149:
 1727              		.section	.text.timer_channel_dma_request_source_select,"ax",%progbits
 1728              		.align	1
 1729              		.global	timer_channel_dma_request_source_select
 1730              		.syntax unified
 1731              		.thumb
 1732              		.thumb_func
 1733              		.fpu softvfp
 1735              	timer_channel_dma_request_source_select:
 1736              	.LFB150:
 541:C:/Users/leonardo/Desktop/Code/Github/DawnBGC/Libraries/FWLIB/src\gd32f4xx_timer.c **** 
 542:C:/Users/leonardo/Desktop/Code/Github/DawnBGC/Libraries/FWLIB/src\gd32f4xx_timer.c **** /*!
 543:C:/Users/leonardo/Desktop/Code/Github/DawnBGC/Libraries/FWLIB/src\gd32f4xx_timer.c ****     \brief      channel DMA request source selection
 544:C:/Users/leonardo/Desktop/Code/Github/DawnBGC/Libraries/FWLIB/src\gd32f4xx_timer.c ****     \param[in]  timer_periph: TIMERx(x=0..4,7)
 545:C:/Users/leonardo/Desktop/Code/Github/DawnBGC/Libraries/FWLIB/src\gd32f4xx_timer.c ****     \param[in]  dma_request: channel DMA request source selection
 546:C:/Users/leonardo/Desktop/Code/Github/DawnBGC/Libraries/FWLIB/src\gd32f4xx_timer.c ****        \arg        TIMER_DMAREQUEST_CHANNELEVENT: DMA request of channel y is sent when channel y e
 547:C:/Users/leonardo/Desktop/Code/Github/DawnBGC/Libraries/FWLIB/src\gd32f4xx_timer.c ****        \arg        TIMER_DMAREQUEST_UPDATEEVENT: DMA request of channel y is sent when update event
 548:C:/Users/leonardo/Desktop/Code/Github/DawnBGC/Libraries/FWLIB/src\gd32f4xx_timer.c ****     \param[out] none
 549:C:/Users/leonardo/Desktop/Code/Github/DawnBGC/Libraries/FWLIB/src\gd32f4xx_timer.c ****     \retval     none
 550:C:/Users/leonardo/Desktop/Code/Github/DawnBGC/Libraries/FWLIB/src\gd32f4xx_timer.c **** */
 551:C:/Users/leonardo/Desktop/Code/Github/DawnBGC/Libraries/FWLIB/src\gd32f4xx_timer.c **** void timer_channel_dma_request_source_select(uint32_t timer_periph,uint8_t dma_request)
 552:C:/Users/leonardo/Desktop/Code/Github/DawnBGC/Libraries/FWLIB/src\gd32f4xx_timer.c **** {
 1737              		.loc 1 552 1
 1738              		.cfi_startproc
 1739              		@ args = 0, pretend = 0, frame = 8
 1740              		@ frame_needed = 1, uses_anonymous_args = 0
 1741              		@ link register save eliminated.
 1742 0000 80B4     		push	{r7}
 1743              		.cfi_def_cfa_offset 4
 1744              		.cfi_offset 7, -4
 1745 0002 83B0     		sub	sp, sp, #12
 1746              		.cfi_def_cfa_offset 16
 1747 0004 00AF     		add	r7, sp, #0
 1748              		.cfi_def_cfa_register 7
 1749 0006 7860     		str	r0, [r7, #4]
 1750 0008 0B46     		mov	r3, r1
 1751 000a FB70     		strb	r3, [r7, #3]
 553:C:/Users/leonardo/Desktop/Code/Github/DawnBGC/Libraries/FWLIB/src\gd32f4xx_timer.c ****     if(TIMER_DMAREQUEST_UPDATEEVENT == dma_request){
 1752              		.loc 1 553 7
 1753 000c FB78     		ldrb	r3, [r7, #3]	@ zero_extendqisi2
 1754 000e 002B     		cmp	r3, #0
 1755 0010 08D1     		bne	.L69
 554:C:/Users/leonardo/Desktop/Code/Github/DawnBGC/Libraries/FWLIB/src\gd32f4xx_timer.c ****         TIMER_CTL1(timer_periph) |= (uint32_t)TIMER_CTL1_DMAS;
 1756              		.loc 1 554 34
 1757 0012 7B68     		ldr	r3, [r7, #4]
 1758 0014 0433     		adds	r3, r3, #4
 1759 0016 1B68     		ldr	r3, [r3]
 1760 0018 7A68     		ldr	r2, [r7, #4]
 1761 001a 0432     		adds	r2, r2, #4
 1762 001c 43F00803 		orr	r3, r3, #8
 1763 0020 1360     		str	r3, [r2]
 555:C:/Users/leonardo/Desktop/Code/Github/DawnBGC/Libraries/FWLIB/src\gd32f4xx_timer.c ****     }else if(TIMER_DMAREQUEST_CHANNELEVENT == dma_request){
 556:C:/Users/leonardo/Desktop/Code/Github/DawnBGC/Libraries/FWLIB/src\gd32f4xx_timer.c ****         TIMER_CTL1(timer_periph) &= ~(uint32_t)TIMER_CTL1_DMAS;
 557:C:/Users/leonardo/Desktop/Code/Github/DawnBGC/Libraries/FWLIB/src\gd32f4xx_timer.c ****     }else{
 558:C:/Users/leonardo/Desktop/Code/Github/DawnBGC/Libraries/FWLIB/src\gd32f4xx_timer.c ****     }
 559:C:/Users/leonardo/Desktop/Code/Github/DawnBGC/Libraries/FWLIB/src\gd32f4xx_timer.c **** }
 1764              		.loc 1 559 1
 1765 0022 0AE0     		b	.L71
 1766              	.L69:
 555:C:/Users/leonardo/Desktop/Code/Github/DawnBGC/Libraries/FWLIB/src\gd32f4xx_timer.c ****     }else if(TIMER_DMAREQUEST_CHANNELEVENT == dma_request){
 1767              		.loc 1 555 13
 1768 0024 FB78     		ldrb	r3, [r7, #3]	@ zero_extendqisi2
 1769 0026 012B     		cmp	r3, #1
 1770 0028 07D1     		bne	.L71
 556:C:/Users/leonardo/Desktop/Code/Github/DawnBGC/Libraries/FWLIB/src\gd32f4xx_timer.c ****     }else{
 1771              		.loc 1 556 34
 1772 002a 7B68     		ldr	r3, [r7, #4]
 1773 002c 0433     		adds	r3, r3, #4
 1774 002e 1B68     		ldr	r3, [r3]
 1775 0030 7A68     		ldr	r2, [r7, #4]
 1776 0032 0432     		adds	r2, r2, #4
 1777 0034 23F00803 		bic	r3, r3, #8
 1778 0038 1360     		str	r3, [r2]
 1779              	.L71:
 1780              		.loc 1 559 1
 1781 003a 00BF     		nop
 1782 003c 0C37     		adds	r7, r7, #12
 1783              		.cfi_def_cfa_offset 4
 1784 003e BD46     		mov	sp, r7
 1785              		.cfi_def_cfa_register 13
 1786              		@ sp needed
 1787 0040 80BC     		pop	{r7}
 1788              		.cfi_restore 7
 1789              		.cfi_def_cfa_offset 0
 1790 0042 7047     		bx	lr
 1791              		.cfi_endproc
 1792              	.LFE150:
 1794              		.section	.text.timer_dma_transfer_config,"ax",%progbits
 1795              		.align	1
 1796              		.global	timer_dma_transfer_config
 1797              		.syntax unified
 1798              		.thumb
 1799              		.thumb_func
 1800              		.fpu softvfp
 1802              	timer_dma_transfer_config:
 1803              	.LFB151:
 560:C:/Users/leonardo/Desktop/Code/Github/DawnBGC/Libraries/FWLIB/src\gd32f4xx_timer.c **** 
 561:C:/Users/leonardo/Desktop/Code/Github/DawnBGC/Libraries/FWLIB/src\gd32f4xx_timer.c **** /*!
 562:C:/Users/leonardo/Desktop/Code/Github/DawnBGC/Libraries/FWLIB/src\gd32f4xx_timer.c ****     \brief      configure the TIMER DMA transfer
 563:C:/Users/leonardo/Desktop/Code/Github/DawnBGC/Libraries/FWLIB/src\gd32f4xx_timer.c ****     \param[in]  timer_periph: please refer to the following parameters
 564:C:/Users/leonardo/Desktop/Code/Github/DawnBGC/Libraries/FWLIB/src\gd32f4xx_timer.c ****     \param[in]  dma_baseaddr: 
 565:C:/Users/leonardo/Desktop/Code/Github/DawnBGC/Libraries/FWLIB/src\gd32f4xx_timer.c ****        \arg        TIMER_DMACFG_DMATA_CTL0: DMA transfer address is TIMER_CTL0,TIMERx(x=0..4,7)
 566:C:/Users/leonardo/Desktop/Code/Github/DawnBGC/Libraries/FWLIB/src\gd32f4xx_timer.c ****        \arg        TIMER_DMACFG_DMATA_CTL1: DMA transfer address is TIMER_CTL1,TIMERx(x=0..4,7)
 567:C:/Users/leonardo/Desktop/Code/Github/DawnBGC/Libraries/FWLIB/src\gd32f4xx_timer.c ****        \arg        TIMER_DMACFG_DMATA_SMCFG: DMA transfer address is TIMER_SMCFG,TIMERx(x=0..4,7)
 568:C:/Users/leonardo/Desktop/Code/Github/DawnBGC/Libraries/FWLIB/src\gd32f4xx_timer.c ****        \arg        TIMER_DMACFG_DMATA_DMAINTEN: DMA transfer address is TIMER_DMAINTEN,TIMERx(x=0..
 569:C:/Users/leonardo/Desktop/Code/Github/DawnBGC/Libraries/FWLIB/src\gd32f4xx_timer.c ****        \arg        TIMER_DMACFG_DMATA_INTF: DMA transfer address is TIMER_INTF,TIMERx(x=0..4,7)
 570:C:/Users/leonardo/Desktop/Code/Github/DawnBGC/Libraries/FWLIB/src\gd32f4xx_timer.c ****        \arg        TIMER_DMACFG_DMATA_SWEVG: DMA transfer address is TIMER_SWEVG,TIMERx(x=0..4,7)
 571:C:/Users/leonardo/Desktop/Code/Github/DawnBGC/Libraries/FWLIB/src\gd32f4xx_timer.c ****        \arg        TIMER_DMACFG_DMATA_CHCTL0: DMA transfer address is TIMER_CHCTL0,TIMERx(x=0..4,7)
 572:C:/Users/leonardo/Desktop/Code/Github/DawnBGC/Libraries/FWLIB/src\gd32f4xx_timer.c ****        \arg        TIMER_DMACFG_DMATA_CHCTL1: DMA transfer address is TIMER_CHCTL1,TIMERx(x=0..4,7)
 573:C:/Users/leonardo/Desktop/Code/Github/DawnBGC/Libraries/FWLIB/src\gd32f4xx_timer.c ****        \arg        TIMER_DMACFG_DMATA_CHCTL2: DMA transfer address is TIMER_CHCTL2,TIMERx(x=0..4,7)
 574:C:/Users/leonardo/Desktop/Code/Github/DawnBGC/Libraries/FWLIB/src\gd32f4xx_timer.c ****        \arg        TIMER_DMACFG_DMATA_CNT: DMA transfer address is TIMER_CNT,TIMERx(x=0..4,7)
 575:C:/Users/leonardo/Desktop/Code/Github/DawnBGC/Libraries/FWLIB/src\gd32f4xx_timer.c ****        \arg        TIMER_DMACFG_DMATA_PSC: DMA transfer address is TIMER_PSC,TIMERx(x=0..4,7)
 576:C:/Users/leonardo/Desktop/Code/Github/DawnBGC/Libraries/FWLIB/src\gd32f4xx_timer.c ****        \arg        TIMER_DMACFG_DMATA_CAR: DMA transfer address is TIMER_CAR,TIMERx(x=0..4,7)
 577:C:/Users/leonardo/Desktop/Code/Github/DawnBGC/Libraries/FWLIB/src\gd32f4xx_timer.c ****        \arg        TIMER_DMACFG_DMATA_CREP: DMA transfer address is TIMER_CREP,TIMERx(x=0,7)
 578:C:/Users/leonardo/Desktop/Code/Github/DawnBGC/Libraries/FWLIB/src\gd32f4xx_timer.c ****        \arg        TIMER_DMACFG_DMATA_CH0CV: DMA transfer address is TIMER_CH0CV,TIMERx(x=0..4,7)
 579:C:/Users/leonardo/Desktop/Code/Github/DawnBGC/Libraries/FWLIB/src\gd32f4xx_timer.c ****        \arg        TIMER_DMACFG_DMATA_CH1CV: DMA transfer address is TIMER_CH1CV,TIMERx(x=0..4,7)
 580:C:/Users/leonardo/Desktop/Code/Github/DawnBGC/Libraries/FWLIB/src\gd32f4xx_timer.c ****        \arg        TIMER_DMACFG_DMATA_CH2CV: DMA transfer address is TIMER_CH2CV,TIMERx(x=0..4,7)
 581:C:/Users/leonardo/Desktop/Code/Github/DawnBGC/Libraries/FWLIB/src\gd32f4xx_timer.c ****        \arg        TIMER_DMACFG_DMATA_CH3CV: DMA transfer address is TIMER_CH3CV,TIMERx(x=0..4,7)
 582:C:/Users/leonardo/Desktop/Code/Github/DawnBGC/Libraries/FWLIB/src\gd32f4xx_timer.c ****        \arg        TIMER_DMACFG_DMATA_CCHP: DMA transfer address is TIMER_CCHP,TIMERx(x=0,7)
 583:C:/Users/leonardo/Desktop/Code/Github/DawnBGC/Libraries/FWLIB/src\gd32f4xx_timer.c ****        \arg        TIMER_DMACFG_DMATA_DMACFG: DMA transfer address is TIMER_DMACFG,TIMERx(x=0..4,7)
 584:C:/Users/leonardo/Desktop/Code/Github/DawnBGC/Libraries/FWLIB/src\gd32f4xx_timer.c ****        \arg        TIMER_DMACFG_DMATA_DMATB: DMA transfer address is TIMER_DMATB,TIMERx(x=0..4,7)
 585:C:/Users/leonardo/Desktop/Code/Github/DawnBGC/Libraries/FWLIB/src\gd32f4xx_timer.c ****     \param[in]  dma_lenth:
 586:C:/Users/leonardo/Desktop/Code/Github/DawnBGC/Libraries/FWLIB/src\gd32f4xx_timer.c ****        \arg        TIMER_DMACFG_DMATC_xTRANSFER(x=1..18): DMA transfer x time
 587:C:/Users/leonardo/Desktop/Code/Github/DawnBGC/Libraries/FWLIB/src\gd32f4xx_timer.c ****     \param[out] none
 588:C:/Users/leonardo/Desktop/Code/Github/DawnBGC/Libraries/FWLIB/src\gd32f4xx_timer.c ****     \retval     none
 589:C:/Users/leonardo/Desktop/Code/Github/DawnBGC/Libraries/FWLIB/src\gd32f4xx_timer.c **** */
 590:C:/Users/leonardo/Desktop/Code/Github/DawnBGC/Libraries/FWLIB/src\gd32f4xx_timer.c **** void timer_dma_transfer_config(uint32_t timer_periph,uint32_t dma_baseaddr,uint32_t dma_lenth)
 591:C:/Users/leonardo/Desktop/Code/Github/DawnBGC/Libraries/FWLIB/src\gd32f4xx_timer.c **** {
 1804              		.loc 1 591 1
 1805              		.cfi_startproc
 1806              		@ args = 0, pretend = 0, frame = 16
 1807              		@ frame_needed = 1, uses_anonymous_args = 0
 1808              		@ link register save eliminated.
 1809 0000 80B4     		push	{r7}
 1810              		.cfi_def_cfa_offset 4
 1811              		.cfi_offset 7, -4
 1812 0002 85B0     		sub	sp, sp, #20
 1813              		.cfi_def_cfa_offset 24
 1814 0004 00AF     		add	r7, sp, #0
 1815              		.cfi_def_cfa_register 7
 1816 0006 F860     		str	r0, [r7, #12]
 1817 0008 B960     		str	r1, [r7, #8]
 1818 000a 7A60     		str	r2, [r7, #4]
 592:C:/Users/leonardo/Desktop/Code/Github/DawnBGC/Libraries/FWLIB/src\gd32f4xx_timer.c ****     TIMER_DMACFG(timer_periph) &= (~(uint32_t)(TIMER_DMACFG_DMATA | TIMER_DMACFG_DMATC));
 1819              		.loc 1 592 32
 1820 000c FB68     		ldr	r3, [r7, #12]
 1821 000e 4833     		adds	r3, r3, #72
 1822 0010 1B68     		ldr	r3, [r3]
 1823 0012 FA68     		ldr	r2, [r7, #12]
 1824 0014 4832     		adds	r2, r2, #72
 1825 0016 23F4F853 		bic	r3, r3, #7936
 1826 001a 23F01F03 		bic	r3, r3, #31
 1827 001e 1360     		str	r3, [r2]
 593:C:/Users/leonardo/Desktop/Code/Github/DawnBGC/Libraries/FWLIB/src\gd32f4xx_timer.c ****     TIMER_DMACFG(timer_periph) |= (uint32_t)(dma_baseaddr | dma_lenth);
 1828              		.loc 1 593 32
 1829 0020 FB68     		ldr	r3, [r7, #12]
 1830 0022 4833     		adds	r3, r3, #72
 1831 0024 1A68     		ldr	r2, [r3]
 1832              		.loc 1 593 59
 1833 0026 B968     		ldr	r1, [r7, #8]
 1834 0028 7B68     		ldr	r3, [r7, #4]
 1835 002a 0B43     		orrs	r3, r3, r1
 1836              		.loc 1 593 32
 1837 002c F968     		ldr	r1, [r7, #12]
 1838 002e 4831     		adds	r1, r1, #72
 1839 0030 1343     		orrs	r3, r3, r2
 1840 0032 0B60     		str	r3, [r1]
 594:C:/Users/leonardo/Desktop/Code/Github/DawnBGC/Libraries/FWLIB/src\gd32f4xx_timer.c **** }
 1841              		.loc 1 594 1
 1842 0034 00BF     		nop
 1843 0036 1437     		adds	r7, r7, #20
 1844              		.cfi_def_cfa_offset 4
 1845 0038 BD46     		mov	sp, r7
 1846              		.cfi_def_cfa_register 13
 1847              		@ sp needed
 1848 003a 80BC     		pop	{r7}
 1849              		.cfi_restore 7
 1850              		.cfi_def_cfa_offset 0
 1851 003c 7047     		bx	lr
 1852              		.cfi_endproc
 1853              	.LFE151:
 1855              		.section	.text.timer_event_software_generate,"ax",%progbits
 1856              		.align	1
 1857              		.global	timer_event_software_generate
 1858              		.syntax unified
 1859              		.thumb
 1860              		.thumb_func
 1861              		.fpu softvfp
 1863              	timer_event_software_generate:
 1864              	.LFB152:
 595:C:/Users/leonardo/Desktop/Code/Github/DawnBGC/Libraries/FWLIB/src\gd32f4xx_timer.c **** 
 596:C:/Users/leonardo/Desktop/Code/Github/DawnBGC/Libraries/FWLIB/src\gd32f4xx_timer.c **** /*!
 597:C:/Users/leonardo/Desktop/Code/Github/DawnBGC/Libraries/FWLIB/src\gd32f4xx_timer.c ****     \brief      software generate events 
 598:C:/Users/leonardo/Desktop/Code/Github/DawnBGC/Libraries/FWLIB/src\gd32f4xx_timer.c ****     \param[in]  timer_periph: please refer to the following parameters
 599:C:/Users/leonardo/Desktop/Code/Github/DawnBGC/Libraries/FWLIB/src\gd32f4xx_timer.c ****     \param[in]  timer_event: the timer software event generation sources
 600:C:/Users/leonardo/Desktop/Code/Github/DawnBGC/Libraries/FWLIB/src\gd32f4xx_timer.c ****       \arg        TIMER_EVENT_SRC_UPG: update event,TIMERx(x=0..13)
 601:C:/Users/leonardo/Desktop/Code/Github/DawnBGC/Libraries/FWLIB/src\gd32f4xx_timer.c ****       \arg        TIMER_EVENT_SRC_CH0G: channel 0 capture or compare event generation,TIMERx(x=0..4
 602:C:/Users/leonardo/Desktop/Code/Github/DawnBGC/Libraries/FWLIB/src\gd32f4xx_timer.c ****       \arg        TIMER_EVENT_SRC_CH1G: channel 1 capture or compare event generation,TIMERx(x=0..4
 603:C:/Users/leonardo/Desktop/Code/Github/DawnBGC/Libraries/FWLIB/src\gd32f4xx_timer.c ****       \arg        TIMER_EVENT_SRC_CH2G: channel 2 capture or compare event generation,TIMERx(x=0..4
 604:C:/Users/leonardo/Desktop/Code/Github/DawnBGC/Libraries/FWLIB/src\gd32f4xx_timer.c ****       \arg        TIMER_EVENT_SRC_CH3G: channel 3 capture or compare event generation,TIMERx(x=0..4
 605:C:/Users/leonardo/Desktop/Code/Github/DawnBGC/Libraries/FWLIB/src\gd32f4xx_timer.c ****       \arg        TIMER_EVENT_SRC_CMTG: channel commutation event generation,TIMERx(x=0,7) 
 606:C:/Users/leonardo/Desktop/Code/Github/DawnBGC/Libraries/FWLIB/src\gd32f4xx_timer.c ****       \arg        TIMER_EVENT_SRC_TRGG: trigger event generation,TIMERx(x=0..4,7,8,11)
 607:C:/Users/leonardo/Desktop/Code/Github/DawnBGC/Libraries/FWLIB/src\gd32f4xx_timer.c ****       \arg        TIMER_EVENT_SRC_BRKG:  break event generation,TIMERx(x=0,7)
 608:C:/Users/leonardo/Desktop/Code/Github/DawnBGC/Libraries/FWLIB/src\gd32f4xx_timer.c ****     \param[out] none
 609:C:/Users/leonardo/Desktop/Code/Github/DawnBGC/Libraries/FWLIB/src\gd32f4xx_timer.c ****     \retval     none
 610:C:/Users/leonardo/Desktop/Code/Github/DawnBGC/Libraries/FWLIB/src\gd32f4xx_timer.c **** */
 611:C:/Users/leonardo/Desktop/Code/Github/DawnBGC/Libraries/FWLIB/src\gd32f4xx_timer.c **** void timer_event_software_generate(uint32_t timer_periph,uint16_t timer_event)
 612:C:/Users/leonardo/Desktop/Code/Github/DawnBGC/Libraries/FWLIB/src\gd32f4xx_timer.c **** {
 1865              		.loc 1 612 1
 1866              		.cfi_startproc
 1867              		@ args = 0, pretend = 0, frame = 8
 1868              		@ frame_needed = 1, uses_anonymous_args = 0
 1869              		@ link register save eliminated.
 1870 0000 80B4     		push	{r7}
 1871              		.cfi_def_cfa_offset 4
 1872              		.cfi_offset 7, -4
 1873 0002 83B0     		sub	sp, sp, #12
 1874              		.cfi_def_cfa_offset 16
 1875 0004 00AF     		add	r7, sp, #0
 1876              		.cfi_def_cfa_register 7
 1877 0006 7860     		str	r0, [r7, #4]
 1878 0008 0B46     		mov	r3, r1
 1879 000a 7B80     		strh	r3, [r7, #2]	@ movhi
 613:C:/Users/leonardo/Desktop/Code/Github/DawnBGC/Libraries/FWLIB/src\gd32f4xx_timer.c ****     TIMER_SWEVG(timer_periph) |= (uint32_t)timer_event;
 1880              		.loc 1 613 31
 1881 000c 7B68     		ldr	r3, [r7, #4]
 1882 000e 1433     		adds	r3, r3, #20
 1883 0010 1A68     		ldr	r2, [r3]
 1884              		.loc 1 613 34
 1885 0012 7B88     		ldrh	r3, [r7, #2]
 1886              		.loc 1 613 31
 1887 0014 7968     		ldr	r1, [r7, #4]
 1888 0016 1431     		adds	r1, r1, #20
 1889 0018 1343     		orrs	r3, r3, r2
 1890 001a 0B60     		str	r3, [r1]
 614:C:/Users/leonardo/Desktop/Code/Github/DawnBGC/Libraries/FWLIB/src\gd32f4xx_timer.c **** }
 1891              		.loc 1 614 1
 1892 001c 00BF     		nop
 1893 001e 0C37     		adds	r7, r7, #12
 1894              		.cfi_def_cfa_offset 4
 1895 0020 BD46     		mov	sp, r7
 1896              		.cfi_def_cfa_register 13
 1897              		@ sp needed
 1898 0022 80BC     		pop	{r7}
 1899              		.cfi_restore 7
 1900              		.cfi_def_cfa_offset 0
 1901 0024 7047     		bx	lr
 1902              		.cfi_endproc
 1903              	.LFE152:
 1905              		.section	.text.timer_break_config,"ax",%progbits
 1906              		.align	1
 1907              		.global	timer_break_config
 1908              		.syntax unified
 1909              		.thumb
 1910              		.thumb_func
 1911              		.fpu softvfp
 1913              	timer_break_config:
 1914              	.LFB153:
 615:C:/Users/leonardo/Desktop/Code/Github/DawnBGC/Libraries/FWLIB/src\gd32f4xx_timer.c **** 
 616:C:/Users/leonardo/Desktop/Code/Github/DawnBGC/Libraries/FWLIB/src\gd32f4xx_timer.c **** /*!
 617:C:/Users/leonardo/Desktop/Code/Github/DawnBGC/Libraries/FWLIB/src\gd32f4xx_timer.c ****     \brief      configure TIMER break function 
 618:C:/Users/leonardo/Desktop/Code/Github/DawnBGC/Libraries/FWLIB/src\gd32f4xx_timer.c ****     \param[in]  timer_periph: TIMERx(x=0,7)
 619:C:/Users/leonardo/Desktop/Code/Github/DawnBGC/Libraries/FWLIB/src\gd32f4xx_timer.c ****     \param[in]  timer_bkdtpara: TIMER break parameter struct
 620:C:/Users/leonardo/Desktop/Code/Github/DawnBGC/Libraries/FWLIB/src\gd32f4xx_timer.c ****                 runoffstate: TIMER_ROS_STATE_ENABLE,TIMER_ROS_STATE_DISABLE
 621:C:/Users/leonardo/Desktop/Code/Github/DawnBGC/Libraries/FWLIB/src\gd32f4xx_timer.c ****                 ideloffstate: TIMER_IOS_STATE_ENABLE,TIMER_IOS_STATE_DISABLE
 622:C:/Users/leonardo/Desktop/Code/Github/DawnBGC/Libraries/FWLIB/src\gd32f4xx_timer.c ****                 deadtime: 0~255
 623:C:/Users/leonardo/Desktop/Code/Github/DawnBGC/Libraries/FWLIB/src\gd32f4xx_timer.c ****                 breakpolarity: TIMER_BREAK_POLARITY_LOW,TIMER_BREAK_POLARITY_HIGH
 624:C:/Users/leonardo/Desktop/Code/Github/DawnBGC/Libraries/FWLIB/src\gd32f4xx_timer.c ****                 outputautostate: TIMER_OUTAUTO_ENABLE,TIMER_OUTAUTO_DISABLE
 625:C:/Users/leonardo/Desktop/Code/Github/DawnBGC/Libraries/FWLIB/src\gd32f4xx_timer.c ****                 protectmode: TIMER_CCHP_PROT_OFF,TIMER_CCHP_PROT_0,TIMER_CCHP_PROT_1,TIMER_CCHP_PRO
 626:C:/Users/leonardo/Desktop/Code/Github/DawnBGC/Libraries/FWLIB/src\gd32f4xx_timer.c ****                 breakstate: TIMER_BREAK_ENABLE,TIMER_BREAK_DISABLE
 627:C:/Users/leonardo/Desktop/Code/Github/DawnBGC/Libraries/FWLIB/src\gd32f4xx_timer.c ****     \param[out] none
 628:C:/Users/leonardo/Desktop/Code/Github/DawnBGC/Libraries/FWLIB/src\gd32f4xx_timer.c ****     \retval     none
 629:C:/Users/leonardo/Desktop/Code/Github/DawnBGC/Libraries/FWLIB/src\gd32f4xx_timer.c **** */
 630:C:/Users/leonardo/Desktop/Code/Github/DawnBGC/Libraries/FWLIB/src\gd32f4xx_timer.c **** void timer_break_config(uint32_t timer_periph,timer_break_parameter_struct* timer_bkdtpara)
 631:C:/Users/leonardo/Desktop/Code/Github/DawnBGC/Libraries/FWLIB/src\gd32f4xx_timer.c **** {
 1915              		.loc 1 631 1
 1916              		.cfi_startproc
 1917              		@ args = 0, pretend = 0, frame = 8
 1918              		@ frame_needed = 1, uses_anonymous_args = 0
 1919              		@ link register save eliminated.
 1920 0000 80B4     		push	{r7}
 1921              		.cfi_def_cfa_offset 4
 1922              		.cfi_offset 7, -4
 1923 0002 83B0     		sub	sp, sp, #12
 1924              		.cfi_def_cfa_offset 16
 1925 0004 00AF     		add	r7, sp, #0
 1926              		.cfi_def_cfa_register 7
 1927 0006 7860     		str	r0, [r7, #4]
 1928 0008 3960     		str	r1, [r7]
 632:C:/Users/leonardo/Desktop/Code/Github/DawnBGC/Libraries/FWLIB/src\gd32f4xx_timer.c ****     TIMER_CCHP(timer_periph) = (uint32_t)(((uint32_t)(timer_bkdtpara->runoffstate))|
 1929              		.loc 1 632 69
 1930 000a 3B68     		ldr	r3, [r7]
 1931 000c 1B88     		ldrh	r3, [r3]
 1932              		.loc 1 632 44
 1933 000e 1A46     		mov	r2, r3
 633:C:/Users/leonardo/Desktop/Code/Github/DawnBGC/Libraries/FWLIB/src\gd32f4xx_timer.c ****                                           ((uint32_t)(timer_bkdtpara->ideloffstate))|
 1934              		.loc 1 633 69
 1935 0010 3B68     		ldr	r3, [r7]
 1936 0012 5B68     		ldr	r3, [r3, #4]
 632:C:/Users/leonardo/Desktop/Code/Github/DawnBGC/Libraries/FWLIB/src\gd32f4xx_timer.c ****     TIMER_CCHP(timer_periph) = (uint32_t)(((uint32_t)(timer_bkdtpara->runoffstate))|
 1937              		.loc 1 632 84
 1938 0014 1343     		orrs	r3, r3, r2
 634:C:/Users/leonardo/Desktop/Code/Github/DawnBGC/Libraries/FWLIB/src\gd32f4xx_timer.c ****                                           ((uint32_t)(timer_bkdtpara->deadtime))|
 1939              		.loc 1 634 69
 1940 0016 3A68     		ldr	r2, [r7]
 1941 0018 1289     		ldrh	r2, [r2, #8]
 633:C:/Users/leonardo/Desktop/Code/Github/DawnBGC/Libraries/FWLIB/src\gd32f4xx_timer.c ****                                           ((uint32_t)(timer_bkdtpara->ideloffstate))|
 1942              		.loc 1 633 85
 1943 001a 1343     		orrs	r3, r3, r2
 635:C:/Users/leonardo/Desktop/Code/Github/DawnBGC/Libraries/FWLIB/src\gd32f4xx_timer.c ****                                           ((uint32_t)(timer_bkdtpara->breakpolarity))|
 1944              		.loc 1 635 69
 1945 001c 3A68     		ldr	r2, [r7]
 1946 001e 5289     		ldrh	r2, [r2, #10]
 634:C:/Users/leonardo/Desktop/Code/Github/DawnBGC/Libraries/FWLIB/src\gd32f4xx_timer.c ****                                           ((uint32_t)(timer_bkdtpara->deadtime))|
 1947              		.loc 1 634 81
 1948 0020 1343     		orrs	r3, r3, r2
 636:C:/Users/leonardo/Desktop/Code/Github/DawnBGC/Libraries/FWLIB/src\gd32f4xx_timer.c ****                                           ((uint32_t)(timer_bkdtpara->outputautostate)) |
 1949              		.loc 1 636 69
 1950 0022 3A68     		ldr	r2, [r7]
 1951 0024 9289     		ldrh	r2, [r2, #12]
 635:C:/Users/leonardo/Desktop/Code/Github/DawnBGC/Libraries/FWLIB/src\gd32f4xx_timer.c ****                                           ((uint32_t)(timer_bkdtpara->breakpolarity))|
 1952              		.loc 1 635 86
 1953 0026 1343     		orrs	r3, r3, r2
 637:C:/Users/leonardo/Desktop/Code/Github/DawnBGC/Libraries/FWLIB/src\gd32f4xx_timer.c ****                                           ((uint32_t)(timer_bkdtpara->protectmode))|
 1954              		.loc 1 637 69
 1955 0028 3A68     		ldr	r2, [r7]
 1956 002a D289     		ldrh	r2, [r2, #14]
 636:C:/Users/leonardo/Desktop/Code/Github/DawnBGC/Libraries/FWLIB/src\gd32f4xx_timer.c ****                                           ((uint32_t)(timer_bkdtpara->outputautostate)) |
 1957              		.loc 1 636 89
 1958 002c 1343     		orrs	r3, r3, r2
 638:C:/Users/leonardo/Desktop/Code/Github/DawnBGC/Libraries/FWLIB/src\gd32f4xx_timer.c ****                                           ((uint32_t)(timer_bkdtpara->breakstate))) ;
 1959              		.loc 1 638 69
 1960 002e 3A68     		ldr	r2, [r7]
 1961 0030 128A     		ldrh	r2, [r2, #16]
 1962              		.loc 1 638 44
 1963 0032 1146     		mov	r1, r2
 632:C:/Users/leonardo/Desktop/Code/Github/DawnBGC/Libraries/FWLIB/src\gd32f4xx_timer.c ****                                           ((uint32_t)(timer_bkdtpara->ideloffstate))|
 1964              		.loc 1 632 5
 1965 0034 7A68     		ldr	r2, [r7, #4]
 1966 0036 4432     		adds	r2, r2, #68
 632:C:/Users/leonardo/Desktop/Code/Github/DawnBGC/Libraries/FWLIB/src\gd32f4xx_timer.c ****                                           ((uint32_t)(timer_bkdtpara->ideloffstate))|
 1967              		.loc 1 632 32
 1968 0038 0B43     		orrs	r3, r3, r1
 632:C:/Users/leonardo/Desktop/Code/Github/DawnBGC/Libraries/FWLIB/src\gd32f4xx_timer.c ****                                           ((uint32_t)(timer_bkdtpara->ideloffstate))|
 1969              		.loc 1 632 30
 1970 003a 1360     		str	r3, [r2]
 639:C:/Users/leonardo/Desktop/Code/Github/DawnBGC/Libraries/FWLIB/src\gd32f4xx_timer.c **** }
 1971              		.loc 1 639 1
 1972 003c 00BF     		nop
 1973 003e 0C37     		adds	r7, r7, #12
 1974              		.cfi_def_cfa_offset 4
 1975 0040 BD46     		mov	sp, r7
 1976              		.cfi_def_cfa_register 13
 1977              		@ sp needed
 1978 0042 80BC     		pop	{r7}
 1979              		.cfi_restore 7
 1980              		.cfi_def_cfa_offset 0
 1981 0044 7047     		bx	lr
 1982              		.cfi_endproc
 1983              	.LFE153:
 1985              		.section	.text.timer_break_enable,"ax",%progbits
 1986              		.align	1
 1987              		.global	timer_break_enable
 1988              		.syntax unified
 1989              		.thumb
 1990              		.thumb_func
 1991              		.fpu softvfp
 1993              	timer_break_enable:
 1994              	.LFB154:
 640:C:/Users/leonardo/Desktop/Code/Github/DawnBGC/Libraries/FWLIB/src\gd32f4xx_timer.c **** 
 641:C:/Users/leonardo/Desktop/Code/Github/DawnBGC/Libraries/FWLIB/src\gd32f4xx_timer.c **** /*!
 642:C:/Users/leonardo/Desktop/Code/Github/DawnBGC/Libraries/FWLIB/src\gd32f4xx_timer.c ****     \brief      enable TIMER break function
 643:C:/Users/leonardo/Desktop/Code/Github/DawnBGC/Libraries/FWLIB/src\gd32f4xx_timer.c ****     \param[in]  timer_periph: TIMERx(x=0,7)
 644:C:/Users/leonardo/Desktop/Code/Github/DawnBGC/Libraries/FWLIB/src\gd32f4xx_timer.c ****     \param[out] none
 645:C:/Users/leonardo/Desktop/Code/Github/DawnBGC/Libraries/FWLIB/src\gd32f4xx_timer.c ****     \retval     none
 646:C:/Users/leonardo/Desktop/Code/Github/DawnBGC/Libraries/FWLIB/src\gd32f4xx_timer.c **** */
 647:C:/Users/leonardo/Desktop/Code/Github/DawnBGC/Libraries/FWLIB/src\gd32f4xx_timer.c **** void timer_break_enable(uint32_t timer_periph)
 648:C:/Users/leonardo/Desktop/Code/Github/DawnBGC/Libraries/FWLIB/src\gd32f4xx_timer.c **** {
 1995              		.loc 1 648 1
 1996              		.cfi_startproc
 1997              		@ args = 0, pretend = 0, frame = 8
 1998              		@ frame_needed = 1, uses_anonymous_args = 0
 1999              		@ link register save eliminated.
 2000 0000 80B4     		push	{r7}
 2001              		.cfi_def_cfa_offset 4
 2002              		.cfi_offset 7, -4
 2003 0002 83B0     		sub	sp, sp, #12
 2004              		.cfi_def_cfa_offset 16
 2005 0004 00AF     		add	r7, sp, #0
 2006              		.cfi_def_cfa_register 7
 2007 0006 7860     		str	r0, [r7, #4]
 649:C:/Users/leonardo/Desktop/Code/Github/DawnBGC/Libraries/FWLIB/src\gd32f4xx_timer.c ****     TIMER_CCHP(timer_periph) |= (uint32_t)TIMER_CCHP_BRKEN;
 2008              		.loc 1 649 30
 2009 0008 7B68     		ldr	r3, [r7, #4]
 2010 000a 4433     		adds	r3, r3, #68
 2011 000c 1B68     		ldr	r3, [r3]
 2012 000e 7A68     		ldr	r2, [r7, #4]
 2013 0010 4432     		adds	r2, r2, #68
 2014 0012 43F48053 		orr	r3, r3, #4096
 2015 0016 1360     		str	r3, [r2]
 650:C:/Users/leonardo/Desktop/Code/Github/DawnBGC/Libraries/FWLIB/src\gd32f4xx_timer.c **** }
 2016              		.loc 1 650 1
 2017 0018 00BF     		nop
 2018 001a 0C37     		adds	r7, r7, #12
 2019              		.cfi_def_cfa_offset 4
 2020 001c BD46     		mov	sp, r7
 2021              		.cfi_def_cfa_register 13
 2022              		@ sp needed
 2023 001e 80BC     		pop	{r7}
 2024              		.cfi_restore 7
 2025              		.cfi_def_cfa_offset 0
 2026 0020 7047     		bx	lr
 2027              		.cfi_endproc
 2028              	.LFE154:
 2030              		.section	.text.timer_break_disable,"ax",%progbits
 2031              		.align	1
 2032              		.global	timer_break_disable
 2033              		.syntax unified
 2034              		.thumb
 2035              		.thumb_func
 2036              		.fpu softvfp
 2038              	timer_break_disable:
 2039              	.LFB155:
 651:C:/Users/leonardo/Desktop/Code/Github/DawnBGC/Libraries/FWLIB/src\gd32f4xx_timer.c **** 
 652:C:/Users/leonardo/Desktop/Code/Github/DawnBGC/Libraries/FWLIB/src\gd32f4xx_timer.c **** /*!
 653:C:/Users/leonardo/Desktop/Code/Github/DawnBGC/Libraries/FWLIB/src\gd32f4xx_timer.c ****     \brief      disable TIMER break function
 654:C:/Users/leonardo/Desktop/Code/Github/DawnBGC/Libraries/FWLIB/src\gd32f4xx_timer.c ****     \param[in]  timer_periph: TIMERx(x=0,7)
 655:C:/Users/leonardo/Desktop/Code/Github/DawnBGC/Libraries/FWLIB/src\gd32f4xx_timer.c ****     \param[out] none
 656:C:/Users/leonardo/Desktop/Code/Github/DawnBGC/Libraries/FWLIB/src\gd32f4xx_timer.c ****     \retval     none
 657:C:/Users/leonardo/Desktop/Code/Github/DawnBGC/Libraries/FWLIB/src\gd32f4xx_timer.c **** */
 658:C:/Users/leonardo/Desktop/Code/Github/DawnBGC/Libraries/FWLIB/src\gd32f4xx_timer.c **** void timer_break_disable(uint32_t timer_periph)
 659:C:/Users/leonardo/Desktop/Code/Github/DawnBGC/Libraries/FWLIB/src\gd32f4xx_timer.c **** {
 2040              		.loc 1 659 1
 2041              		.cfi_startproc
 2042              		@ args = 0, pretend = 0, frame = 8
 2043              		@ frame_needed = 1, uses_anonymous_args = 0
 2044              		@ link register save eliminated.
 2045 0000 80B4     		push	{r7}
 2046              		.cfi_def_cfa_offset 4
 2047              		.cfi_offset 7, -4
 2048 0002 83B0     		sub	sp, sp, #12
 2049              		.cfi_def_cfa_offset 16
 2050 0004 00AF     		add	r7, sp, #0
 2051              		.cfi_def_cfa_register 7
 2052 0006 7860     		str	r0, [r7, #4]
 660:C:/Users/leonardo/Desktop/Code/Github/DawnBGC/Libraries/FWLIB/src\gd32f4xx_timer.c ****     TIMER_CCHP(timer_periph) &= ~(uint32_t)TIMER_CCHP_BRKEN;
 2053              		.loc 1 660 30
 2054 0008 7B68     		ldr	r3, [r7, #4]
 2055 000a 4433     		adds	r3, r3, #68
 2056 000c 1B68     		ldr	r3, [r3]
 2057 000e 7A68     		ldr	r2, [r7, #4]
 2058 0010 4432     		adds	r2, r2, #68
 2059 0012 23F48053 		bic	r3, r3, #4096
 2060 0016 1360     		str	r3, [r2]
 661:C:/Users/leonardo/Desktop/Code/Github/DawnBGC/Libraries/FWLIB/src\gd32f4xx_timer.c **** }
 2061              		.loc 1 661 1
 2062 0018 00BF     		nop
 2063 001a 0C37     		adds	r7, r7, #12
 2064              		.cfi_def_cfa_offset 4
 2065 001c BD46     		mov	sp, r7
 2066              		.cfi_def_cfa_register 13
 2067              		@ sp needed
 2068 001e 80BC     		pop	{r7}
 2069              		.cfi_restore 7
 2070              		.cfi_def_cfa_offset 0
 2071 0020 7047     		bx	lr
 2072              		.cfi_endproc
 2073              	.LFE155:
 2075              		.section	.text.timer_automatic_output_enable,"ax",%progbits
 2076              		.align	1
 2077              		.global	timer_automatic_output_enable
 2078              		.syntax unified
 2079              		.thumb
 2080              		.thumb_func
 2081              		.fpu softvfp
 2083              	timer_automatic_output_enable:
 2084              	.LFB156:
 662:C:/Users/leonardo/Desktop/Code/Github/DawnBGC/Libraries/FWLIB/src\gd32f4xx_timer.c **** 
 663:C:/Users/leonardo/Desktop/Code/Github/DawnBGC/Libraries/FWLIB/src\gd32f4xx_timer.c **** /*!
 664:C:/Users/leonardo/Desktop/Code/Github/DawnBGC/Libraries/FWLIB/src\gd32f4xx_timer.c ****     \brief      enable TIMER output automatic function
 665:C:/Users/leonardo/Desktop/Code/Github/DawnBGC/Libraries/FWLIB/src\gd32f4xx_timer.c ****     \param[in]  timer_periph: TIMERx(x=0,7)
 666:C:/Users/leonardo/Desktop/Code/Github/DawnBGC/Libraries/FWLIB/src\gd32f4xx_timer.c ****     \param[out] none
 667:C:/Users/leonardo/Desktop/Code/Github/DawnBGC/Libraries/FWLIB/src\gd32f4xx_timer.c ****     \retval     none
 668:C:/Users/leonardo/Desktop/Code/Github/DawnBGC/Libraries/FWLIB/src\gd32f4xx_timer.c **** */
 669:C:/Users/leonardo/Desktop/Code/Github/DawnBGC/Libraries/FWLIB/src\gd32f4xx_timer.c **** void timer_automatic_output_enable(uint32_t timer_periph)
 670:C:/Users/leonardo/Desktop/Code/Github/DawnBGC/Libraries/FWLIB/src\gd32f4xx_timer.c **** {
 2085              		.loc 1 670 1
 2086              		.cfi_startproc
 2087              		@ args = 0, pretend = 0, frame = 8
 2088              		@ frame_needed = 1, uses_anonymous_args = 0
 2089              		@ link register save eliminated.
 2090 0000 80B4     		push	{r7}
 2091              		.cfi_def_cfa_offset 4
 2092              		.cfi_offset 7, -4
 2093 0002 83B0     		sub	sp, sp, #12
 2094              		.cfi_def_cfa_offset 16
 2095 0004 00AF     		add	r7, sp, #0
 2096              		.cfi_def_cfa_register 7
 2097 0006 7860     		str	r0, [r7, #4]
 671:C:/Users/leonardo/Desktop/Code/Github/DawnBGC/Libraries/FWLIB/src\gd32f4xx_timer.c ****     TIMER_CCHP(timer_periph) |= (uint32_t)TIMER_CCHP_OAEN;
 2098              		.loc 1 671 30
 2099 0008 7B68     		ldr	r3, [r7, #4]
 2100 000a 4433     		adds	r3, r3, #68
 2101 000c 1B68     		ldr	r3, [r3]
 2102 000e 7A68     		ldr	r2, [r7, #4]
 2103 0010 4432     		adds	r2, r2, #68
 2104 0012 43F48043 		orr	r3, r3, #16384
 2105 0016 1360     		str	r3, [r2]
 672:C:/Users/leonardo/Desktop/Code/Github/DawnBGC/Libraries/FWLIB/src\gd32f4xx_timer.c **** }
 2106              		.loc 1 672 1
 2107 0018 00BF     		nop
 2108 001a 0C37     		adds	r7, r7, #12
 2109              		.cfi_def_cfa_offset 4
 2110 001c BD46     		mov	sp, r7
 2111              		.cfi_def_cfa_register 13
 2112              		@ sp needed
 2113 001e 80BC     		pop	{r7}
 2114              		.cfi_restore 7
 2115              		.cfi_def_cfa_offset 0
 2116 0020 7047     		bx	lr
 2117              		.cfi_endproc
 2118              	.LFE156:
 2120              		.section	.text.timer_automatic_output_disable,"ax",%progbits
 2121              		.align	1
 2122              		.global	timer_automatic_output_disable
 2123              		.syntax unified
 2124              		.thumb
 2125              		.thumb_func
 2126              		.fpu softvfp
 2128              	timer_automatic_output_disable:
 2129              	.LFB157:
 673:C:/Users/leonardo/Desktop/Code/Github/DawnBGC/Libraries/FWLIB/src\gd32f4xx_timer.c **** 
 674:C:/Users/leonardo/Desktop/Code/Github/DawnBGC/Libraries/FWLIB/src\gd32f4xx_timer.c **** /*!
 675:C:/Users/leonardo/Desktop/Code/Github/DawnBGC/Libraries/FWLIB/src\gd32f4xx_timer.c ****     \brief      disable TIMER output automatic function
 676:C:/Users/leonardo/Desktop/Code/Github/DawnBGC/Libraries/FWLIB/src\gd32f4xx_timer.c ****     \param[in]  timer_periph: TIMERx(x=0,7)
 677:C:/Users/leonardo/Desktop/Code/Github/DawnBGC/Libraries/FWLIB/src\gd32f4xx_timer.c ****     \param[out] none
 678:C:/Users/leonardo/Desktop/Code/Github/DawnBGC/Libraries/FWLIB/src\gd32f4xx_timer.c ****     \retval     none
 679:C:/Users/leonardo/Desktop/Code/Github/DawnBGC/Libraries/FWLIB/src\gd32f4xx_timer.c **** */
 680:C:/Users/leonardo/Desktop/Code/Github/DawnBGC/Libraries/FWLIB/src\gd32f4xx_timer.c **** void timer_automatic_output_disable(uint32_t timer_periph)
 681:C:/Users/leonardo/Desktop/Code/Github/DawnBGC/Libraries/FWLIB/src\gd32f4xx_timer.c **** {
 2130              		.loc 1 681 1
 2131              		.cfi_startproc
 2132              		@ args = 0, pretend = 0, frame = 8
 2133              		@ frame_needed = 1, uses_anonymous_args = 0
 2134              		@ link register save eliminated.
 2135 0000 80B4     		push	{r7}
 2136              		.cfi_def_cfa_offset 4
 2137              		.cfi_offset 7, -4
 2138 0002 83B0     		sub	sp, sp, #12
 2139              		.cfi_def_cfa_offset 16
 2140 0004 00AF     		add	r7, sp, #0
 2141              		.cfi_def_cfa_register 7
 2142 0006 7860     		str	r0, [r7, #4]
 682:C:/Users/leonardo/Desktop/Code/Github/DawnBGC/Libraries/FWLIB/src\gd32f4xx_timer.c ****     TIMER_CCHP(timer_periph) &= ~(uint32_t)TIMER_CCHP_OAEN;
 2143              		.loc 1 682 30
 2144 0008 7B68     		ldr	r3, [r7, #4]
 2145 000a 4433     		adds	r3, r3, #68
 2146 000c 1B68     		ldr	r3, [r3]
 2147 000e 7A68     		ldr	r2, [r7, #4]
 2148 0010 4432     		adds	r2, r2, #68
 2149 0012 23F48043 		bic	r3, r3, #16384
 2150 0016 1360     		str	r3, [r2]
 683:C:/Users/leonardo/Desktop/Code/Github/DawnBGC/Libraries/FWLIB/src\gd32f4xx_timer.c **** }
 2151              		.loc 1 683 1
 2152 0018 00BF     		nop
 2153 001a 0C37     		adds	r7, r7, #12
 2154              		.cfi_def_cfa_offset 4
 2155 001c BD46     		mov	sp, r7
 2156              		.cfi_def_cfa_register 13
 2157              		@ sp needed
 2158 001e 80BC     		pop	{r7}
 2159              		.cfi_restore 7
 2160              		.cfi_def_cfa_offset 0
 2161 0020 7047     		bx	lr
 2162              		.cfi_endproc
 2163              	.LFE157:
 2165              		.section	.text.timer_primary_output_config,"ax",%progbits
 2166              		.align	1
 2167              		.global	timer_primary_output_config
 2168              		.syntax unified
 2169              		.thumb
 2170              		.thumb_func
 2171              		.fpu softvfp
 2173              	timer_primary_output_config:
 2174              	.LFB158:
 684:C:/Users/leonardo/Desktop/Code/Github/DawnBGC/Libraries/FWLIB/src\gd32f4xx_timer.c **** 
 685:C:/Users/leonardo/Desktop/Code/Github/DawnBGC/Libraries/FWLIB/src\gd32f4xx_timer.c **** /*!
 686:C:/Users/leonardo/Desktop/Code/Github/DawnBGC/Libraries/FWLIB/src\gd32f4xx_timer.c ****     \brief      configure TIMER primary output function
 687:C:/Users/leonardo/Desktop/Code/Github/DawnBGC/Libraries/FWLIB/src\gd32f4xx_timer.c ****     \param[in]  timer_periph: TIMERx(x=0,7)
 688:C:/Users/leonardo/Desktop/Code/Github/DawnBGC/Libraries/FWLIB/src\gd32f4xx_timer.c ****     \param[in]  newvalue: ENABLE or DISABLE
 689:C:/Users/leonardo/Desktop/Code/Github/DawnBGC/Libraries/FWLIB/src\gd32f4xx_timer.c ****     \param[out] none
 690:C:/Users/leonardo/Desktop/Code/Github/DawnBGC/Libraries/FWLIB/src\gd32f4xx_timer.c ****     \retval     none
 691:C:/Users/leonardo/Desktop/Code/Github/DawnBGC/Libraries/FWLIB/src\gd32f4xx_timer.c **** */
 692:C:/Users/leonardo/Desktop/Code/Github/DawnBGC/Libraries/FWLIB/src\gd32f4xx_timer.c **** void timer_primary_output_config(uint32_t timer_periph,ControlStatus newvalue)
 693:C:/Users/leonardo/Desktop/Code/Github/DawnBGC/Libraries/FWLIB/src\gd32f4xx_timer.c **** {
 2175              		.loc 1 693 1
 2176              		.cfi_startproc
 2177              		@ args = 0, pretend = 0, frame = 8
 2178              		@ frame_needed = 1, uses_anonymous_args = 0
 2179              		@ link register save eliminated.
 2180 0000 80B4     		push	{r7}
 2181              		.cfi_def_cfa_offset 4
 2182              		.cfi_offset 7, -4
 2183 0002 83B0     		sub	sp, sp, #12
 2184              		.cfi_def_cfa_offset 16
 2185 0004 00AF     		add	r7, sp, #0
 2186              		.cfi_def_cfa_register 7
 2187 0006 7860     		str	r0, [r7, #4]
 2188 0008 0B46     		mov	r3, r1
 2189 000a FB70     		strb	r3, [r7, #3]
 694:C:/Users/leonardo/Desktop/Code/Github/DawnBGC/Libraries/FWLIB/src\gd32f4xx_timer.c ****     if(ENABLE == newvalue){
 2190              		.loc 1 694 7
 2191 000c FB78     		ldrb	r3, [r7, #3]	@ zero_extendqisi2
 2192 000e 012B     		cmp	r3, #1
 2193 0010 08D1     		bne	.L80
 695:C:/Users/leonardo/Desktop/Code/Github/DawnBGC/Libraries/FWLIB/src\gd32f4xx_timer.c ****         TIMER_CCHP(timer_periph) |= (uint32_t)TIMER_CCHP_POEN;
 2194              		.loc 1 695 34
 2195 0012 7B68     		ldr	r3, [r7, #4]
 2196 0014 4433     		adds	r3, r3, #68
 2197 0016 1B68     		ldr	r3, [r3]
 2198 0018 7A68     		ldr	r2, [r7, #4]
 2199 001a 4432     		adds	r2, r2, #68
 2200 001c 43F40043 		orr	r3, r3, #32768
 2201 0020 1360     		str	r3, [r2]
 696:C:/Users/leonardo/Desktop/Code/Github/DawnBGC/Libraries/FWLIB/src\gd32f4xx_timer.c ****     }else{
 697:C:/Users/leonardo/Desktop/Code/Github/DawnBGC/Libraries/FWLIB/src\gd32f4xx_timer.c ****         TIMER_CCHP(timer_periph) &= (~(uint32_t)TIMER_CCHP_POEN);
 698:C:/Users/leonardo/Desktop/Code/Github/DawnBGC/Libraries/FWLIB/src\gd32f4xx_timer.c ****     }
 699:C:/Users/leonardo/Desktop/Code/Github/DawnBGC/Libraries/FWLIB/src\gd32f4xx_timer.c **** }
 2202              		.loc 1 699 1
 2203 0022 07E0     		b	.L82
 2204              	.L80:
 697:C:/Users/leonardo/Desktop/Code/Github/DawnBGC/Libraries/FWLIB/src\gd32f4xx_timer.c ****     }
 2205              		.loc 1 697 34
 2206 0024 7B68     		ldr	r3, [r7, #4]
 2207 0026 4433     		adds	r3, r3, #68
 2208 0028 1B68     		ldr	r3, [r3]
 2209 002a 7A68     		ldr	r2, [r7, #4]
 2210 002c 4432     		adds	r2, r2, #68
 2211 002e 23F40043 		bic	r3, r3, #32768
 2212 0032 1360     		str	r3, [r2]
 2213              	.L82:
 2214              		.loc 1 699 1
 2215 0034 00BF     		nop
 2216 0036 0C37     		adds	r7, r7, #12
 2217              		.cfi_def_cfa_offset 4
 2218 0038 BD46     		mov	sp, r7
 2219              		.cfi_def_cfa_register 13
 2220              		@ sp needed
 2221 003a 80BC     		pop	{r7}
 2222              		.cfi_restore 7
 2223              		.cfi_def_cfa_offset 0
 2224 003c 7047     		bx	lr
 2225              		.cfi_endproc
 2226              	.LFE158:
 2228              		.section	.text.timer_channel_control_shadow_config,"ax",%progbits
 2229              		.align	1
 2230              		.global	timer_channel_control_shadow_config
 2231              		.syntax unified
 2232              		.thumb
 2233              		.thumb_func
 2234              		.fpu softvfp
 2236              	timer_channel_control_shadow_config:
 2237              	.LFB159:
 700:C:/Users/leonardo/Desktop/Code/Github/DawnBGC/Libraries/FWLIB/src\gd32f4xx_timer.c **** 
 701:C:/Users/leonardo/Desktop/Code/Github/DawnBGC/Libraries/FWLIB/src\gd32f4xx_timer.c **** /*!
 702:C:/Users/leonardo/Desktop/Code/Github/DawnBGC/Libraries/FWLIB/src\gd32f4xx_timer.c ****     \brief      channel capture/compare control shadow register enable
 703:C:/Users/leonardo/Desktop/Code/Github/DawnBGC/Libraries/FWLIB/src\gd32f4xx_timer.c ****     \param[in]  timer_periph: TIMERx(x=0,7)
 704:C:/Users/leonardo/Desktop/Code/Github/DawnBGC/Libraries/FWLIB/src\gd32f4xx_timer.c ****     \param[in]  newvalue: ENABLE or DISABLE 
 705:C:/Users/leonardo/Desktop/Code/Github/DawnBGC/Libraries/FWLIB/src\gd32f4xx_timer.c ****     \param[out] none
 706:C:/Users/leonardo/Desktop/Code/Github/DawnBGC/Libraries/FWLIB/src\gd32f4xx_timer.c ****     \retval     none
 707:C:/Users/leonardo/Desktop/Code/Github/DawnBGC/Libraries/FWLIB/src\gd32f4xx_timer.c **** */
 708:C:/Users/leonardo/Desktop/Code/Github/DawnBGC/Libraries/FWLIB/src\gd32f4xx_timer.c **** void timer_channel_control_shadow_config(uint32_t timer_periph,ControlStatus newvalue)
 709:C:/Users/leonardo/Desktop/Code/Github/DawnBGC/Libraries/FWLIB/src\gd32f4xx_timer.c **** {
 2238              		.loc 1 709 1
 2239              		.cfi_startproc
 2240              		@ args = 0, pretend = 0, frame = 8
 2241              		@ frame_needed = 1, uses_anonymous_args = 0
 2242              		@ link register save eliminated.
 2243 0000 80B4     		push	{r7}
 2244              		.cfi_def_cfa_offset 4
 2245              		.cfi_offset 7, -4
 2246 0002 83B0     		sub	sp, sp, #12
 2247              		.cfi_def_cfa_offset 16
 2248 0004 00AF     		add	r7, sp, #0
 2249              		.cfi_def_cfa_register 7
 2250 0006 7860     		str	r0, [r7, #4]
 2251 0008 0B46     		mov	r3, r1
 2252 000a FB70     		strb	r3, [r7, #3]
 710:C:/Users/leonardo/Desktop/Code/Github/DawnBGC/Libraries/FWLIB/src\gd32f4xx_timer.c ****      if(ENABLE == newvalue){
 2253              		.loc 1 710 8
 2254 000c FB78     		ldrb	r3, [r7, #3]	@ zero_extendqisi2
 2255 000e 012B     		cmp	r3, #1
 2256 0010 08D1     		bne	.L84
 711:C:/Users/leonardo/Desktop/Code/Github/DawnBGC/Libraries/FWLIB/src\gd32f4xx_timer.c ****         TIMER_CTL1(timer_periph) |= (uint32_t)TIMER_CTL1_CCSE;
 2257              		.loc 1 711 34
 2258 0012 7B68     		ldr	r3, [r7, #4]
 2259 0014 0433     		adds	r3, r3, #4
 2260 0016 1B68     		ldr	r3, [r3]
 2261 0018 7A68     		ldr	r2, [r7, #4]
 2262 001a 0432     		adds	r2, r2, #4
 2263 001c 43F00103 		orr	r3, r3, #1
 2264 0020 1360     		str	r3, [r2]
 712:C:/Users/leonardo/Desktop/Code/Github/DawnBGC/Libraries/FWLIB/src\gd32f4xx_timer.c ****     }else{
 713:C:/Users/leonardo/Desktop/Code/Github/DawnBGC/Libraries/FWLIB/src\gd32f4xx_timer.c ****         TIMER_CTL1(timer_periph) &= (~(uint32_t)TIMER_CTL1_CCSE);
 714:C:/Users/leonardo/Desktop/Code/Github/DawnBGC/Libraries/FWLIB/src\gd32f4xx_timer.c ****     }
 715:C:/Users/leonardo/Desktop/Code/Github/DawnBGC/Libraries/FWLIB/src\gd32f4xx_timer.c **** }
 2265              		.loc 1 715 1
 2266 0022 07E0     		b	.L86
 2267              	.L84:
 713:C:/Users/leonardo/Desktop/Code/Github/DawnBGC/Libraries/FWLIB/src\gd32f4xx_timer.c ****     }
 2268              		.loc 1 713 34
 2269 0024 7B68     		ldr	r3, [r7, #4]
 2270 0026 0433     		adds	r3, r3, #4
 2271 0028 1B68     		ldr	r3, [r3]
 2272 002a 7A68     		ldr	r2, [r7, #4]
 2273 002c 0432     		adds	r2, r2, #4
 2274 002e 23F00103 		bic	r3, r3, #1
 2275 0032 1360     		str	r3, [r2]
 2276              	.L86:
 2277              		.loc 1 715 1
 2278 0034 00BF     		nop
 2279 0036 0C37     		adds	r7, r7, #12
 2280              		.cfi_def_cfa_offset 4
 2281 0038 BD46     		mov	sp, r7
 2282              		.cfi_def_cfa_register 13
 2283              		@ sp needed
 2284 003a 80BC     		pop	{r7}
 2285              		.cfi_restore 7
 2286              		.cfi_def_cfa_offset 0
 2287 003c 7047     		bx	lr
 2288              		.cfi_endproc
 2289              	.LFE159:
 2291              		.section	.text.timer_channel_control_shadow_update_config,"ax",%progbits
 2292              		.align	1
 2293              		.global	timer_channel_control_shadow_update_config
 2294              		.syntax unified
 2295              		.thumb
 2296              		.thumb_func
 2297              		.fpu softvfp
 2299              	timer_channel_control_shadow_update_config:
 2300              	.LFB160:
 716:C:/Users/leonardo/Desktop/Code/Github/DawnBGC/Libraries/FWLIB/src\gd32f4xx_timer.c **** 
 717:C:/Users/leonardo/Desktop/Code/Github/DawnBGC/Libraries/FWLIB/src\gd32f4xx_timer.c **** /*!
 718:C:/Users/leonardo/Desktop/Code/Github/DawnBGC/Libraries/FWLIB/src\gd32f4xx_timer.c ****     \brief      configure TIMER channel control shadow register update control
 719:C:/Users/leonardo/Desktop/Code/Github/DawnBGC/Libraries/FWLIB/src\gd32f4xx_timer.c ****     \param[in]  timer_periph: TIMERx(x=0,7)
 720:C:/Users/leonardo/Desktop/Code/Github/DawnBGC/Libraries/FWLIB/src\gd32f4xx_timer.c ****     \param[in]  timer_ccuctl: channel control shadow register update control
 721:C:/Users/leonardo/Desktop/Code/Github/DawnBGC/Libraries/FWLIB/src\gd32f4xx_timer.c ****       \arg        TIMER_UPDATECTL_CCU: the shadow registers update by when CMTG bit is set
 722:C:/Users/leonardo/Desktop/Code/Github/DawnBGC/Libraries/FWLIB/src\gd32f4xx_timer.c ****       \arg        TIMER_UPDATECTL_CCUTRI: the shadow registers update by when CMTG bit is set or an
 723:C:/Users/leonardo/Desktop/Code/Github/DawnBGC/Libraries/FWLIB/src\gd32f4xx_timer.c ****     \param[out] none
 724:C:/Users/leonardo/Desktop/Code/Github/DawnBGC/Libraries/FWLIB/src\gd32f4xx_timer.c ****     \retval     none
 725:C:/Users/leonardo/Desktop/Code/Github/DawnBGC/Libraries/FWLIB/src\gd32f4xx_timer.c **** */              
 726:C:/Users/leonardo/Desktop/Code/Github/DawnBGC/Libraries/FWLIB/src\gd32f4xx_timer.c **** void timer_channel_control_shadow_update_config(uint32_t timer_periph,uint8_t timer_ccuctl)
 727:C:/Users/leonardo/Desktop/Code/Github/DawnBGC/Libraries/FWLIB/src\gd32f4xx_timer.c **** {
 2301              		.loc 1 727 1
 2302              		.cfi_startproc
 2303              		@ args = 0, pretend = 0, frame = 8
 2304              		@ frame_needed = 1, uses_anonymous_args = 0
 2305              		@ link register save eliminated.
 2306 0000 80B4     		push	{r7}
 2307              		.cfi_def_cfa_offset 4
 2308              		.cfi_offset 7, -4
 2309 0002 83B0     		sub	sp, sp, #12
 2310              		.cfi_def_cfa_offset 16
 2311 0004 00AF     		add	r7, sp, #0
 2312              		.cfi_def_cfa_register 7
 2313 0006 7860     		str	r0, [r7, #4]
 2314 0008 0B46     		mov	r3, r1
 2315 000a FB70     		strb	r3, [r7, #3]
 728:C:/Users/leonardo/Desktop/Code/Github/DawnBGC/Libraries/FWLIB/src\gd32f4xx_timer.c ****     if(TIMER_UPDATECTL_CCU == timer_ccuctl){
 2316              		.loc 1 728 7
 2317 000c FB78     		ldrb	r3, [r7, #3]	@ zero_extendqisi2
 2318 000e 002B     		cmp	r3, #0
 2319 0010 08D1     		bne	.L88
 729:C:/Users/leonardo/Desktop/Code/Github/DawnBGC/Libraries/FWLIB/src\gd32f4xx_timer.c ****         TIMER_CTL1(timer_periph) &= (~(uint32_t)TIMER_CTL1_CCUC);
 2320              		.loc 1 729 34
 2321 0012 7B68     		ldr	r3, [r7, #4]
 2322 0014 0433     		adds	r3, r3, #4
 2323 0016 1B68     		ldr	r3, [r3]
 2324 0018 7A68     		ldr	r2, [r7, #4]
 2325 001a 0432     		adds	r2, r2, #4
 2326 001c 23F00403 		bic	r3, r3, #4
 2327 0020 1360     		str	r3, [r2]
 730:C:/Users/leonardo/Desktop/Code/Github/DawnBGC/Libraries/FWLIB/src\gd32f4xx_timer.c ****     }else if(TIMER_UPDATECTL_CCUTRI == timer_ccuctl){
 731:C:/Users/leonardo/Desktop/Code/Github/DawnBGC/Libraries/FWLIB/src\gd32f4xx_timer.c ****         TIMER_CTL1(timer_periph) |= (uint32_t)TIMER_CTL1_CCUC;
 732:C:/Users/leonardo/Desktop/Code/Github/DawnBGC/Libraries/FWLIB/src\gd32f4xx_timer.c ****     }else{
 733:C:/Users/leonardo/Desktop/Code/Github/DawnBGC/Libraries/FWLIB/src\gd32f4xx_timer.c ****     }
 734:C:/Users/leonardo/Desktop/Code/Github/DawnBGC/Libraries/FWLIB/src\gd32f4xx_timer.c **** }
 2328              		.loc 1 734 1
 2329 0022 0AE0     		b	.L90
 2330              	.L88:
 730:C:/Users/leonardo/Desktop/Code/Github/DawnBGC/Libraries/FWLIB/src\gd32f4xx_timer.c ****     }else if(TIMER_UPDATECTL_CCUTRI == timer_ccuctl){
 2331              		.loc 1 730 13
 2332 0024 FB78     		ldrb	r3, [r7, #3]	@ zero_extendqisi2
 2333 0026 012B     		cmp	r3, #1
 2334 0028 07D1     		bne	.L90
 731:C:/Users/leonardo/Desktop/Code/Github/DawnBGC/Libraries/FWLIB/src\gd32f4xx_timer.c ****     }else{
 2335              		.loc 1 731 34
 2336 002a 7B68     		ldr	r3, [r7, #4]
 2337 002c 0433     		adds	r3, r3, #4
 2338 002e 1B68     		ldr	r3, [r3]
 2339 0030 7A68     		ldr	r2, [r7, #4]
 2340 0032 0432     		adds	r2, r2, #4
 2341 0034 43F00403 		orr	r3, r3, #4
 2342 0038 1360     		str	r3, [r2]
 2343              	.L90:
 2344              		.loc 1 734 1
 2345 003a 00BF     		nop
 2346 003c 0C37     		adds	r7, r7, #12
 2347              		.cfi_def_cfa_offset 4
 2348 003e BD46     		mov	sp, r7
 2349              		.cfi_def_cfa_register 13
 2350              		@ sp needed
 2351 0040 80BC     		pop	{r7}
 2352              		.cfi_restore 7
 2353              		.cfi_def_cfa_offset 0
 2354 0042 7047     		bx	lr
 2355              		.cfi_endproc
 2356              	.LFE160:
 2358              		.section	.text.timer_channel_output_config,"ax",%progbits
 2359              		.align	1
 2360              		.global	timer_channel_output_config
 2361              		.syntax unified
 2362              		.thumb
 2363              		.thumb_func
 2364              		.fpu softvfp
 2366              	timer_channel_output_config:
 2367              	.LFB161:
 735:C:/Users/leonardo/Desktop/Code/Github/DawnBGC/Libraries/FWLIB/src\gd32f4xx_timer.c **** 
 736:C:/Users/leonardo/Desktop/Code/Github/DawnBGC/Libraries/FWLIB/src\gd32f4xx_timer.c **** /*!
 737:C:/Users/leonardo/Desktop/Code/Github/DawnBGC/Libraries/FWLIB/src\gd32f4xx_timer.c ****     \brief      configure TIMER channel output function
 738:C:/Users/leonardo/Desktop/Code/Github/DawnBGC/Libraries/FWLIB/src\gd32f4xx_timer.c ****     \param[in]  timer_periph: please refer to the following parameters
 739:C:/Users/leonardo/Desktop/Code/Github/DawnBGC/Libraries/FWLIB/src\gd32f4xx_timer.c ****     \param[in]  timer_channel: 
 740:C:/Users/leonardo/Desktop/Code/Github/DawnBGC/Libraries/FWLIB/src\gd32f4xx_timer.c ****       \arg        TIMER_CH_0: TIMER channel 0(TIMERx(x=0..4,7..13))
 741:C:/Users/leonardo/Desktop/Code/Github/DawnBGC/Libraries/FWLIB/src\gd32f4xx_timer.c ****       \arg        TIMER_CH_1: TIMER channel 1(TIMERx(x=0..4,7,8,11))
 742:C:/Users/leonardo/Desktop/Code/Github/DawnBGC/Libraries/FWLIB/src\gd32f4xx_timer.c ****       \arg        TIMER_CH_2: TIMER channel 2(TIMERx(x=0..4,7))
 743:C:/Users/leonardo/Desktop/Code/Github/DawnBGC/Libraries/FWLIB/src\gd32f4xx_timer.c ****       \arg        TIMER_CH_3: TIMER channel 3(TIMERx(x=0..4,7))
 744:C:/Users/leonardo/Desktop/Code/Github/DawnBGC/Libraries/FWLIB/src\gd32f4xx_timer.c ****     \param[in]  timer_ocpara: TIMER channeln output parameter struct
 745:C:/Users/leonardo/Desktop/Code/Github/DawnBGC/Libraries/FWLIB/src\gd32f4xx_timer.c ****                 outputstate: TIMER_CCX_ENABLE,TIMER_CCX_DISABLE
 746:C:/Users/leonardo/Desktop/Code/Github/DawnBGC/Libraries/FWLIB/src\gd32f4xx_timer.c ****                 outputnstate: TIMER_CCXN_ENABLE,TIMER_CCXN_DISABLE
 747:C:/Users/leonardo/Desktop/Code/Github/DawnBGC/Libraries/FWLIB/src\gd32f4xx_timer.c ****                 ocpolarity: TIMER_OC_POLARITY_HIGH,TIMER_OC_POLARITY_LOW
 748:C:/Users/leonardo/Desktop/Code/Github/DawnBGC/Libraries/FWLIB/src\gd32f4xx_timer.c ****                 ocnpolarity: TIMER_OCN_POLARITY_HIGH,TIMER_OCN_POLARITY_LOW
 749:C:/Users/leonardo/Desktop/Code/Github/DawnBGC/Libraries/FWLIB/src\gd32f4xx_timer.c ****                 ocidlestate: TIMER_OC_IDLE_STATE_LOW,TIMER_OC_IDLE_STATE_HIGH
 750:C:/Users/leonardo/Desktop/Code/Github/DawnBGC/Libraries/FWLIB/src\gd32f4xx_timer.c ****                 ocnidlestate: TIMER_OCN_IDLE_STATE_LOW,TIMER_OCN_IDLE_STATE_HIGH
 751:C:/Users/leonardo/Desktop/Code/Github/DawnBGC/Libraries/FWLIB/src\gd32f4xx_timer.c ****     \param[out] none
 752:C:/Users/leonardo/Desktop/Code/Github/DawnBGC/Libraries/FWLIB/src\gd32f4xx_timer.c ****     \retval     none
 753:C:/Users/leonardo/Desktop/Code/Github/DawnBGC/Libraries/FWLIB/src\gd32f4xx_timer.c **** */
 754:C:/Users/leonardo/Desktop/Code/Github/DawnBGC/Libraries/FWLIB/src\gd32f4xx_timer.c **** void timer_channel_output_config(uint32_t timer_periph,uint16_t timer_channel,timer_oc_parameter_st
 755:C:/Users/leonardo/Desktop/Code/Github/DawnBGC/Libraries/FWLIB/src\gd32f4xx_timer.c **** {
 2368              		.loc 1 755 1
 2369              		.cfi_startproc
 2370              		@ args = 0, pretend = 0, frame = 16
 2371              		@ frame_needed = 1, uses_anonymous_args = 0
 2372              		@ link register save eliminated.
 2373 0000 80B4     		push	{r7}
 2374              		.cfi_def_cfa_offset 4
 2375              		.cfi_offset 7, -4
 2376 0002 85B0     		sub	sp, sp, #20
 2377              		.cfi_def_cfa_offset 24
 2378 0004 00AF     		add	r7, sp, #0
 2379              		.cfi_def_cfa_register 7
 2380 0006 F860     		str	r0, [r7, #12]
 2381 0008 0B46     		mov	r3, r1
 2382 000a 7A60     		str	r2, [r7, #4]
 2383 000c 7B81     		strh	r3, [r7, #10]	@ movhi
 756:C:/Users/leonardo/Desktop/Code/Github/DawnBGC/Libraries/FWLIB/src\gd32f4xx_timer.c ****     switch(timer_channel){
 2384              		.loc 1 756 5
 2385 000e 7B89     		ldrh	r3, [r7, #10]
 2386 0010 032B     		cmp	r3, #3
 2387 0012 00F2CD81 		bhi	.L107
 2388 0016 01A2     		adr	r2, .L94
 2389 0018 52F823F0 		ldr	pc, [r2, r3, lsl #2]
 2390              		.p2align 2
 2391              	.L94:
 2392 001c 2D000000 		.word	.L97+1
 2393 0020 25010000 		.word	.L96+1
 2394 0024 29020000 		.word	.L95+1
 2395 0028 23030000 		.word	.L93+1
 2396              		.p2align 1
 2397              	.L97:
 757:C:/Users/leonardo/Desktop/Code/Github/DawnBGC/Libraries/FWLIB/src\gd32f4xx_timer.c ****     /* configure TIMER_CH_0 */
 758:C:/Users/leonardo/Desktop/Code/Github/DawnBGC/Libraries/FWLIB/src\gd32f4xx_timer.c ****     case TIMER_CH_0:
 759:C:/Users/leonardo/Desktop/Code/Github/DawnBGC/Libraries/FWLIB/src\gd32f4xx_timer.c ****         /* reset the CH0EN bit */
 760:C:/Users/leonardo/Desktop/Code/Github/DawnBGC/Libraries/FWLIB/src\gd32f4xx_timer.c ****         TIMER_CHCTL2(timer_periph) &= (~(uint32_t)TIMER_CHCTL2_CH0EN);
 2398              		.loc 1 760 36
 2399 002c FB68     		ldr	r3, [r7, #12]
 2400 002e 2033     		adds	r3, r3, #32
 2401 0030 1B68     		ldr	r3, [r3]
 2402 0032 FA68     		ldr	r2, [r7, #12]
 2403 0034 2032     		adds	r2, r2, #32
 2404 0036 23F00103 		bic	r3, r3, #1
 2405 003a 1360     		str	r3, [r2]
 761:C:/Users/leonardo/Desktop/Code/Github/DawnBGC/Libraries/FWLIB/src\gd32f4xx_timer.c ****         /* set the CH0EN bit */
 762:C:/Users/leonardo/Desktop/Code/Github/DawnBGC/Libraries/FWLIB/src\gd32f4xx_timer.c ****         TIMER_CHCTL2(timer_periph) |= (uint32_t)timer_ocpara->outputstate;
 2406              		.loc 1 762 36
 2407 003c FB68     		ldr	r3, [r7, #12]
 2408 003e 2033     		adds	r3, r3, #32
 2409 0040 1A68     		ldr	r2, [r3]
 2410              		.loc 1 762 61
 2411 0042 7B68     		ldr	r3, [r7, #4]
 2412 0044 1B68     		ldr	r3, [r3]
 2413              		.loc 1 762 36
 2414 0046 F968     		ldr	r1, [r7, #12]
 2415 0048 2031     		adds	r1, r1, #32
 2416 004a 1343     		orrs	r3, r3, r2
 2417 004c 0B60     		str	r3, [r1]
 763:C:/Users/leonardo/Desktop/Code/Github/DawnBGC/Libraries/FWLIB/src\gd32f4xx_timer.c ****         /* reset the CH0P bit */
 764:C:/Users/leonardo/Desktop/Code/Github/DawnBGC/Libraries/FWLIB/src\gd32f4xx_timer.c ****         TIMER_CHCTL2(timer_periph) &= (~(uint32_t)TIMER_CHCTL2_CH0P);
 2418              		.loc 1 764 36
 2419 004e FB68     		ldr	r3, [r7, #12]
 2420 0050 2033     		adds	r3, r3, #32
 2421 0052 1B68     		ldr	r3, [r3]
 2422 0054 FA68     		ldr	r2, [r7, #12]
 2423 0056 2032     		adds	r2, r2, #32
 2424 0058 23F00203 		bic	r3, r3, #2
 2425 005c 1360     		str	r3, [r2]
 765:C:/Users/leonardo/Desktop/Code/Github/DawnBGC/Libraries/FWLIB/src\gd32f4xx_timer.c ****         /* set the CH0P bit */
 766:C:/Users/leonardo/Desktop/Code/Github/DawnBGC/Libraries/FWLIB/src\gd32f4xx_timer.c ****         TIMER_CHCTL2(timer_periph) |= (uint32_t)timer_ocpara->ocpolarity;
 2426              		.loc 1 766 36
 2427 005e FB68     		ldr	r3, [r7, #12]
 2428 0060 2033     		adds	r3, r3, #32
 2429 0062 1B68     		ldr	r3, [r3]
 2430              		.loc 1 766 61
 2431 0064 7A68     		ldr	r2, [r7, #4]
 2432 0066 D288     		ldrh	r2, [r2, #6]
 2433              		.loc 1 766 39
 2434 0068 1146     		mov	r1, r2
 2435              		.loc 1 766 36
 2436 006a FA68     		ldr	r2, [r7, #12]
 2437 006c 2032     		adds	r2, r2, #32
 2438 006e 0B43     		orrs	r3, r3, r1
 2439 0070 1360     		str	r3, [r2]
 767:C:/Users/leonardo/Desktop/Code/Github/DawnBGC/Libraries/FWLIB/src\gd32f4xx_timer.c **** 
 768:C:/Users/leonardo/Desktop/Code/Github/DawnBGC/Libraries/FWLIB/src\gd32f4xx_timer.c ****         if((TIMER0 == timer_periph) || (TIMER7 == timer_periph)){
 2440              		.loc 1 768 11
 2441 0072 FB68     		ldr	r3, [r7, #12]
 2442 0074 6A4A     		ldr	r2, .L108
 2443 0076 9342     		cmp	r3, r2
 2444 0078 03D0     		beq	.L98
 2445              		.loc 1 768 37 discriminator 1
 2446 007a FB68     		ldr	r3, [r7, #12]
 2447 007c 694A     		ldr	r2, .L108+4
 2448 007e 9342     		cmp	r3, r2
 2449 0080 47D1     		bne	.L99
 2450              	.L98:
 769:C:/Users/leonardo/Desktop/Code/Github/DawnBGC/Libraries/FWLIB/src\gd32f4xx_timer.c ****             /* reset the CH0NEN bit */
 770:C:/Users/leonardo/Desktop/Code/Github/DawnBGC/Libraries/FWLIB/src\gd32f4xx_timer.c ****             TIMER_CHCTL2(timer_periph) &= (~(uint32_t)TIMER_CHCTL2_CH0NEN);
 2451              		.loc 1 770 40
 2452 0082 FB68     		ldr	r3, [r7, #12]
 2453 0084 2033     		adds	r3, r3, #32
 2454 0086 1B68     		ldr	r3, [r3]
 2455 0088 FA68     		ldr	r2, [r7, #12]
 2456 008a 2032     		adds	r2, r2, #32
 2457 008c 23F00403 		bic	r3, r3, #4
 2458 0090 1360     		str	r3, [r2]
 771:C:/Users/leonardo/Desktop/Code/Github/DawnBGC/Libraries/FWLIB/src\gd32f4xx_timer.c ****             /* set the CH0NEN bit */
 772:C:/Users/leonardo/Desktop/Code/Github/DawnBGC/Libraries/FWLIB/src\gd32f4xx_timer.c ****             TIMER_CHCTL2(timer_periph) |= (uint32_t)timer_ocpara->outputnstate;
 2459              		.loc 1 772 40
 2460 0092 FB68     		ldr	r3, [r7, #12]
 2461 0094 2033     		adds	r3, r3, #32
 2462 0096 1B68     		ldr	r3, [r3]
 2463              		.loc 1 772 65
 2464 0098 7A68     		ldr	r2, [r7, #4]
 2465 009a 9288     		ldrh	r2, [r2, #4]
 2466              		.loc 1 772 43
 2467 009c 1146     		mov	r1, r2
 2468              		.loc 1 772 40
 2469 009e FA68     		ldr	r2, [r7, #12]
 2470 00a0 2032     		adds	r2, r2, #32
 2471 00a2 0B43     		orrs	r3, r3, r1
 2472 00a4 1360     		str	r3, [r2]
 773:C:/Users/leonardo/Desktop/Code/Github/DawnBGC/Libraries/FWLIB/src\gd32f4xx_timer.c ****             /* reset the CH0NP bit */
 774:C:/Users/leonardo/Desktop/Code/Github/DawnBGC/Libraries/FWLIB/src\gd32f4xx_timer.c ****             TIMER_CHCTL2(timer_periph) &= (~(uint32_t)TIMER_CHCTL2_CH0NP);
 2473              		.loc 1 774 40
 2474 00a6 FB68     		ldr	r3, [r7, #12]
 2475 00a8 2033     		adds	r3, r3, #32
 2476 00aa 1B68     		ldr	r3, [r3]
 2477 00ac FA68     		ldr	r2, [r7, #12]
 2478 00ae 2032     		adds	r2, r2, #32
 2479 00b0 23F00803 		bic	r3, r3, #8
 2480 00b4 1360     		str	r3, [r2]
 775:C:/Users/leonardo/Desktop/Code/Github/DawnBGC/Libraries/FWLIB/src\gd32f4xx_timer.c ****             /* set the CH0NP bit */
 776:C:/Users/leonardo/Desktop/Code/Github/DawnBGC/Libraries/FWLIB/src\gd32f4xx_timer.c ****             TIMER_CHCTL2(timer_periph) |= (uint32_t)timer_ocpara->ocnpolarity;
 2481              		.loc 1 776 40
 2482 00b6 FB68     		ldr	r3, [r7, #12]
 2483 00b8 2033     		adds	r3, r3, #32
 2484 00ba 1B68     		ldr	r3, [r3]
 2485              		.loc 1 776 65
 2486 00bc 7A68     		ldr	r2, [r7, #4]
 2487 00be 1289     		ldrh	r2, [r2, #8]
 2488              		.loc 1 776 43
 2489 00c0 1146     		mov	r1, r2
 2490              		.loc 1 776 40
 2491 00c2 FA68     		ldr	r2, [r7, #12]
 2492 00c4 2032     		adds	r2, r2, #32
 2493 00c6 0B43     		orrs	r3, r3, r1
 2494 00c8 1360     		str	r3, [r2]
 777:C:/Users/leonardo/Desktop/Code/Github/DawnBGC/Libraries/FWLIB/src\gd32f4xx_timer.c ****             /* reset the ISO0 bit */
 778:C:/Users/leonardo/Desktop/Code/Github/DawnBGC/Libraries/FWLIB/src\gd32f4xx_timer.c ****             TIMER_CTL1(timer_periph) &= (~(uint32_t)TIMER_CTL1_ISO0);
 2495              		.loc 1 778 38
 2496 00ca FB68     		ldr	r3, [r7, #12]
 2497 00cc 0433     		adds	r3, r3, #4
 2498 00ce 1B68     		ldr	r3, [r3]
 2499 00d0 FA68     		ldr	r2, [r7, #12]
 2500 00d2 0432     		adds	r2, r2, #4
 2501 00d4 23F48073 		bic	r3, r3, #256
 2502 00d8 1360     		str	r3, [r2]
 779:C:/Users/leonardo/Desktop/Code/Github/DawnBGC/Libraries/FWLIB/src\gd32f4xx_timer.c ****             /* set the ISO0 bit */
 780:C:/Users/leonardo/Desktop/Code/Github/DawnBGC/Libraries/FWLIB/src\gd32f4xx_timer.c ****             TIMER_CTL1(timer_periph) |= (uint32_t)timer_ocpara->ocidlestate;
 2503              		.loc 1 780 38
 2504 00da FB68     		ldr	r3, [r7, #12]
 2505 00dc 0433     		adds	r3, r3, #4
 2506 00de 1B68     		ldr	r3, [r3]
 2507              		.loc 1 780 63
 2508 00e0 7A68     		ldr	r2, [r7, #4]
 2509 00e2 5289     		ldrh	r2, [r2, #10]
 2510              		.loc 1 780 41
 2511 00e4 1146     		mov	r1, r2
 2512              		.loc 1 780 38
 2513 00e6 FA68     		ldr	r2, [r7, #12]
 2514 00e8 0432     		adds	r2, r2, #4
 2515 00ea 0B43     		orrs	r3, r3, r1
 2516 00ec 1360     		str	r3, [r2]
 781:C:/Users/leonardo/Desktop/Code/Github/DawnBGC/Libraries/FWLIB/src\gd32f4xx_timer.c ****             /* reset the ISO0N bit */
 782:C:/Users/leonardo/Desktop/Code/Github/DawnBGC/Libraries/FWLIB/src\gd32f4xx_timer.c ****             TIMER_CTL1(timer_periph) &= (~(uint32_t)TIMER_CTL1_ISO0N);
 2517              		.loc 1 782 38
 2518 00ee FB68     		ldr	r3, [r7, #12]
 2519 00f0 0433     		adds	r3, r3, #4
 2520 00f2 1B68     		ldr	r3, [r3]
 2521 00f4 FA68     		ldr	r2, [r7, #12]
 2522 00f6 0432     		adds	r2, r2, #4
 2523 00f8 23F40073 		bic	r3, r3, #512
 2524 00fc 1360     		str	r3, [r2]
 783:C:/Users/leonardo/Desktop/Code/Github/DawnBGC/Libraries/FWLIB/src\gd32f4xx_timer.c ****             /* set the ISO0N bit */
 784:C:/Users/leonardo/Desktop/Code/Github/DawnBGC/Libraries/FWLIB/src\gd32f4xx_timer.c ****             TIMER_CTL1(timer_periph) |= (uint32_t)timer_ocpara->ocnidlestate;
 2525              		.loc 1 784 38
 2526 00fe FB68     		ldr	r3, [r7, #12]
 2527 0100 0433     		adds	r3, r3, #4
 2528 0102 1B68     		ldr	r3, [r3]
 2529              		.loc 1 784 63
 2530 0104 7A68     		ldr	r2, [r7, #4]
 2531 0106 9289     		ldrh	r2, [r2, #12]
 2532              		.loc 1 784 41
 2533 0108 1146     		mov	r1, r2
 2534              		.loc 1 784 38
 2535 010a FA68     		ldr	r2, [r7, #12]
 2536 010c 0432     		adds	r2, r2, #4
 2537 010e 0B43     		orrs	r3, r3, r1
 2538 0110 1360     		str	r3, [r2]
 2539              	.L99:
 785:C:/Users/leonardo/Desktop/Code/Github/DawnBGC/Libraries/FWLIB/src\gd32f4xx_timer.c ****         }
 786:C:/Users/leonardo/Desktop/Code/Github/DawnBGC/Libraries/FWLIB/src\gd32f4xx_timer.c ****         TIMER_CHCTL0(timer_periph) &= ~(uint32_t)TIMER_CHCTL0_CH0MS;
 2540              		.loc 1 786 36
 2541 0112 FB68     		ldr	r3, [r7, #12]
 2542 0114 1833     		adds	r3, r3, #24
 2543 0116 1B68     		ldr	r3, [r3]
 2544 0118 FA68     		ldr	r2, [r7, #12]
 2545 011a 1832     		adds	r2, r2, #24
 2546 011c 23F00303 		bic	r3, r3, #3
 2547 0120 1360     		str	r3, [r2]
 787:C:/Users/leonardo/Desktop/Code/Github/DawnBGC/Libraries/FWLIB/src\gd32f4xx_timer.c ****         break;
 2548              		.loc 1 787 9
 2549 0122 46E1     		b	.L100
 2550              	.L96:
 788:C:/Users/leonardo/Desktop/Code/Github/DawnBGC/Libraries/FWLIB/src\gd32f4xx_timer.c ****     /* configure TIMER_CH_1 */
 789:C:/Users/leonardo/Desktop/Code/Github/DawnBGC/Libraries/FWLIB/src\gd32f4xx_timer.c ****     case TIMER_CH_1:
 790:C:/Users/leonardo/Desktop/Code/Github/DawnBGC/Libraries/FWLIB/src\gd32f4xx_timer.c ****         /* reset the CH1EN bit */
 791:C:/Users/leonardo/Desktop/Code/Github/DawnBGC/Libraries/FWLIB/src\gd32f4xx_timer.c ****         TIMER_CHCTL2(timer_periph) &= (~(uint32_t)TIMER_CHCTL2_CH1EN);
 2551              		.loc 1 791 36
 2552 0124 FB68     		ldr	r3, [r7, #12]
 2553 0126 2033     		adds	r3, r3, #32
 2554 0128 1B68     		ldr	r3, [r3]
 2555 012a FA68     		ldr	r2, [r7, #12]
 2556 012c 2032     		adds	r2, r2, #32
 2557 012e 23F01003 		bic	r3, r3, #16
 2558 0132 1360     		str	r3, [r2]
 792:C:/Users/leonardo/Desktop/Code/Github/DawnBGC/Libraries/FWLIB/src\gd32f4xx_timer.c ****         /* set the CH1EN bit */
 793:C:/Users/leonardo/Desktop/Code/Github/DawnBGC/Libraries/FWLIB/src\gd32f4xx_timer.c ****         TIMER_CHCTL2(timer_periph) |= (uint32_t)(timer_ocpara->outputstate<< 4U);
 2559              		.loc 1 793 36
 2560 0134 FB68     		ldr	r3, [r7, #12]
 2561 0136 2033     		adds	r3, r3, #32
 2562 0138 1A68     		ldr	r2, [r3]
 2563              		.loc 1 793 62
 2564 013a 7B68     		ldr	r3, [r7, #4]
 2565 013c 1B68     		ldr	r3, [r3]
 2566              		.loc 1 793 75
 2567 013e 1B01     		lsls	r3, r3, #4
 2568              		.loc 1 793 36
 2569 0140 F968     		ldr	r1, [r7, #12]
 2570 0142 2031     		adds	r1, r1, #32
 2571 0144 1343     		orrs	r3, r3, r2
 2572 0146 0B60     		str	r3, [r1]
 794:C:/Users/leonardo/Desktop/Code/Github/DawnBGC/Libraries/FWLIB/src\gd32f4xx_timer.c ****         /* reset the CH1P bit */
 795:C:/Users/leonardo/Desktop/Code/Github/DawnBGC/Libraries/FWLIB/src\gd32f4xx_timer.c ****         TIMER_CHCTL2(timer_periph) &= (~(uint32_t)TIMER_CHCTL2_CH1P);
 2573              		.loc 1 795 36
 2574 0148 FB68     		ldr	r3, [r7, #12]
 2575 014a 2033     		adds	r3, r3, #32
 2576 014c 1B68     		ldr	r3, [r3]
 2577 014e FA68     		ldr	r2, [r7, #12]
 2578 0150 2032     		adds	r2, r2, #32
 2579 0152 23F02003 		bic	r3, r3, #32
 2580 0156 1360     		str	r3, [r2]
 796:C:/Users/leonardo/Desktop/Code/Github/DawnBGC/Libraries/FWLIB/src\gd32f4xx_timer.c ****         /* set the CH1P bit */
 797:C:/Users/leonardo/Desktop/Code/Github/DawnBGC/Libraries/FWLIB/src\gd32f4xx_timer.c ****         TIMER_CHCTL2(timer_periph) |= (uint32_t)((uint32_t)(timer_ocpara->ocpolarity)<< 4U);
 2581              		.loc 1 797 36
 2582 0158 FB68     		ldr	r3, [r7, #12]
 2583 015a 2033     		adds	r3, r3, #32
 2584 015c 1A68     		ldr	r2, [r3]
 2585              		.loc 1 797 73
 2586 015e 7B68     		ldr	r3, [r7, #4]
 2587 0160 DB88     		ldrh	r3, [r3, #6]
 2588              		.loc 1 797 39
 2589 0162 1B01     		lsls	r3, r3, #4
 2590              		.loc 1 797 36
 2591 0164 F968     		ldr	r1, [r7, #12]
 2592 0166 2031     		adds	r1, r1, #32
 2593 0168 1343     		orrs	r3, r3, r2
 2594 016a 0B60     		str	r3, [r1]
 798:C:/Users/leonardo/Desktop/Code/Github/DawnBGC/Libraries/FWLIB/src\gd32f4xx_timer.c **** 
 799:C:/Users/leonardo/Desktop/Code/Github/DawnBGC/Libraries/FWLIB/src\gd32f4xx_timer.c ****         if((TIMER0 == timer_periph) || (TIMER7 == timer_periph)){
 2595              		.loc 1 799 11
 2596 016c FB68     		ldr	r3, [r7, #12]
 2597 016e 2C4A     		ldr	r2, .L108
 2598 0170 9342     		cmp	r3, r2
 2599 0172 03D0     		beq	.L101
 2600              		.loc 1 799 37 discriminator 1
 2601 0174 FB68     		ldr	r3, [r7, #12]
 2602 0176 2B4A     		ldr	r2, .L108+4
 2603 0178 9342     		cmp	r3, r2
 2604 017a 47D1     		bne	.L102
 2605              	.L101:
 800:C:/Users/leonardo/Desktop/Code/Github/DawnBGC/Libraries/FWLIB/src\gd32f4xx_timer.c ****             /* reset the CH1NEN bit */
 801:C:/Users/leonardo/Desktop/Code/Github/DawnBGC/Libraries/FWLIB/src\gd32f4xx_timer.c ****             TIMER_CHCTL2(timer_periph) &= (~(uint32_t)TIMER_CHCTL2_CH1NEN);
 2606              		.loc 1 801 40
 2607 017c FB68     		ldr	r3, [r7, #12]
 2608 017e 2033     		adds	r3, r3, #32
 2609 0180 1B68     		ldr	r3, [r3]
 2610 0182 FA68     		ldr	r2, [r7, #12]
 2611 0184 2032     		adds	r2, r2, #32
 2612 0186 23F04003 		bic	r3, r3, #64
 2613 018a 1360     		str	r3, [r2]
 802:C:/Users/leonardo/Desktop/Code/Github/DawnBGC/Libraries/FWLIB/src\gd32f4xx_timer.c ****             /* set the CH1NEN bit */
 803:C:/Users/leonardo/Desktop/Code/Github/DawnBGC/Libraries/FWLIB/src\gd32f4xx_timer.c ****             TIMER_CHCTL2(timer_periph) |= (uint32_t)((uint32_t)(timer_ocpara->outputnstate)<< 4U);
 2614              		.loc 1 803 40
 2615 018c FB68     		ldr	r3, [r7, #12]
 2616 018e 2033     		adds	r3, r3, #32
 2617 0190 1A68     		ldr	r2, [r3]
 2618              		.loc 1 803 77
 2619 0192 7B68     		ldr	r3, [r7, #4]
 2620 0194 9B88     		ldrh	r3, [r3, #4]
 2621              		.loc 1 803 43
 2622 0196 1B01     		lsls	r3, r3, #4
 2623              		.loc 1 803 40
 2624 0198 F968     		ldr	r1, [r7, #12]
 2625 019a 2031     		adds	r1, r1, #32
 2626 019c 1343     		orrs	r3, r3, r2
 2627 019e 0B60     		str	r3, [r1]
 804:C:/Users/leonardo/Desktop/Code/Github/DawnBGC/Libraries/FWLIB/src\gd32f4xx_timer.c ****             /* reset the CH1NP bit */
 805:C:/Users/leonardo/Desktop/Code/Github/DawnBGC/Libraries/FWLIB/src\gd32f4xx_timer.c ****             TIMER_CHCTL2(timer_periph) &= (~(uint32_t)TIMER_CHCTL2_CH1NP);
 2628              		.loc 1 805 40
 2629 01a0 FB68     		ldr	r3, [r7, #12]
 2630 01a2 2033     		adds	r3, r3, #32
 2631 01a4 1B68     		ldr	r3, [r3]
 2632 01a6 FA68     		ldr	r2, [r7, #12]
 2633 01a8 2032     		adds	r2, r2, #32
 2634 01aa 23F08003 		bic	r3, r3, #128
 2635 01ae 1360     		str	r3, [r2]
 806:C:/Users/leonardo/Desktop/Code/Github/DawnBGC/Libraries/FWLIB/src\gd32f4xx_timer.c ****             /* set the CH1NP bit */
 807:C:/Users/leonardo/Desktop/Code/Github/DawnBGC/Libraries/FWLIB/src\gd32f4xx_timer.c ****             TIMER_CHCTL2(timer_periph) |= (uint32_t)((uint32_t)(timer_ocpara->ocnpolarity)<< 4U);
 2636              		.loc 1 807 40
 2637 01b0 FB68     		ldr	r3, [r7, #12]
 2638 01b2 2033     		adds	r3, r3, #32
 2639 01b4 1A68     		ldr	r2, [r3]
 2640              		.loc 1 807 77
 2641 01b6 7B68     		ldr	r3, [r7, #4]
 2642 01b8 1B89     		ldrh	r3, [r3, #8]
 2643              		.loc 1 807 43
 2644 01ba 1B01     		lsls	r3, r3, #4
 2645              		.loc 1 807 40
 2646 01bc F968     		ldr	r1, [r7, #12]
 2647 01be 2031     		adds	r1, r1, #32
 2648 01c0 1343     		orrs	r3, r3, r2
 2649 01c2 0B60     		str	r3, [r1]
 808:C:/Users/leonardo/Desktop/Code/Github/DawnBGC/Libraries/FWLIB/src\gd32f4xx_timer.c ****             /* reset the ISO1 bit */
 809:C:/Users/leonardo/Desktop/Code/Github/DawnBGC/Libraries/FWLIB/src\gd32f4xx_timer.c ****             TIMER_CTL1(timer_periph) &= (~(uint32_t)TIMER_CTL1_ISO1);
 2650              		.loc 1 809 38
 2651 01c4 FB68     		ldr	r3, [r7, #12]
 2652 01c6 0433     		adds	r3, r3, #4
 2653 01c8 1B68     		ldr	r3, [r3]
 2654 01ca FA68     		ldr	r2, [r7, #12]
 2655 01cc 0432     		adds	r2, r2, #4
 2656 01ce 23F48063 		bic	r3, r3, #1024
 2657 01d2 1360     		str	r3, [r2]
 810:C:/Users/leonardo/Desktop/Code/Github/DawnBGC/Libraries/FWLIB/src\gd32f4xx_timer.c ****             /* set the ISO1 bit */
 811:C:/Users/leonardo/Desktop/Code/Github/DawnBGC/Libraries/FWLIB/src\gd32f4xx_timer.c ****             TIMER_CTL1(timer_periph) |= (uint32_t)((uint32_t)(timer_ocpara->ocidlestate)<< 2U);
 2658              		.loc 1 811 38
 2659 01d4 FB68     		ldr	r3, [r7, #12]
 2660 01d6 0433     		adds	r3, r3, #4
 2661 01d8 1A68     		ldr	r2, [r3]
 2662              		.loc 1 811 75
 2663 01da 7B68     		ldr	r3, [r7, #4]
 2664 01dc 5B89     		ldrh	r3, [r3, #10]
 2665              		.loc 1 811 41
 2666 01de 9B00     		lsls	r3, r3, #2
 2667              		.loc 1 811 38
 2668 01e0 F968     		ldr	r1, [r7, #12]
 2669 01e2 0431     		adds	r1, r1, #4
 2670 01e4 1343     		orrs	r3, r3, r2
 2671 01e6 0B60     		str	r3, [r1]
 812:C:/Users/leonardo/Desktop/Code/Github/DawnBGC/Libraries/FWLIB/src\gd32f4xx_timer.c ****             /* reset the ISO1N bit */
 813:C:/Users/leonardo/Desktop/Code/Github/DawnBGC/Libraries/FWLIB/src\gd32f4xx_timer.c ****             TIMER_CTL1(timer_periph) &= (~(uint32_t)TIMER_CTL1_ISO1N);
 2672              		.loc 1 813 38
 2673 01e8 FB68     		ldr	r3, [r7, #12]
 2674 01ea 0433     		adds	r3, r3, #4
 2675 01ec 1B68     		ldr	r3, [r3]
 2676 01ee FA68     		ldr	r2, [r7, #12]
 2677 01f0 0432     		adds	r2, r2, #4
 2678 01f2 23F40063 		bic	r3, r3, #2048
 2679 01f6 1360     		str	r3, [r2]
 814:C:/Users/leonardo/Desktop/Code/Github/DawnBGC/Libraries/FWLIB/src\gd32f4xx_timer.c ****             /* set the ISO1N bit */
 815:C:/Users/leonardo/Desktop/Code/Github/DawnBGC/Libraries/FWLIB/src\gd32f4xx_timer.c ****             TIMER_CTL1(timer_periph) |= (uint32_t)((uint32_t)(timer_ocpara->ocnidlestate)<< 2U);
 2680              		.loc 1 815 38
 2681 01f8 FB68     		ldr	r3, [r7, #12]
 2682 01fa 0433     		adds	r3, r3, #4
 2683 01fc 1A68     		ldr	r2, [r3]
 2684              		.loc 1 815 75
 2685 01fe 7B68     		ldr	r3, [r7, #4]
 2686 0200 9B89     		ldrh	r3, [r3, #12]
 2687              		.loc 1 815 41
 2688 0202 9B00     		lsls	r3, r3, #2
 2689              		.loc 1 815 38
 2690 0204 F968     		ldr	r1, [r7, #12]
 2691 0206 0431     		adds	r1, r1, #4
 2692 0208 1343     		orrs	r3, r3, r2
 2693 020a 0B60     		str	r3, [r1]
 2694              	.L102:
 816:C:/Users/leonardo/Desktop/Code/Github/DawnBGC/Libraries/FWLIB/src\gd32f4xx_timer.c ****         }
 817:C:/Users/leonardo/Desktop/Code/Github/DawnBGC/Libraries/FWLIB/src\gd32f4xx_timer.c ****         TIMER_CHCTL0(timer_periph) &= ~(uint32_t)TIMER_CHCTL0_CH1MS;
 2695              		.loc 1 817 36
 2696 020c FB68     		ldr	r3, [r7, #12]
 2697 020e 1833     		adds	r3, r3, #24
 2698 0210 1B68     		ldr	r3, [r3]
 2699 0212 FA68     		ldr	r2, [r7, #12]
 2700 0214 1832     		adds	r2, r2, #24
 2701 0216 23F44073 		bic	r3, r3, #768
 2702 021a 1360     		str	r3, [r2]
 818:C:/Users/leonardo/Desktop/Code/Github/DawnBGC/Libraries/FWLIB/src\gd32f4xx_timer.c ****         break;
 2703              		.loc 1 818 9
 2704 021c C9E0     		b	.L100
 2705              	.L109:
 2706 021e 00BF     		.align	2
 2707              	.L108:
 2708 0220 00000140 		.word	1073807360
 2709 0224 00040140 		.word	1073808384
 2710              	.L95:
 819:C:/Users/leonardo/Desktop/Code/Github/DawnBGC/Libraries/FWLIB/src\gd32f4xx_timer.c ****     /* configure TIMER_CH_2 */
 820:C:/Users/leonardo/Desktop/Code/Github/DawnBGC/Libraries/FWLIB/src\gd32f4xx_timer.c ****     case TIMER_CH_2:
 821:C:/Users/leonardo/Desktop/Code/Github/DawnBGC/Libraries/FWLIB/src\gd32f4xx_timer.c ****         /* reset the CH2EN bit */
 822:C:/Users/leonardo/Desktop/Code/Github/DawnBGC/Libraries/FWLIB/src\gd32f4xx_timer.c ****         TIMER_CHCTL2(timer_periph) &= (~(uint32_t)TIMER_CHCTL2_CH2EN);
 2711              		.loc 1 822 36
 2712 0228 FB68     		ldr	r3, [r7, #12]
 2713 022a 2033     		adds	r3, r3, #32
 2714 022c 1B68     		ldr	r3, [r3]
 2715 022e FA68     		ldr	r2, [r7, #12]
 2716 0230 2032     		adds	r2, r2, #32
 2717 0232 23F48073 		bic	r3, r3, #256
 2718 0236 1360     		str	r3, [r2]
 823:C:/Users/leonardo/Desktop/Code/Github/DawnBGC/Libraries/FWLIB/src\gd32f4xx_timer.c ****         /* set the CH2EN bit */
 824:C:/Users/leonardo/Desktop/Code/Github/DawnBGC/Libraries/FWLIB/src\gd32f4xx_timer.c ****         TIMER_CHCTL2(timer_periph) |= (uint32_t)(timer_ocpara->outputstate<< 8U);
 2719              		.loc 1 824 36
 2720 0238 FB68     		ldr	r3, [r7, #12]
 2721 023a 2033     		adds	r3, r3, #32
 2722 023c 1A68     		ldr	r2, [r3]
 2723              		.loc 1 824 62
 2724 023e 7B68     		ldr	r3, [r7, #4]
 2725 0240 1B68     		ldr	r3, [r3]
 2726              		.loc 1 824 75
 2727 0242 1B02     		lsls	r3, r3, #8
 2728              		.loc 1 824 36
 2729 0244 F968     		ldr	r1, [r7, #12]
 2730 0246 2031     		adds	r1, r1, #32
 2731 0248 1343     		orrs	r3, r3, r2
 2732 024a 0B60     		str	r3, [r1]
 825:C:/Users/leonardo/Desktop/Code/Github/DawnBGC/Libraries/FWLIB/src\gd32f4xx_timer.c ****         /* reset the CH2P bit */
 826:C:/Users/leonardo/Desktop/Code/Github/DawnBGC/Libraries/FWLIB/src\gd32f4xx_timer.c ****         TIMER_CHCTL2(timer_periph) &= (~(uint32_t)TIMER_CHCTL2_CH2P);
 2733              		.loc 1 826 36
 2734 024c FB68     		ldr	r3, [r7, #12]
 2735 024e 2033     		adds	r3, r3, #32
 2736 0250 1B68     		ldr	r3, [r3]
 2737 0252 FA68     		ldr	r2, [r7, #12]
 2738 0254 2032     		adds	r2, r2, #32
 2739 0256 23F40073 		bic	r3, r3, #512
 2740 025a 1360     		str	r3, [r2]
 827:C:/Users/leonardo/Desktop/Code/Github/DawnBGC/Libraries/FWLIB/src\gd32f4xx_timer.c ****         /* set the CH2P bit */
 828:C:/Users/leonardo/Desktop/Code/Github/DawnBGC/Libraries/FWLIB/src\gd32f4xx_timer.c ****         TIMER_CHCTL2(timer_periph) |= (uint32_t)((uint32_t)(timer_ocpara->ocpolarity)<< 8U);
 2741              		.loc 1 828 36
 2742 025c FB68     		ldr	r3, [r7, #12]
 2743 025e 2033     		adds	r3, r3, #32
 2744 0260 1A68     		ldr	r2, [r3]
 2745              		.loc 1 828 73
 2746 0262 7B68     		ldr	r3, [r7, #4]
 2747 0264 DB88     		ldrh	r3, [r3, #6]
 2748              		.loc 1 828 39
 2749 0266 1B02     		lsls	r3, r3, #8
 2750              		.loc 1 828 36
 2751 0268 F968     		ldr	r1, [r7, #12]
 2752 026a 2031     		adds	r1, r1, #32
 2753 026c 1343     		orrs	r3, r3, r2
 2754 026e 0B60     		str	r3, [r1]
 829:C:/Users/leonardo/Desktop/Code/Github/DawnBGC/Libraries/FWLIB/src\gd32f4xx_timer.c **** 
 830:C:/Users/leonardo/Desktop/Code/Github/DawnBGC/Libraries/FWLIB/src\gd32f4xx_timer.c ****         if((TIMER0 == timer_periph) || (TIMER7 == timer_periph)){
 2755              		.loc 1 830 11
 2756 0270 FB68     		ldr	r3, [r7, #12]
 2757 0272 524A     		ldr	r2, .L110
 2758 0274 9342     		cmp	r3, r2
 2759 0276 03D0     		beq	.L103
 2760              		.loc 1 830 37 discriminator 1
 2761 0278 FB68     		ldr	r3, [r7, #12]
 2762 027a 514A     		ldr	r2, .L110+4
 2763 027c 9342     		cmp	r3, r2
 2764 027e 47D1     		bne	.L104
 2765              	.L103:
 831:C:/Users/leonardo/Desktop/Code/Github/DawnBGC/Libraries/FWLIB/src\gd32f4xx_timer.c ****             /* reset the CH2NEN bit */
 832:C:/Users/leonardo/Desktop/Code/Github/DawnBGC/Libraries/FWLIB/src\gd32f4xx_timer.c ****             TIMER_CHCTL2(timer_periph) &= (~(uint32_t)TIMER_CHCTL2_CH2NEN);
 2766              		.loc 1 832 40
 2767 0280 FB68     		ldr	r3, [r7, #12]
 2768 0282 2033     		adds	r3, r3, #32
 2769 0284 1B68     		ldr	r3, [r3]
 2770 0286 FA68     		ldr	r2, [r7, #12]
 2771 0288 2032     		adds	r2, r2, #32
 2772 028a 23F48063 		bic	r3, r3, #1024
 2773 028e 1360     		str	r3, [r2]
 833:C:/Users/leonardo/Desktop/Code/Github/DawnBGC/Libraries/FWLIB/src\gd32f4xx_timer.c ****             /* set the CH2NEN bit */
 834:C:/Users/leonardo/Desktop/Code/Github/DawnBGC/Libraries/FWLIB/src\gd32f4xx_timer.c ****             TIMER_CHCTL2(timer_periph) |= (uint32_t)((uint32_t)(timer_ocpara->outputnstate)<< 8U);
 2774              		.loc 1 834 40
 2775 0290 FB68     		ldr	r3, [r7, #12]
 2776 0292 2033     		adds	r3, r3, #32
 2777 0294 1A68     		ldr	r2, [r3]
 2778              		.loc 1 834 77
 2779 0296 7B68     		ldr	r3, [r7, #4]
 2780 0298 9B88     		ldrh	r3, [r3, #4]
 2781              		.loc 1 834 43
 2782 029a 1B02     		lsls	r3, r3, #8
 2783              		.loc 1 834 40
 2784 029c F968     		ldr	r1, [r7, #12]
 2785 029e 2031     		adds	r1, r1, #32
 2786 02a0 1343     		orrs	r3, r3, r2
 2787 02a2 0B60     		str	r3, [r1]
 835:C:/Users/leonardo/Desktop/Code/Github/DawnBGC/Libraries/FWLIB/src\gd32f4xx_timer.c ****             /* reset the CH2NP bit */
 836:C:/Users/leonardo/Desktop/Code/Github/DawnBGC/Libraries/FWLIB/src\gd32f4xx_timer.c ****             TIMER_CHCTL2(timer_periph) &= (~(uint32_t)TIMER_CHCTL2_CH2NP);
 2788              		.loc 1 836 40
 2789 02a4 FB68     		ldr	r3, [r7, #12]
 2790 02a6 2033     		adds	r3, r3, #32
 2791 02a8 1B68     		ldr	r3, [r3]
 2792 02aa FA68     		ldr	r2, [r7, #12]
 2793 02ac 2032     		adds	r2, r2, #32
 2794 02ae 23F40063 		bic	r3, r3, #2048
 2795 02b2 1360     		str	r3, [r2]
 837:C:/Users/leonardo/Desktop/Code/Github/DawnBGC/Libraries/FWLIB/src\gd32f4xx_timer.c ****             /* set the CH2NP bit */
 838:C:/Users/leonardo/Desktop/Code/Github/DawnBGC/Libraries/FWLIB/src\gd32f4xx_timer.c ****             TIMER_CHCTL2(timer_periph) |= (uint32_t)((uint32_t)(timer_ocpara->ocnpolarity)<< 8U);
 2796              		.loc 1 838 40
 2797 02b4 FB68     		ldr	r3, [r7, #12]
 2798 02b6 2033     		adds	r3, r3, #32
 2799 02b8 1A68     		ldr	r2, [r3]
 2800              		.loc 1 838 77
 2801 02ba 7B68     		ldr	r3, [r7, #4]
 2802 02bc 1B89     		ldrh	r3, [r3, #8]
 2803              		.loc 1 838 43
 2804 02be 1B02     		lsls	r3, r3, #8
 2805              		.loc 1 838 40
 2806 02c0 F968     		ldr	r1, [r7, #12]
 2807 02c2 2031     		adds	r1, r1, #32
 2808 02c4 1343     		orrs	r3, r3, r2
 2809 02c6 0B60     		str	r3, [r1]
 839:C:/Users/leonardo/Desktop/Code/Github/DawnBGC/Libraries/FWLIB/src\gd32f4xx_timer.c ****             /* reset the ISO2 bit */
 840:C:/Users/leonardo/Desktop/Code/Github/DawnBGC/Libraries/FWLIB/src\gd32f4xx_timer.c ****             TIMER_CTL1(timer_periph) &= (~(uint32_t)TIMER_CTL1_ISO2);
 2810              		.loc 1 840 38
 2811 02c8 FB68     		ldr	r3, [r7, #12]
 2812 02ca 0433     		adds	r3, r3, #4
 2813 02cc 1B68     		ldr	r3, [r3]
 2814 02ce FA68     		ldr	r2, [r7, #12]
 2815 02d0 0432     		adds	r2, r2, #4
 2816 02d2 23F48053 		bic	r3, r3, #4096
 2817 02d6 1360     		str	r3, [r2]
 841:C:/Users/leonardo/Desktop/Code/Github/DawnBGC/Libraries/FWLIB/src\gd32f4xx_timer.c ****             /* set the ISO2 bit */
 842:C:/Users/leonardo/Desktop/Code/Github/DawnBGC/Libraries/FWLIB/src\gd32f4xx_timer.c ****             TIMER_CTL1(timer_periph) |= (uint32_t)((uint32_t)(timer_ocpara->ocidlestate)<< 4U);
 2818              		.loc 1 842 38
 2819 02d8 FB68     		ldr	r3, [r7, #12]
 2820 02da 0433     		adds	r3, r3, #4
 2821 02dc 1A68     		ldr	r2, [r3]
 2822              		.loc 1 842 75
 2823 02de 7B68     		ldr	r3, [r7, #4]
 2824 02e0 5B89     		ldrh	r3, [r3, #10]
 2825              		.loc 1 842 41
 2826 02e2 1B01     		lsls	r3, r3, #4
 2827              		.loc 1 842 38
 2828 02e4 F968     		ldr	r1, [r7, #12]
 2829 02e6 0431     		adds	r1, r1, #4
 2830 02e8 1343     		orrs	r3, r3, r2
 2831 02ea 0B60     		str	r3, [r1]
 843:C:/Users/leonardo/Desktop/Code/Github/DawnBGC/Libraries/FWLIB/src\gd32f4xx_timer.c ****             /* reset the ISO2N bit */
 844:C:/Users/leonardo/Desktop/Code/Github/DawnBGC/Libraries/FWLIB/src\gd32f4xx_timer.c ****             TIMER_CTL1(timer_periph) &= (~(uint32_t)TIMER_CTL1_ISO2N);
 2832              		.loc 1 844 38
 2833 02ec FB68     		ldr	r3, [r7, #12]
 2834 02ee 0433     		adds	r3, r3, #4
 2835 02f0 1B68     		ldr	r3, [r3]
 2836 02f2 FA68     		ldr	r2, [r7, #12]
 2837 02f4 0432     		adds	r2, r2, #4
 2838 02f6 23F40053 		bic	r3, r3, #8192
 2839 02fa 1360     		str	r3, [r2]
 845:C:/Users/leonardo/Desktop/Code/Github/DawnBGC/Libraries/FWLIB/src\gd32f4xx_timer.c ****             /* set the ISO2N bit */
 846:C:/Users/leonardo/Desktop/Code/Github/DawnBGC/Libraries/FWLIB/src\gd32f4xx_timer.c ****             TIMER_CTL1(timer_periph) |= (uint32_t)((uint32_t)(timer_ocpara->ocnidlestate)<< 4U);
 2840              		.loc 1 846 38
 2841 02fc FB68     		ldr	r3, [r7, #12]
 2842 02fe 0433     		adds	r3, r3, #4
 2843 0300 1A68     		ldr	r2, [r3]
 2844              		.loc 1 846 75
 2845 0302 7B68     		ldr	r3, [r7, #4]
 2846 0304 9B89     		ldrh	r3, [r3, #12]
 2847              		.loc 1 846 41
 2848 0306 1B01     		lsls	r3, r3, #4
 2849              		.loc 1 846 38
 2850 0308 F968     		ldr	r1, [r7, #12]
 2851 030a 0431     		adds	r1, r1, #4
 2852 030c 1343     		orrs	r3, r3, r2
 2853 030e 0B60     		str	r3, [r1]
 2854              	.L104:
 847:C:/Users/leonardo/Desktop/Code/Github/DawnBGC/Libraries/FWLIB/src\gd32f4xx_timer.c ****         }
 848:C:/Users/leonardo/Desktop/Code/Github/DawnBGC/Libraries/FWLIB/src\gd32f4xx_timer.c ****         TIMER_CHCTL1(timer_periph) &= ~(uint32_t)TIMER_CHCTL1_CH2MS;
 2855              		.loc 1 848 36
 2856 0310 FB68     		ldr	r3, [r7, #12]
 2857 0312 1C33     		adds	r3, r3, #28
 2858 0314 1B68     		ldr	r3, [r3]
 2859 0316 FA68     		ldr	r2, [r7, #12]
 2860 0318 1C32     		adds	r2, r2, #28
 2861 031a 23F00303 		bic	r3, r3, #3
 2862 031e 1360     		str	r3, [r2]
 849:C:/Users/leonardo/Desktop/Code/Github/DawnBGC/Libraries/FWLIB/src\gd32f4xx_timer.c ****         break;
 2863              		.loc 1 849 9
 2864 0320 47E0     		b	.L100
 2865              	.L93:
 850:C:/Users/leonardo/Desktop/Code/Github/DawnBGC/Libraries/FWLIB/src\gd32f4xx_timer.c ****     /* configure TIMER_CH_3 */
 851:C:/Users/leonardo/Desktop/Code/Github/DawnBGC/Libraries/FWLIB/src\gd32f4xx_timer.c ****     case TIMER_CH_3:
 852:C:/Users/leonardo/Desktop/Code/Github/DawnBGC/Libraries/FWLIB/src\gd32f4xx_timer.c ****         /* reset the CH3EN bit */
 853:C:/Users/leonardo/Desktop/Code/Github/DawnBGC/Libraries/FWLIB/src\gd32f4xx_timer.c ****         TIMER_CHCTL2(timer_periph) &=(~(uint32_t)TIMER_CHCTL2_CH3EN);
 2866              		.loc 1 853 36
 2867 0322 FB68     		ldr	r3, [r7, #12]
 2868 0324 2033     		adds	r3, r3, #32
 2869 0326 1B68     		ldr	r3, [r3]
 2870 0328 FA68     		ldr	r2, [r7, #12]
 2871 032a 2032     		adds	r2, r2, #32
 2872 032c 23F48053 		bic	r3, r3, #4096
 2873 0330 1360     		str	r3, [r2]
 854:C:/Users/leonardo/Desktop/Code/Github/DawnBGC/Libraries/FWLIB/src\gd32f4xx_timer.c ****         /* set the CH3EN bit */
 855:C:/Users/leonardo/Desktop/Code/Github/DawnBGC/Libraries/FWLIB/src\gd32f4xx_timer.c ****         TIMER_CHCTL2(timer_periph) |= (uint32_t)(timer_ocpara->outputstate<< 12U);
 2874              		.loc 1 855 36
 2875 0332 FB68     		ldr	r3, [r7, #12]
 2876 0334 2033     		adds	r3, r3, #32
 2877 0336 1A68     		ldr	r2, [r3]
 2878              		.loc 1 855 62
 2879 0338 7B68     		ldr	r3, [r7, #4]
 2880 033a 1B68     		ldr	r3, [r3]
 2881              		.loc 1 855 75
 2882 033c 1B03     		lsls	r3, r3, #12
 2883              		.loc 1 855 36
 2884 033e F968     		ldr	r1, [r7, #12]
 2885 0340 2031     		adds	r1, r1, #32
 2886 0342 1343     		orrs	r3, r3, r2
 2887 0344 0B60     		str	r3, [r1]
 856:C:/Users/leonardo/Desktop/Code/Github/DawnBGC/Libraries/FWLIB/src\gd32f4xx_timer.c ****         /* reset the CH3P bit */
 857:C:/Users/leonardo/Desktop/Code/Github/DawnBGC/Libraries/FWLIB/src\gd32f4xx_timer.c ****         TIMER_CHCTL2(timer_periph) &= (~(uint32_t)TIMER_CHCTL2_CH3P);
 2888              		.loc 1 857 36
 2889 0346 FB68     		ldr	r3, [r7, #12]
 2890 0348 2033     		adds	r3, r3, #32
 2891 034a 1B68     		ldr	r3, [r3]
 2892 034c FA68     		ldr	r2, [r7, #12]
 2893 034e 2032     		adds	r2, r2, #32
 2894 0350 23F40053 		bic	r3, r3, #8192
 2895 0354 1360     		str	r3, [r2]
 858:C:/Users/leonardo/Desktop/Code/Github/DawnBGC/Libraries/FWLIB/src\gd32f4xx_timer.c ****         /* set the CH3P bit */
 859:C:/Users/leonardo/Desktop/Code/Github/DawnBGC/Libraries/FWLIB/src\gd32f4xx_timer.c ****         TIMER_CHCTL2(timer_periph) |= (uint32_t)((uint32_t)(timer_ocpara->ocpolarity)<< 12U);
 2896              		.loc 1 859 36
 2897 0356 FB68     		ldr	r3, [r7, #12]
 2898 0358 2033     		adds	r3, r3, #32
 2899 035a 1A68     		ldr	r2, [r3]
 2900              		.loc 1 859 73
 2901 035c 7B68     		ldr	r3, [r7, #4]
 2902 035e DB88     		ldrh	r3, [r3, #6]
 2903              		.loc 1 859 39
 2904 0360 1B03     		lsls	r3, r3, #12
 2905              		.loc 1 859 36
 2906 0362 F968     		ldr	r1, [r7, #12]
 2907 0364 2031     		adds	r1, r1, #32
 2908 0366 1343     		orrs	r3, r3, r2
 2909 0368 0B60     		str	r3, [r1]
 860:C:/Users/leonardo/Desktop/Code/Github/DawnBGC/Libraries/FWLIB/src\gd32f4xx_timer.c **** 
 861:C:/Users/leonardo/Desktop/Code/Github/DawnBGC/Libraries/FWLIB/src\gd32f4xx_timer.c ****         if((TIMER0 == timer_periph) || (TIMER7 == timer_periph)){
 2910              		.loc 1 861 11
 2911 036a FB68     		ldr	r3, [r7, #12]
 2912 036c 134A     		ldr	r2, .L110
 2913 036e 9342     		cmp	r3, r2
 2914 0370 03D0     		beq	.L105
 2915              		.loc 1 861 37 discriminator 1
 2916 0372 FB68     		ldr	r3, [r7, #12]
 2917 0374 124A     		ldr	r2, .L110+4
 2918 0376 9342     		cmp	r3, r2
 2919 0378 11D1     		bne	.L106
 2920              	.L105:
 862:C:/Users/leonardo/Desktop/Code/Github/DawnBGC/Libraries/FWLIB/src\gd32f4xx_timer.c ****             /* reset the ISO3 bit */
 863:C:/Users/leonardo/Desktop/Code/Github/DawnBGC/Libraries/FWLIB/src\gd32f4xx_timer.c ****             TIMER_CTL1(timer_periph) &= (~(uint32_t)TIMER_CTL1_ISO3);
 2921              		.loc 1 863 38
 2922 037a FB68     		ldr	r3, [r7, #12]
 2923 037c 0433     		adds	r3, r3, #4
 2924 037e 1B68     		ldr	r3, [r3]
 2925 0380 FA68     		ldr	r2, [r7, #12]
 2926 0382 0432     		adds	r2, r2, #4
 2927 0384 23F48043 		bic	r3, r3, #16384
 2928 0388 1360     		str	r3, [r2]
 864:C:/Users/leonardo/Desktop/Code/Github/DawnBGC/Libraries/FWLIB/src\gd32f4xx_timer.c ****             /* set the ISO3 bit */
 865:C:/Users/leonardo/Desktop/Code/Github/DawnBGC/Libraries/FWLIB/src\gd32f4xx_timer.c ****             TIMER_CTL1(timer_periph) |= (uint32_t)((uint32_t)(timer_ocpara->ocidlestate)<< 6U);
 2929              		.loc 1 865 38
 2930 038a FB68     		ldr	r3, [r7, #12]
 2931 038c 0433     		adds	r3, r3, #4
 2932 038e 1A68     		ldr	r2, [r3]
 2933              		.loc 1 865 75
 2934 0390 7B68     		ldr	r3, [r7, #4]
 2935 0392 5B89     		ldrh	r3, [r3, #10]
 2936              		.loc 1 865 41
 2937 0394 9B01     		lsls	r3, r3, #6
 2938              		.loc 1 865 38
 2939 0396 F968     		ldr	r1, [r7, #12]
 2940 0398 0431     		adds	r1, r1, #4
 2941 039a 1343     		orrs	r3, r3, r2
 2942 039c 0B60     		str	r3, [r1]
 2943              	.L106:
 866:C:/Users/leonardo/Desktop/Code/Github/DawnBGC/Libraries/FWLIB/src\gd32f4xx_timer.c ****         }
 867:C:/Users/leonardo/Desktop/Code/Github/DawnBGC/Libraries/FWLIB/src\gd32f4xx_timer.c ****         TIMER_CHCTL1(timer_periph) &= ~(uint32_t)TIMER_CHCTL1_CH3MS;
 2944              		.loc 1 867 36
 2945 039e FB68     		ldr	r3, [r7, #12]
 2946 03a0 1C33     		adds	r3, r3, #28
 2947 03a2 1B68     		ldr	r3, [r3]
 2948 03a4 FA68     		ldr	r2, [r7, #12]
 2949 03a6 1C32     		adds	r2, r2, #28
 2950 03a8 23F44073 		bic	r3, r3, #768
 2951 03ac 1360     		str	r3, [r2]
 868:C:/Users/leonardo/Desktop/Code/Github/DawnBGC/Libraries/FWLIB/src\gd32f4xx_timer.c ****         break;
 2952              		.loc 1 868 9
 2953 03ae 00E0     		b	.L100
 2954              	.L107:
 869:C:/Users/leonardo/Desktop/Code/Github/DawnBGC/Libraries/FWLIB/src\gd32f4xx_timer.c ****     default:
 870:C:/Users/leonardo/Desktop/Code/Github/DawnBGC/Libraries/FWLIB/src\gd32f4xx_timer.c ****         break;
 2955              		.loc 1 870 9
 2956 03b0 00BF     		nop
 2957              	.L100:
 871:C:/Users/leonardo/Desktop/Code/Github/DawnBGC/Libraries/FWLIB/src\gd32f4xx_timer.c ****     }
 872:C:/Users/leonardo/Desktop/Code/Github/DawnBGC/Libraries/FWLIB/src\gd32f4xx_timer.c **** }
 2958              		.loc 1 872 1
 2959 03b2 00BF     		nop
 2960 03b4 1437     		adds	r7, r7, #20
 2961              		.cfi_def_cfa_offset 4
 2962 03b6 BD46     		mov	sp, r7
 2963              		.cfi_def_cfa_register 13
 2964              		@ sp needed
 2965 03b8 80BC     		pop	{r7}
 2966              		.cfi_restore 7
 2967              		.cfi_def_cfa_offset 0
 2968 03ba 7047     		bx	lr
 2969              	.L111:
 2970              		.align	2
 2971              	.L110:
 2972 03bc 00000140 		.word	1073807360
 2973 03c0 00040140 		.word	1073808384
 2974              		.cfi_endproc
 2975              	.LFE161:
 2977              		.section	.text.timer_channel_output_mode_config,"ax",%progbits
 2978              		.align	1
 2979              		.global	timer_channel_output_mode_config
 2980              		.syntax unified
 2981              		.thumb
 2982              		.thumb_func
 2983              		.fpu softvfp
 2985              	timer_channel_output_mode_config:
 2986              	.LFB162:
 873:C:/Users/leonardo/Desktop/Code/Github/DawnBGC/Libraries/FWLIB/src\gd32f4xx_timer.c **** 
 874:C:/Users/leonardo/Desktop/Code/Github/DawnBGC/Libraries/FWLIB/src\gd32f4xx_timer.c **** /*!
 875:C:/Users/leonardo/Desktop/Code/Github/DawnBGC/Libraries/FWLIB/src\gd32f4xx_timer.c ****     \brief      configure TIMER channel output compare mode
 876:C:/Users/leonardo/Desktop/Code/Github/DawnBGC/Libraries/FWLIB/src\gd32f4xx_timer.c ****     \param[in]  timer_periph: please refer to the following parameters
 877:C:/Users/leonardo/Desktop/Code/Github/DawnBGC/Libraries/FWLIB/src\gd32f4xx_timer.c ****     \param[in]  timer_channel: 
 878:C:/Users/leonardo/Desktop/Code/Github/DawnBGC/Libraries/FWLIB/src\gd32f4xx_timer.c ****       \arg        TIMER_CH_0: TIMER channel0(TIMERx(x=0..4,7..13))
 879:C:/Users/leonardo/Desktop/Code/Github/DawnBGC/Libraries/FWLIB/src\gd32f4xx_timer.c ****       \arg        TIMER_CH_1: TIMER channel1(TIMERx(x=0..4,7,8,11))
 880:C:/Users/leonardo/Desktop/Code/Github/DawnBGC/Libraries/FWLIB/src\gd32f4xx_timer.c ****       \arg        TIMER_CH_2: TIMER channel2(TIMERx(x=0..4,7))
 881:C:/Users/leonardo/Desktop/Code/Github/DawnBGC/Libraries/FWLIB/src\gd32f4xx_timer.c ****       \arg        TIMER_CH_3: TIMER channel3(TIMERx(x=0..4,7))
 882:C:/Users/leonardo/Desktop/Code/Github/DawnBGC/Libraries/FWLIB/src\gd32f4xx_timer.c ****     \param[in]  timer_ocmode: channel output compare mode
 883:C:/Users/leonardo/Desktop/Code/Github/DawnBGC/Libraries/FWLIB/src\gd32f4xx_timer.c ****       \arg        TIMER_OC_MODE_TIMING: timing mode
 884:C:/Users/leonardo/Desktop/Code/Github/DawnBGC/Libraries/FWLIB/src\gd32f4xx_timer.c ****       \arg        TIMER_OC_MODE_ACTIVE: active mode
 885:C:/Users/leonardo/Desktop/Code/Github/DawnBGC/Libraries/FWLIB/src\gd32f4xx_timer.c ****       \arg        TIMER_OC_MODE_INACTIVE: inactive mode
 886:C:/Users/leonardo/Desktop/Code/Github/DawnBGC/Libraries/FWLIB/src\gd32f4xx_timer.c ****       \arg        TIMER_OC_MODE_TOGGLE: toggle mode
 887:C:/Users/leonardo/Desktop/Code/Github/DawnBGC/Libraries/FWLIB/src\gd32f4xx_timer.c ****       \arg        TIMER_OC_MODE_LOW: force low mode
 888:C:/Users/leonardo/Desktop/Code/Github/DawnBGC/Libraries/FWLIB/src\gd32f4xx_timer.c ****       \arg        TIMER_OC_MODE_HIGH: force high mode
 889:C:/Users/leonardo/Desktop/Code/Github/DawnBGC/Libraries/FWLIB/src\gd32f4xx_timer.c ****       \arg        TIMER_OC_MODE_PWM0: PWM0 mode
 890:C:/Users/leonardo/Desktop/Code/Github/DawnBGC/Libraries/FWLIB/src\gd32f4xx_timer.c ****       \arg        TIMER_OC_MODE_PWM1: PWM1 mode
 891:C:/Users/leonardo/Desktop/Code/Github/DawnBGC/Libraries/FWLIB/src\gd32f4xx_timer.c ****     \param[out] none
 892:C:/Users/leonardo/Desktop/Code/Github/DawnBGC/Libraries/FWLIB/src\gd32f4xx_timer.c ****     \retval     none
 893:C:/Users/leonardo/Desktop/Code/Github/DawnBGC/Libraries/FWLIB/src\gd32f4xx_timer.c **** */
 894:C:/Users/leonardo/Desktop/Code/Github/DawnBGC/Libraries/FWLIB/src\gd32f4xx_timer.c **** void timer_channel_output_mode_config(uint32_t timer_periph,uint16_t timer_channel,uint16_t timer_o
 895:C:/Users/leonardo/Desktop/Code/Github/DawnBGC/Libraries/FWLIB/src\gd32f4xx_timer.c **** {
 2987              		.loc 1 895 1
 2988              		.cfi_startproc
 2989              		@ args = 0, pretend = 0, frame = 8
 2990              		@ frame_needed = 1, uses_anonymous_args = 0
 2991              		@ link register save eliminated.
 2992 0000 80B4     		push	{r7}
 2993              		.cfi_def_cfa_offset 4
 2994              		.cfi_offset 7, -4
 2995 0002 83B0     		sub	sp, sp, #12
 2996              		.cfi_def_cfa_offset 16
 2997 0004 00AF     		add	r7, sp, #0
 2998              		.cfi_def_cfa_register 7
 2999 0006 7860     		str	r0, [r7, #4]
 3000 0008 0B46     		mov	r3, r1
 3001 000a 7B80     		strh	r3, [r7, #2]	@ movhi
 3002 000c 1346     		mov	r3, r2	@ movhi
 3003 000e 3B80     		strh	r3, [r7]	@ movhi
 896:C:/Users/leonardo/Desktop/Code/Github/DawnBGC/Libraries/FWLIB/src\gd32f4xx_timer.c ****     switch(timer_channel){
 3004              		.loc 1 896 5
 3005 0010 7B88     		ldrh	r3, [r7, #2]
 3006 0012 032B     		cmp	r3, #3
 3007 0014 50D8     		bhi	.L120
 3008 0016 01A2     		adr	r2, .L115
 3009 0018 52F823F0 		ldr	pc, [r2, r3, lsl #2]
 3010              		.p2align 2
 3011              	.L115:
 3012 001c 2D000000 		.word	.L118+1
 3013 0020 4F000000 		.word	.L117+1
 3014 0024 73000000 		.word	.L116+1
 3015 0028 95000000 		.word	.L114+1
 3016              		.p2align 1
 3017              	.L118:
 897:C:/Users/leonardo/Desktop/Code/Github/DawnBGC/Libraries/FWLIB/src\gd32f4xx_timer.c ****     /* configure TIMER_CH_0 */
 898:C:/Users/leonardo/Desktop/Code/Github/DawnBGC/Libraries/FWLIB/src\gd32f4xx_timer.c ****     case TIMER_CH_0:
 899:C:/Users/leonardo/Desktop/Code/Github/DawnBGC/Libraries/FWLIB/src\gd32f4xx_timer.c ****         TIMER_CHCTL0(timer_periph) &= (~(uint32_t)TIMER_CHCTL0_CH0COMCTL);
 3018              		.loc 1 899 36
 3019 002c 7B68     		ldr	r3, [r7, #4]
 3020 002e 1833     		adds	r3, r3, #24
 3021 0030 1B68     		ldr	r3, [r3]
 3022 0032 7A68     		ldr	r2, [r7, #4]
 3023 0034 1832     		adds	r2, r2, #24
 3024 0036 23F07003 		bic	r3, r3, #112
 3025 003a 1360     		str	r3, [r2]
 900:C:/Users/leonardo/Desktop/Code/Github/DawnBGC/Libraries/FWLIB/src\gd32f4xx_timer.c ****         TIMER_CHCTL0(timer_periph) |= (uint32_t)timer_ocmode;
 3026              		.loc 1 900 36
 3027 003c 7B68     		ldr	r3, [r7, #4]
 3028 003e 1833     		adds	r3, r3, #24
 3029 0040 1A68     		ldr	r2, [r3]
 3030              		.loc 1 900 39
 3031 0042 3B88     		ldrh	r3, [r7]
 3032              		.loc 1 900 36
 3033 0044 7968     		ldr	r1, [r7, #4]
 3034 0046 1831     		adds	r1, r1, #24
 3035 0048 1343     		orrs	r3, r3, r2
 3036 004a 0B60     		str	r3, [r1]
 901:C:/Users/leonardo/Desktop/Code/Github/DawnBGC/Libraries/FWLIB/src\gd32f4xx_timer.c ****         break;
 3037              		.loc 1 901 9
 3038 004c 35E0     		b	.L119
 3039              	.L117:
 902:C:/Users/leonardo/Desktop/Code/Github/DawnBGC/Libraries/FWLIB/src\gd32f4xx_timer.c ****     /* configure TIMER_CH_1 */
 903:C:/Users/leonardo/Desktop/Code/Github/DawnBGC/Libraries/FWLIB/src\gd32f4xx_timer.c ****     case TIMER_CH_1:
 904:C:/Users/leonardo/Desktop/Code/Github/DawnBGC/Libraries/FWLIB/src\gd32f4xx_timer.c ****         TIMER_CHCTL0(timer_periph) &= (~(uint32_t)TIMER_CHCTL0_CH1COMCTL);
 3040              		.loc 1 904 36
 3041 004e 7B68     		ldr	r3, [r7, #4]
 3042 0050 1833     		adds	r3, r3, #24
 3043 0052 1B68     		ldr	r3, [r3]
 3044 0054 7A68     		ldr	r2, [r7, #4]
 3045 0056 1832     		adds	r2, r2, #24
 3046 0058 23F4E043 		bic	r3, r3, #28672
 3047 005c 1360     		str	r3, [r2]
 905:C:/Users/leonardo/Desktop/Code/Github/DawnBGC/Libraries/FWLIB/src\gd32f4xx_timer.c ****         TIMER_CHCTL0(timer_periph) |= (uint32_t)((uint32_t)(timer_ocmode)<< 8U);
 3048              		.loc 1 905 36
 3049 005e 7B68     		ldr	r3, [r7, #4]
 3050 0060 1833     		adds	r3, r3, #24
 3051 0062 1A68     		ldr	r2, [r3]
 3052              		.loc 1 905 50
 3053 0064 3B88     		ldrh	r3, [r7]
 3054              		.loc 1 905 39
 3055 0066 1B02     		lsls	r3, r3, #8
 3056              		.loc 1 905 36
 3057 0068 7968     		ldr	r1, [r7, #4]
 3058 006a 1831     		adds	r1, r1, #24
 3059 006c 1343     		orrs	r3, r3, r2
 3060 006e 0B60     		str	r3, [r1]
 906:C:/Users/leonardo/Desktop/Code/Github/DawnBGC/Libraries/FWLIB/src\gd32f4xx_timer.c ****         break;
 3061              		.loc 1 906 9
 3062 0070 23E0     		b	.L119
 3063              	.L116:
 907:C:/Users/leonardo/Desktop/Code/Github/DawnBGC/Libraries/FWLIB/src\gd32f4xx_timer.c ****     /* configure TIMER_CH_2 */
 908:C:/Users/leonardo/Desktop/Code/Github/DawnBGC/Libraries/FWLIB/src\gd32f4xx_timer.c ****     case TIMER_CH_2:
 909:C:/Users/leonardo/Desktop/Code/Github/DawnBGC/Libraries/FWLIB/src\gd32f4xx_timer.c ****         TIMER_CHCTL1(timer_periph) &= (~(uint32_t)TIMER_CHCTL1_CH2COMCTL);
 3064              		.loc 1 909 36
 3065 0072 7B68     		ldr	r3, [r7, #4]
 3066 0074 1C33     		adds	r3, r3, #28
 3067 0076 1B68     		ldr	r3, [r3]
 3068 0078 7A68     		ldr	r2, [r7, #4]
 3069 007a 1C32     		adds	r2, r2, #28
 3070 007c 23F07003 		bic	r3, r3, #112
 3071 0080 1360     		str	r3, [r2]
 910:C:/Users/leonardo/Desktop/Code/Github/DawnBGC/Libraries/FWLIB/src\gd32f4xx_timer.c ****         TIMER_CHCTL1(timer_periph) |= (uint32_t)timer_ocmode;
 3072              		.loc 1 910 36
 3073 0082 7B68     		ldr	r3, [r7, #4]
 3074 0084 1C33     		adds	r3, r3, #28
 3075 0086 1A68     		ldr	r2, [r3]
 3076              		.loc 1 910 39
 3077 0088 3B88     		ldrh	r3, [r7]
 3078              		.loc 1 910 36
 3079 008a 7968     		ldr	r1, [r7, #4]
 3080 008c 1C31     		adds	r1, r1, #28
 3081 008e 1343     		orrs	r3, r3, r2
 3082 0090 0B60     		str	r3, [r1]
 911:C:/Users/leonardo/Desktop/Code/Github/DawnBGC/Libraries/FWLIB/src\gd32f4xx_timer.c ****         break;
 3083              		.loc 1 911 9
 3084 0092 12E0     		b	.L119
 3085              	.L114:
 912:C:/Users/leonardo/Desktop/Code/Github/DawnBGC/Libraries/FWLIB/src\gd32f4xx_timer.c ****     /* configure TIMER_CH_3 */
 913:C:/Users/leonardo/Desktop/Code/Github/DawnBGC/Libraries/FWLIB/src\gd32f4xx_timer.c ****     case TIMER_CH_3:
 914:C:/Users/leonardo/Desktop/Code/Github/DawnBGC/Libraries/FWLIB/src\gd32f4xx_timer.c ****         TIMER_CHCTL1(timer_periph) &= (~(uint32_t)TIMER_CHCTL1_CH3COMCTL);
 3086              		.loc 1 914 36
 3087 0094 7B68     		ldr	r3, [r7, #4]
 3088 0096 1C33     		adds	r3, r3, #28
 3089 0098 1B68     		ldr	r3, [r3]
 3090 009a 7A68     		ldr	r2, [r7, #4]
 3091 009c 1C32     		adds	r2, r2, #28
 3092 009e 23F4E043 		bic	r3, r3, #28672
 3093 00a2 1360     		str	r3, [r2]
 915:C:/Users/leonardo/Desktop/Code/Github/DawnBGC/Libraries/FWLIB/src\gd32f4xx_timer.c ****         TIMER_CHCTL1(timer_periph) |= (uint32_t)((uint32_t)(timer_ocmode)<< 8U);
 3094              		.loc 1 915 36
 3095 00a4 7B68     		ldr	r3, [r7, #4]
 3096 00a6 1C33     		adds	r3, r3, #28
 3097 00a8 1A68     		ldr	r2, [r3]
 3098              		.loc 1 915 50
 3099 00aa 3B88     		ldrh	r3, [r7]
 3100              		.loc 1 915 39
 3101 00ac 1B02     		lsls	r3, r3, #8
 3102              		.loc 1 915 36
 3103 00ae 7968     		ldr	r1, [r7, #4]
 3104 00b0 1C31     		adds	r1, r1, #28
 3105 00b2 1343     		orrs	r3, r3, r2
 3106 00b4 0B60     		str	r3, [r1]
 916:C:/Users/leonardo/Desktop/Code/Github/DawnBGC/Libraries/FWLIB/src\gd32f4xx_timer.c ****         break;
 3107              		.loc 1 916 9
 3108 00b6 00E0     		b	.L119
 3109              	.L120:
 917:C:/Users/leonardo/Desktop/Code/Github/DawnBGC/Libraries/FWLIB/src\gd32f4xx_timer.c ****     default:
 918:C:/Users/leonardo/Desktop/Code/Github/DawnBGC/Libraries/FWLIB/src\gd32f4xx_timer.c ****         break;
 3110              		.loc 1 918 9
 3111 00b8 00BF     		nop
 3112              	.L119:
 919:C:/Users/leonardo/Desktop/Code/Github/DawnBGC/Libraries/FWLIB/src\gd32f4xx_timer.c ****     }
 920:C:/Users/leonardo/Desktop/Code/Github/DawnBGC/Libraries/FWLIB/src\gd32f4xx_timer.c **** }
 3113              		.loc 1 920 1
 3114 00ba 00BF     		nop
 3115 00bc 0C37     		adds	r7, r7, #12
 3116              		.cfi_def_cfa_offset 4
 3117 00be BD46     		mov	sp, r7
 3118              		.cfi_def_cfa_register 13
 3119              		@ sp needed
 3120 00c0 80BC     		pop	{r7}
 3121              		.cfi_restore 7
 3122              		.cfi_def_cfa_offset 0
 3123 00c2 7047     		bx	lr
 3124              		.cfi_endproc
 3125              	.LFE162:
 3127              		.section	.text.timer_channel_output_pulse_value_config,"ax",%progbits
 3128              		.align	1
 3129              		.global	timer_channel_output_pulse_value_config
 3130              		.syntax unified
 3131              		.thumb
 3132              		.thumb_func
 3133              		.fpu softvfp
 3135              	timer_channel_output_pulse_value_config:
 3136              	.LFB163:
 921:C:/Users/leonardo/Desktop/Code/Github/DawnBGC/Libraries/FWLIB/src\gd32f4xx_timer.c **** 
 922:C:/Users/leonardo/Desktop/Code/Github/DawnBGC/Libraries/FWLIB/src\gd32f4xx_timer.c **** /*!
 923:C:/Users/leonardo/Desktop/Code/Github/DawnBGC/Libraries/FWLIB/src\gd32f4xx_timer.c ****     \brief      configure TIMER channel output pulse value
 924:C:/Users/leonardo/Desktop/Code/Github/DawnBGC/Libraries/FWLIB/src\gd32f4xx_timer.c ****     \param[in]  timer_periph: please refer to the following parameters
 925:C:/Users/leonardo/Desktop/Code/Github/DawnBGC/Libraries/FWLIB/src\gd32f4xx_timer.c ****     \param[in]  timer_channel: 
 926:C:/Users/leonardo/Desktop/Code/Github/DawnBGC/Libraries/FWLIB/src\gd32f4xx_timer.c ****       \arg        TIMER_CH_0: TIMER channel0(TIMERx(x=0..4,7..13))
 927:C:/Users/leonardo/Desktop/Code/Github/DawnBGC/Libraries/FWLIB/src\gd32f4xx_timer.c ****       \arg        TIMER_CH_1: TIMER channel1(TIMERx(x=0..4,7,8,11))
 928:C:/Users/leonardo/Desktop/Code/Github/DawnBGC/Libraries/FWLIB/src\gd32f4xx_timer.c ****       \arg        TIMER_CH_2: TIMER channel2(TIMERx(x=0..4,7))
 929:C:/Users/leonardo/Desktop/Code/Github/DawnBGC/Libraries/FWLIB/src\gd32f4xx_timer.c ****       \arg        TIMER_CH_3: TIMER channel3(TIMERx(x=0..4,7))
 930:C:/Users/leonardo/Desktop/Code/Github/DawnBGC/Libraries/FWLIB/src\gd32f4xx_timer.c ****     \param[in]  timer_pluse: channel output pulse value
 931:C:/Users/leonardo/Desktop/Code/Github/DawnBGC/Libraries/FWLIB/src\gd32f4xx_timer.c ****     \param[out] none
 932:C:/Users/leonardo/Desktop/Code/Github/DawnBGC/Libraries/FWLIB/src\gd32f4xx_timer.c ****     \retval     none
 933:C:/Users/leonardo/Desktop/Code/Github/DawnBGC/Libraries/FWLIB/src\gd32f4xx_timer.c **** */
 934:C:/Users/leonardo/Desktop/Code/Github/DawnBGC/Libraries/FWLIB/src\gd32f4xx_timer.c **** void timer_channel_output_pulse_value_config(uint32_t timer_periph,uint16_t timer_channel,uint32_t 
 935:C:/Users/leonardo/Desktop/Code/Github/DawnBGC/Libraries/FWLIB/src\gd32f4xx_timer.c **** {
 3137              		.loc 1 935 1
 3138              		.cfi_startproc
 3139              		@ args = 0, pretend = 0, frame = 16
 3140              		@ frame_needed = 1, uses_anonymous_args = 0
 3141              		@ link register save eliminated.
 3142 0000 80B4     		push	{r7}
 3143              		.cfi_def_cfa_offset 4
 3144              		.cfi_offset 7, -4
 3145 0002 85B0     		sub	sp, sp, #20
 3146              		.cfi_def_cfa_offset 24
 3147 0004 00AF     		add	r7, sp, #0
 3148              		.cfi_def_cfa_register 7
 3149 0006 F860     		str	r0, [r7, #12]
 3150 0008 0B46     		mov	r3, r1
 3151 000a 7A60     		str	r2, [r7, #4]
 3152 000c 7B81     		strh	r3, [r7, #10]	@ movhi
 936:C:/Users/leonardo/Desktop/Code/Github/DawnBGC/Libraries/FWLIB/src\gd32f4xx_timer.c ****     switch(timer_channel){
 3153              		.loc 1 936 5
 3154 000e 7B89     		ldrh	r3, [r7, #10]
 3155 0010 032B     		cmp	r3, #3
 3156 0012 23D8     		bhi	.L129
 3157 0014 01A2     		adr	r2, .L124
 3158 0016 52F823F0 		ldr	pc, [r2, r3, lsl #2]
 3159 001a 00BF     		.p2align 2
 3160              	.L124:
 3161 001c 2D000000 		.word	.L127+1
 3162 0020 39000000 		.word	.L126+1
 3163 0024 45000000 		.word	.L125+1
 3164 0028 51000000 		.word	.L123+1
 3165              		.p2align 1
 3166              	.L127:
 937:C:/Users/leonardo/Desktop/Code/Github/DawnBGC/Libraries/FWLIB/src\gd32f4xx_timer.c ****     case TIMER_CH_0:
 938:C:/Users/leonardo/Desktop/Code/Github/DawnBGC/Libraries/FWLIB/src\gd32f4xx_timer.c ****         TIMER_CH0CV(timer_periph) = (uint32_t)timer_pluse;
 3167              		.loc 1 938 9
 3168 002c FB68     		ldr	r3, [r7, #12]
 3169 002e 3433     		adds	r3, r3, #52
 3170 0030 1A46     		mov	r2, r3
 3171              		.loc 1 938 35
 3172 0032 7B68     		ldr	r3, [r7, #4]
 3173 0034 1360     		str	r3, [r2]
 939:C:/Users/leonardo/Desktop/Code/Github/DawnBGC/Libraries/FWLIB/src\gd32f4xx_timer.c ****         break;
 3174              		.loc 1 939 9
 3175 0036 12E0     		b	.L128
 3176              	.L126:
 940:C:/Users/leonardo/Desktop/Code/Github/DawnBGC/Libraries/FWLIB/src\gd32f4xx_timer.c ****     case TIMER_CH_1:
 941:C:/Users/leonardo/Desktop/Code/Github/DawnBGC/Libraries/FWLIB/src\gd32f4xx_timer.c ****         TIMER_CH1CV(timer_periph) = (uint32_t)timer_pluse;
 3177              		.loc 1 941 9
 3178 0038 FB68     		ldr	r3, [r7, #12]
 3179 003a 3833     		adds	r3, r3, #56
 3180 003c 1A46     		mov	r2, r3
 3181              		.loc 1 941 35
 3182 003e 7B68     		ldr	r3, [r7, #4]
 3183 0040 1360     		str	r3, [r2]
 942:C:/Users/leonardo/Desktop/Code/Github/DawnBGC/Libraries/FWLIB/src\gd32f4xx_timer.c ****         break;
 3184              		.loc 1 942 9
 3185 0042 0CE0     		b	.L128
 3186              	.L125:
 943:C:/Users/leonardo/Desktop/Code/Github/DawnBGC/Libraries/FWLIB/src\gd32f4xx_timer.c ****     case TIMER_CH_2:
 944:C:/Users/leonardo/Desktop/Code/Github/DawnBGC/Libraries/FWLIB/src\gd32f4xx_timer.c ****         TIMER_CH2CV(timer_periph) = (uint32_t)timer_pluse;
 3187              		.loc 1 944 9
 3188 0044 FB68     		ldr	r3, [r7, #12]
 3189 0046 3C33     		adds	r3, r3, #60
 3190 0048 1A46     		mov	r2, r3
 3191              		.loc 1 944 35
 3192 004a 7B68     		ldr	r3, [r7, #4]
 3193 004c 1360     		str	r3, [r2]
 945:C:/Users/leonardo/Desktop/Code/Github/DawnBGC/Libraries/FWLIB/src\gd32f4xx_timer.c ****         break;
 3194              		.loc 1 945 9
 3195 004e 06E0     		b	.L128
 3196              	.L123:
 946:C:/Users/leonardo/Desktop/Code/Github/DawnBGC/Libraries/FWLIB/src\gd32f4xx_timer.c ****     case TIMER_CH_3:
 947:C:/Users/leonardo/Desktop/Code/Github/DawnBGC/Libraries/FWLIB/src\gd32f4xx_timer.c ****          TIMER_CH3CV(timer_periph) = (uint32_t)timer_pluse;
 3197              		.loc 1 947 10
 3198 0050 FB68     		ldr	r3, [r7, #12]
 3199 0052 4033     		adds	r3, r3, #64
 3200 0054 1A46     		mov	r2, r3
 3201              		.loc 1 947 36
 3202 0056 7B68     		ldr	r3, [r7, #4]
 3203 0058 1360     		str	r3, [r2]
 948:C:/Users/leonardo/Desktop/Code/Github/DawnBGC/Libraries/FWLIB/src\gd32f4xx_timer.c ****         break;
 3204              		.loc 1 948 9
 3205 005a 00E0     		b	.L128
 3206              	.L129:
 949:C:/Users/leonardo/Desktop/Code/Github/DawnBGC/Libraries/FWLIB/src\gd32f4xx_timer.c ****     default:
 950:C:/Users/leonardo/Desktop/Code/Github/DawnBGC/Libraries/FWLIB/src\gd32f4xx_timer.c ****         break;
 3207              		.loc 1 950 9
 3208 005c 00BF     		nop
 3209              	.L128:
 951:C:/Users/leonardo/Desktop/Code/Github/DawnBGC/Libraries/FWLIB/src\gd32f4xx_timer.c ****     }
 952:C:/Users/leonardo/Desktop/Code/Github/DawnBGC/Libraries/FWLIB/src\gd32f4xx_timer.c **** }
 3210              		.loc 1 952 1
 3211 005e 00BF     		nop
 3212 0060 1437     		adds	r7, r7, #20
 3213              		.cfi_def_cfa_offset 4
 3214 0062 BD46     		mov	sp, r7
 3215              		.cfi_def_cfa_register 13
 3216              		@ sp needed
 3217 0064 80BC     		pop	{r7}
 3218              		.cfi_restore 7
 3219              		.cfi_def_cfa_offset 0
 3220 0066 7047     		bx	lr
 3221              		.cfi_endproc
 3222              	.LFE163:
 3224              		.section	.text.timer_channel_output_shadow_config,"ax",%progbits
 3225              		.align	1
 3226              		.global	timer_channel_output_shadow_config
 3227              		.syntax unified
 3228              		.thumb
 3229              		.thumb_func
 3230              		.fpu softvfp
 3232              	timer_channel_output_shadow_config:
 3233              	.LFB164:
 953:C:/Users/leonardo/Desktop/Code/Github/DawnBGC/Libraries/FWLIB/src\gd32f4xx_timer.c **** 
 954:C:/Users/leonardo/Desktop/Code/Github/DawnBGC/Libraries/FWLIB/src\gd32f4xx_timer.c **** /*!
 955:C:/Users/leonardo/Desktop/Code/Github/DawnBGC/Libraries/FWLIB/src\gd32f4xx_timer.c ****     \brief      configure TIMER channel output shadow function
 956:C:/Users/leonardo/Desktop/Code/Github/DawnBGC/Libraries/FWLIB/src\gd32f4xx_timer.c ****     \param[in]  timer_periph: please refer to the following parameters
 957:C:/Users/leonardo/Desktop/Code/Github/DawnBGC/Libraries/FWLIB/src\gd32f4xx_timer.c ****     \param[in]  timer_channel: 
 958:C:/Users/leonardo/Desktop/Code/Github/DawnBGC/Libraries/FWLIB/src\gd32f4xx_timer.c ****       \arg        TIMER_CH_0: TIMER channel0(TIMERx(x=0..4,7..13))
 959:C:/Users/leonardo/Desktop/Code/Github/DawnBGC/Libraries/FWLIB/src\gd32f4xx_timer.c ****       \arg        TIMER_CH_1: TIMER channel1(TIMERx(x=0..4,7,8,11))
 960:C:/Users/leonardo/Desktop/Code/Github/DawnBGC/Libraries/FWLIB/src\gd32f4xx_timer.c ****       \arg        TIMER_CH_2: TIMER channel2(TIMERx(x=0..4,7))
 961:C:/Users/leonardo/Desktop/Code/Github/DawnBGC/Libraries/FWLIB/src\gd32f4xx_timer.c ****       \arg        TIMER_CH_3: TIMER channel3(TIMERx(x=0..4,7))
 962:C:/Users/leonardo/Desktop/Code/Github/DawnBGC/Libraries/FWLIB/src\gd32f4xx_timer.c ****     \param[in]  timer_ocshadow: channel output shadow state
 963:C:/Users/leonardo/Desktop/Code/Github/DawnBGC/Libraries/FWLIB/src\gd32f4xx_timer.c ****       \arg        TIMER_OC_SHADOW_ENABLE: channel output shadow state enable
 964:C:/Users/leonardo/Desktop/Code/Github/DawnBGC/Libraries/FWLIB/src\gd32f4xx_timer.c ****       \arg        TIMER_OC_SHADOW_DISABLE: channel output shadow state disable
 965:C:/Users/leonardo/Desktop/Code/Github/DawnBGC/Libraries/FWLIB/src\gd32f4xx_timer.c ****     \param[out] none
 966:C:/Users/leonardo/Desktop/Code/Github/DawnBGC/Libraries/FWLIB/src\gd32f4xx_timer.c ****     \retval     none
 967:C:/Users/leonardo/Desktop/Code/Github/DawnBGC/Libraries/FWLIB/src\gd32f4xx_timer.c **** */
 968:C:/Users/leonardo/Desktop/Code/Github/DawnBGC/Libraries/FWLIB/src\gd32f4xx_timer.c **** void timer_channel_output_shadow_config(uint32_t timer_periph,uint16_t timer_channel,uint16_t timer
 969:C:/Users/leonardo/Desktop/Code/Github/DawnBGC/Libraries/FWLIB/src\gd32f4xx_timer.c **** {
 3234              		.loc 1 969 1
 3235              		.cfi_startproc
 3236              		@ args = 0, pretend = 0, frame = 8
 3237              		@ frame_needed = 1, uses_anonymous_args = 0
 3238              		@ link register save eliminated.
 3239 0000 80B4     		push	{r7}
 3240              		.cfi_def_cfa_offset 4
 3241              		.cfi_offset 7, -4
 3242 0002 83B0     		sub	sp, sp, #12
 3243              		.cfi_def_cfa_offset 16
 3244 0004 00AF     		add	r7, sp, #0
 3245              		.cfi_def_cfa_register 7
 3246 0006 7860     		str	r0, [r7, #4]
 3247 0008 0B46     		mov	r3, r1
 3248 000a 7B80     		strh	r3, [r7, #2]	@ movhi
 3249 000c 1346     		mov	r3, r2	@ movhi
 3250 000e 3B80     		strh	r3, [r7]	@ movhi
 970:C:/Users/leonardo/Desktop/Code/Github/DawnBGC/Libraries/FWLIB/src\gd32f4xx_timer.c ****     switch(timer_channel){
 3251              		.loc 1 970 5
 3252 0010 7B88     		ldrh	r3, [r7, #2]
 3253 0012 032B     		cmp	r3, #3
 3254 0014 50D8     		bhi	.L138
 3255 0016 01A2     		adr	r2, .L133
 3256 0018 52F823F0 		ldr	pc, [r2, r3, lsl #2]
 3257              		.p2align 2
 3258              	.L133:
 3259 001c 2D000000 		.word	.L136+1
 3260 0020 4F000000 		.word	.L135+1
 3261 0024 73000000 		.word	.L134+1
 3262 0028 95000000 		.word	.L132+1
 3263              		.p2align 1
 3264              	.L136:
 971:C:/Users/leonardo/Desktop/Code/Github/DawnBGC/Libraries/FWLIB/src\gd32f4xx_timer.c ****     /* configure TIMER_CH_0 */
 972:C:/Users/leonardo/Desktop/Code/Github/DawnBGC/Libraries/FWLIB/src\gd32f4xx_timer.c ****     case TIMER_CH_0:
 973:C:/Users/leonardo/Desktop/Code/Github/DawnBGC/Libraries/FWLIB/src\gd32f4xx_timer.c ****         TIMER_CHCTL0(timer_periph) &= (~(uint32_t)TIMER_CHCTL0_CH0COMSEN);
 3265              		.loc 1 973 36
 3266 002c 7B68     		ldr	r3, [r7, #4]
 3267 002e 1833     		adds	r3, r3, #24
 3268 0030 1B68     		ldr	r3, [r3]
 3269 0032 7A68     		ldr	r2, [r7, #4]
 3270 0034 1832     		adds	r2, r2, #24
 3271 0036 23F00803 		bic	r3, r3, #8
 3272 003a 1360     		str	r3, [r2]
 974:C:/Users/leonardo/Desktop/Code/Github/DawnBGC/Libraries/FWLIB/src\gd32f4xx_timer.c ****         TIMER_CHCTL0(timer_periph) |= (uint32_t)timer_ocshadow;
 3273              		.loc 1 974 36
 3274 003c 7B68     		ldr	r3, [r7, #4]
 3275 003e 1833     		adds	r3, r3, #24
 3276 0040 1A68     		ldr	r2, [r3]
 3277              		.loc 1 974 39
 3278 0042 3B88     		ldrh	r3, [r7]
 3279              		.loc 1 974 36
 3280 0044 7968     		ldr	r1, [r7, #4]
 3281 0046 1831     		adds	r1, r1, #24
 3282 0048 1343     		orrs	r3, r3, r2
 3283 004a 0B60     		str	r3, [r1]
 975:C:/Users/leonardo/Desktop/Code/Github/DawnBGC/Libraries/FWLIB/src\gd32f4xx_timer.c ****         break;
 3284              		.loc 1 975 9
 3285 004c 35E0     		b	.L137
 3286              	.L135:
 976:C:/Users/leonardo/Desktop/Code/Github/DawnBGC/Libraries/FWLIB/src\gd32f4xx_timer.c ****     /* configure TIMER_CH_1 */
 977:C:/Users/leonardo/Desktop/Code/Github/DawnBGC/Libraries/FWLIB/src\gd32f4xx_timer.c ****     case TIMER_CH_1:
 978:C:/Users/leonardo/Desktop/Code/Github/DawnBGC/Libraries/FWLIB/src\gd32f4xx_timer.c ****         TIMER_CHCTL0(timer_periph) &= (~(uint32_t)TIMER_CHCTL0_CH1COMSEN);
 3287              		.loc 1 978 36
 3288 004e 7B68     		ldr	r3, [r7, #4]
 3289 0050 1833     		adds	r3, r3, #24
 3290 0052 1B68     		ldr	r3, [r3]
 3291 0054 7A68     		ldr	r2, [r7, #4]
 3292 0056 1832     		adds	r2, r2, #24
 3293 0058 23F40063 		bic	r3, r3, #2048
 3294 005c 1360     		str	r3, [r2]
 979:C:/Users/leonardo/Desktop/Code/Github/DawnBGC/Libraries/FWLIB/src\gd32f4xx_timer.c ****         TIMER_CHCTL0(timer_periph) |= (uint32_t)((uint32_t)(timer_ocshadow) << 8U);
 3295              		.loc 1 979 36
 3296 005e 7B68     		ldr	r3, [r7, #4]
 3297 0060 1833     		adds	r3, r3, #24
 3298 0062 1A68     		ldr	r2, [r3]
 3299              		.loc 1 979 50
 3300 0064 3B88     		ldrh	r3, [r7]
 3301              		.loc 1 979 39
 3302 0066 1B02     		lsls	r3, r3, #8
 3303              		.loc 1 979 36
 3304 0068 7968     		ldr	r1, [r7, #4]
 3305 006a 1831     		adds	r1, r1, #24
 3306 006c 1343     		orrs	r3, r3, r2
 3307 006e 0B60     		str	r3, [r1]
 980:C:/Users/leonardo/Desktop/Code/Github/DawnBGC/Libraries/FWLIB/src\gd32f4xx_timer.c ****         break;
 3308              		.loc 1 980 9
 3309 0070 23E0     		b	.L137
 3310              	.L134:
 981:C:/Users/leonardo/Desktop/Code/Github/DawnBGC/Libraries/FWLIB/src\gd32f4xx_timer.c ****     /* configure TIMER_CH_2 */
 982:C:/Users/leonardo/Desktop/Code/Github/DawnBGC/Libraries/FWLIB/src\gd32f4xx_timer.c ****     case TIMER_CH_2:
 983:C:/Users/leonardo/Desktop/Code/Github/DawnBGC/Libraries/FWLIB/src\gd32f4xx_timer.c ****         TIMER_CHCTL1(timer_periph) &= (~(uint32_t)TIMER_CHCTL1_CH2COMSEN);
 3311              		.loc 1 983 36
 3312 0072 7B68     		ldr	r3, [r7, #4]
 3313 0074 1C33     		adds	r3, r3, #28
 3314 0076 1B68     		ldr	r3, [r3]
 3315 0078 7A68     		ldr	r2, [r7, #4]
 3316 007a 1C32     		adds	r2, r2, #28
 3317 007c 23F00803 		bic	r3, r3, #8
 3318 0080 1360     		str	r3, [r2]
 984:C:/Users/leonardo/Desktop/Code/Github/DawnBGC/Libraries/FWLIB/src\gd32f4xx_timer.c ****         TIMER_CHCTL1(timer_periph) |= (uint32_t)timer_ocshadow;
 3319              		.loc 1 984 36
 3320 0082 7B68     		ldr	r3, [r7, #4]
 3321 0084 1C33     		adds	r3, r3, #28
 3322 0086 1A68     		ldr	r2, [r3]
 3323              		.loc 1 984 39
 3324 0088 3B88     		ldrh	r3, [r7]
 3325              		.loc 1 984 36
 3326 008a 7968     		ldr	r1, [r7, #4]
 3327 008c 1C31     		adds	r1, r1, #28
 3328 008e 1343     		orrs	r3, r3, r2
 3329 0090 0B60     		str	r3, [r1]
 985:C:/Users/leonardo/Desktop/Code/Github/DawnBGC/Libraries/FWLIB/src\gd32f4xx_timer.c ****         break;
 3330              		.loc 1 985 9
 3331 0092 12E0     		b	.L137
 3332              	.L132:
 986:C:/Users/leonardo/Desktop/Code/Github/DawnBGC/Libraries/FWLIB/src\gd32f4xx_timer.c ****     /* configure TIMER_CH_3 */
 987:C:/Users/leonardo/Desktop/Code/Github/DawnBGC/Libraries/FWLIB/src\gd32f4xx_timer.c ****     case TIMER_CH_3:
 988:C:/Users/leonardo/Desktop/Code/Github/DawnBGC/Libraries/FWLIB/src\gd32f4xx_timer.c ****         TIMER_CHCTL1(timer_periph) &= (~(uint32_t)TIMER_CHCTL1_CH3COMSEN);
 3333              		.loc 1 988 36
 3334 0094 7B68     		ldr	r3, [r7, #4]
 3335 0096 1C33     		adds	r3, r3, #28
 3336 0098 1B68     		ldr	r3, [r3]
 3337 009a 7A68     		ldr	r2, [r7, #4]
 3338 009c 1C32     		adds	r2, r2, #28
 3339 009e 23F40063 		bic	r3, r3, #2048
 3340 00a2 1360     		str	r3, [r2]
 989:C:/Users/leonardo/Desktop/Code/Github/DawnBGC/Libraries/FWLIB/src\gd32f4xx_timer.c ****         TIMER_CHCTL1(timer_periph) |= (uint32_t)((uint32_t)(timer_ocshadow) << 8U);
 3341              		.loc 1 989 36
 3342 00a4 7B68     		ldr	r3, [r7, #4]
 3343 00a6 1C33     		adds	r3, r3, #28
 3344 00a8 1A68     		ldr	r2, [r3]
 3345              		.loc 1 989 50
 3346 00aa 3B88     		ldrh	r3, [r7]
 3347              		.loc 1 989 39
 3348 00ac 1B02     		lsls	r3, r3, #8
 3349              		.loc 1 989 36
 3350 00ae 7968     		ldr	r1, [r7, #4]
 3351 00b0 1C31     		adds	r1, r1, #28
 3352 00b2 1343     		orrs	r3, r3, r2
 3353 00b4 0B60     		str	r3, [r1]
 990:C:/Users/leonardo/Desktop/Code/Github/DawnBGC/Libraries/FWLIB/src\gd32f4xx_timer.c ****         break;
 3354              		.loc 1 990 9
 3355 00b6 00E0     		b	.L137
 3356              	.L138:
 991:C:/Users/leonardo/Desktop/Code/Github/DawnBGC/Libraries/FWLIB/src\gd32f4xx_timer.c ****     default:
 992:C:/Users/leonardo/Desktop/Code/Github/DawnBGC/Libraries/FWLIB/src\gd32f4xx_timer.c ****         break;
 3357              		.loc 1 992 9
 3358 00b8 00BF     		nop
 3359              	.L137:
 993:C:/Users/leonardo/Desktop/Code/Github/DawnBGC/Libraries/FWLIB/src\gd32f4xx_timer.c ****     }
 994:C:/Users/leonardo/Desktop/Code/Github/DawnBGC/Libraries/FWLIB/src\gd32f4xx_timer.c **** }
 3360              		.loc 1 994 1
 3361 00ba 00BF     		nop
 3362 00bc 0C37     		adds	r7, r7, #12
 3363              		.cfi_def_cfa_offset 4
 3364 00be BD46     		mov	sp, r7
 3365              		.cfi_def_cfa_register 13
 3366              		@ sp needed
 3367 00c0 80BC     		pop	{r7}
 3368              		.cfi_restore 7
 3369              		.cfi_def_cfa_offset 0
 3370 00c2 7047     		bx	lr
 3371              		.cfi_endproc
 3372              	.LFE164:
 3374              		.section	.text.timer_channel_output_fast_config,"ax",%progbits
 3375              		.align	1
 3376              		.global	timer_channel_output_fast_config
 3377              		.syntax unified
 3378              		.thumb
 3379              		.thumb_func
 3380              		.fpu softvfp
 3382              	timer_channel_output_fast_config:
 3383              	.LFB165:
 995:C:/Users/leonardo/Desktop/Code/Github/DawnBGC/Libraries/FWLIB/src\gd32f4xx_timer.c **** 
 996:C:/Users/leonardo/Desktop/Code/Github/DawnBGC/Libraries/FWLIB/src\gd32f4xx_timer.c **** /*!
 997:C:/Users/leonardo/Desktop/Code/Github/DawnBGC/Libraries/FWLIB/src\gd32f4xx_timer.c ****     \brief      configure TIMER channel output fast function
 998:C:/Users/leonardo/Desktop/Code/Github/DawnBGC/Libraries/FWLIB/src\gd32f4xx_timer.c ****     \param[in]  timer_periph: please refer to the following parameters
 999:C:/Users/leonardo/Desktop/Code/Github/DawnBGC/Libraries/FWLIB/src\gd32f4xx_timer.c ****     \param[in]  timer_channel: 
1000:C:/Users/leonardo/Desktop/Code/Github/DawnBGC/Libraries/FWLIB/src\gd32f4xx_timer.c ****       \arg        TIMER_CH_0: TIMER channel0(TIMERx(x=0..4,7..13))
1001:C:/Users/leonardo/Desktop/Code/Github/DawnBGC/Libraries/FWLIB/src\gd32f4xx_timer.c ****       \arg        TIMER_CH_1: TIMER channel1(TIMERx(x=0..4,7,8,11))
1002:C:/Users/leonardo/Desktop/Code/Github/DawnBGC/Libraries/FWLIB/src\gd32f4xx_timer.c ****       \arg        TIMER_CH_2: TIMER channel2(TIMERx(x=0..4,7))
1003:C:/Users/leonardo/Desktop/Code/Github/DawnBGC/Libraries/FWLIB/src\gd32f4xx_timer.c ****       \arg        TIMER_CH_3: TIMER channel3(TIMERx(x=0..4,7))
1004:C:/Users/leonardo/Desktop/Code/Github/DawnBGC/Libraries/FWLIB/src\gd32f4xx_timer.c ****     \param[in]  timer_ocfast: channel output fast function
1005:C:/Users/leonardo/Desktop/Code/Github/DawnBGC/Libraries/FWLIB/src\gd32f4xx_timer.c ****       \arg        TIMER_OC_FAST_ENABLE: channel output fast function enable
1006:C:/Users/leonardo/Desktop/Code/Github/DawnBGC/Libraries/FWLIB/src\gd32f4xx_timer.c ****       \arg        TIMER_OC_FAST_DISABLE: channel output fast function disable
1007:C:/Users/leonardo/Desktop/Code/Github/DawnBGC/Libraries/FWLIB/src\gd32f4xx_timer.c ****     \param[out] none
1008:C:/Users/leonardo/Desktop/Code/Github/DawnBGC/Libraries/FWLIB/src\gd32f4xx_timer.c ****     \retval     none
1009:C:/Users/leonardo/Desktop/Code/Github/DawnBGC/Libraries/FWLIB/src\gd32f4xx_timer.c **** */
1010:C:/Users/leonardo/Desktop/Code/Github/DawnBGC/Libraries/FWLIB/src\gd32f4xx_timer.c **** void timer_channel_output_fast_config(uint32_t timer_periph,uint16_t timer_channel,uint16_t timer_o
1011:C:/Users/leonardo/Desktop/Code/Github/DawnBGC/Libraries/FWLIB/src\gd32f4xx_timer.c **** {
 3384              		.loc 1 1011 1
 3385              		.cfi_startproc
 3386              		@ args = 0, pretend = 0, frame = 8
 3387              		@ frame_needed = 1, uses_anonymous_args = 0
 3388              		@ link register save eliminated.
 3389 0000 80B4     		push	{r7}
 3390              		.cfi_def_cfa_offset 4
 3391              		.cfi_offset 7, -4
 3392 0002 83B0     		sub	sp, sp, #12
 3393              		.cfi_def_cfa_offset 16
 3394 0004 00AF     		add	r7, sp, #0
 3395              		.cfi_def_cfa_register 7
 3396 0006 7860     		str	r0, [r7, #4]
 3397 0008 0B46     		mov	r3, r1
 3398 000a 7B80     		strh	r3, [r7, #2]	@ movhi
 3399 000c 1346     		mov	r3, r2	@ movhi
 3400 000e 3B80     		strh	r3, [r7]	@ movhi
1012:C:/Users/leonardo/Desktop/Code/Github/DawnBGC/Libraries/FWLIB/src\gd32f4xx_timer.c ****     switch(timer_channel){
 3401              		.loc 1 1012 5
 3402 0010 7B88     		ldrh	r3, [r7, #2]
 3403 0012 032B     		cmp	r3, #3
 3404 0014 50D8     		bhi	.L147
 3405 0016 01A2     		adr	r2, .L142
 3406 0018 52F823F0 		ldr	pc, [r2, r3, lsl #2]
 3407              		.p2align 2
 3408              	.L142:
 3409 001c 2D000000 		.word	.L145+1
 3410 0020 4F000000 		.word	.L144+1
 3411 0024 73000000 		.word	.L143+1
 3412 0028 95000000 		.word	.L141+1
 3413              		.p2align 1
 3414              	.L145:
1013:C:/Users/leonardo/Desktop/Code/Github/DawnBGC/Libraries/FWLIB/src\gd32f4xx_timer.c ****     /* configure TIMER_CH_0 */
1014:C:/Users/leonardo/Desktop/Code/Github/DawnBGC/Libraries/FWLIB/src\gd32f4xx_timer.c ****     case TIMER_CH_0:
1015:C:/Users/leonardo/Desktop/Code/Github/DawnBGC/Libraries/FWLIB/src\gd32f4xx_timer.c ****         TIMER_CHCTL0(timer_periph) &= (~(uint32_t)TIMER_CHCTL0_CH0COMFEN);
 3415              		.loc 1 1015 36
 3416 002c 7B68     		ldr	r3, [r7, #4]
 3417 002e 1833     		adds	r3, r3, #24
 3418 0030 1B68     		ldr	r3, [r3]
 3419 0032 7A68     		ldr	r2, [r7, #4]
 3420 0034 1832     		adds	r2, r2, #24
 3421 0036 23F00403 		bic	r3, r3, #4
 3422 003a 1360     		str	r3, [r2]
1016:C:/Users/leonardo/Desktop/Code/Github/DawnBGC/Libraries/FWLIB/src\gd32f4xx_timer.c ****         TIMER_CHCTL0(timer_periph) |= (uint32_t)timer_ocfast;
 3423              		.loc 1 1016 36
 3424 003c 7B68     		ldr	r3, [r7, #4]
 3425 003e 1833     		adds	r3, r3, #24
 3426 0040 1A68     		ldr	r2, [r3]
 3427              		.loc 1 1016 39
 3428 0042 3B88     		ldrh	r3, [r7]
 3429              		.loc 1 1016 36
 3430 0044 7968     		ldr	r1, [r7, #4]
 3431 0046 1831     		adds	r1, r1, #24
 3432 0048 1343     		orrs	r3, r3, r2
 3433 004a 0B60     		str	r3, [r1]
1017:C:/Users/leonardo/Desktop/Code/Github/DawnBGC/Libraries/FWLIB/src\gd32f4xx_timer.c ****         break;
 3434              		.loc 1 1017 9
 3435 004c 35E0     		b	.L146
 3436              	.L144:
1018:C:/Users/leonardo/Desktop/Code/Github/DawnBGC/Libraries/FWLIB/src\gd32f4xx_timer.c ****     /* configure TIMER_CH_1 */
1019:C:/Users/leonardo/Desktop/Code/Github/DawnBGC/Libraries/FWLIB/src\gd32f4xx_timer.c ****     case TIMER_CH_1:
1020:C:/Users/leonardo/Desktop/Code/Github/DawnBGC/Libraries/FWLIB/src\gd32f4xx_timer.c ****         TIMER_CHCTL0(timer_periph) &= (~(uint32_t)TIMER_CHCTL0_CH1COMFEN);
 3437              		.loc 1 1020 36
 3438 004e 7B68     		ldr	r3, [r7, #4]
 3439 0050 1833     		adds	r3, r3, #24
 3440 0052 1B68     		ldr	r3, [r3]
 3441 0054 7A68     		ldr	r2, [r7, #4]
 3442 0056 1832     		adds	r2, r2, #24
 3443 0058 23F48063 		bic	r3, r3, #1024
 3444 005c 1360     		str	r3, [r2]
1021:C:/Users/leonardo/Desktop/Code/Github/DawnBGC/Libraries/FWLIB/src\gd32f4xx_timer.c ****         TIMER_CHCTL0(timer_periph) |= (uint32_t)((uint32_t)timer_ocfast << 8U);
 3445              		.loc 1 1021 36
 3446 005e 7B68     		ldr	r3, [r7, #4]
 3447 0060 1833     		adds	r3, r3, #24
 3448 0062 1A68     		ldr	r2, [r3]
 3449              		.loc 1 1021 50
 3450 0064 3B88     		ldrh	r3, [r7]
 3451              		.loc 1 1021 39
 3452 0066 1B02     		lsls	r3, r3, #8
 3453              		.loc 1 1021 36
 3454 0068 7968     		ldr	r1, [r7, #4]
 3455 006a 1831     		adds	r1, r1, #24
 3456 006c 1343     		orrs	r3, r3, r2
 3457 006e 0B60     		str	r3, [r1]
1022:C:/Users/leonardo/Desktop/Code/Github/DawnBGC/Libraries/FWLIB/src\gd32f4xx_timer.c ****         break;
 3458              		.loc 1 1022 9
 3459 0070 23E0     		b	.L146
 3460              	.L143:
1023:C:/Users/leonardo/Desktop/Code/Github/DawnBGC/Libraries/FWLIB/src\gd32f4xx_timer.c ****     /* configure TIMER_CH_2 */
1024:C:/Users/leonardo/Desktop/Code/Github/DawnBGC/Libraries/FWLIB/src\gd32f4xx_timer.c ****     case TIMER_CH_2:
1025:C:/Users/leonardo/Desktop/Code/Github/DawnBGC/Libraries/FWLIB/src\gd32f4xx_timer.c ****         TIMER_CHCTL1(timer_periph) &= (~(uint32_t)TIMER_CHCTL1_CH2COMFEN);
 3461              		.loc 1 1025 36
 3462 0072 7B68     		ldr	r3, [r7, #4]
 3463 0074 1C33     		adds	r3, r3, #28
 3464 0076 1B68     		ldr	r3, [r3]
 3465 0078 7A68     		ldr	r2, [r7, #4]
 3466 007a 1C32     		adds	r2, r2, #28
 3467 007c 23F00403 		bic	r3, r3, #4
 3468 0080 1360     		str	r3, [r2]
1026:C:/Users/leonardo/Desktop/Code/Github/DawnBGC/Libraries/FWLIB/src\gd32f4xx_timer.c ****         TIMER_CHCTL1(timer_periph) |= (uint32_t)timer_ocfast;
 3469              		.loc 1 1026 36
 3470 0082 7B68     		ldr	r3, [r7, #4]
 3471 0084 1C33     		adds	r3, r3, #28
 3472 0086 1A68     		ldr	r2, [r3]
 3473              		.loc 1 1026 39
 3474 0088 3B88     		ldrh	r3, [r7]
 3475              		.loc 1 1026 36
 3476 008a 7968     		ldr	r1, [r7, #4]
 3477 008c 1C31     		adds	r1, r1, #28
 3478 008e 1343     		orrs	r3, r3, r2
 3479 0090 0B60     		str	r3, [r1]
1027:C:/Users/leonardo/Desktop/Code/Github/DawnBGC/Libraries/FWLIB/src\gd32f4xx_timer.c ****         break;
 3480              		.loc 1 1027 9
 3481 0092 12E0     		b	.L146
 3482              	.L141:
1028:C:/Users/leonardo/Desktop/Code/Github/DawnBGC/Libraries/FWLIB/src\gd32f4xx_timer.c ****     /* configure TIMER_CH_3 */
1029:C:/Users/leonardo/Desktop/Code/Github/DawnBGC/Libraries/FWLIB/src\gd32f4xx_timer.c ****     case TIMER_CH_3:
1030:C:/Users/leonardo/Desktop/Code/Github/DawnBGC/Libraries/FWLIB/src\gd32f4xx_timer.c ****         TIMER_CHCTL1(timer_periph) &= (~(uint32_t)TIMER_CHCTL1_CH3COMFEN);
 3483              		.loc 1 1030 36
 3484 0094 7B68     		ldr	r3, [r7, #4]
 3485 0096 1C33     		adds	r3, r3, #28
 3486 0098 1B68     		ldr	r3, [r3]
 3487 009a 7A68     		ldr	r2, [r7, #4]
 3488 009c 1C32     		adds	r2, r2, #28
 3489 009e 23F48063 		bic	r3, r3, #1024
 3490 00a2 1360     		str	r3, [r2]
1031:C:/Users/leonardo/Desktop/Code/Github/DawnBGC/Libraries/FWLIB/src\gd32f4xx_timer.c ****         TIMER_CHCTL1(timer_periph) |= (uint32_t)((uint32_t)timer_ocfast << 8U);
 3491              		.loc 1 1031 36
 3492 00a4 7B68     		ldr	r3, [r7, #4]
 3493 00a6 1C33     		adds	r3, r3, #28
 3494 00a8 1A68     		ldr	r2, [r3]
 3495              		.loc 1 1031 50
 3496 00aa 3B88     		ldrh	r3, [r7]
 3497              		.loc 1 1031 39
 3498 00ac 1B02     		lsls	r3, r3, #8
 3499              		.loc 1 1031 36
 3500 00ae 7968     		ldr	r1, [r7, #4]
 3501 00b0 1C31     		adds	r1, r1, #28
 3502 00b2 1343     		orrs	r3, r3, r2
 3503 00b4 0B60     		str	r3, [r1]
1032:C:/Users/leonardo/Desktop/Code/Github/DawnBGC/Libraries/FWLIB/src\gd32f4xx_timer.c ****         break;
 3504              		.loc 1 1032 9
 3505 00b6 00E0     		b	.L146
 3506              	.L147:
1033:C:/Users/leonardo/Desktop/Code/Github/DawnBGC/Libraries/FWLIB/src\gd32f4xx_timer.c ****     default:
1034:C:/Users/leonardo/Desktop/Code/Github/DawnBGC/Libraries/FWLIB/src\gd32f4xx_timer.c ****         break;
 3507              		.loc 1 1034 9
 3508 00b8 00BF     		nop
 3509              	.L146:
1035:C:/Users/leonardo/Desktop/Code/Github/DawnBGC/Libraries/FWLIB/src\gd32f4xx_timer.c ****     }
1036:C:/Users/leonardo/Desktop/Code/Github/DawnBGC/Libraries/FWLIB/src\gd32f4xx_timer.c **** }
 3510              		.loc 1 1036 1
 3511 00ba 00BF     		nop
 3512 00bc 0C37     		adds	r7, r7, #12
 3513              		.cfi_def_cfa_offset 4
 3514 00be BD46     		mov	sp, r7
 3515              		.cfi_def_cfa_register 13
 3516              		@ sp needed
 3517 00c0 80BC     		pop	{r7}
 3518              		.cfi_restore 7
 3519              		.cfi_def_cfa_offset 0
 3520 00c2 7047     		bx	lr
 3521              		.cfi_endproc
 3522              	.LFE165:
 3524              		.section	.text.timer_channel_output_clear_config,"ax",%progbits
 3525              		.align	1
 3526              		.global	timer_channel_output_clear_config
 3527              		.syntax unified
 3528              		.thumb
 3529              		.thumb_func
 3530              		.fpu softvfp
 3532              	timer_channel_output_clear_config:
 3533              	.LFB166:
1037:C:/Users/leonardo/Desktop/Code/Github/DawnBGC/Libraries/FWLIB/src\gd32f4xx_timer.c **** 
1038:C:/Users/leonardo/Desktop/Code/Github/DawnBGC/Libraries/FWLIB/src\gd32f4xx_timer.c **** /*!
1039:C:/Users/leonardo/Desktop/Code/Github/DawnBGC/Libraries/FWLIB/src\gd32f4xx_timer.c ****     \brief      configure TIMER channel output clear function
1040:C:/Users/leonardo/Desktop/Code/Github/DawnBGC/Libraries/FWLIB/src\gd32f4xx_timer.c ****     \param[in]  timer_periph: TIMERx(x=0..4,7)
1041:C:/Users/leonardo/Desktop/Code/Github/DawnBGC/Libraries/FWLIB/src\gd32f4xx_timer.c ****     \param[in]  timer_channel: 
1042:C:/Users/leonardo/Desktop/Code/Github/DawnBGC/Libraries/FWLIB/src\gd32f4xx_timer.c ****       \arg        TIMER_CH_0: TIMER channel0
1043:C:/Users/leonardo/Desktop/Code/Github/DawnBGC/Libraries/FWLIB/src\gd32f4xx_timer.c ****       \arg        TIMER_CH_1: TIMER channel1
1044:C:/Users/leonardo/Desktop/Code/Github/DawnBGC/Libraries/FWLIB/src\gd32f4xx_timer.c ****       \arg        TIMER_CH_2: TIMER channel2
1045:C:/Users/leonardo/Desktop/Code/Github/DawnBGC/Libraries/FWLIB/src\gd32f4xx_timer.c ****       \arg        TIMER_CH_3: TIMER channel3
1046:C:/Users/leonardo/Desktop/Code/Github/DawnBGC/Libraries/FWLIB/src\gd32f4xx_timer.c ****     \param[in]  timer_occlear: channel output clear function
1047:C:/Users/leonardo/Desktop/Code/Github/DawnBGC/Libraries/FWLIB/src\gd32f4xx_timer.c ****       \arg        TIMER_OC_CLEAR_ENABLE: channel output clear function enable
1048:C:/Users/leonardo/Desktop/Code/Github/DawnBGC/Libraries/FWLIB/src\gd32f4xx_timer.c ****       \arg        TIMER_OC_CLEAR_DISABLE: channel output clear function disable
1049:C:/Users/leonardo/Desktop/Code/Github/DawnBGC/Libraries/FWLIB/src\gd32f4xx_timer.c ****     \param[out] none
1050:C:/Users/leonardo/Desktop/Code/Github/DawnBGC/Libraries/FWLIB/src\gd32f4xx_timer.c ****     \retval     none
1051:C:/Users/leonardo/Desktop/Code/Github/DawnBGC/Libraries/FWLIB/src\gd32f4xx_timer.c **** */
1052:C:/Users/leonardo/Desktop/Code/Github/DawnBGC/Libraries/FWLIB/src\gd32f4xx_timer.c **** void timer_channel_output_clear_config(uint32_t timer_periph,uint16_t timer_channel,uint16_t timer_
1053:C:/Users/leonardo/Desktop/Code/Github/DawnBGC/Libraries/FWLIB/src\gd32f4xx_timer.c **** {
 3534              		.loc 1 1053 1
 3535              		.cfi_startproc
 3536              		@ args = 0, pretend = 0, frame = 8
 3537              		@ frame_needed = 1, uses_anonymous_args = 0
 3538              		@ link register save eliminated.
 3539 0000 80B4     		push	{r7}
 3540              		.cfi_def_cfa_offset 4
 3541              		.cfi_offset 7, -4
 3542 0002 83B0     		sub	sp, sp, #12
 3543              		.cfi_def_cfa_offset 16
 3544 0004 00AF     		add	r7, sp, #0
 3545              		.cfi_def_cfa_register 7
 3546 0006 7860     		str	r0, [r7, #4]
 3547 0008 0B46     		mov	r3, r1
 3548 000a 7B80     		strh	r3, [r7, #2]	@ movhi
 3549 000c 1346     		mov	r3, r2	@ movhi
 3550 000e 3B80     		strh	r3, [r7]	@ movhi
1054:C:/Users/leonardo/Desktop/Code/Github/DawnBGC/Libraries/FWLIB/src\gd32f4xx_timer.c ****     switch(timer_channel){
 3551              		.loc 1 1054 5
 3552 0010 7B88     		ldrh	r3, [r7, #2]
 3553 0012 032B     		cmp	r3, #3
 3554 0014 50D8     		bhi	.L156
 3555 0016 01A2     		adr	r2, .L151
 3556 0018 52F823F0 		ldr	pc, [r2, r3, lsl #2]
 3557              		.p2align 2
 3558              	.L151:
 3559 001c 2D000000 		.word	.L154+1
 3560 0020 4F000000 		.word	.L153+1
 3561 0024 73000000 		.word	.L152+1
 3562 0028 95000000 		.word	.L150+1
 3563              		.p2align 1
 3564              	.L154:
1055:C:/Users/leonardo/Desktop/Code/Github/DawnBGC/Libraries/FWLIB/src\gd32f4xx_timer.c ****     /* configure TIMER_CH_0 */
1056:C:/Users/leonardo/Desktop/Code/Github/DawnBGC/Libraries/FWLIB/src\gd32f4xx_timer.c ****     case TIMER_CH_0:
1057:C:/Users/leonardo/Desktop/Code/Github/DawnBGC/Libraries/FWLIB/src\gd32f4xx_timer.c ****         TIMER_CHCTL0(timer_periph) &= (~(uint32_t)TIMER_CHCTL0_CH0COMCEN);
 3565              		.loc 1 1057 36
 3566 002c 7B68     		ldr	r3, [r7, #4]
 3567 002e 1833     		adds	r3, r3, #24
 3568 0030 1B68     		ldr	r3, [r3]
 3569 0032 7A68     		ldr	r2, [r7, #4]
 3570 0034 1832     		adds	r2, r2, #24
 3571 0036 23F08003 		bic	r3, r3, #128
 3572 003a 1360     		str	r3, [r2]
1058:C:/Users/leonardo/Desktop/Code/Github/DawnBGC/Libraries/FWLIB/src\gd32f4xx_timer.c ****         TIMER_CHCTL0(timer_periph) |= (uint32_t)timer_occlear;
 3573              		.loc 1 1058 36
 3574 003c 7B68     		ldr	r3, [r7, #4]
 3575 003e 1833     		adds	r3, r3, #24
 3576 0040 1A68     		ldr	r2, [r3]
 3577              		.loc 1 1058 39
 3578 0042 3B88     		ldrh	r3, [r7]
 3579              		.loc 1 1058 36
 3580 0044 7968     		ldr	r1, [r7, #4]
 3581 0046 1831     		adds	r1, r1, #24
 3582 0048 1343     		orrs	r3, r3, r2
 3583 004a 0B60     		str	r3, [r1]
1059:C:/Users/leonardo/Desktop/Code/Github/DawnBGC/Libraries/FWLIB/src\gd32f4xx_timer.c ****         break;
 3584              		.loc 1 1059 9
 3585 004c 35E0     		b	.L155
 3586              	.L153:
1060:C:/Users/leonardo/Desktop/Code/Github/DawnBGC/Libraries/FWLIB/src\gd32f4xx_timer.c ****     /* configure TIMER_CH_1 */
1061:C:/Users/leonardo/Desktop/Code/Github/DawnBGC/Libraries/FWLIB/src\gd32f4xx_timer.c ****     case TIMER_CH_1:
1062:C:/Users/leonardo/Desktop/Code/Github/DawnBGC/Libraries/FWLIB/src\gd32f4xx_timer.c ****         TIMER_CHCTL0(timer_periph) &= (~(uint32_t)TIMER_CHCTL0_CH1COMCEN);
 3587              		.loc 1 1062 36
 3588 004e 7B68     		ldr	r3, [r7, #4]
 3589 0050 1833     		adds	r3, r3, #24
 3590 0052 1B68     		ldr	r3, [r3]
 3591 0054 7A68     		ldr	r2, [r7, #4]
 3592 0056 1832     		adds	r2, r2, #24
 3593 0058 23F40043 		bic	r3, r3, #32768
 3594 005c 1360     		str	r3, [r2]
1063:C:/Users/leonardo/Desktop/Code/Github/DawnBGC/Libraries/FWLIB/src\gd32f4xx_timer.c ****         TIMER_CHCTL0(timer_periph) |= (uint32_t)((uint32_t)timer_occlear << 8U);
 3595              		.loc 1 1063 36
 3596 005e 7B68     		ldr	r3, [r7, #4]
 3597 0060 1833     		adds	r3, r3, #24
 3598 0062 1A68     		ldr	r2, [r3]
 3599              		.loc 1 1063 50
 3600 0064 3B88     		ldrh	r3, [r7]
 3601              		.loc 1 1063 39
 3602 0066 1B02     		lsls	r3, r3, #8
 3603              		.loc 1 1063 36
 3604 0068 7968     		ldr	r1, [r7, #4]
 3605 006a 1831     		adds	r1, r1, #24
 3606 006c 1343     		orrs	r3, r3, r2
 3607 006e 0B60     		str	r3, [r1]
1064:C:/Users/leonardo/Desktop/Code/Github/DawnBGC/Libraries/FWLIB/src\gd32f4xx_timer.c ****         break;
 3608              		.loc 1 1064 9
 3609 0070 23E0     		b	.L155
 3610              	.L152:
1065:C:/Users/leonardo/Desktop/Code/Github/DawnBGC/Libraries/FWLIB/src\gd32f4xx_timer.c ****     /* configure TIMER_CH_2 */
1066:C:/Users/leonardo/Desktop/Code/Github/DawnBGC/Libraries/FWLIB/src\gd32f4xx_timer.c ****     case TIMER_CH_2:
1067:C:/Users/leonardo/Desktop/Code/Github/DawnBGC/Libraries/FWLIB/src\gd32f4xx_timer.c ****         TIMER_CHCTL1(timer_periph) &= (~(uint32_t)TIMER_CHCTL1_CH2COMCEN);
 3611              		.loc 1 1067 36
 3612 0072 7B68     		ldr	r3, [r7, #4]
 3613 0074 1C33     		adds	r3, r3, #28
 3614 0076 1B68     		ldr	r3, [r3]
 3615 0078 7A68     		ldr	r2, [r7, #4]
 3616 007a 1C32     		adds	r2, r2, #28
 3617 007c 23F08003 		bic	r3, r3, #128
 3618 0080 1360     		str	r3, [r2]
1068:C:/Users/leonardo/Desktop/Code/Github/DawnBGC/Libraries/FWLIB/src\gd32f4xx_timer.c ****         TIMER_CHCTL1(timer_periph) |= (uint32_t)timer_occlear;
 3619              		.loc 1 1068 36
 3620 0082 7B68     		ldr	r3, [r7, #4]
 3621 0084 1C33     		adds	r3, r3, #28
 3622 0086 1A68     		ldr	r2, [r3]
 3623              		.loc 1 1068 39
 3624 0088 3B88     		ldrh	r3, [r7]
 3625              		.loc 1 1068 36
 3626 008a 7968     		ldr	r1, [r7, #4]
 3627 008c 1C31     		adds	r1, r1, #28
 3628 008e 1343     		orrs	r3, r3, r2
 3629 0090 0B60     		str	r3, [r1]
1069:C:/Users/leonardo/Desktop/Code/Github/DawnBGC/Libraries/FWLIB/src\gd32f4xx_timer.c ****         break;
 3630              		.loc 1 1069 9
 3631 0092 12E0     		b	.L155
 3632              	.L150:
1070:C:/Users/leonardo/Desktop/Code/Github/DawnBGC/Libraries/FWLIB/src\gd32f4xx_timer.c ****     /* configure TIMER_CH_3 */
1071:C:/Users/leonardo/Desktop/Code/Github/DawnBGC/Libraries/FWLIB/src\gd32f4xx_timer.c ****     case TIMER_CH_3:
1072:C:/Users/leonardo/Desktop/Code/Github/DawnBGC/Libraries/FWLIB/src\gd32f4xx_timer.c ****         TIMER_CHCTL1(timer_periph) &= (~(uint32_t)TIMER_CHCTL1_CH3COMCEN);
 3633              		.loc 1 1072 36
 3634 0094 7B68     		ldr	r3, [r7, #4]
 3635 0096 1C33     		adds	r3, r3, #28
 3636 0098 1B68     		ldr	r3, [r3]
 3637 009a 7A68     		ldr	r2, [r7, #4]
 3638 009c 1C32     		adds	r2, r2, #28
 3639 009e 23F40043 		bic	r3, r3, #32768
 3640 00a2 1360     		str	r3, [r2]
1073:C:/Users/leonardo/Desktop/Code/Github/DawnBGC/Libraries/FWLIB/src\gd32f4xx_timer.c ****         TIMER_CHCTL1(timer_periph) |= (uint32_t)((uint32_t)timer_occlear << 8U);
 3641              		.loc 1 1073 36
 3642 00a4 7B68     		ldr	r3, [r7, #4]
 3643 00a6 1C33     		adds	r3, r3, #28
 3644 00a8 1A68     		ldr	r2, [r3]
 3645              		.loc 1 1073 50
 3646 00aa 3B88     		ldrh	r3, [r7]
 3647              		.loc 1 1073 39
 3648 00ac 1B02     		lsls	r3, r3, #8
 3649              		.loc 1 1073 36
 3650 00ae 7968     		ldr	r1, [r7, #4]
 3651 00b0 1C31     		adds	r1, r1, #28
 3652 00b2 1343     		orrs	r3, r3, r2
 3653 00b4 0B60     		str	r3, [r1]
1074:C:/Users/leonardo/Desktop/Code/Github/DawnBGC/Libraries/FWLIB/src\gd32f4xx_timer.c ****         break;
 3654              		.loc 1 1074 9
 3655 00b6 00E0     		b	.L155
 3656              	.L156:
1075:C:/Users/leonardo/Desktop/Code/Github/DawnBGC/Libraries/FWLIB/src\gd32f4xx_timer.c ****     default:
1076:C:/Users/leonardo/Desktop/Code/Github/DawnBGC/Libraries/FWLIB/src\gd32f4xx_timer.c ****         break;
 3657              		.loc 1 1076 9
 3658 00b8 00BF     		nop
 3659              	.L155:
1077:C:/Users/leonardo/Desktop/Code/Github/DawnBGC/Libraries/FWLIB/src\gd32f4xx_timer.c ****     }
1078:C:/Users/leonardo/Desktop/Code/Github/DawnBGC/Libraries/FWLIB/src\gd32f4xx_timer.c **** }
 3660              		.loc 1 1078 1
 3661 00ba 00BF     		nop
 3662 00bc 0C37     		adds	r7, r7, #12
 3663              		.cfi_def_cfa_offset 4
 3664 00be BD46     		mov	sp, r7
 3665              		.cfi_def_cfa_register 13
 3666              		@ sp needed
 3667 00c0 80BC     		pop	{r7}
 3668              		.cfi_restore 7
 3669              		.cfi_def_cfa_offset 0
 3670 00c2 7047     		bx	lr
 3671              		.cfi_endproc
 3672              	.LFE166:
 3674              		.section	.text.timer_channel_output_polarity_config,"ax",%progbits
 3675              		.align	1
 3676              		.global	timer_channel_output_polarity_config
 3677              		.syntax unified
 3678              		.thumb
 3679              		.thumb_func
 3680              		.fpu softvfp
 3682              	timer_channel_output_polarity_config:
 3683              	.LFB167:
1079:C:/Users/leonardo/Desktop/Code/Github/DawnBGC/Libraries/FWLIB/src\gd32f4xx_timer.c **** 
1080:C:/Users/leonardo/Desktop/Code/Github/DawnBGC/Libraries/FWLIB/src\gd32f4xx_timer.c **** /*!
1081:C:/Users/leonardo/Desktop/Code/Github/DawnBGC/Libraries/FWLIB/src\gd32f4xx_timer.c ****     \brief      configure TIMER channel output polarity 
1082:C:/Users/leonardo/Desktop/Code/Github/DawnBGC/Libraries/FWLIB/src\gd32f4xx_timer.c ****     \param[in]  timer_periph: please refer to the following parameters
1083:C:/Users/leonardo/Desktop/Code/Github/DawnBGC/Libraries/FWLIB/src\gd32f4xx_timer.c ****     \param[in]  timer_channel: 
1084:C:/Users/leonardo/Desktop/Code/Github/DawnBGC/Libraries/FWLIB/src\gd32f4xx_timer.c ****       \arg        TIMER_CH_0: TIMER channel0(TIMERx(x=0..4,7..13))
1085:C:/Users/leonardo/Desktop/Code/Github/DawnBGC/Libraries/FWLIB/src\gd32f4xx_timer.c ****       \arg        TIMER_CH_1: TIMER channel1(TIMERx(x=0..4,7,8,11))
1086:C:/Users/leonardo/Desktop/Code/Github/DawnBGC/Libraries/FWLIB/src\gd32f4xx_timer.c ****       \arg        TIMER_CH_2: TIMER channel2(TIMERx(x=0..4,7))
1087:C:/Users/leonardo/Desktop/Code/Github/DawnBGC/Libraries/FWLIB/src\gd32f4xx_timer.c ****       \arg        TIMER_CH_3: TIMER channel3(TIMERx(x=0..4,7))
1088:C:/Users/leonardo/Desktop/Code/Github/DawnBGC/Libraries/FWLIB/src\gd32f4xx_timer.c ****     \param[in]  timer_ocpolarity: channel output polarity 
1089:C:/Users/leonardo/Desktop/Code/Github/DawnBGC/Libraries/FWLIB/src\gd32f4xx_timer.c ****       \arg        TIMER_OC_POLARITY_HIGH: channel output polarity is high
1090:C:/Users/leonardo/Desktop/Code/Github/DawnBGC/Libraries/FWLIB/src\gd32f4xx_timer.c ****       \arg        TIMER_OC_POLARITY_LOW: channel output polarity is low
1091:C:/Users/leonardo/Desktop/Code/Github/DawnBGC/Libraries/FWLIB/src\gd32f4xx_timer.c ****     \param[out] none
1092:C:/Users/leonardo/Desktop/Code/Github/DawnBGC/Libraries/FWLIB/src\gd32f4xx_timer.c ****     \retval     none
1093:C:/Users/leonardo/Desktop/Code/Github/DawnBGC/Libraries/FWLIB/src\gd32f4xx_timer.c **** */
1094:C:/Users/leonardo/Desktop/Code/Github/DawnBGC/Libraries/FWLIB/src\gd32f4xx_timer.c **** void timer_channel_output_polarity_config(uint32_t timer_periph,uint16_t timer_channel,uint16_t tim
1095:C:/Users/leonardo/Desktop/Code/Github/DawnBGC/Libraries/FWLIB/src\gd32f4xx_timer.c **** {
 3684              		.loc 1 1095 1
 3685              		.cfi_startproc
 3686              		@ args = 0, pretend = 0, frame = 8
 3687              		@ frame_needed = 1, uses_anonymous_args = 0
 3688              		@ link register save eliminated.
 3689 0000 80B4     		push	{r7}
 3690              		.cfi_def_cfa_offset 4
 3691              		.cfi_offset 7, -4
 3692 0002 83B0     		sub	sp, sp, #12
 3693              		.cfi_def_cfa_offset 16
 3694 0004 00AF     		add	r7, sp, #0
 3695              		.cfi_def_cfa_register 7
 3696 0006 7860     		str	r0, [r7, #4]
 3697 0008 0B46     		mov	r3, r1
 3698 000a 7B80     		strh	r3, [r7, #2]	@ movhi
 3699 000c 1346     		mov	r3, r2	@ movhi
 3700 000e 3B80     		strh	r3, [r7]	@ movhi
1096:C:/Users/leonardo/Desktop/Code/Github/DawnBGC/Libraries/FWLIB/src\gd32f4xx_timer.c ****     switch(timer_channel){
 3701              		.loc 1 1096 5
 3702 0010 7B88     		ldrh	r3, [r7, #2]
 3703 0012 032B     		cmp	r3, #3
 3704 0014 51D8     		bhi	.L165
 3705 0016 01A2     		adr	r2, .L160
 3706 0018 52F823F0 		ldr	pc, [r2, r3, lsl #2]
 3707              		.p2align 2
 3708              	.L160:
 3709 001c 2D000000 		.word	.L163+1
 3710 0020 4F000000 		.word	.L162+1
 3711 0024 73000000 		.word	.L161+1
 3712 0028 97000000 		.word	.L159+1
 3713              		.p2align 1
 3714              	.L163:
1097:C:/Users/leonardo/Desktop/Code/Github/DawnBGC/Libraries/FWLIB/src\gd32f4xx_timer.c ****     /* configure TIMER_CH_0 */
1098:C:/Users/leonardo/Desktop/Code/Github/DawnBGC/Libraries/FWLIB/src\gd32f4xx_timer.c ****     case TIMER_CH_0:
1099:C:/Users/leonardo/Desktop/Code/Github/DawnBGC/Libraries/FWLIB/src\gd32f4xx_timer.c ****         TIMER_CHCTL2(timer_periph) &= (~(uint32_t)TIMER_CHCTL2_CH0P);
 3715              		.loc 1 1099 36
 3716 002c 7B68     		ldr	r3, [r7, #4]
 3717 002e 2033     		adds	r3, r3, #32
 3718 0030 1B68     		ldr	r3, [r3]
 3719 0032 7A68     		ldr	r2, [r7, #4]
 3720 0034 2032     		adds	r2, r2, #32
 3721 0036 23F00203 		bic	r3, r3, #2
 3722 003a 1360     		str	r3, [r2]
1100:C:/Users/leonardo/Desktop/Code/Github/DawnBGC/Libraries/FWLIB/src\gd32f4xx_timer.c ****         TIMER_CHCTL2(timer_periph) |= (uint32_t)timer_ocpolarity;
 3723              		.loc 1 1100 36
 3724 003c 7B68     		ldr	r3, [r7, #4]
 3725 003e 2033     		adds	r3, r3, #32
 3726 0040 1A68     		ldr	r2, [r3]
 3727              		.loc 1 1100 39
 3728 0042 3B88     		ldrh	r3, [r7]
 3729              		.loc 1 1100 36
 3730 0044 7968     		ldr	r1, [r7, #4]
 3731 0046 2031     		adds	r1, r1, #32
 3732 0048 1343     		orrs	r3, r3, r2
 3733 004a 0B60     		str	r3, [r1]
1101:C:/Users/leonardo/Desktop/Code/Github/DawnBGC/Libraries/FWLIB/src\gd32f4xx_timer.c ****         break;
 3734              		.loc 1 1101 9
 3735 004c 36E0     		b	.L164
 3736              	.L162:
1102:C:/Users/leonardo/Desktop/Code/Github/DawnBGC/Libraries/FWLIB/src\gd32f4xx_timer.c ****     /* configure TIMER_CH_1 */
1103:C:/Users/leonardo/Desktop/Code/Github/DawnBGC/Libraries/FWLIB/src\gd32f4xx_timer.c ****     case TIMER_CH_1:
1104:C:/Users/leonardo/Desktop/Code/Github/DawnBGC/Libraries/FWLIB/src\gd32f4xx_timer.c ****         TIMER_CHCTL2(timer_periph) &= (~(uint32_t)TIMER_CHCTL2_CH1P);
 3737              		.loc 1 1104 36
 3738 004e 7B68     		ldr	r3, [r7, #4]
 3739 0050 2033     		adds	r3, r3, #32
 3740 0052 1B68     		ldr	r3, [r3]
 3741 0054 7A68     		ldr	r2, [r7, #4]
 3742 0056 2032     		adds	r2, r2, #32
 3743 0058 23F02003 		bic	r3, r3, #32
 3744 005c 1360     		str	r3, [r2]
1105:C:/Users/leonardo/Desktop/Code/Github/DawnBGC/Libraries/FWLIB/src\gd32f4xx_timer.c ****         TIMER_CHCTL2(timer_periph) |= (uint32_t)((uint32_t)timer_ocpolarity << 4U);
 3745              		.loc 1 1105 36
 3746 005e 7B68     		ldr	r3, [r7, #4]
 3747 0060 2033     		adds	r3, r3, #32
 3748 0062 1A68     		ldr	r2, [r3]
 3749              		.loc 1 1105 50
 3750 0064 3B88     		ldrh	r3, [r7]
 3751              		.loc 1 1105 39
 3752 0066 1B01     		lsls	r3, r3, #4
 3753              		.loc 1 1105 36
 3754 0068 7968     		ldr	r1, [r7, #4]
 3755 006a 2031     		adds	r1, r1, #32
 3756 006c 1343     		orrs	r3, r3, r2
 3757 006e 0B60     		str	r3, [r1]
1106:C:/Users/leonardo/Desktop/Code/Github/DawnBGC/Libraries/FWLIB/src\gd32f4xx_timer.c ****         break;
 3758              		.loc 1 1106 9
 3759 0070 24E0     		b	.L164
 3760              	.L161:
1107:C:/Users/leonardo/Desktop/Code/Github/DawnBGC/Libraries/FWLIB/src\gd32f4xx_timer.c ****     /* configure TIMER_CH_2 */
1108:C:/Users/leonardo/Desktop/Code/Github/DawnBGC/Libraries/FWLIB/src\gd32f4xx_timer.c ****     case TIMER_CH_2:
1109:C:/Users/leonardo/Desktop/Code/Github/DawnBGC/Libraries/FWLIB/src\gd32f4xx_timer.c ****         TIMER_CHCTL2(timer_periph) &= (~(uint32_t)TIMER_CHCTL2_CH2P);
 3761              		.loc 1 1109 36
 3762 0072 7B68     		ldr	r3, [r7, #4]
 3763 0074 2033     		adds	r3, r3, #32
 3764 0076 1B68     		ldr	r3, [r3]
 3765 0078 7A68     		ldr	r2, [r7, #4]
 3766 007a 2032     		adds	r2, r2, #32
 3767 007c 23F40073 		bic	r3, r3, #512
 3768 0080 1360     		str	r3, [r2]
1110:C:/Users/leonardo/Desktop/Code/Github/DawnBGC/Libraries/FWLIB/src\gd32f4xx_timer.c ****         TIMER_CHCTL2(timer_periph) |= (uint32_t)((uint32_t)timer_ocpolarity << 8U);
 3769              		.loc 1 1110 36
 3770 0082 7B68     		ldr	r3, [r7, #4]
 3771 0084 2033     		adds	r3, r3, #32
 3772 0086 1A68     		ldr	r2, [r3]
 3773              		.loc 1 1110 50
 3774 0088 3B88     		ldrh	r3, [r7]
 3775              		.loc 1 1110 39
 3776 008a 1B02     		lsls	r3, r3, #8
 3777              		.loc 1 1110 36
 3778 008c 7968     		ldr	r1, [r7, #4]
 3779 008e 2031     		adds	r1, r1, #32
 3780 0090 1343     		orrs	r3, r3, r2
 3781 0092 0B60     		str	r3, [r1]
1111:C:/Users/leonardo/Desktop/Code/Github/DawnBGC/Libraries/FWLIB/src\gd32f4xx_timer.c ****         break;
 3782              		.loc 1 1111 9
 3783 0094 12E0     		b	.L164
 3784              	.L159:
1112:C:/Users/leonardo/Desktop/Code/Github/DawnBGC/Libraries/FWLIB/src\gd32f4xx_timer.c ****     /* configure TIMER_CH_3 */
1113:C:/Users/leonardo/Desktop/Code/Github/DawnBGC/Libraries/FWLIB/src\gd32f4xx_timer.c ****     case TIMER_CH_3:
1114:C:/Users/leonardo/Desktop/Code/Github/DawnBGC/Libraries/FWLIB/src\gd32f4xx_timer.c ****         TIMER_CHCTL2(timer_periph) &= (~(uint32_t)TIMER_CHCTL2_CH3P);
 3785              		.loc 1 1114 36
 3786 0096 7B68     		ldr	r3, [r7, #4]
 3787 0098 2033     		adds	r3, r3, #32
 3788 009a 1B68     		ldr	r3, [r3]
 3789 009c 7A68     		ldr	r2, [r7, #4]
 3790 009e 2032     		adds	r2, r2, #32
 3791 00a0 23F40053 		bic	r3, r3, #8192
 3792 00a4 1360     		str	r3, [r2]
1115:C:/Users/leonardo/Desktop/Code/Github/DawnBGC/Libraries/FWLIB/src\gd32f4xx_timer.c ****         TIMER_CHCTL2(timer_periph) |= (uint32_t)((uint32_t)timer_ocpolarity << 12U);
 3793              		.loc 1 1115 36
 3794 00a6 7B68     		ldr	r3, [r7, #4]
 3795 00a8 2033     		adds	r3, r3, #32
 3796 00aa 1A68     		ldr	r2, [r3]
 3797              		.loc 1 1115 50
 3798 00ac 3B88     		ldrh	r3, [r7]
 3799              		.loc 1 1115 39
 3800 00ae 1B03     		lsls	r3, r3, #12
 3801              		.loc 1 1115 36
 3802 00b0 7968     		ldr	r1, [r7, #4]
 3803 00b2 2031     		adds	r1, r1, #32
 3804 00b4 1343     		orrs	r3, r3, r2
 3805 00b6 0B60     		str	r3, [r1]
1116:C:/Users/leonardo/Desktop/Code/Github/DawnBGC/Libraries/FWLIB/src\gd32f4xx_timer.c ****         break;
 3806              		.loc 1 1116 9
 3807 00b8 00E0     		b	.L164
 3808              	.L165:
1117:C:/Users/leonardo/Desktop/Code/Github/DawnBGC/Libraries/FWLIB/src\gd32f4xx_timer.c ****     default:
1118:C:/Users/leonardo/Desktop/Code/Github/DawnBGC/Libraries/FWLIB/src\gd32f4xx_timer.c ****         break;
 3809              		.loc 1 1118 9
 3810 00ba 00BF     		nop
 3811              	.L164:
1119:C:/Users/leonardo/Desktop/Code/Github/DawnBGC/Libraries/FWLIB/src\gd32f4xx_timer.c ****     }
1120:C:/Users/leonardo/Desktop/Code/Github/DawnBGC/Libraries/FWLIB/src\gd32f4xx_timer.c **** }
 3812              		.loc 1 1120 1
 3813 00bc 00BF     		nop
 3814 00be 0C37     		adds	r7, r7, #12
 3815              		.cfi_def_cfa_offset 4
 3816 00c0 BD46     		mov	sp, r7
 3817              		.cfi_def_cfa_register 13
 3818              		@ sp needed
 3819 00c2 80BC     		pop	{r7}
 3820              		.cfi_restore 7
 3821              		.cfi_def_cfa_offset 0
 3822 00c4 7047     		bx	lr
 3823              		.cfi_endproc
 3824              	.LFE167:
 3826 00c6 00BF     		.section	.text.timer_channel_complementary_output_polarity_config,"ax",%progbits
 3827              		.align	1
 3828              		.global	timer_channel_complementary_output_polarity_config
 3829              		.syntax unified
 3830              		.thumb
 3831              		.thumb_func
 3832              		.fpu softvfp
 3834              	timer_channel_complementary_output_polarity_config:
 3835              	.LFB168:
1121:C:/Users/leonardo/Desktop/Code/Github/DawnBGC/Libraries/FWLIB/src\gd32f4xx_timer.c **** 
1122:C:/Users/leonardo/Desktop/Code/Github/DawnBGC/Libraries/FWLIB/src\gd32f4xx_timer.c **** /*!
1123:C:/Users/leonardo/Desktop/Code/Github/DawnBGC/Libraries/FWLIB/src\gd32f4xx_timer.c ****     \brief      configure TIMER channel complementary output polarity 
1124:C:/Users/leonardo/Desktop/Code/Github/DawnBGC/Libraries/FWLIB/src\gd32f4xx_timer.c ****     \param[in]  timer_periph: TIMERx(x=0,7)
1125:C:/Users/leonardo/Desktop/Code/Github/DawnBGC/Libraries/FWLIB/src\gd32f4xx_timer.c ****     \param[in]  timer_channel: 
1126:C:/Users/leonardo/Desktop/Code/Github/DawnBGC/Libraries/FWLIB/src\gd32f4xx_timer.c ****       \arg        TIMER_CH_0: TIMER channel0(TIMERx(x=0..4,7..13))
1127:C:/Users/leonardo/Desktop/Code/Github/DawnBGC/Libraries/FWLIB/src\gd32f4xx_timer.c ****       \arg        TIMER_CH_1: TIMER channel1(TIMERx(x=0..4,7,8,11))
1128:C:/Users/leonardo/Desktop/Code/Github/DawnBGC/Libraries/FWLIB/src\gd32f4xx_timer.c ****       \arg        TIMER_CH_2: TIMER channel2(TIMERx(x=0..4,7))
1129:C:/Users/leonardo/Desktop/Code/Github/DawnBGC/Libraries/FWLIB/src\gd32f4xx_timer.c ****     \param[in]  timer_ocnpolarity: channel complementary output polarity 
1130:C:/Users/leonardo/Desktop/Code/Github/DawnBGC/Libraries/FWLIB/src\gd32f4xx_timer.c ****       \arg        TIMER_OCN_POLARITY_HIGH: channel complementary output polarity is high
1131:C:/Users/leonardo/Desktop/Code/Github/DawnBGC/Libraries/FWLIB/src\gd32f4xx_timer.c ****       \arg        TIMER_OCN_POLARITY_LOW: channel complementary output polarity is low
1132:C:/Users/leonardo/Desktop/Code/Github/DawnBGC/Libraries/FWLIB/src\gd32f4xx_timer.c ****     \param[out] none
1133:C:/Users/leonardo/Desktop/Code/Github/DawnBGC/Libraries/FWLIB/src\gd32f4xx_timer.c ****     \retval     none
1134:C:/Users/leonardo/Desktop/Code/Github/DawnBGC/Libraries/FWLIB/src\gd32f4xx_timer.c **** */
1135:C:/Users/leonardo/Desktop/Code/Github/DawnBGC/Libraries/FWLIB/src\gd32f4xx_timer.c **** void timer_channel_complementary_output_polarity_config(uint32_t timer_periph,uint16_t timer_channe
1136:C:/Users/leonardo/Desktop/Code/Github/DawnBGC/Libraries/FWLIB/src\gd32f4xx_timer.c **** {
 3836              		.loc 1 1136 1
 3837              		.cfi_startproc
 3838              		@ args = 0, pretend = 0, frame = 8
 3839              		@ frame_needed = 1, uses_anonymous_args = 0
 3840              		@ link register save eliminated.
 3841 0000 80B4     		push	{r7}
 3842              		.cfi_def_cfa_offset 4
 3843              		.cfi_offset 7, -4
 3844 0002 83B0     		sub	sp, sp, #12
 3845              		.cfi_def_cfa_offset 16
 3846 0004 00AF     		add	r7, sp, #0
 3847              		.cfi_def_cfa_register 7
 3848 0006 7860     		str	r0, [r7, #4]
 3849 0008 0B46     		mov	r3, r1
 3850 000a 7B80     		strh	r3, [r7, #2]	@ movhi
 3851 000c 1346     		mov	r3, r2	@ movhi
 3852 000e 3B80     		strh	r3, [r7]	@ movhi
1137:C:/Users/leonardo/Desktop/Code/Github/DawnBGC/Libraries/FWLIB/src\gd32f4xx_timer.c ****     switch(timer_channel){
 3853              		.loc 1 1137 5
 3854 0010 7B88     		ldrh	r3, [r7, #2]
 3855 0012 022B     		cmp	r3, #2
 3856 0014 29D0     		beq	.L167
 3857 0016 022B     		cmp	r3, #2
 3858 0018 39DC     		bgt	.L172
 3859 001a 002B     		cmp	r3, #0
 3860 001c 02D0     		beq	.L169
 3861 001e 012B     		cmp	r3, #1
 3862 0020 11D0     		beq	.L170
1138:C:/Users/leonardo/Desktop/Code/Github/DawnBGC/Libraries/FWLIB/src\gd32f4xx_timer.c ****     /* configure TIMER_CH_0 */
1139:C:/Users/leonardo/Desktop/Code/Github/DawnBGC/Libraries/FWLIB/src\gd32f4xx_timer.c ****     case TIMER_CH_0:
1140:C:/Users/leonardo/Desktop/Code/Github/DawnBGC/Libraries/FWLIB/src\gd32f4xx_timer.c ****         TIMER_CHCTL2(timer_periph) &= (~(uint32_t)TIMER_CHCTL2_CH0NP);
1141:C:/Users/leonardo/Desktop/Code/Github/DawnBGC/Libraries/FWLIB/src\gd32f4xx_timer.c ****         TIMER_CHCTL2(timer_periph) |= (uint32_t)timer_ocnpolarity;
1142:C:/Users/leonardo/Desktop/Code/Github/DawnBGC/Libraries/FWLIB/src\gd32f4xx_timer.c ****         break;
1143:C:/Users/leonardo/Desktop/Code/Github/DawnBGC/Libraries/FWLIB/src\gd32f4xx_timer.c ****     /* configure TIMER_CH_1 */
1144:C:/Users/leonardo/Desktop/Code/Github/DawnBGC/Libraries/FWLIB/src\gd32f4xx_timer.c ****     case TIMER_CH_1:
1145:C:/Users/leonardo/Desktop/Code/Github/DawnBGC/Libraries/FWLIB/src\gd32f4xx_timer.c ****         TIMER_CHCTL2(timer_periph) &= (~(uint32_t)TIMER_CHCTL2_CH1NP);
1146:C:/Users/leonardo/Desktop/Code/Github/DawnBGC/Libraries/FWLIB/src\gd32f4xx_timer.c ****         TIMER_CHCTL2(timer_periph) |= (uint32_t)((uint32_t)timer_ocnpolarity << 4U);
1147:C:/Users/leonardo/Desktop/Code/Github/DawnBGC/Libraries/FWLIB/src\gd32f4xx_timer.c ****         break;
1148:C:/Users/leonardo/Desktop/Code/Github/DawnBGC/Libraries/FWLIB/src\gd32f4xx_timer.c ****     /* configure TIMER_CH_2 */
1149:C:/Users/leonardo/Desktop/Code/Github/DawnBGC/Libraries/FWLIB/src\gd32f4xx_timer.c ****     case TIMER_CH_2:
1150:C:/Users/leonardo/Desktop/Code/Github/DawnBGC/Libraries/FWLIB/src\gd32f4xx_timer.c ****         TIMER_CHCTL2(timer_periph) &= (~(uint32_t)TIMER_CHCTL2_CH2NP);
1151:C:/Users/leonardo/Desktop/Code/Github/DawnBGC/Libraries/FWLIB/src\gd32f4xx_timer.c ****         TIMER_CHCTL2(timer_periph) |= (uint32_t)((uint32_t)timer_ocnpolarity << 8U);
1152:C:/Users/leonardo/Desktop/Code/Github/DawnBGC/Libraries/FWLIB/src\gd32f4xx_timer.c ****         break;
1153:C:/Users/leonardo/Desktop/Code/Github/DawnBGC/Libraries/FWLIB/src\gd32f4xx_timer.c ****     default:
1154:C:/Users/leonardo/Desktop/Code/Github/DawnBGC/Libraries/FWLIB/src\gd32f4xx_timer.c ****         break;
 3863              		.loc 1 1154 9
 3864 0022 34E0     		b	.L172
 3865              	.L169:
1140:C:/Users/leonardo/Desktop/Code/Github/DawnBGC/Libraries/FWLIB/src\gd32f4xx_timer.c ****         TIMER_CHCTL2(timer_periph) |= (uint32_t)timer_ocnpolarity;
 3866              		.loc 1 1140 36
 3867 0024 7B68     		ldr	r3, [r7, #4]
 3868 0026 2033     		adds	r3, r3, #32
 3869 0028 1B68     		ldr	r3, [r3]
 3870 002a 7A68     		ldr	r2, [r7, #4]
 3871 002c 2032     		adds	r2, r2, #32
 3872 002e 23F00803 		bic	r3, r3, #8
 3873 0032 1360     		str	r3, [r2]
1141:C:/Users/leonardo/Desktop/Code/Github/DawnBGC/Libraries/FWLIB/src\gd32f4xx_timer.c ****         break;
 3874              		.loc 1 1141 36
 3875 0034 7B68     		ldr	r3, [r7, #4]
 3876 0036 2033     		adds	r3, r3, #32
 3877 0038 1A68     		ldr	r2, [r3]
1141:C:/Users/leonardo/Desktop/Code/Github/DawnBGC/Libraries/FWLIB/src\gd32f4xx_timer.c ****         break;
 3878              		.loc 1 1141 39
 3879 003a 3B88     		ldrh	r3, [r7]
1141:C:/Users/leonardo/Desktop/Code/Github/DawnBGC/Libraries/FWLIB/src\gd32f4xx_timer.c ****         break;
 3880              		.loc 1 1141 36
 3881 003c 7968     		ldr	r1, [r7, #4]
 3882 003e 2031     		adds	r1, r1, #32
 3883 0040 1343     		orrs	r3, r3, r2
 3884 0042 0B60     		str	r3, [r1]
1142:C:/Users/leonardo/Desktop/Code/Github/DawnBGC/Libraries/FWLIB/src\gd32f4xx_timer.c ****     /* configure TIMER_CH_1 */
 3885              		.loc 1 1142 9
 3886 0044 24E0     		b	.L171
 3887              	.L170:
1145:C:/Users/leonardo/Desktop/Code/Github/DawnBGC/Libraries/FWLIB/src\gd32f4xx_timer.c ****         TIMER_CHCTL2(timer_periph) |= (uint32_t)((uint32_t)timer_ocnpolarity << 4U);
 3888              		.loc 1 1145 36
 3889 0046 7B68     		ldr	r3, [r7, #4]
 3890 0048 2033     		adds	r3, r3, #32
 3891 004a 1B68     		ldr	r3, [r3]
 3892 004c 7A68     		ldr	r2, [r7, #4]
 3893 004e 2032     		adds	r2, r2, #32
 3894 0050 23F08003 		bic	r3, r3, #128
 3895 0054 1360     		str	r3, [r2]
1146:C:/Users/leonardo/Desktop/Code/Github/DawnBGC/Libraries/FWLIB/src\gd32f4xx_timer.c ****         break;
 3896              		.loc 1 1146 36
 3897 0056 7B68     		ldr	r3, [r7, #4]
 3898 0058 2033     		adds	r3, r3, #32
 3899 005a 1A68     		ldr	r2, [r3]
1146:C:/Users/leonardo/Desktop/Code/Github/DawnBGC/Libraries/FWLIB/src\gd32f4xx_timer.c ****         break;
 3900              		.loc 1 1146 50
 3901 005c 3B88     		ldrh	r3, [r7]
1146:C:/Users/leonardo/Desktop/Code/Github/DawnBGC/Libraries/FWLIB/src\gd32f4xx_timer.c ****         break;
 3902              		.loc 1 1146 39
 3903 005e 1B01     		lsls	r3, r3, #4
1146:C:/Users/leonardo/Desktop/Code/Github/DawnBGC/Libraries/FWLIB/src\gd32f4xx_timer.c ****         break;
 3904              		.loc 1 1146 36
 3905 0060 7968     		ldr	r1, [r7, #4]
 3906 0062 2031     		adds	r1, r1, #32
 3907 0064 1343     		orrs	r3, r3, r2
 3908 0066 0B60     		str	r3, [r1]
1147:C:/Users/leonardo/Desktop/Code/Github/DawnBGC/Libraries/FWLIB/src\gd32f4xx_timer.c ****     /* configure TIMER_CH_2 */
 3909              		.loc 1 1147 9
 3910 0068 12E0     		b	.L171
 3911              	.L167:
1150:C:/Users/leonardo/Desktop/Code/Github/DawnBGC/Libraries/FWLIB/src\gd32f4xx_timer.c ****         TIMER_CHCTL2(timer_periph) |= (uint32_t)((uint32_t)timer_ocnpolarity << 8U);
 3912              		.loc 1 1150 36
 3913 006a 7B68     		ldr	r3, [r7, #4]
 3914 006c 2033     		adds	r3, r3, #32
 3915 006e 1B68     		ldr	r3, [r3]
 3916 0070 7A68     		ldr	r2, [r7, #4]
 3917 0072 2032     		adds	r2, r2, #32
 3918 0074 23F40063 		bic	r3, r3, #2048
 3919 0078 1360     		str	r3, [r2]
1151:C:/Users/leonardo/Desktop/Code/Github/DawnBGC/Libraries/FWLIB/src\gd32f4xx_timer.c ****         break;
 3920              		.loc 1 1151 36
 3921 007a 7B68     		ldr	r3, [r7, #4]
 3922 007c 2033     		adds	r3, r3, #32
 3923 007e 1A68     		ldr	r2, [r3]
1151:C:/Users/leonardo/Desktop/Code/Github/DawnBGC/Libraries/FWLIB/src\gd32f4xx_timer.c ****         break;
 3924              		.loc 1 1151 50
 3925 0080 3B88     		ldrh	r3, [r7]
1151:C:/Users/leonardo/Desktop/Code/Github/DawnBGC/Libraries/FWLIB/src\gd32f4xx_timer.c ****         break;
 3926              		.loc 1 1151 39
 3927 0082 1B02     		lsls	r3, r3, #8
1151:C:/Users/leonardo/Desktop/Code/Github/DawnBGC/Libraries/FWLIB/src\gd32f4xx_timer.c ****         break;
 3928              		.loc 1 1151 36
 3929 0084 7968     		ldr	r1, [r7, #4]
 3930 0086 2031     		adds	r1, r1, #32
 3931 0088 1343     		orrs	r3, r3, r2
 3932 008a 0B60     		str	r3, [r1]
1152:C:/Users/leonardo/Desktop/Code/Github/DawnBGC/Libraries/FWLIB/src\gd32f4xx_timer.c ****     default:
 3933              		.loc 1 1152 9
 3934 008c 00E0     		b	.L171
 3935              	.L172:
 3936              		.loc 1 1154 9
 3937 008e 00BF     		nop
 3938              	.L171:
1155:C:/Users/leonardo/Desktop/Code/Github/DawnBGC/Libraries/FWLIB/src\gd32f4xx_timer.c ****     }
1156:C:/Users/leonardo/Desktop/Code/Github/DawnBGC/Libraries/FWLIB/src\gd32f4xx_timer.c **** }
 3939              		.loc 1 1156 1
 3940 0090 00BF     		nop
 3941 0092 0C37     		adds	r7, r7, #12
 3942              		.cfi_def_cfa_offset 4
 3943 0094 BD46     		mov	sp, r7
 3944              		.cfi_def_cfa_register 13
 3945              		@ sp needed
 3946 0096 80BC     		pop	{r7}
 3947              		.cfi_restore 7
 3948              		.cfi_def_cfa_offset 0
 3949 0098 7047     		bx	lr
 3950              		.cfi_endproc
 3951              	.LFE168:
 3953              		.section	.text.timer_channel_output_state_config,"ax",%progbits
 3954              		.align	1
 3955              		.global	timer_channel_output_state_config
 3956              		.syntax unified
 3957              		.thumb
 3958              		.thumb_func
 3959              		.fpu softvfp
 3961              	timer_channel_output_state_config:
 3962              	.LFB169:
1157:C:/Users/leonardo/Desktop/Code/Github/DawnBGC/Libraries/FWLIB/src\gd32f4xx_timer.c **** 
1158:C:/Users/leonardo/Desktop/Code/Github/DawnBGC/Libraries/FWLIB/src\gd32f4xx_timer.c **** /*!
1159:C:/Users/leonardo/Desktop/Code/Github/DawnBGC/Libraries/FWLIB/src\gd32f4xx_timer.c ****     \brief      configure TIMER channel enable state
1160:C:/Users/leonardo/Desktop/Code/Github/DawnBGC/Libraries/FWLIB/src\gd32f4xx_timer.c ****     \param[in]  timer_periph: please refer to the following parameters
1161:C:/Users/leonardo/Desktop/Code/Github/DawnBGC/Libraries/FWLIB/src\gd32f4xx_timer.c ****     \param[in]  timer_channel: 
1162:C:/Users/leonardo/Desktop/Code/Github/DawnBGC/Libraries/FWLIB/src\gd32f4xx_timer.c ****       \arg        TIMER_CH_0: TIMER channel0(TIMERx(x=0..4,7..13))
1163:C:/Users/leonardo/Desktop/Code/Github/DawnBGC/Libraries/FWLIB/src\gd32f4xx_timer.c ****       \arg        TIMER_CH_1: TIMER channel1(TIMERx(x=0..4,7,8,11))
1164:C:/Users/leonardo/Desktop/Code/Github/DawnBGC/Libraries/FWLIB/src\gd32f4xx_timer.c ****       \arg        TIMER_CH_2: TIMER channel2(TIMERx(x=0..4,7))
1165:C:/Users/leonardo/Desktop/Code/Github/DawnBGC/Libraries/FWLIB/src\gd32f4xx_timer.c ****       \arg        TIMER_CH_3: TIMER channel3(TIMERx(x=0..4,7))
1166:C:/Users/leonardo/Desktop/Code/Github/DawnBGC/Libraries/FWLIB/src\gd32f4xx_timer.c ****     \param[in]  timer_state: TIMER channel enable state
1167:C:/Users/leonardo/Desktop/Code/Github/DawnBGC/Libraries/FWLIB/src\gd32f4xx_timer.c ****       \arg        TIMER_CCX_ENABLE: channel enable 
1168:C:/Users/leonardo/Desktop/Code/Github/DawnBGC/Libraries/FWLIB/src\gd32f4xx_timer.c ****       \arg        TIMER_CCX_DISABLE: channel disable 
1169:C:/Users/leonardo/Desktop/Code/Github/DawnBGC/Libraries/FWLIB/src\gd32f4xx_timer.c ****     \param[out] none
1170:C:/Users/leonardo/Desktop/Code/Github/DawnBGC/Libraries/FWLIB/src\gd32f4xx_timer.c ****     \retval     none
1171:C:/Users/leonardo/Desktop/Code/Github/DawnBGC/Libraries/FWLIB/src\gd32f4xx_timer.c **** */
1172:C:/Users/leonardo/Desktop/Code/Github/DawnBGC/Libraries/FWLIB/src\gd32f4xx_timer.c **** void timer_channel_output_state_config(uint32_t timer_periph,uint16_t timer_channel,uint32_t timer_
1173:C:/Users/leonardo/Desktop/Code/Github/DawnBGC/Libraries/FWLIB/src\gd32f4xx_timer.c **** {
 3963              		.loc 1 1173 1
 3964              		.cfi_startproc
 3965              		@ args = 0, pretend = 0, frame = 16
 3966              		@ frame_needed = 1, uses_anonymous_args = 0
 3967              		@ link register save eliminated.
 3968 0000 80B4     		push	{r7}
 3969              		.cfi_def_cfa_offset 4
 3970              		.cfi_offset 7, -4
 3971 0002 85B0     		sub	sp, sp, #20
 3972              		.cfi_def_cfa_offset 24
 3973 0004 00AF     		add	r7, sp, #0
 3974              		.cfi_def_cfa_register 7
 3975 0006 F860     		str	r0, [r7, #12]
 3976 0008 0B46     		mov	r3, r1
 3977 000a 7A60     		str	r2, [r7, #4]
 3978 000c 7B81     		strh	r3, [r7, #10]	@ movhi
1174:C:/Users/leonardo/Desktop/Code/Github/DawnBGC/Libraries/FWLIB/src\gd32f4xx_timer.c ****     switch(timer_channel){
 3979              		.loc 1 1174 5
 3980 000e 7B89     		ldrh	r3, [r7, #10]
 3981 0010 032B     		cmp	r3, #3
 3982 0012 53D8     		bhi	.L181
 3983 0014 01A2     		adr	r2, .L176
 3984 0016 52F823F0 		ldr	pc, [r2, r3, lsl #2]
 3985 001a 00BF     		.p2align 2
 3986              	.L176:
 3987 001c 2D000000 		.word	.L179+1
 3988 0020 51000000 		.word	.L178+1
 3989 0024 75000000 		.word	.L177+1
 3990 0028 99000000 		.word	.L175+1
 3991              		.p2align 1
 3992              	.L179:
1175:C:/Users/leonardo/Desktop/Code/Github/DawnBGC/Libraries/FWLIB/src\gd32f4xx_timer.c ****     /* configure TIMER_CH_0 */
1176:C:/Users/leonardo/Desktop/Code/Github/DawnBGC/Libraries/FWLIB/src\gd32f4xx_timer.c ****     case TIMER_CH_0:
1177:C:/Users/leonardo/Desktop/Code/Github/DawnBGC/Libraries/FWLIB/src\gd32f4xx_timer.c ****         TIMER_CHCTL2(timer_periph) &= (~(uint32_t)TIMER_CHCTL2_CH0EN);
 3993              		.loc 1 1177 36
 3994 002c FB68     		ldr	r3, [r7, #12]
 3995 002e 2033     		adds	r3, r3, #32
 3996 0030 1B68     		ldr	r3, [r3]
 3997 0032 FA68     		ldr	r2, [r7, #12]
 3998 0034 2032     		adds	r2, r2, #32
 3999 0036 23F00103 		bic	r3, r3, #1
 4000 003a 1360     		str	r3, [r2]
1178:C:/Users/leonardo/Desktop/Code/Github/DawnBGC/Libraries/FWLIB/src\gd32f4xx_timer.c ****         TIMER_CHCTL2(timer_periph) |= (uint32_t)timer_state;
 4001              		.loc 1 1178 36
 4002 003c FB68     		ldr	r3, [r7, #12]
 4003 003e 2033     		adds	r3, r3, #32
 4004 0040 1A68     		ldr	r2, [r3]
 4005 0042 FB68     		ldr	r3, [r7, #12]
 4006 0044 2033     		adds	r3, r3, #32
 4007 0046 1946     		mov	r1, r3
 4008 0048 7B68     		ldr	r3, [r7, #4]
 4009 004a 1343     		orrs	r3, r3, r2
 4010 004c 0B60     		str	r3, [r1]
1179:C:/Users/leonardo/Desktop/Code/Github/DawnBGC/Libraries/FWLIB/src\gd32f4xx_timer.c ****         break;
 4011              		.loc 1 1179 9
 4012 004e 36E0     		b	.L180
 4013              	.L178:
1180:C:/Users/leonardo/Desktop/Code/Github/DawnBGC/Libraries/FWLIB/src\gd32f4xx_timer.c ****     /* configure TIMER_CH_1 */
1181:C:/Users/leonardo/Desktop/Code/Github/DawnBGC/Libraries/FWLIB/src\gd32f4xx_timer.c ****     case TIMER_CH_1:
1182:C:/Users/leonardo/Desktop/Code/Github/DawnBGC/Libraries/FWLIB/src\gd32f4xx_timer.c ****         TIMER_CHCTL2(timer_periph) &= (~(uint32_t)TIMER_CHCTL2_CH1EN);
 4014              		.loc 1 1182 36
 4015 0050 FB68     		ldr	r3, [r7, #12]
 4016 0052 2033     		adds	r3, r3, #32
 4017 0054 1B68     		ldr	r3, [r3]
 4018 0056 FA68     		ldr	r2, [r7, #12]
 4019 0058 2032     		adds	r2, r2, #32
 4020 005a 23F01003 		bic	r3, r3, #16
 4021 005e 1360     		str	r3, [r2]
1183:C:/Users/leonardo/Desktop/Code/Github/DawnBGC/Libraries/FWLIB/src\gd32f4xx_timer.c ****         TIMER_CHCTL2(timer_periph) |= (uint32_t)((uint32_t)timer_state << 4U);
 4022              		.loc 1 1183 36
 4023 0060 FB68     		ldr	r3, [r7, #12]
 4024 0062 2033     		adds	r3, r3, #32
 4025 0064 1A68     		ldr	r2, [r3]
 4026              		.loc 1 1183 39
 4027 0066 7B68     		ldr	r3, [r7, #4]
 4028 0068 1B01     		lsls	r3, r3, #4
 4029              		.loc 1 1183 36
 4030 006a F968     		ldr	r1, [r7, #12]
 4031 006c 2031     		adds	r1, r1, #32
 4032 006e 1343     		orrs	r3, r3, r2
 4033 0070 0B60     		str	r3, [r1]
1184:C:/Users/leonardo/Desktop/Code/Github/DawnBGC/Libraries/FWLIB/src\gd32f4xx_timer.c ****         break;
 4034              		.loc 1 1184 9
 4035 0072 24E0     		b	.L180
 4036              	.L177:
1185:C:/Users/leonardo/Desktop/Code/Github/DawnBGC/Libraries/FWLIB/src\gd32f4xx_timer.c ****     /* configure TIMER_CH_2 */
1186:C:/Users/leonardo/Desktop/Code/Github/DawnBGC/Libraries/FWLIB/src\gd32f4xx_timer.c ****     case TIMER_CH_2:
1187:C:/Users/leonardo/Desktop/Code/Github/DawnBGC/Libraries/FWLIB/src\gd32f4xx_timer.c ****         TIMER_CHCTL2(timer_periph) &= (~(uint32_t)TIMER_CHCTL2_CH2EN);
 4037              		.loc 1 1187 36
 4038 0074 FB68     		ldr	r3, [r7, #12]
 4039 0076 2033     		adds	r3, r3, #32
 4040 0078 1B68     		ldr	r3, [r3]
 4041 007a FA68     		ldr	r2, [r7, #12]
 4042 007c 2032     		adds	r2, r2, #32
 4043 007e 23F48073 		bic	r3, r3, #256
 4044 0082 1360     		str	r3, [r2]
1188:C:/Users/leonardo/Desktop/Code/Github/DawnBGC/Libraries/FWLIB/src\gd32f4xx_timer.c ****         TIMER_CHCTL2(timer_periph) |= (uint32_t)((uint32_t)timer_state << 8U);
 4045              		.loc 1 1188 36
 4046 0084 FB68     		ldr	r3, [r7, #12]
 4047 0086 2033     		adds	r3, r3, #32
 4048 0088 1A68     		ldr	r2, [r3]
 4049              		.loc 1 1188 39
 4050 008a 7B68     		ldr	r3, [r7, #4]
 4051 008c 1B02     		lsls	r3, r3, #8
 4052              		.loc 1 1188 36
 4053 008e F968     		ldr	r1, [r7, #12]
 4054 0090 2031     		adds	r1, r1, #32
 4055 0092 1343     		orrs	r3, r3, r2
 4056 0094 0B60     		str	r3, [r1]
1189:C:/Users/leonardo/Desktop/Code/Github/DawnBGC/Libraries/FWLIB/src\gd32f4xx_timer.c ****         break;
 4057              		.loc 1 1189 9
 4058 0096 12E0     		b	.L180
 4059              	.L175:
1190:C:/Users/leonardo/Desktop/Code/Github/DawnBGC/Libraries/FWLIB/src\gd32f4xx_timer.c ****     /* configure TIMER_CH_3 */
1191:C:/Users/leonardo/Desktop/Code/Github/DawnBGC/Libraries/FWLIB/src\gd32f4xx_timer.c ****     case TIMER_CH_3:
1192:C:/Users/leonardo/Desktop/Code/Github/DawnBGC/Libraries/FWLIB/src\gd32f4xx_timer.c ****         TIMER_CHCTL2(timer_periph) &= (~(uint32_t)TIMER_CHCTL2_CH3EN);
 4060              		.loc 1 1192 36
 4061 0098 FB68     		ldr	r3, [r7, #12]
 4062 009a 2033     		adds	r3, r3, #32
 4063 009c 1B68     		ldr	r3, [r3]
 4064 009e FA68     		ldr	r2, [r7, #12]
 4065 00a0 2032     		adds	r2, r2, #32
 4066 00a2 23F48053 		bic	r3, r3, #4096
 4067 00a6 1360     		str	r3, [r2]
1193:C:/Users/leonardo/Desktop/Code/Github/DawnBGC/Libraries/FWLIB/src\gd32f4xx_timer.c ****         TIMER_CHCTL2(timer_periph) |= (uint32_t)((uint32_t)timer_state << 12U);
 4068              		.loc 1 1193 36
 4069 00a8 FB68     		ldr	r3, [r7, #12]
 4070 00aa 2033     		adds	r3, r3, #32
 4071 00ac 1A68     		ldr	r2, [r3]
 4072              		.loc 1 1193 39
 4073 00ae 7B68     		ldr	r3, [r7, #4]
 4074 00b0 1B03     		lsls	r3, r3, #12
 4075              		.loc 1 1193 36
 4076 00b2 F968     		ldr	r1, [r7, #12]
 4077 00b4 2031     		adds	r1, r1, #32
 4078 00b6 1343     		orrs	r3, r3, r2
 4079 00b8 0B60     		str	r3, [r1]
1194:C:/Users/leonardo/Desktop/Code/Github/DawnBGC/Libraries/FWLIB/src\gd32f4xx_timer.c ****         break;
 4080              		.loc 1 1194 9
 4081 00ba 00E0     		b	.L180
 4082              	.L181:
1195:C:/Users/leonardo/Desktop/Code/Github/DawnBGC/Libraries/FWLIB/src\gd32f4xx_timer.c ****     default:
1196:C:/Users/leonardo/Desktop/Code/Github/DawnBGC/Libraries/FWLIB/src\gd32f4xx_timer.c ****         break;
 4083              		.loc 1 1196 9
 4084 00bc 00BF     		nop
 4085              	.L180:
1197:C:/Users/leonardo/Desktop/Code/Github/DawnBGC/Libraries/FWLIB/src\gd32f4xx_timer.c ****     }
1198:C:/Users/leonardo/Desktop/Code/Github/DawnBGC/Libraries/FWLIB/src\gd32f4xx_timer.c **** }
 4086              		.loc 1 1198 1
 4087 00be 00BF     		nop
 4088 00c0 1437     		adds	r7, r7, #20
 4089              		.cfi_def_cfa_offset 4
 4090 00c2 BD46     		mov	sp, r7
 4091              		.cfi_def_cfa_register 13
 4092              		@ sp needed
 4093 00c4 80BC     		pop	{r7}
 4094              		.cfi_restore 7
 4095              		.cfi_def_cfa_offset 0
 4096 00c6 7047     		bx	lr
 4097              		.cfi_endproc
 4098              	.LFE169:
 4100              		.section	.text.timer_channel_complementary_output_state_config,"ax",%progbits
 4101              		.align	1
 4102              		.global	timer_channel_complementary_output_state_config
 4103              		.syntax unified
 4104              		.thumb
 4105              		.thumb_func
 4106              		.fpu softvfp
 4108              	timer_channel_complementary_output_state_config:
 4109              	.LFB170:
1199:C:/Users/leonardo/Desktop/Code/Github/DawnBGC/Libraries/FWLIB/src\gd32f4xx_timer.c **** 
1200:C:/Users/leonardo/Desktop/Code/Github/DawnBGC/Libraries/FWLIB/src\gd32f4xx_timer.c **** /*!
1201:C:/Users/leonardo/Desktop/Code/Github/DawnBGC/Libraries/FWLIB/src\gd32f4xx_timer.c ****     \brief      configure TIMER channel complementary output enable state
1202:C:/Users/leonardo/Desktop/Code/Github/DawnBGC/Libraries/FWLIB/src\gd32f4xx_timer.c ****     \param[in]  timer_periph: TIMERx(x=0,7)
1203:C:/Users/leonardo/Desktop/Code/Github/DawnBGC/Libraries/FWLIB/src\gd32f4xx_timer.c ****     \param[in]  timer_channel: 
1204:C:/Users/leonardo/Desktop/Code/Github/DawnBGC/Libraries/FWLIB/src\gd32f4xx_timer.c ****       \arg        TIMER_CH_0: TIMER channel0
1205:C:/Users/leonardo/Desktop/Code/Github/DawnBGC/Libraries/FWLIB/src\gd32f4xx_timer.c ****       \arg        TIMER_CH_1: TIMER channel1
1206:C:/Users/leonardo/Desktop/Code/Github/DawnBGC/Libraries/FWLIB/src\gd32f4xx_timer.c ****       \arg        TIMER_CH_2: TIMER channel2
1207:C:/Users/leonardo/Desktop/Code/Github/DawnBGC/Libraries/FWLIB/src\gd32f4xx_timer.c ****     \param[in]  timer_ocnstate: TIMER channel complementary output enable state
1208:C:/Users/leonardo/Desktop/Code/Github/DawnBGC/Libraries/FWLIB/src\gd32f4xx_timer.c ****       \arg        TIMER_CCXN_ENABLE: channel complementary enable 
1209:C:/Users/leonardo/Desktop/Code/Github/DawnBGC/Libraries/FWLIB/src\gd32f4xx_timer.c ****       \arg        TIMER_CCXN_DISABLE: channel complementary disable 
1210:C:/Users/leonardo/Desktop/Code/Github/DawnBGC/Libraries/FWLIB/src\gd32f4xx_timer.c ****     \param[out] none
1211:C:/Users/leonardo/Desktop/Code/Github/DawnBGC/Libraries/FWLIB/src\gd32f4xx_timer.c ****     \retval     none
1212:C:/Users/leonardo/Desktop/Code/Github/DawnBGC/Libraries/FWLIB/src\gd32f4xx_timer.c **** */
1213:C:/Users/leonardo/Desktop/Code/Github/DawnBGC/Libraries/FWLIB/src\gd32f4xx_timer.c **** void timer_channel_complementary_output_state_config(uint32_t timer_periph,uint16_t timer_channel,u
1214:C:/Users/leonardo/Desktop/Code/Github/DawnBGC/Libraries/FWLIB/src\gd32f4xx_timer.c **** {
 4110              		.loc 1 1214 1
 4111              		.cfi_startproc
 4112              		@ args = 0, pretend = 0, frame = 8
 4113              		@ frame_needed = 1, uses_anonymous_args = 0
 4114              		@ link register save eliminated.
 4115 0000 80B4     		push	{r7}
 4116              		.cfi_def_cfa_offset 4
 4117              		.cfi_offset 7, -4
 4118 0002 83B0     		sub	sp, sp, #12
 4119              		.cfi_def_cfa_offset 16
 4120 0004 00AF     		add	r7, sp, #0
 4121              		.cfi_def_cfa_register 7
 4122 0006 7860     		str	r0, [r7, #4]
 4123 0008 0B46     		mov	r3, r1
 4124 000a 7B80     		strh	r3, [r7, #2]	@ movhi
 4125 000c 1346     		mov	r3, r2	@ movhi
 4126 000e 3B80     		strh	r3, [r7]	@ movhi
1215:C:/Users/leonardo/Desktop/Code/Github/DawnBGC/Libraries/FWLIB/src\gd32f4xx_timer.c ****     switch(timer_channel){
 4127              		.loc 1 1215 5
 4128 0010 7B88     		ldrh	r3, [r7, #2]
 4129 0012 022B     		cmp	r3, #2
 4130 0014 29D0     		beq	.L183
 4131 0016 022B     		cmp	r3, #2
 4132 0018 39DC     		bgt	.L188
 4133 001a 002B     		cmp	r3, #0
 4134 001c 02D0     		beq	.L185
 4135 001e 012B     		cmp	r3, #1
 4136 0020 11D0     		beq	.L186
1216:C:/Users/leonardo/Desktop/Code/Github/DawnBGC/Libraries/FWLIB/src\gd32f4xx_timer.c ****     /* configure TIMER_CH_0 */
1217:C:/Users/leonardo/Desktop/Code/Github/DawnBGC/Libraries/FWLIB/src\gd32f4xx_timer.c ****     case TIMER_CH_0:
1218:C:/Users/leonardo/Desktop/Code/Github/DawnBGC/Libraries/FWLIB/src\gd32f4xx_timer.c ****         TIMER_CHCTL2(timer_periph) &= (~(uint32_t)TIMER_CHCTL2_CH0NEN);
1219:C:/Users/leonardo/Desktop/Code/Github/DawnBGC/Libraries/FWLIB/src\gd32f4xx_timer.c ****         TIMER_CHCTL2(timer_periph) |= (uint32_t)timer_ocnstate;
1220:C:/Users/leonardo/Desktop/Code/Github/DawnBGC/Libraries/FWLIB/src\gd32f4xx_timer.c ****         break;
1221:C:/Users/leonardo/Desktop/Code/Github/DawnBGC/Libraries/FWLIB/src\gd32f4xx_timer.c ****     /* configure TIMER_CH_1 */
1222:C:/Users/leonardo/Desktop/Code/Github/DawnBGC/Libraries/FWLIB/src\gd32f4xx_timer.c ****     case TIMER_CH_1:
1223:C:/Users/leonardo/Desktop/Code/Github/DawnBGC/Libraries/FWLIB/src\gd32f4xx_timer.c ****         TIMER_CHCTL2(timer_periph) &= (~(uint32_t)TIMER_CHCTL2_CH1NEN);
1224:C:/Users/leonardo/Desktop/Code/Github/DawnBGC/Libraries/FWLIB/src\gd32f4xx_timer.c ****         TIMER_CHCTL2(timer_periph) |= (uint32_t)((uint32_t)timer_ocnstate << 4U);
1225:C:/Users/leonardo/Desktop/Code/Github/DawnBGC/Libraries/FWLIB/src\gd32f4xx_timer.c ****         break;
1226:C:/Users/leonardo/Desktop/Code/Github/DawnBGC/Libraries/FWLIB/src\gd32f4xx_timer.c ****     /* configure TIMER_CH_2 */
1227:C:/Users/leonardo/Desktop/Code/Github/DawnBGC/Libraries/FWLIB/src\gd32f4xx_timer.c ****     case TIMER_CH_2:
1228:C:/Users/leonardo/Desktop/Code/Github/DawnBGC/Libraries/FWLIB/src\gd32f4xx_timer.c ****         TIMER_CHCTL2(timer_periph) &= (~(uint32_t)TIMER_CHCTL2_CH2NEN);
1229:C:/Users/leonardo/Desktop/Code/Github/DawnBGC/Libraries/FWLIB/src\gd32f4xx_timer.c ****         TIMER_CHCTL2(timer_periph) |= (uint32_t)((uint32_t)timer_ocnstate << 8U);
1230:C:/Users/leonardo/Desktop/Code/Github/DawnBGC/Libraries/FWLIB/src\gd32f4xx_timer.c ****         break;
1231:C:/Users/leonardo/Desktop/Code/Github/DawnBGC/Libraries/FWLIB/src\gd32f4xx_timer.c ****     default:
1232:C:/Users/leonardo/Desktop/Code/Github/DawnBGC/Libraries/FWLIB/src\gd32f4xx_timer.c ****         break;
 4137              		.loc 1 1232 9
 4138 0022 34E0     		b	.L188
 4139              	.L185:
1218:C:/Users/leonardo/Desktop/Code/Github/DawnBGC/Libraries/FWLIB/src\gd32f4xx_timer.c ****         TIMER_CHCTL2(timer_periph) |= (uint32_t)timer_ocnstate;
 4140              		.loc 1 1218 36
 4141 0024 7B68     		ldr	r3, [r7, #4]
 4142 0026 2033     		adds	r3, r3, #32
 4143 0028 1B68     		ldr	r3, [r3]
 4144 002a 7A68     		ldr	r2, [r7, #4]
 4145 002c 2032     		adds	r2, r2, #32
 4146 002e 23F00403 		bic	r3, r3, #4
 4147 0032 1360     		str	r3, [r2]
1219:C:/Users/leonardo/Desktop/Code/Github/DawnBGC/Libraries/FWLIB/src\gd32f4xx_timer.c ****         break;
 4148              		.loc 1 1219 36
 4149 0034 7B68     		ldr	r3, [r7, #4]
 4150 0036 2033     		adds	r3, r3, #32
 4151 0038 1A68     		ldr	r2, [r3]
1219:C:/Users/leonardo/Desktop/Code/Github/DawnBGC/Libraries/FWLIB/src\gd32f4xx_timer.c ****         break;
 4152              		.loc 1 1219 39
 4153 003a 3B88     		ldrh	r3, [r7]
1219:C:/Users/leonardo/Desktop/Code/Github/DawnBGC/Libraries/FWLIB/src\gd32f4xx_timer.c ****         break;
 4154              		.loc 1 1219 36
 4155 003c 7968     		ldr	r1, [r7, #4]
 4156 003e 2031     		adds	r1, r1, #32
 4157 0040 1343     		orrs	r3, r3, r2
 4158 0042 0B60     		str	r3, [r1]
1220:C:/Users/leonardo/Desktop/Code/Github/DawnBGC/Libraries/FWLIB/src\gd32f4xx_timer.c ****     /* configure TIMER_CH_1 */
 4159              		.loc 1 1220 9
 4160 0044 24E0     		b	.L187
 4161              	.L186:
1223:C:/Users/leonardo/Desktop/Code/Github/DawnBGC/Libraries/FWLIB/src\gd32f4xx_timer.c ****         TIMER_CHCTL2(timer_periph) |= (uint32_t)((uint32_t)timer_ocnstate << 4U);
 4162              		.loc 1 1223 36
 4163 0046 7B68     		ldr	r3, [r7, #4]
 4164 0048 2033     		adds	r3, r3, #32
 4165 004a 1B68     		ldr	r3, [r3]
 4166 004c 7A68     		ldr	r2, [r7, #4]
 4167 004e 2032     		adds	r2, r2, #32
 4168 0050 23F04003 		bic	r3, r3, #64
 4169 0054 1360     		str	r3, [r2]
1224:C:/Users/leonardo/Desktop/Code/Github/DawnBGC/Libraries/FWLIB/src\gd32f4xx_timer.c ****         break;
 4170              		.loc 1 1224 36
 4171 0056 7B68     		ldr	r3, [r7, #4]
 4172 0058 2033     		adds	r3, r3, #32
 4173 005a 1A68     		ldr	r2, [r3]
1224:C:/Users/leonardo/Desktop/Code/Github/DawnBGC/Libraries/FWLIB/src\gd32f4xx_timer.c ****         break;
 4174              		.loc 1 1224 50
 4175 005c 3B88     		ldrh	r3, [r7]
1224:C:/Users/leonardo/Desktop/Code/Github/DawnBGC/Libraries/FWLIB/src\gd32f4xx_timer.c ****         break;
 4176              		.loc 1 1224 39
 4177 005e 1B01     		lsls	r3, r3, #4
1224:C:/Users/leonardo/Desktop/Code/Github/DawnBGC/Libraries/FWLIB/src\gd32f4xx_timer.c ****         break;
 4178              		.loc 1 1224 36
 4179 0060 7968     		ldr	r1, [r7, #4]
 4180 0062 2031     		adds	r1, r1, #32
 4181 0064 1343     		orrs	r3, r3, r2
 4182 0066 0B60     		str	r3, [r1]
1225:C:/Users/leonardo/Desktop/Code/Github/DawnBGC/Libraries/FWLIB/src\gd32f4xx_timer.c ****     /* configure TIMER_CH_2 */
 4183              		.loc 1 1225 9
 4184 0068 12E0     		b	.L187
 4185              	.L183:
1228:C:/Users/leonardo/Desktop/Code/Github/DawnBGC/Libraries/FWLIB/src\gd32f4xx_timer.c ****         TIMER_CHCTL2(timer_periph) |= (uint32_t)((uint32_t)timer_ocnstate << 8U);
 4186              		.loc 1 1228 36
 4187 006a 7B68     		ldr	r3, [r7, #4]
 4188 006c 2033     		adds	r3, r3, #32
 4189 006e 1B68     		ldr	r3, [r3]
 4190 0070 7A68     		ldr	r2, [r7, #4]
 4191 0072 2032     		adds	r2, r2, #32
 4192 0074 23F48063 		bic	r3, r3, #1024
 4193 0078 1360     		str	r3, [r2]
1229:C:/Users/leonardo/Desktop/Code/Github/DawnBGC/Libraries/FWLIB/src\gd32f4xx_timer.c ****         break;
 4194              		.loc 1 1229 36
 4195 007a 7B68     		ldr	r3, [r7, #4]
 4196 007c 2033     		adds	r3, r3, #32
 4197 007e 1A68     		ldr	r2, [r3]
1229:C:/Users/leonardo/Desktop/Code/Github/DawnBGC/Libraries/FWLIB/src\gd32f4xx_timer.c ****         break;
 4198              		.loc 1 1229 50
 4199 0080 3B88     		ldrh	r3, [r7]
1229:C:/Users/leonardo/Desktop/Code/Github/DawnBGC/Libraries/FWLIB/src\gd32f4xx_timer.c ****         break;
 4200              		.loc 1 1229 39
 4201 0082 1B02     		lsls	r3, r3, #8
1229:C:/Users/leonardo/Desktop/Code/Github/DawnBGC/Libraries/FWLIB/src\gd32f4xx_timer.c ****         break;
 4202              		.loc 1 1229 36
 4203 0084 7968     		ldr	r1, [r7, #4]
 4204 0086 2031     		adds	r1, r1, #32
 4205 0088 1343     		orrs	r3, r3, r2
 4206 008a 0B60     		str	r3, [r1]
1230:C:/Users/leonardo/Desktop/Code/Github/DawnBGC/Libraries/FWLIB/src\gd32f4xx_timer.c ****     default:
 4207              		.loc 1 1230 9
 4208 008c 00E0     		b	.L187
 4209              	.L188:
 4210              		.loc 1 1232 9
 4211 008e 00BF     		nop
 4212              	.L187:
1233:C:/Users/leonardo/Desktop/Code/Github/DawnBGC/Libraries/FWLIB/src\gd32f4xx_timer.c ****     }
1234:C:/Users/leonardo/Desktop/Code/Github/DawnBGC/Libraries/FWLIB/src\gd32f4xx_timer.c **** }
 4213              		.loc 1 1234 1
 4214 0090 00BF     		nop
 4215 0092 0C37     		adds	r7, r7, #12
 4216              		.cfi_def_cfa_offset 4
 4217 0094 BD46     		mov	sp, r7
 4218              		.cfi_def_cfa_register 13
 4219              		@ sp needed
 4220 0096 80BC     		pop	{r7}
 4221              		.cfi_restore 7
 4222              		.cfi_def_cfa_offset 0
 4223 0098 7047     		bx	lr
 4224              		.cfi_endproc
 4225              	.LFE170:
 4227              		.section	.text.timer_input_capture_config,"ax",%progbits
 4228              		.align	1
 4229              		.global	timer_input_capture_config
 4230              		.syntax unified
 4231              		.thumb
 4232              		.thumb_func
 4233              		.fpu softvfp
 4235              	timer_input_capture_config:
 4236              	.LFB171:
1235:C:/Users/leonardo/Desktop/Code/Github/DawnBGC/Libraries/FWLIB/src\gd32f4xx_timer.c **** 
1236:C:/Users/leonardo/Desktop/Code/Github/DawnBGC/Libraries/FWLIB/src\gd32f4xx_timer.c **** /*!
1237:C:/Users/leonardo/Desktop/Code/Github/DawnBGC/Libraries/FWLIB/src\gd32f4xx_timer.c ****     \brief      configure TIMER input capture parameter 
1238:C:/Users/leonardo/Desktop/Code/Github/DawnBGC/Libraries/FWLIB/src\gd32f4xx_timer.c ****     \param[in]  timer_periph: please refer to the following parameters
1239:C:/Users/leonardo/Desktop/Code/Github/DawnBGC/Libraries/FWLIB/src\gd32f4xx_timer.c ****     \param[in]  timer_channel: 
1240:C:/Users/leonardo/Desktop/Code/Github/DawnBGC/Libraries/FWLIB/src\gd32f4xx_timer.c ****       \arg        TIMER_CH_0: TIMER channel0(TIMERx(x=0..4,7..13))
1241:C:/Users/leonardo/Desktop/Code/Github/DawnBGC/Libraries/FWLIB/src\gd32f4xx_timer.c ****       \arg        TIMER_CH_1: TIMER channel1(TIMERx(x=0..4,7,8,11))
1242:C:/Users/leonardo/Desktop/Code/Github/DawnBGC/Libraries/FWLIB/src\gd32f4xx_timer.c ****       \arg        TIMER_CH_2: TIMER channel2(TIMERx(x=0..4,7))
1243:C:/Users/leonardo/Desktop/Code/Github/DawnBGC/Libraries/FWLIB/src\gd32f4xx_timer.c ****       \arg        TIMER_CH_3: TIMER channel3(TIMERx(x=0..4,7))
1244:C:/Users/leonardo/Desktop/Code/Github/DawnBGC/Libraries/FWLIB/src\gd32f4xx_timer.c ****      \param[in]  timer_icpara: TIMER channel intput parameter struct
1245:C:/Users/leonardo/Desktop/Code/Github/DawnBGC/Libraries/FWLIB/src\gd32f4xx_timer.c ****                  icpolarity: TIMER_IC_POLARITY_RISING,TIMER_IC_POLARITY_FALLING,TIMER_IC_POLARITY_B
1246:C:/Users/leonardo/Desktop/Code/Github/DawnBGC/Libraries/FWLIB/src\gd32f4xx_timer.c ****                  icselection: TIMER_IC_SELECTION_DIRECTTI,TIMER_IC_SELECTION_INDIRECTTI,TIMER_IC_SE
1247:C:/Users/leonardo/Desktop/Code/Github/DawnBGC/Libraries/FWLIB/src\gd32f4xx_timer.c ****                  icprescaler: TIMER_IC_PSC_DIV1,TIMER_IC_PSC_DIV2,TIMER_IC_PSC_DIV4,TIMER_IC_PSC_DI
1248:C:/Users/leonardo/Desktop/Code/Github/DawnBGC/Libraries/FWLIB/src\gd32f4xx_timer.c ****                  icfilter: 0~15
1249:C:/Users/leonardo/Desktop/Code/Github/DawnBGC/Libraries/FWLIB/src\gd32f4xx_timer.c ****     \param[out]  none
1250:C:/Users/leonardo/Desktop/Code/Github/DawnBGC/Libraries/FWLIB/src\gd32f4xx_timer.c ****     \retval      none
1251:C:/Users/leonardo/Desktop/Code/Github/DawnBGC/Libraries/FWLIB/src\gd32f4xx_timer.c **** */
1252:C:/Users/leonardo/Desktop/Code/Github/DawnBGC/Libraries/FWLIB/src\gd32f4xx_timer.c **** void timer_input_capture_config(uint32_t timer_periph,uint16_t timer_channel,timer_ic_parameter_str
1253:C:/Users/leonardo/Desktop/Code/Github/DawnBGC/Libraries/FWLIB/src\gd32f4xx_timer.c **** {
 4237              		.loc 1 1253 1
 4238              		.cfi_startproc
 4239              		@ args = 0, pretend = 0, frame = 16
 4240              		@ frame_needed = 1, uses_anonymous_args = 0
 4241 0000 80B5     		push	{r7, lr}
 4242              		.cfi_def_cfa_offset 8
 4243              		.cfi_offset 7, -8
 4244              		.cfi_offset 14, -4
 4245 0002 84B0     		sub	sp, sp, #16
 4246              		.cfi_def_cfa_offset 24
 4247 0004 00AF     		add	r7, sp, #0
 4248              		.cfi_def_cfa_register 7
 4249 0006 F860     		str	r0, [r7, #12]
 4250 0008 0B46     		mov	r3, r1
 4251 000a 7A60     		str	r2, [r7, #4]
 4252 000c 7B81     		strh	r3, [r7, #10]	@ movhi
1254:C:/Users/leonardo/Desktop/Code/Github/DawnBGC/Libraries/FWLIB/src\gd32f4xx_timer.c ****     switch(timer_channel){
 4253              		.loc 1 1254 5
 4254 000e 7B89     		ldrh	r3, [r7, #10]
 4255 0010 032B     		cmp	r3, #3
 4256 0012 00F22781 		bhi	.L197
 4257 0016 01A2     		adr	r2, .L192
 4258 0018 52F823F0 		ldr	pc, [r2, r3, lsl #2]
 4259              		.p2align 2
 4260              	.L192:
 4261 001c 2D000000 		.word	.L195+1
 4262 0020 BB000000 		.word	.L194+1
 4263 0024 49010000 		.word	.L193+1
 4264 0028 D7010000 		.word	.L191+1
 4265              		.p2align 1
 4266              	.L195:
1255:C:/Users/leonardo/Desktop/Code/Github/DawnBGC/Libraries/FWLIB/src\gd32f4xx_timer.c ****     /* configure TIMER_CH_0 */
1256:C:/Users/leonardo/Desktop/Code/Github/DawnBGC/Libraries/FWLIB/src\gd32f4xx_timer.c ****     case TIMER_CH_0:
1257:C:/Users/leonardo/Desktop/Code/Github/DawnBGC/Libraries/FWLIB/src\gd32f4xx_timer.c ****         /* reset the CH0EN bit */
1258:C:/Users/leonardo/Desktop/Code/Github/DawnBGC/Libraries/FWLIB/src\gd32f4xx_timer.c ****         TIMER_CHCTL2(timer_periph) &= (~(uint32_t)TIMER_CHCTL2_CH0EN);
 4267              		.loc 1 1258 36
 4268 002c FB68     		ldr	r3, [r7, #12]
 4269 002e 2033     		adds	r3, r3, #32
 4270 0030 1B68     		ldr	r3, [r3]
 4271 0032 FA68     		ldr	r2, [r7, #12]
 4272 0034 2032     		adds	r2, r2, #32
 4273 0036 23F00103 		bic	r3, r3, #1
 4274 003a 1360     		str	r3, [r2]
1259:C:/Users/leonardo/Desktop/Code/Github/DawnBGC/Libraries/FWLIB/src\gd32f4xx_timer.c **** 
1260:C:/Users/leonardo/Desktop/Code/Github/DawnBGC/Libraries/FWLIB/src\gd32f4xx_timer.c ****         /* reset the CH0P and CH0NP bits */
1261:C:/Users/leonardo/Desktop/Code/Github/DawnBGC/Libraries/FWLIB/src\gd32f4xx_timer.c ****         TIMER_CHCTL2(timer_periph) &= (~(uint32_t)(TIMER_CHCTL2_CH0P | TIMER_CHCTL2_CH0NP));
 4275              		.loc 1 1261 36
 4276 003c FB68     		ldr	r3, [r7, #12]
 4277 003e 2033     		adds	r3, r3, #32
 4278 0040 1B68     		ldr	r3, [r3]
 4279 0042 FA68     		ldr	r2, [r7, #12]
 4280 0044 2032     		adds	r2, r2, #32
 4281 0046 23F00A03 		bic	r3, r3, #10
 4282 004a 1360     		str	r3, [r2]
1262:C:/Users/leonardo/Desktop/Code/Github/DawnBGC/Libraries/FWLIB/src\gd32f4xx_timer.c ****         TIMER_CHCTL2(timer_periph) |= (uint32_t)(timer_icpara->icpolarity);
 4283              		.loc 1 1262 36
 4284 004c FB68     		ldr	r3, [r7, #12]
 4285 004e 2033     		adds	r3, r3, #32
 4286 0050 1B68     		ldr	r3, [r3]
 4287              		.loc 1 1262 62
 4288 0052 7A68     		ldr	r2, [r7, #4]
 4289 0054 1288     		ldrh	r2, [r2]
 4290              		.loc 1 1262 39
 4291 0056 1146     		mov	r1, r2
 4292              		.loc 1 1262 36
 4293 0058 FA68     		ldr	r2, [r7, #12]
 4294 005a 2032     		adds	r2, r2, #32
 4295 005c 0B43     		orrs	r3, r3, r1
 4296 005e 1360     		str	r3, [r2]
1263:C:/Users/leonardo/Desktop/Code/Github/DawnBGC/Libraries/FWLIB/src\gd32f4xx_timer.c ****         /* reset the CH0MS bit */
1264:C:/Users/leonardo/Desktop/Code/Github/DawnBGC/Libraries/FWLIB/src\gd32f4xx_timer.c ****         TIMER_CHCTL0(timer_periph) &= (~(uint32_t)TIMER_CHCTL0_CH0MS);
 4297              		.loc 1 1264 36
 4298 0060 FB68     		ldr	r3, [r7, #12]
 4299 0062 1833     		adds	r3, r3, #24
 4300 0064 1B68     		ldr	r3, [r3]
 4301 0066 FA68     		ldr	r2, [r7, #12]
 4302 0068 1832     		adds	r2, r2, #24
 4303 006a 23F00303 		bic	r3, r3, #3
 4304 006e 1360     		str	r3, [r2]
1265:C:/Users/leonardo/Desktop/Code/Github/DawnBGC/Libraries/FWLIB/src\gd32f4xx_timer.c ****         TIMER_CHCTL0(timer_periph) |= (uint32_t)(timer_icpara->icselection);
 4305              		.loc 1 1265 36
 4306 0070 FB68     		ldr	r3, [r7, #12]
 4307 0072 1833     		adds	r3, r3, #24
 4308 0074 1B68     		ldr	r3, [r3]
 4309              		.loc 1 1265 62
 4310 0076 7A68     		ldr	r2, [r7, #4]
 4311 0078 5288     		ldrh	r2, [r2, #2]
 4312              		.loc 1 1265 39
 4313 007a 1146     		mov	r1, r2
 4314              		.loc 1 1265 36
 4315 007c FA68     		ldr	r2, [r7, #12]
 4316 007e 1832     		adds	r2, r2, #24
 4317 0080 0B43     		orrs	r3, r3, r1
 4318 0082 1360     		str	r3, [r2]
1266:C:/Users/leonardo/Desktop/Code/Github/DawnBGC/Libraries/FWLIB/src\gd32f4xx_timer.c ****         /* reset the CH0CAPFLT bit */
1267:C:/Users/leonardo/Desktop/Code/Github/DawnBGC/Libraries/FWLIB/src\gd32f4xx_timer.c ****         TIMER_CHCTL0(timer_periph) &= (~(uint32_t)TIMER_CHCTL0_CH0CAPFLT);
 4319              		.loc 1 1267 36
 4320 0084 FB68     		ldr	r3, [r7, #12]
 4321 0086 1833     		adds	r3, r3, #24
 4322 0088 1B68     		ldr	r3, [r3]
 4323 008a FA68     		ldr	r2, [r7, #12]
 4324 008c 1832     		adds	r2, r2, #24
 4325 008e 23F0F003 		bic	r3, r3, #240
 4326 0092 1360     		str	r3, [r2]
1268:C:/Users/leonardo/Desktop/Code/Github/DawnBGC/Libraries/FWLIB/src\gd32f4xx_timer.c ****         TIMER_CHCTL0(timer_periph) |= (uint32_t)((uint32_t)(timer_icpara->icfilter) << 4U);
 4327              		.loc 1 1268 36
 4328 0094 FB68     		ldr	r3, [r7, #12]
 4329 0096 1833     		adds	r3, r3, #24
 4330 0098 1A68     		ldr	r2, [r3]
 4331              		.loc 1 1268 73
 4332 009a 7B68     		ldr	r3, [r7, #4]
 4333 009c DB88     		ldrh	r3, [r3, #6]
 4334              		.loc 1 1268 39
 4335 009e 1B01     		lsls	r3, r3, #4
 4336              		.loc 1 1268 36
 4337 00a0 F968     		ldr	r1, [r7, #12]
 4338 00a2 1831     		adds	r1, r1, #24
 4339 00a4 1343     		orrs	r3, r3, r2
 4340 00a6 0B60     		str	r3, [r1]
1269:C:/Users/leonardo/Desktop/Code/Github/DawnBGC/Libraries/FWLIB/src\gd32f4xx_timer.c **** 
1270:C:/Users/leonardo/Desktop/Code/Github/DawnBGC/Libraries/FWLIB/src\gd32f4xx_timer.c ****         /* set the CH0EN bit */
1271:C:/Users/leonardo/Desktop/Code/Github/DawnBGC/Libraries/FWLIB/src\gd32f4xx_timer.c ****         TIMER_CHCTL2(timer_periph) |= (uint32_t)TIMER_CHCTL2_CH0EN;
 4341              		.loc 1 1271 36
 4342 00a8 FB68     		ldr	r3, [r7, #12]
 4343 00aa 2033     		adds	r3, r3, #32
 4344 00ac 1B68     		ldr	r3, [r3]
 4345 00ae FA68     		ldr	r2, [r7, #12]
 4346 00b0 2032     		adds	r2, r2, #32
 4347 00b2 43F00103 		orr	r3, r3, #1
 4348 00b6 1360     		str	r3, [r2]
1272:C:/Users/leonardo/Desktop/Code/Github/DawnBGC/Libraries/FWLIB/src\gd32f4xx_timer.c ****         break;
 4349              		.loc 1 1272 9
 4350 00b8 D5E0     		b	.L196
 4351              	.L194:
1273:C:/Users/leonardo/Desktop/Code/Github/DawnBGC/Libraries/FWLIB/src\gd32f4xx_timer.c ****     
1274:C:/Users/leonardo/Desktop/Code/Github/DawnBGC/Libraries/FWLIB/src\gd32f4xx_timer.c ****     /* configure TIMER_CH_1 */
1275:C:/Users/leonardo/Desktop/Code/Github/DawnBGC/Libraries/FWLIB/src\gd32f4xx_timer.c ****     case TIMER_CH_1:
1276:C:/Users/leonardo/Desktop/Code/Github/DawnBGC/Libraries/FWLIB/src\gd32f4xx_timer.c ****         /* reset the CH1EN bit */
1277:C:/Users/leonardo/Desktop/Code/Github/DawnBGC/Libraries/FWLIB/src\gd32f4xx_timer.c ****         TIMER_CHCTL2(timer_periph) &= (~(uint32_t)TIMER_CHCTL2_CH1EN);
 4352              		.loc 1 1277 36
 4353 00ba FB68     		ldr	r3, [r7, #12]
 4354 00bc 2033     		adds	r3, r3, #32
 4355 00be 1B68     		ldr	r3, [r3]
 4356 00c0 FA68     		ldr	r2, [r7, #12]
 4357 00c2 2032     		adds	r2, r2, #32
 4358 00c4 23F01003 		bic	r3, r3, #16
 4359 00c8 1360     		str	r3, [r2]
1278:C:/Users/leonardo/Desktop/Code/Github/DawnBGC/Libraries/FWLIB/src\gd32f4xx_timer.c **** 
1279:C:/Users/leonardo/Desktop/Code/Github/DawnBGC/Libraries/FWLIB/src\gd32f4xx_timer.c ****         /* reset the CH1P and CH1NP bits */
1280:C:/Users/leonardo/Desktop/Code/Github/DawnBGC/Libraries/FWLIB/src\gd32f4xx_timer.c ****         TIMER_CHCTL2(timer_periph) &= (~(uint32_t)(TIMER_CHCTL2_CH1P | TIMER_CHCTL2_CH1NP));
 4360              		.loc 1 1280 36
 4361 00ca FB68     		ldr	r3, [r7, #12]
 4362 00cc 2033     		adds	r3, r3, #32
 4363 00ce 1B68     		ldr	r3, [r3]
 4364 00d0 FA68     		ldr	r2, [r7, #12]
 4365 00d2 2032     		adds	r2, r2, #32
 4366 00d4 23F0A003 		bic	r3, r3, #160
 4367 00d8 1360     		str	r3, [r2]
1281:C:/Users/leonardo/Desktop/Code/Github/DawnBGC/Libraries/FWLIB/src\gd32f4xx_timer.c ****         TIMER_CHCTL2(timer_periph) |= (uint32_t)((uint32_t)(timer_icpara->icpolarity)<< 4U);
 4368              		.loc 1 1281 36
 4369 00da FB68     		ldr	r3, [r7, #12]
 4370 00dc 2033     		adds	r3, r3, #32
 4371 00de 1A68     		ldr	r2, [r3]
 4372              		.loc 1 1281 73
 4373 00e0 7B68     		ldr	r3, [r7, #4]
 4374 00e2 1B88     		ldrh	r3, [r3]
 4375              		.loc 1 1281 39
 4376 00e4 1B01     		lsls	r3, r3, #4
 4377              		.loc 1 1281 36
 4378 00e6 F968     		ldr	r1, [r7, #12]
 4379 00e8 2031     		adds	r1, r1, #32
 4380 00ea 1343     		orrs	r3, r3, r2
 4381 00ec 0B60     		str	r3, [r1]
1282:C:/Users/leonardo/Desktop/Code/Github/DawnBGC/Libraries/FWLIB/src\gd32f4xx_timer.c ****         /* reset the CH1MS bit */
1283:C:/Users/leonardo/Desktop/Code/Github/DawnBGC/Libraries/FWLIB/src\gd32f4xx_timer.c ****         TIMER_CHCTL0(timer_periph) &= (~(uint32_t)TIMER_CHCTL0_CH1MS);
 4382              		.loc 1 1283 36
 4383 00ee FB68     		ldr	r3, [r7, #12]
 4384 00f0 1833     		adds	r3, r3, #24
 4385 00f2 1B68     		ldr	r3, [r3]
 4386 00f4 FA68     		ldr	r2, [r7, #12]
 4387 00f6 1832     		adds	r2, r2, #24
 4388 00f8 23F44073 		bic	r3, r3, #768
 4389 00fc 1360     		str	r3, [r2]
1284:C:/Users/leonardo/Desktop/Code/Github/DawnBGC/Libraries/FWLIB/src\gd32f4xx_timer.c ****         TIMER_CHCTL0(timer_periph) |= (uint32_t)((uint32_t)(timer_icpara->icselection)<< 8U);
 4390              		.loc 1 1284 36
 4391 00fe FB68     		ldr	r3, [r7, #12]
 4392 0100 1833     		adds	r3, r3, #24
 4393 0102 1A68     		ldr	r2, [r3]
 4394              		.loc 1 1284 73
 4395 0104 7B68     		ldr	r3, [r7, #4]
 4396 0106 5B88     		ldrh	r3, [r3, #2]
 4397              		.loc 1 1284 39
 4398 0108 1B02     		lsls	r3, r3, #8
 4399              		.loc 1 1284 36
 4400 010a F968     		ldr	r1, [r7, #12]
 4401 010c 1831     		adds	r1, r1, #24
 4402 010e 1343     		orrs	r3, r3, r2
 4403 0110 0B60     		str	r3, [r1]
1285:C:/Users/leonardo/Desktop/Code/Github/DawnBGC/Libraries/FWLIB/src\gd32f4xx_timer.c ****         /* reset the CH1CAPFLT bit */
1286:C:/Users/leonardo/Desktop/Code/Github/DawnBGC/Libraries/FWLIB/src\gd32f4xx_timer.c ****         TIMER_CHCTL0(timer_periph) &= (~(uint32_t)TIMER_CHCTL0_CH1CAPFLT);
 4404              		.loc 1 1286 36
 4405 0112 FB68     		ldr	r3, [r7, #12]
 4406 0114 1833     		adds	r3, r3, #24
 4407 0116 1B68     		ldr	r3, [r3]
 4408 0118 FA68     		ldr	r2, [r7, #12]
 4409 011a 1832     		adds	r2, r2, #24
 4410 011c 23F47043 		bic	r3, r3, #61440
 4411 0120 1360     		str	r3, [r2]
1287:C:/Users/leonardo/Desktop/Code/Github/DawnBGC/Libraries/FWLIB/src\gd32f4xx_timer.c ****         TIMER_CHCTL0(timer_periph) |= (uint32_t)((uint32_t)(timer_icpara->icfilter)<< 12U);
 4412              		.loc 1 1287 36
 4413 0122 FB68     		ldr	r3, [r7, #12]
 4414 0124 1833     		adds	r3, r3, #24
 4415 0126 1A68     		ldr	r2, [r3]
 4416              		.loc 1 1287 73
 4417 0128 7B68     		ldr	r3, [r7, #4]
 4418 012a DB88     		ldrh	r3, [r3, #6]
 4419              		.loc 1 1287 39
 4420 012c 1B03     		lsls	r3, r3, #12
 4421              		.loc 1 1287 36
 4422 012e F968     		ldr	r1, [r7, #12]
 4423 0130 1831     		adds	r1, r1, #24
 4424 0132 1343     		orrs	r3, r3, r2
 4425 0134 0B60     		str	r3, [r1]
1288:C:/Users/leonardo/Desktop/Code/Github/DawnBGC/Libraries/FWLIB/src\gd32f4xx_timer.c **** 
1289:C:/Users/leonardo/Desktop/Code/Github/DawnBGC/Libraries/FWLIB/src\gd32f4xx_timer.c ****         /* set the CH1EN bit */
1290:C:/Users/leonardo/Desktop/Code/Github/DawnBGC/Libraries/FWLIB/src\gd32f4xx_timer.c ****         TIMER_CHCTL2(timer_periph) |= (uint32_t)TIMER_CHCTL2_CH1EN;
 4426              		.loc 1 1290 36
 4427 0136 FB68     		ldr	r3, [r7, #12]
 4428 0138 2033     		adds	r3, r3, #32
 4429 013a 1B68     		ldr	r3, [r3]
 4430 013c FA68     		ldr	r2, [r7, #12]
 4431 013e 2032     		adds	r2, r2, #32
 4432 0140 43F01003 		orr	r3, r3, #16
 4433 0144 1360     		str	r3, [r2]
1291:C:/Users/leonardo/Desktop/Code/Github/DawnBGC/Libraries/FWLIB/src\gd32f4xx_timer.c ****         break;
 4434              		.loc 1 1291 9
 4435 0146 8EE0     		b	.L196
 4436              	.L193:
1292:C:/Users/leonardo/Desktop/Code/Github/DawnBGC/Libraries/FWLIB/src\gd32f4xx_timer.c ****     /* configure TIMER_CH_2 */
1293:C:/Users/leonardo/Desktop/Code/Github/DawnBGC/Libraries/FWLIB/src\gd32f4xx_timer.c ****     case TIMER_CH_2:
1294:C:/Users/leonardo/Desktop/Code/Github/DawnBGC/Libraries/FWLIB/src\gd32f4xx_timer.c ****         /* reset the CH2EN bit */
1295:C:/Users/leonardo/Desktop/Code/Github/DawnBGC/Libraries/FWLIB/src\gd32f4xx_timer.c ****         TIMER_CHCTL2(timer_periph) &= (~(uint32_t)TIMER_CHCTL2_CH2EN);
 4437              		.loc 1 1295 36
 4438 0148 FB68     		ldr	r3, [r7, #12]
 4439 014a 2033     		adds	r3, r3, #32
 4440 014c 1B68     		ldr	r3, [r3]
 4441 014e FA68     		ldr	r2, [r7, #12]
 4442 0150 2032     		adds	r2, r2, #32
 4443 0152 23F48073 		bic	r3, r3, #256
 4444 0156 1360     		str	r3, [r2]
1296:C:/Users/leonardo/Desktop/Code/Github/DawnBGC/Libraries/FWLIB/src\gd32f4xx_timer.c **** 
1297:C:/Users/leonardo/Desktop/Code/Github/DawnBGC/Libraries/FWLIB/src\gd32f4xx_timer.c ****         /* reset the CH2P and CH2NP bits */
1298:C:/Users/leonardo/Desktop/Code/Github/DawnBGC/Libraries/FWLIB/src\gd32f4xx_timer.c ****         TIMER_CHCTL2(timer_periph) &= (~(uint32_t)(TIMER_CHCTL2_CH2P|TIMER_CHCTL2_CH2NP));
 4445              		.loc 1 1298 36
 4446 0158 FB68     		ldr	r3, [r7, #12]
 4447 015a 2033     		adds	r3, r3, #32
 4448 015c 1B68     		ldr	r3, [r3]
 4449 015e FA68     		ldr	r2, [r7, #12]
 4450 0160 2032     		adds	r2, r2, #32
 4451 0162 23F42063 		bic	r3, r3, #2560
 4452 0166 1360     		str	r3, [r2]
1299:C:/Users/leonardo/Desktop/Code/Github/DawnBGC/Libraries/FWLIB/src\gd32f4xx_timer.c ****         TIMER_CHCTL2(timer_periph) |= (uint32_t)((uint32_t)(timer_icpara->icpolarity)<< 8U);
 4453              		.loc 1 1299 36
 4454 0168 FB68     		ldr	r3, [r7, #12]
 4455 016a 2033     		adds	r3, r3, #32
 4456 016c 1A68     		ldr	r2, [r3]
 4457              		.loc 1 1299 73
 4458 016e 7B68     		ldr	r3, [r7, #4]
 4459 0170 1B88     		ldrh	r3, [r3]
 4460              		.loc 1 1299 39
 4461 0172 1B02     		lsls	r3, r3, #8
 4462              		.loc 1 1299 36
 4463 0174 F968     		ldr	r1, [r7, #12]
 4464 0176 2031     		adds	r1, r1, #32
 4465 0178 1343     		orrs	r3, r3, r2
 4466 017a 0B60     		str	r3, [r1]
1300:C:/Users/leonardo/Desktop/Code/Github/DawnBGC/Libraries/FWLIB/src\gd32f4xx_timer.c **** 
1301:C:/Users/leonardo/Desktop/Code/Github/DawnBGC/Libraries/FWLIB/src\gd32f4xx_timer.c ****         /* reset the CH2MS bit */
1302:C:/Users/leonardo/Desktop/Code/Github/DawnBGC/Libraries/FWLIB/src\gd32f4xx_timer.c ****         TIMER_CHCTL1(timer_periph) &= (~(uint32_t)TIMER_CHCTL1_CH2MS);
 4467              		.loc 1 1302 36
 4468 017c FB68     		ldr	r3, [r7, #12]
 4469 017e 1C33     		adds	r3, r3, #28
 4470 0180 1B68     		ldr	r3, [r3]
 4471 0182 FA68     		ldr	r2, [r7, #12]
 4472 0184 1C32     		adds	r2, r2, #28
 4473 0186 23F00303 		bic	r3, r3, #3
 4474 018a 1360     		str	r3, [r2]
1303:C:/Users/leonardo/Desktop/Code/Github/DawnBGC/Libraries/FWLIB/src\gd32f4xx_timer.c ****         TIMER_CHCTL1(timer_periph) |= (uint32_t)((uint32_t)(timer_icpara->icselection));
 4475              		.loc 1 1303 36
 4476 018c FB68     		ldr	r3, [r7, #12]
 4477 018e 1C33     		adds	r3, r3, #28
 4478 0190 1B68     		ldr	r3, [r3]
 4479              		.loc 1 1303 73
 4480 0192 7A68     		ldr	r2, [r7, #4]
 4481 0194 5288     		ldrh	r2, [r2, #2]
 4482              		.loc 1 1303 39
 4483 0196 1146     		mov	r1, r2
 4484              		.loc 1 1303 36
 4485 0198 FA68     		ldr	r2, [r7, #12]
 4486 019a 1C32     		adds	r2, r2, #28
 4487 019c 0B43     		orrs	r3, r3, r1
 4488 019e 1360     		str	r3, [r2]
1304:C:/Users/leonardo/Desktop/Code/Github/DawnBGC/Libraries/FWLIB/src\gd32f4xx_timer.c **** 
1305:C:/Users/leonardo/Desktop/Code/Github/DawnBGC/Libraries/FWLIB/src\gd32f4xx_timer.c ****         /* reset the CH2CAPFLT bit */
1306:C:/Users/leonardo/Desktop/Code/Github/DawnBGC/Libraries/FWLIB/src\gd32f4xx_timer.c ****         TIMER_CHCTL1(timer_periph) &= (~(uint32_t)TIMER_CHCTL1_CH2CAPFLT);
 4489              		.loc 1 1306 36
 4490 01a0 FB68     		ldr	r3, [r7, #12]
 4491 01a2 1C33     		adds	r3, r3, #28
 4492 01a4 1B68     		ldr	r3, [r3]
 4493 01a6 FA68     		ldr	r2, [r7, #12]
 4494 01a8 1C32     		adds	r2, r2, #28
 4495 01aa 23F0F003 		bic	r3, r3, #240
 4496 01ae 1360     		str	r3, [r2]
1307:C:/Users/leonardo/Desktop/Code/Github/DawnBGC/Libraries/FWLIB/src\gd32f4xx_timer.c ****         TIMER_CHCTL1(timer_periph) |= (uint32_t)((uint32_t)(timer_icpara->icfilter)<< 4U);
 4497              		.loc 1 1307 36
 4498 01b0 FB68     		ldr	r3, [r7, #12]
 4499 01b2 1C33     		adds	r3, r3, #28
 4500 01b4 1A68     		ldr	r2, [r3]
 4501              		.loc 1 1307 73
 4502 01b6 7B68     		ldr	r3, [r7, #4]
 4503 01b8 DB88     		ldrh	r3, [r3, #6]
 4504              		.loc 1 1307 39
 4505 01ba 1B01     		lsls	r3, r3, #4
 4506              		.loc 1 1307 36
 4507 01bc F968     		ldr	r1, [r7, #12]
 4508 01be 1C31     		adds	r1, r1, #28
 4509 01c0 1343     		orrs	r3, r3, r2
 4510 01c2 0B60     		str	r3, [r1]
1308:C:/Users/leonardo/Desktop/Code/Github/DawnBGC/Libraries/FWLIB/src\gd32f4xx_timer.c **** 
1309:C:/Users/leonardo/Desktop/Code/Github/DawnBGC/Libraries/FWLIB/src\gd32f4xx_timer.c ****         /* set the CH2EN bit */
1310:C:/Users/leonardo/Desktop/Code/Github/DawnBGC/Libraries/FWLIB/src\gd32f4xx_timer.c ****         TIMER_CHCTL2(timer_periph) |= (uint32_t)TIMER_CHCTL2_CH2EN;
 4511              		.loc 1 1310 36
 4512 01c4 FB68     		ldr	r3, [r7, #12]
 4513 01c6 2033     		adds	r3, r3, #32
 4514 01c8 1B68     		ldr	r3, [r3]
 4515 01ca FA68     		ldr	r2, [r7, #12]
 4516 01cc 2032     		adds	r2, r2, #32
 4517 01ce 43F48073 		orr	r3, r3, #256
 4518 01d2 1360     		str	r3, [r2]
1311:C:/Users/leonardo/Desktop/Code/Github/DawnBGC/Libraries/FWLIB/src\gd32f4xx_timer.c ****         break;
 4519              		.loc 1 1311 9
 4520 01d4 47E0     		b	.L196
 4521              	.L191:
1312:C:/Users/leonardo/Desktop/Code/Github/DawnBGC/Libraries/FWLIB/src\gd32f4xx_timer.c ****     /* configure TIMER_CH_3 */
1313:C:/Users/leonardo/Desktop/Code/Github/DawnBGC/Libraries/FWLIB/src\gd32f4xx_timer.c ****     case TIMER_CH_3:
1314:C:/Users/leonardo/Desktop/Code/Github/DawnBGC/Libraries/FWLIB/src\gd32f4xx_timer.c ****         /* reset the CH3EN bit */
1315:C:/Users/leonardo/Desktop/Code/Github/DawnBGC/Libraries/FWLIB/src\gd32f4xx_timer.c ****         TIMER_CHCTL2(timer_periph) &= (~(uint32_t)TIMER_CHCTL2_CH3EN);
 4522              		.loc 1 1315 36
 4523 01d6 FB68     		ldr	r3, [r7, #12]
 4524 01d8 2033     		adds	r3, r3, #32
 4525 01da 1B68     		ldr	r3, [r3]
 4526 01dc FA68     		ldr	r2, [r7, #12]
 4527 01de 2032     		adds	r2, r2, #32
 4528 01e0 23F48053 		bic	r3, r3, #4096
 4529 01e4 1360     		str	r3, [r2]
1316:C:/Users/leonardo/Desktop/Code/Github/DawnBGC/Libraries/FWLIB/src\gd32f4xx_timer.c **** 
1317:C:/Users/leonardo/Desktop/Code/Github/DawnBGC/Libraries/FWLIB/src\gd32f4xx_timer.c ****         /* reset the CH3P bits */
1318:C:/Users/leonardo/Desktop/Code/Github/DawnBGC/Libraries/FWLIB/src\gd32f4xx_timer.c ****         TIMER_CHCTL2(timer_periph) &= (~(uint32_t)(TIMER_CHCTL2_CH3P));
 4530              		.loc 1 1318 36
 4531 01e6 FB68     		ldr	r3, [r7, #12]
 4532 01e8 2033     		adds	r3, r3, #32
 4533 01ea 1B68     		ldr	r3, [r3]
 4534 01ec FA68     		ldr	r2, [r7, #12]
 4535 01ee 2032     		adds	r2, r2, #32
 4536 01f0 23F40053 		bic	r3, r3, #8192
 4537 01f4 1360     		str	r3, [r2]
1319:C:/Users/leonardo/Desktop/Code/Github/DawnBGC/Libraries/FWLIB/src\gd32f4xx_timer.c ****         TIMER_CHCTL2(timer_periph) |= (uint32_t)((uint32_t)(timer_icpara->icpolarity)<< 12U);
 4538              		.loc 1 1319 36
 4539 01f6 FB68     		ldr	r3, [r7, #12]
 4540 01f8 2033     		adds	r3, r3, #32
 4541 01fa 1A68     		ldr	r2, [r3]
 4542              		.loc 1 1319 73
 4543 01fc 7B68     		ldr	r3, [r7, #4]
 4544 01fe 1B88     		ldrh	r3, [r3]
 4545              		.loc 1 1319 39
 4546 0200 1B03     		lsls	r3, r3, #12
 4547              		.loc 1 1319 36
 4548 0202 F968     		ldr	r1, [r7, #12]
 4549 0204 2031     		adds	r1, r1, #32
 4550 0206 1343     		orrs	r3, r3, r2
 4551 0208 0B60     		str	r3, [r1]
1320:C:/Users/leonardo/Desktop/Code/Github/DawnBGC/Libraries/FWLIB/src\gd32f4xx_timer.c **** 
1321:C:/Users/leonardo/Desktop/Code/Github/DawnBGC/Libraries/FWLIB/src\gd32f4xx_timer.c ****         /* reset the CH3MS bit */
1322:C:/Users/leonardo/Desktop/Code/Github/DawnBGC/Libraries/FWLIB/src\gd32f4xx_timer.c ****         TIMER_CHCTL1(timer_periph) &= (~(uint32_t)TIMER_CHCTL1_CH3MS);
 4552              		.loc 1 1322 36
 4553 020a FB68     		ldr	r3, [r7, #12]
 4554 020c 1C33     		adds	r3, r3, #28
 4555 020e 1B68     		ldr	r3, [r3]
 4556 0210 FA68     		ldr	r2, [r7, #12]
 4557 0212 1C32     		adds	r2, r2, #28
 4558 0214 23F44073 		bic	r3, r3, #768
 4559 0218 1360     		str	r3, [r2]
1323:C:/Users/leonardo/Desktop/Code/Github/DawnBGC/Libraries/FWLIB/src\gd32f4xx_timer.c ****         TIMER_CHCTL1(timer_periph) |= (uint32_t)((uint32_t)(timer_icpara->icselection)<< 8U);
 4560              		.loc 1 1323 36
 4561 021a FB68     		ldr	r3, [r7, #12]
 4562 021c 1C33     		adds	r3, r3, #28
 4563 021e 1A68     		ldr	r2, [r3]
 4564              		.loc 1 1323 73
 4565 0220 7B68     		ldr	r3, [r7, #4]
 4566 0222 5B88     		ldrh	r3, [r3, #2]
 4567              		.loc 1 1323 39
 4568 0224 1B02     		lsls	r3, r3, #8
 4569              		.loc 1 1323 36
 4570 0226 F968     		ldr	r1, [r7, #12]
 4571 0228 1C31     		adds	r1, r1, #28
 4572 022a 1343     		orrs	r3, r3, r2
 4573 022c 0B60     		str	r3, [r1]
1324:C:/Users/leonardo/Desktop/Code/Github/DawnBGC/Libraries/FWLIB/src\gd32f4xx_timer.c **** 
1325:C:/Users/leonardo/Desktop/Code/Github/DawnBGC/Libraries/FWLIB/src\gd32f4xx_timer.c ****         /* reset the CH3CAPFLT bit */
1326:C:/Users/leonardo/Desktop/Code/Github/DawnBGC/Libraries/FWLIB/src\gd32f4xx_timer.c ****         TIMER_CHCTL1(timer_periph) &= (~(uint32_t)TIMER_CHCTL1_CH3CAPFLT);
 4574              		.loc 1 1326 36
 4575 022e FB68     		ldr	r3, [r7, #12]
 4576 0230 1C33     		adds	r3, r3, #28
 4577 0232 1B68     		ldr	r3, [r3]
 4578 0234 FA68     		ldr	r2, [r7, #12]
 4579 0236 1C32     		adds	r2, r2, #28
 4580 0238 23F47043 		bic	r3, r3, #61440
 4581 023c 1360     		str	r3, [r2]
1327:C:/Users/leonardo/Desktop/Code/Github/DawnBGC/Libraries/FWLIB/src\gd32f4xx_timer.c ****         TIMER_CHCTL1(timer_periph) |= (uint32_t)((uint32_t)(timer_icpara->icfilter)<< 12U);
 4582              		.loc 1 1327 36
 4583 023e FB68     		ldr	r3, [r7, #12]
 4584 0240 1C33     		adds	r3, r3, #28
 4585 0242 1A68     		ldr	r2, [r3]
 4586              		.loc 1 1327 73
 4587 0244 7B68     		ldr	r3, [r7, #4]
 4588 0246 DB88     		ldrh	r3, [r3, #6]
 4589              		.loc 1 1327 39
 4590 0248 1B03     		lsls	r3, r3, #12
 4591              		.loc 1 1327 36
 4592 024a F968     		ldr	r1, [r7, #12]
 4593 024c 1C31     		adds	r1, r1, #28
 4594 024e 1343     		orrs	r3, r3, r2
 4595 0250 0B60     		str	r3, [r1]
1328:C:/Users/leonardo/Desktop/Code/Github/DawnBGC/Libraries/FWLIB/src\gd32f4xx_timer.c **** 
1329:C:/Users/leonardo/Desktop/Code/Github/DawnBGC/Libraries/FWLIB/src\gd32f4xx_timer.c ****         /* set the CH3EN bit */
1330:C:/Users/leonardo/Desktop/Code/Github/DawnBGC/Libraries/FWLIB/src\gd32f4xx_timer.c ****         TIMER_CHCTL2(timer_periph) |= (uint32_t)TIMER_CHCTL2_CH3EN;
 4596              		.loc 1 1330 36
 4597 0252 FB68     		ldr	r3, [r7, #12]
 4598 0254 2033     		adds	r3, r3, #32
 4599 0256 1B68     		ldr	r3, [r3]
 4600 0258 FA68     		ldr	r2, [r7, #12]
 4601 025a 2032     		adds	r2, r2, #32
 4602 025c 43F48053 		orr	r3, r3, #4096
 4603 0260 1360     		str	r3, [r2]
1331:C:/Users/leonardo/Desktop/Code/Github/DawnBGC/Libraries/FWLIB/src\gd32f4xx_timer.c ****         break;
 4604              		.loc 1 1331 9
 4605 0262 00E0     		b	.L196
 4606              	.L197:
1332:C:/Users/leonardo/Desktop/Code/Github/DawnBGC/Libraries/FWLIB/src\gd32f4xx_timer.c ****     default:
1333:C:/Users/leonardo/Desktop/Code/Github/DawnBGC/Libraries/FWLIB/src\gd32f4xx_timer.c ****         break;
 4607              		.loc 1 1333 9
 4608 0264 00BF     		nop
 4609              	.L196:
1334:C:/Users/leonardo/Desktop/Code/Github/DawnBGC/Libraries/FWLIB/src\gd32f4xx_timer.c ****     }
1335:C:/Users/leonardo/Desktop/Code/Github/DawnBGC/Libraries/FWLIB/src\gd32f4xx_timer.c ****     /* configure TIMER channel input capture prescaler value */
1336:C:/Users/leonardo/Desktop/Code/Github/DawnBGC/Libraries/FWLIB/src\gd32f4xx_timer.c ****     timer_channel_input_capture_prescaler_config(timer_periph,timer_channel,(uint16_t)(timer_icpara
 4610              		.loc 1 1336 100
 4611 0266 7B68     		ldr	r3, [r7, #4]
 4612 0268 9A88     		ldrh	r2, [r3, #4]
 4613              		.loc 1 1336 5
 4614 026a 7B89     		ldrh	r3, [r7, #10]
 4615 026c 1946     		mov	r1, r3
 4616 026e F868     		ldr	r0, [r7, #12]
 4617 0270 FFF7FEFF 		bl	timer_channel_input_capture_prescaler_config
1337:C:/Users/leonardo/Desktop/Code/Github/DawnBGC/Libraries/FWLIB/src\gd32f4xx_timer.c **** }
 4618              		.loc 1 1337 1
 4619 0274 00BF     		nop
 4620 0276 1037     		adds	r7, r7, #16
 4621              		.cfi_def_cfa_offset 8
 4622 0278 BD46     		mov	sp, r7
 4623              		.cfi_def_cfa_register 13
 4624              		@ sp needed
 4625 027a 80BD     		pop	{r7, pc}
 4626              		.cfi_endproc
 4627              	.LFE171:
 4629              		.section	.text.timer_channel_input_capture_prescaler_config,"ax",%progbits
 4630              		.align	1
 4631              		.global	timer_channel_input_capture_prescaler_config
 4632              		.syntax unified
 4633              		.thumb
 4634              		.thumb_func
 4635              		.fpu softvfp
 4637              	timer_channel_input_capture_prescaler_config:
 4638              	.LFB172:
1338:C:/Users/leonardo/Desktop/Code/Github/DawnBGC/Libraries/FWLIB/src\gd32f4xx_timer.c **** 
1339:C:/Users/leonardo/Desktop/Code/Github/DawnBGC/Libraries/FWLIB/src\gd32f4xx_timer.c **** /*!
1340:C:/Users/leonardo/Desktop/Code/Github/DawnBGC/Libraries/FWLIB/src\gd32f4xx_timer.c ****     \brief      configure TIMER channel input capture prescaler value
1341:C:/Users/leonardo/Desktop/Code/Github/DawnBGC/Libraries/FWLIB/src\gd32f4xx_timer.c ****     \param[in]  timer_periph: please refer to the following parameters
1342:C:/Users/leonardo/Desktop/Code/Github/DawnBGC/Libraries/FWLIB/src\gd32f4xx_timer.c ****     \param[in]  timer_channel: 
1343:C:/Users/leonardo/Desktop/Code/Github/DawnBGC/Libraries/FWLIB/src\gd32f4xx_timer.c ****       \arg        TIMER_CH_0: TIMER channel0(TIMERx(x=0..4,7..13))
1344:C:/Users/leonardo/Desktop/Code/Github/DawnBGC/Libraries/FWLIB/src\gd32f4xx_timer.c ****       \arg        TIMER_CH_1: TIMER channel1(TIMERx(x=0..4,7,8,11))
1345:C:/Users/leonardo/Desktop/Code/Github/DawnBGC/Libraries/FWLIB/src\gd32f4xx_timer.c ****       \arg        TIMER_CH_2: TIMER channel2(TIMERx(x=0..4,7))
1346:C:/Users/leonardo/Desktop/Code/Github/DawnBGC/Libraries/FWLIB/src\gd32f4xx_timer.c ****       \arg        TIMER_CH_3: TIMER channel3(TIMERx(x=0..4,7))
1347:C:/Users/leonardo/Desktop/Code/Github/DawnBGC/Libraries/FWLIB/src\gd32f4xx_timer.c ****     \param[in]  timer_prescaler: channel input capture prescaler value
1348:C:/Users/leonardo/Desktop/Code/Github/DawnBGC/Libraries/FWLIB/src\gd32f4xx_timer.c ****       \arg        TIMER_IC_PSC_DIV1: no prescaler
1349:C:/Users/leonardo/Desktop/Code/Github/DawnBGC/Libraries/FWLIB/src\gd32f4xx_timer.c ****       \arg        TIMER_IC_PSC_DIV2: divided by 2
1350:C:/Users/leonardo/Desktop/Code/Github/DawnBGC/Libraries/FWLIB/src\gd32f4xx_timer.c ****       \arg        TIMER_IC_PSC_DIV4: divided by 4
1351:C:/Users/leonardo/Desktop/Code/Github/DawnBGC/Libraries/FWLIB/src\gd32f4xx_timer.c ****       \arg        TIMER_IC_PSC_DIV8: divided by 8
1352:C:/Users/leonardo/Desktop/Code/Github/DawnBGC/Libraries/FWLIB/src\gd32f4xx_timer.c ****     \param[out] none
1353:C:/Users/leonardo/Desktop/Code/Github/DawnBGC/Libraries/FWLIB/src\gd32f4xx_timer.c ****     \retval     none
1354:C:/Users/leonardo/Desktop/Code/Github/DawnBGC/Libraries/FWLIB/src\gd32f4xx_timer.c **** */
1355:C:/Users/leonardo/Desktop/Code/Github/DawnBGC/Libraries/FWLIB/src\gd32f4xx_timer.c **** void timer_channel_input_capture_prescaler_config(uint32_t timer_periph,uint16_t timer_channel,uint
1356:C:/Users/leonardo/Desktop/Code/Github/DawnBGC/Libraries/FWLIB/src\gd32f4xx_timer.c **** {
 4639              		.loc 1 1356 1
 4640              		.cfi_startproc
 4641              		@ args = 0, pretend = 0, frame = 8
 4642              		@ frame_needed = 1, uses_anonymous_args = 0
 4643              		@ link register save eliminated.
 4644 0000 80B4     		push	{r7}
 4645              		.cfi_def_cfa_offset 4
 4646              		.cfi_offset 7, -4
 4647 0002 83B0     		sub	sp, sp, #12
 4648              		.cfi_def_cfa_offset 16
 4649 0004 00AF     		add	r7, sp, #0
 4650              		.cfi_def_cfa_register 7
 4651 0006 7860     		str	r0, [r7, #4]
 4652 0008 0B46     		mov	r3, r1
 4653 000a 7B80     		strh	r3, [r7, #2]	@ movhi
 4654 000c 1346     		mov	r3, r2	@ movhi
 4655 000e 3B80     		strh	r3, [r7]	@ movhi
1357:C:/Users/leonardo/Desktop/Code/Github/DawnBGC/Libraries/FWLIB/src\gd32f4xx_timer.c ****     switch(timer_channel){
 4656              		.loc 1 1357 5
 4657 0010 7B88     		ldrh	r3, [r7, #2]
 4658 0012 032B     		cmp	r3, #3
 4659 0014 50D8     		bhi	.L206
 4660 0016 01A2     		adr	r2, .L201
 4661 0018 52F823F0 		ldr	pc, [r2, r3, lsl #2]
 4662              		.p2align 2
 4663              	.L201:
 4664 001c 2D000000 		.word	.L204+1
 4665 0020 4F000000 		.word	.L203+1
 4666 0024 73000000 		.word	.L202+1
 4667 0028 95000000 		.word	.L200+1
 4668              		.p2align 1
 4669              	.L204:
1358:C:/Users/leonardo/Desktop/Code/Github/DawnBGC/Libraries/FWLIB/src\gd32f4xx_timer.c ****     /* configure TIMER_CH_0 */
1359:C:/Users/leonardo/Desktop/Code/Github/DawnBGC/Libraries/FWLIB/src\gd32f4xx_timer.c ****     case TIMER_CH_0:
1360:C:/Users/leonardo/Desktop/Code/Github/DawnBGC/Libraries/FWLIB/src\gd32f4xx_timer.c ****         TIMER_CHCTL0(timer_periph) &= (~(uint32_t)TIMER_CHCTL0_CH0CAPPSC);
 4670              		.loc 1 1360 36
 4671 002c 7B68     		ldr	r3, [r7, #4]
 4672 002e 1833     		adds	r3, r3, #24
 4673 0030 1B68     		ldr	r3, [r3]
 4674 0032 7A68     		ldr	r2, [r7, #4]
 4675 0034 1832     		adds	r2, r2, #24
 4676 0036 23F00C03 		bic	r3, r3, #12
 4677 003a 1360     		str	r3, [r2]
1361:C:/Users/leonardo/Desktop/Code/Github/DawnBGC/Libraries/FWLIB/src\gd32f4xx_timer.c ****         TIMER_CHCTL0(timer_periph) |= (uint32_t)timer_prescaler;
 4678              		.loc 1 1361 36
 4679 003c 7B68     		ldr	r3, [r7, #4]
 4680 003e 1833     		adds	r3, r3, #24
 4681 0040 1A68     		ldr	r2, [r3]
 4682              		.loc 1 1361 39
 4683 0042 3B88     		ldrh	r3, [r7]
 4684              		.loc 1 1361 36
 4685 0044 7968     		ldr	r1, [r7, #4]
 4686 0046 1831     		adds	r1, r1, #24
 4687 0048 1343     		orrs	r3, r3, r2
 4688 004a 0B60     		str	r3, [r1]
1362:C:/Users/leonardo/Desktop/Code/Github/DawnBGC/Libraries/FWLIB/src\gd32f4xx_timer.c ****         break;
 4689              		.loc 1 1362 9
 4690 004c 35E0     		b	.L205
 4691              	.L203:
1363:C:/Users/leonardo/Desktop/Code/Github/DawnBGC/Libraries/FWLIB/src\gd32f4xx_timer.c ****     /* configure TIMER_CH_1 */
1364:C:/Users/leonardo/Desktop/Code/Github/DawnBGC/Libraries/FWLIB/src\gd32f4xx_timer.c ****     case TIMER_CH_1:
1365:C:/Users/leonardo/Desktop/Code/Github/DawnBGC/Libraries/FWLIB/src\gd32f4xx_timer.c ****         TIMER_CHCTL0(timer_periph) &= (~(uint32_t)TIMER_CHCTL0_CH1CAPPSC);
 4692              		.loc 1 1365 36
 4693 004e 7B68     		ldr	r3, [r7, #4]
 4694 0050 1833     		adds	r3, r3, #24
 4695 0052 1B68     		ldr	r3, [r3]
 4696 0054 7A68     		ldr	r2, [r7, #4]
 4697 0056 1832     		adds	r2, r2, #24
 4698 0058 23F44063 		bic	r3, r3, #3072
 4699 005c 1360     		str	r3, [r2]
1366:C:/Users/leonardo/Desktop/Code/Github/DawnBGC/Libraries/FWLIB/src\gd32f4xx_timer.c ****         TIMER_CHCTL0(timer_periph) |= ((uint32_t)timer_prescaler << 8U);
 4700              		.loc 1 1366 36
 4701 005e 7B68     		ldr	r3, [r7, #4]
 4702 0060 1833     		adds	r3, r3, #24
 4703 0062 1A68     		ldr	r2, [r3]
 4704              		.loc 1 1366 40
 4705 0064 3B88     		ldrh	r3, [r7]
 4706              		.loc 1 1366 66
 4707 0066 1B02     		lsls	r3, r3, #8
 4708              		.loc 1 1366 36
 4709 0068 7968     		ldr	r1, [r7, #4]
 4710 006a 1831     		adds	r1, r1, #24
 4711 006c 1343     		orrs	r3, r3, r2
 4712 006e 0B60     		str	r3, [r1]
1367:C:/Users/leonardo/Desktop/Code/Github/DawnBGC/Libraries/FWLIB/src\gd32f4xx_timer.c ****         break;
 4713              		.loc 1 1367 9
 4714 0070 23E0     		b	.L205
 4715              	.L202:
1368:C:/Users/leonardo/Desktop/Code/Github/DawnBGC/Libraries/FWLIB/src\gd32f4xx_timer.c ****     /* configure TIMER_CH_2 */
1369:C:/Users/leonardo/Desktop/Code/Github/DawnBGC/Libraries/FWLIB/src\gd32f4xx_timer.c ****     case TIMER_CH_2:
1370:C:/Users/leonardo/Desktop/Code/Github/DawnBGC/Libraries/FWLIB/src\gd32f4xx_timer.c ****         TIMER_CHCTL1(timer_periph) &= (~(uint32_t)TIMER_CHCTL1_CH2CAPPSC);
 4716              		.loc 1 1370 36
 4717 0072 7B68     		ldr	r3, [r7, #4]
 4718 0074 1C33     		adds	r3, r3, #28
 4719 0076 1B68     		ldr	r3, [r3]
 4720 0078 7A68     		ldr	r2, [r7, #4]
 4721 007a 1C32     		adds	r2, r2, #28
 4722 007c 23F00C03 		bic	r3, r3, #12
 4723 0080 1360     		str	r3, [r2]
1371:C:/Users/leonardo/Desktop/Code/Github/DawnBGC/Libraries/FWLIB/src\gd32f4xx_timer.c ****         TIMER_CHCTL1(timer_periph) |= (uint32_t)timer_prescaler;
 4724              		.loc 1 1371 36
 4725 0082 7B68     		ldr	r3, [r7, #4]
 4726 0084 1C33     		adds	r3, r3, #28
 4727 0086 1A68     		ldr	r2, [r3]
 4728              		.loc 1 1371 39
 4729 0088 3B88     		ldrh	r3, [r7]
 4730              		.loc 1 1371 36
 4731 008a 7968     		ldr	r1, [r7, #4]
 4732 008c 1C31     		adds	r1, r1, #28
 4733 008e 1343     		orrs	r3, r3, r2
 4734 0090 0B60     		str	r3, [r1]
1372:C:/Users/leonardo/Desktop/Code/Github/DawnBGC/Libraries/FWLIB/src\gd32f4xx_timer.c ****         break;
 4735              		.loc 1 1372 9
 4736 0092 12E0     		b	.L205
 4737              	.L200:
1373:C:/Users/leonardo/Desktop/Code/Github/DawnBGC/Libraries/FWLIB/src\gd32f4xx_timer.c ****     /* configure TIMER_CH_3 */
1374:C:/Users/leonardo/Desktop/Code/Github/DawnBGC/Libraries/FWLIB/src\gd32f4xx_timer.c ****     case TIMER_CH_3:
1375:C:/Users/leonardo/Desktop/Code/Github/DawnBGC/Libraries/FWLIB/src\gd32f4xx_timer.c ****         TIMER_CHCTL1(timer_periph) &= (~(uint32_t)TIMER_CHCTL1_CH3CAPPSC);
 4738              		.loc 1 1375 36
 4739 0094 7B68     		ldr	r3, [r7, #4]
 4740 0096 1C33     		adds	r3, r3, #28
 4741 0098 1B68     		ldr	r3, [r3]
 4742 009a 7A68     		ldr	r2, [r7, #4]
 4743 009c 1C32     		adds	r2, r2, #28
 4744 009e 23F44063 		bic	r3, r3, #3072
 4745 00a2 1360     		str	r3, [r2]
1376:C:/Users/leonardo/Desktop/Code/Github/DawnBGC/Libraries/FWLIB/src\gd32f4xx_timer.c ****         TIMER_CHCTL1(timer_periph) |= ((uint32_t)timer_prescaler << 8U);
 4746              		.loc 1 1376 36
 4747 00a4 7B68     		ldr	r3, [r7, #4]
 4748 00a6 1C33     		adds	r3, r3, #28
 4749 00a8 1A68     		ldr	r2, [r3]
 4750              		.loc 1 1376 40
 4751 00aa 3B88     		ldrh	r3, [r7]
 4752              		.loc 1 1376 66
 4753 00ac 1B02     		lsls	r3, r3, #8
 4754              		.loc 1 1376 36
 4755 00ae 7968     		ldr	r1, [r7, #4]
 4756 00b0 1C31     		adds	r1, r1, #28
 4757 00b2 1343     		orrs	r3, r3, r2
 4758 00b4 0B60     		str	r3, [r1]
1377:C:/Users/leonardo/Desktop/Code/Github/DawnBGC/Libraries/FWLIB/src\gd32f4xx_timer.c ****         break;
 4759              		.loc 1 1377 9
 4760 00b6 00E0     		b	.L205
 4761              	.L206:
1378:C:/Users/leonardo/Desktop/Code/Github/DawnBGC/Libraries/FWLIB/src\gd32f4xx_timer.c ****     default:
1379:C:/Users/leonardo/Desktop/Code/Github/DawnBGC/Libraries/FWLIB/src\gd32f4xx_timer.c ****         break;
 4762              		.loc 1 1379 9
 4763 00b8 00BF     		nop
 4764              	.L205:
1380:C:/Users/leonardo/Desktop/Code/Github/DawnBGC/Libraries/FWLIB/src\gd32f4xx_timer.c ****     }
1381:C:/Users/leonardo/Desktop/Code/Github/DawnBGC/Libraries/FWLIB/src\gd32f4xx_timer.c **** }
 4765              		.loc 1 1381 1
 4766 00ba 00BF     		nop
 4767 00bc 0C37     		adds	r7, r7, #12
 4768              		.cfi_def_cfa_offset 4
 4769 00be BD46     		mov	sp, r7
 4770              		.cfi_def_cfa_register 13
 4771              		@ sp needed
 4772 00c0 80BC     		pop	{r7}
 4773              		.cfi_restore 7
 4774              		.cfi_def_cfa_offset 0
 4775 00c2 7047     		bx	lr
 4776              		.cfi_endproc
 4777              	.LFE172:
 4779              		.section	.text.timer_channel_capture_value_register_read,"ax",%progbits
 4780              		.align	1
 4781              		.global	timer_channel_capture_value_register_read
 4782              		.syntax unified
 4783              		.thumb
 4784              		.thumb_func
 4785              		.fpu softvfp
 4787              	timer_channel_capture_value_register_read:
 4788              	.LFB173:
1382:C:/Users/leonardo/Desktop/Code/Github/DawnBGC/Libraries/FWLIB/src\gd32f4xx_timer.c **** 
1383:C:/Users/leonardo/Desktop/Code/Github/DawnBGC/Libraries/FWLIB/src\gd32f4xx_timer.c **** /*!
1384:C:/Users/leonardo/Desktop/Code/Github/DawnBGC/Libraries/FWLIB/src\gd32f4xx_timer.c ****     \brief      read TIMER channel capture compare register value
1385:C:/Users/leonardo/Desktop/Code/Github/DawnBGC/Libraries/FWLIB/src\gd32f4xx_timer.c ****     \param[in]  timer_periph: please refer to the following parameters
1386:C:/Users/leonardo/Desktop/Code/Github/DawnBGC/Libraries/FWLIB/src\gd32f4xx_timer.c ****     \param[in]  timer_channel: 
1387:C:/Users/leonardo/Desktop/Code/Github/DawnBGC/Libraries/FWLIB/src\gd32f4xx_timer.c ****       \arg        TIMER_CH_0: TIMER channel0(TIMERx(x=0..4,7..13))
1388:C:/Users/leonardo/Desktop/Code/Github/DawnBGC/Libraries/FWLIB/src\gd32f4xx_timer.c ****       \arg        TIMER_CH_1: TIMER channel1(TIMERx(x=0..4,7,8,11))
1389:C:/Users/leonardo/Desktop/Code/Github/DawnBGC/Libraries/FWLIB/src\gd32f4xx_timer.c ****       \arg        TIMER_CH_2: TIMER channel2(TIMERx(x=0..4,7))
1390:C:/Users/leonardo/Desktop/Code/Github/DawnBGC/Libraries/FWLIB/src\gd32f4xx_timer.c ****       \arg        TIMER_CH_3: TIMER channel3(TIMERx(x=0..4,7))
1391:C:/Users/leonardo/Desktop/Code/Github/DawnBGC/Libraries/FWLIB/src\gd32f4xx_timer.c ****     \param[out] none
1392:C:/Users/leonardo/Desktop/Code/Github/DawnBGC/Libraries/FWLIB/src\gd32f4xx_timer.c ****     \retval     channel capture compare register value
1393:C:/Users/leonardo/Desktop/Code/Github/DawnBGC/Libraries/FWLIB/src\gd32f4xx_timer.c **** */
1394:C:/Users/leonardo/Desktop/Code/Github/DawnBGC/Libraries/FWLIB/src\gd32f4xx_timer.c **** uint32_t timer_channel_capture_value_register_read(uint32_t timer_periph,uint16_t timer_channel)
1395:C:/Users/leonardo/Desktop/Code/Github/DawnBGC/Libraries/FWLIB/src\gd32f4xx_timer.c **** {
 4789              		.loc 1 1395 1
 4790              		.cfi_startproc
 4791              		@ args = 0, pretend = 0, frame = 16
 4792              		@ frame_needed = 1, uses_anonymous_args = 0
 4793              		@ link register save eliminated.
 4794 0000 80B4     		push	{r7}
 4795              		.cfi_def_cfa_offset 4
 4796              		.cfi_offset 7, -4
 4797 0002 85B0     		sub	sp, sp, #20
 4798              		.cfi_def_cfa_offset 24
 4799 0004 00AF     		add	r7, sp, #0
 4800              		.cfi_def_cfa_register 7
 4801 0006 7860     		str	r0, [r7, #4]
 4802 0008 0B46     		mov	r3, r1
 4803 000a 7B80     		strh	r3, [r7, #2]	@ movhi
1396:C:/Users/leonardo/Desktop/Code/Github/DawnBGC/Libraries/FWLIB/src\gd32f4xx_timer.c ****     uint32_t count_value = 0U;
 4804              		.loc 1 1396 14
 4805 000c 0023     		movs	r3, #0
 4806 000e FB60     		str	r3, [r7, #12]
1397:C:/Users/leonardo/Desktop/Code/Github/DawnBGC/Libraries/FWLIB/src\gd32f4xx_timer.c **** 
1398:C:/Users/leonardo/Desktop/Code/Github/DawnBGC/Libraries/FWLIB/src\gd32f4xx_timer.c ****     switch(timer_channel){
 4807              		.loc 1 1398 5
 4808 0010 7B88     		ldrh	r3, [r7, #2]
 4809 0012 032B     		cmp	r3, #3
 4810 0014 1ED8     		bhi	.L216
 4811 0016 01A2     		adr	r2, .L210
 4812 0018 52F823F0 		ldr	pc, [r2, r3, lsl #2]
 4813              		.p2align 2
 4814              	.L210:
 4815 001c 2D000000 		.word	.L213+1
 4816 0020 37000000 		.word	.L212+1
 4817 0024 41000000 		.word	.L211+1
 4818 0028 4B000000 		.word	.L209+1
 4819              		.p2align 1
 4820              	.L213:
1399:C:/Users/leonardo/Desktop/Code/Github/DawnBGC/Libraries/FWLIB/src\gd32f4xx_timer.c ****     case TIMER_CH_0:
1400:C:/Users/leonardo/Desktop/Code/Github/DawnBGC/Libraries/FWLIB/src\gd32f4xx_timer.c ****         count_value = TIMER_CH0CV(timer_periph);
 4821              		.loc 1 1400 23
 4822 002c 7B68     		ldr	r3, [r7, #4]
 4823 002e 3433     		adds	r3, r3, #52
 4824              		.loc 1 1400 21
 4825 0030 1B68     		ldr	r3, [r3]
 4826 0032 FB60     		str	r3, [r7, #12]
1401:C:/Users/leonardo/Desktop/Code/Github/DawnBGC/Libraries/FWLIB/src\gd32f4xx_timer.c ****         break;
 4827              		.loc 1 1401 9
 4828 0034 0FE0     		b	.L214
 4829              	.L212:
1402:C:/Users/leonardo/Desktop/Code/Github/DawnBGC/Libraries/FWLIB/src\gd32f4xx_timer.c ****     case TIMER_CH_1:
1403:C:/Users/leonardo/Desktop/Code/Github/DawnBGC/Libraries/FWLIB/src\gd32f4xx_timer.c ****         count_value = TIMER_CH1CV(timer_periph);
 4830              		.loc 1 1403 23
 4831 0036 7B68     		ldr	r3, [r7, #4]
 4832 0038 3833     		adds	r3, r3, #56
 4833              		.loc 1 1403 21
 4834 003a 1B68     		ldr	r3, [r3]
 4835 003c FB60     		str	r3, [r7, #12]
1404:C:/Users/leonardo/Desktop/Code/Github/DawnBGC/Libraries/FWLIB/src\gd32f4xx_timer.c ****         break;
 4836              		.loc 1 1404 9
 4837 003e 0AE0     		b	.L214
 4838              	.L211:
1405:C:/Users/leonardo/Desktop/Code/Github/DawnBGC/Libraries/FWLIB/src\gd32f4xx_timer.c ****     case TIMER_CH_2:
1406:C:/Users/leonardo/Desktop/Code/Github/DawnBGC/Libraries/FWLIB/src\gd32f4xx_timer.c ****         count_value = TIMER_CH2CV(timer_periph);
 4839              		.loc 1 1406 23
 4840 0040 7B68     		ldr	r3, [r7, #4]
 4841 0042 3C33     		adds	r3, r3, #60
 4842              		.loc 1 1406 21
 4843 0044 1B68     		ldr	r3, [r3]
 4844 0046 FB60     		str	r3, [r7, #12]
1407:C:/Users/leonardo/Desktop/Code/Github/DawnBGC/Libraries/FWLIB/src\gd32f4xx_timer.c ****         break;
 4845              		.loc 1 1407 9
 4846 0048 05E0     		b	.L214
 4847              	.L209:
1408:C:/Users/leonardo/Desktop/Code/Github/DawnBGC/Libraries/FWLIB/src\gd32f4xx_timer.c ****     case TIMER_CH_3:
1409:C:/Users/leonardo/Desktop/Code/Github/DawnBGC/Libraries/FWLIB/src\gd32f4xx_timer.c ****         count_value = TIMER_CH3CV(timer_periph);
 4848              		.loc 1 1409 23
 4849 004a 7B68     		ldr	r3, [r7, #4]
 4850 004c 4033     		adds	r3, r3, #64
 4851              		.loc 1 1409 21
 4852 004e 1B68     		ldr	r3, [r3]
 4853 0050 FB60     		str	r3, [r7, #12]
1410:C:/Users/leonardo/Desktop/Code/Github/DawnBGC/Libraries/FWLIB/src\gd32f4xx_timer.c ****         break;
 4854              		.loc 1 1410 9
 4855 0052 00E0     		b	.L214
 4856              	.L216:
1411:C:/Users/leonardo/Desktop/Code/Github/DawnBGC/Libraries/FWLIB/src\gd32f4xx_timer.c ****     default:
1412:C:/Users/leonardo/Desktop/Code/Github/DawnBGC/Libraries/FWLIB/src\gd32f4xx_timer.c ****         break;
 4857              		.loc 1 1412 9
 4858 0054 00BF     		nop
 4859              	.L214:
1413:C:/Users/leonardo/Desktop/Code/Github/DawnBGC/Libraries/FWLIB/src\gd32f4xx_timer.c ****     }
1414:C:/Users/leonardo/Desktop/Code/Github/DawnBGC/Libraries/FWLIB/src\gd32f4xx_timer.c ****     return (count_value);
 4860              		.loc 1 1414 12
 4861 0056 FB68     		ldr	r3, [r7, #12]
1415:C:/Users/leonardo/Desktop/Code/Github/DawnBGC/Libraries/FWLIB/src\gd32f4xx_timer.c **** }
 4862              		.loc 1 1415 1
 4863 0058 1846     		mov	r0, r3
 4864 005a 1437     		adds	r7, r7, #20
 4865              		.cfi_def_cfa_offset 4
 4866 005c BD46     		mov	sp, r7
 4867              		.cfi_def_cfa_register 13
 4868              		@ sp needed
 4869 005e 80BC     		pop	{r7}
 4870              		.cfi_restore 7
 4871              		.cfi_def_cfa_offset 0
 4872 0060 7047     		bx	lr
 4873              		.cfi_endproc
 4874              	.LFE173:
 4876 0062 00BF     		.section	.text.timer_input_pwm_capture_config,"ax",%progbits
 4877              		.align	1
 4878              		.global	timer_input_pwm_capture_config
 4879              		.syntax unified
 4880              		.thumb
 4881              		.thumb_func
 4882              		.fpu softvfp
 4884              	timer_input_pwm_capture_config:
 4885              	.LFB174:
1416:C:/Users/leonardo/Desktop/Code/Github/DawnBGC/Libraries/FWLIB/src\gd32f4xx_timer.c **** 
1417:C:/Users/leonardo/Desktop/Code/Github/DawnBGC/Libraries/FWLIB/src\gd32f4xx_timer.c **** /*!
1418:C:/Users/leonardo/Desktop/Code/Github/DawnBGC/Libraries/FWLIB/src\gd32f4xx_timer.c ****     \brief      configure TIMER input pwm capture function 
1419:C:/Users/leonardo/Desktop/Code/Github/DawnBGC/Libraries/FWLIB/src\gd32f4xx_timer.c ****     \param[in]  timer_periph: TIMERx(x=0..4,7,8,11)
1420:C:/Users/leonardo/Desktop/Code/Github/DawnBGC/Libraries/FWLIB/src\gd32f4xx_timer.c ****     \param[in]  timer_channel: 
1421:C:/Users/leonardo/Desktop/Code/Github/DawnBGC/Libraries/FWLIB/src\gd32f4xx_timer.c ****       \arg        TIMER_CH_0: TIMER channel0
1422:C:/Users/leonardo/Desktop/Code/Github/DawnBGC/Libraries/FWLIB/src\gd32f4xx_timer.c ****       \arg        TIMER_CH_1: TIMER channel1
1423:C:/Users/leonardo/Desktop/Code/Github/DawnBGC/Libraries/FWLIB/src\gd32f4xx_timer.c ****      \param[in]  timer_icpwm:TIMER channel intput pwm parameter struct
1424:C:/Users/leonardo/Desktop/Code/Github/DawnBGC/Libraries/FWLIB/src\gd32f4xx_timer.c ****                  icpolarity: TIMER_IC_POLARITY_RISING,TIMER_IC_POLARITY_FALLING
1425:C:/Users/leonardo/Desktop/Code/Github/DawnBGC/Libraries/FWLIB/src\gd32f4xx_timer.c ****                  icselection: TIMER_IC_SELECTION_DIRECTTI,TIMER_IC_SELECTION_INDIRECTTI
1426:C:/Users/leonardo/Desktop/Code/Github/DawnBGC/Libraries/FWLIB/src\gd32f4xx_timer.c ****                  icprescaler: TIMER_IC_PSC_DIV1,TIMER_IC_PSC_DIV2,TIMER_IC_PSC_DIV4,TIMER_IC_PSC_DI
1427:C:/Users/leonardo/Desktop/Code/Github/DawnBGC/Libraries/FWLIB/src\gd32f4xx_timer.c ****                  icfilter: 0~15
1428:C:/Users/leonardo/Desktop/Code/Github/DawnBGC/Libraries/FWLIB/src\gd32f4xx_timer.c ****     \param[out] none
1429:C:/Users/leonardo/Desktop/Code/Github/DawnBGC/Libraries/FWLIB/src\gd32f4xx_timer.c ****     \retval     none
1430:C:/Users/leonardo/Desktop/Code/Github/DawnBGC/Libraries/FWLIB/src\gd32f4xx_timer.c **** */
1431:C:/Users/leonardo/Desktop/Code/Github/DawnBGC/Libraries/FWLIB/src\gd32f4xx_timer.c **** void timer_input_pwm_capture_config(uint32_t timer_periph,uint16_t timer_channel,timer_ic_parameter
1432:C:/Users/leonardo/Desktop/Code/Github/DawnBGC/Libraries/FWLIB/src\gd32f4xx_timer.c **** {
 4886              		.loc 1 1432 1
 4887              		.cfi_startproc
 4888              		@ args = 0, pretend = 0, frame = 24
 4889              		@ frame_needed = 1, uses_anonymous_args = 0
 4890 0000 80B5     		push	{r7, lr}
 4891              		.cfi_def_cfa_offset 8
 4892              		.cfi_offset 7, -8
 4893              		.cfi_offset 14, -4
 4894 0002 86B0     		sub	sp, sp, #24
 4895              		.cfi_def_cfa_offset 32
 4896 0004 00AF     		add	r7, sp, #0
 4897              		.cfi_def_cfa_register 7
 4898 0006 F860     		str	r0, [r7, #12]
 4899 0008 0B46     		mov	r3, r1
 4900 000a 7A60     		str	r2, [r7, #4]
 4901 000c 7B81     		strh	r3, [r7, #10]	@ movhi
1433:C:/Users/leonardo/Desktop/Code/Github/DawnBGC/Libraries/FWLIB/src\gd32f4xx_timer.c ****     uint16_t icpolarity  = 0x0U;
 4902              		.loc 1 1433 14
 4903 000e 0023     		movs	r3, #0
 4904 0010 FB82     		strh	r3, [r7, #22]	@ movhi
1434:C:/Users/leonardo/Desktop/Code/Github/DawnBGC/Libraries/FWLIB/src\gd32f4xx_timer.c ****     uint16_t icselection = 0x0U;
 4905              		.loc 1 1434 14
 4906 0012 0023     		movs	r3, #0
 4907 0014 BB82     		strh	r3, [r7, #20]	@ movhi
1435:C:/Users/leonardo/Desktop/Code/Github/DawnBGC/Libraries/FWLIB/src\gd32f4xx_timer.c **** 
1436:C:/Users/leonardo/Desktop/Code/Github/DawnBGC/Libraries/FWLIB/src\gd32f4xx_timer.c ****     if(TIMER_IC_POLARITY_RISING == timer_icpwm->icpolarity){
 4908              		.loc 1 1436 47
 4909 0016 7B68     		ldr	r3, [r7, #4]
 4910 0018 1B88     		ldrh	r3, [r3]
 4911              		.loc 1 1436 7
 4912 001a 002B     		cmp	r3, #0
 4913 001c 02D1     		bne	.L218
1437:C:/Users/leonardo/Desktop/Code/Github/DawnBGC/Libraries/FWLIB/src\gd32f4xx_timer.c ****         icpolarity = TIMER_IC_POLARITY_FALLING;
 4914              		.loc 1 1437 20
 4915 001e 0223     		movs	r3, #2
 4916 0020 FB82     		strh	r3, [r7, #22]	@ movhi
 4917 0022 01E0     		b	.L219
 4918              	.L218:
1438:C:/Users/leonardo/Desktop/Code/Github/DawnBGC/Libraries/FWLIB/src\gd32f4xx_timer.c ****     }else{
1439:C:/Users/leonardo/Desktop/Code/Github/DawnBGC/Libraries/FWLIB/src\gd32f4xx_timer.c ****         icpolarity = TIMER_IC_POLARITY_RISING;
 4919              		.loc 1 1439 20
 4920 0024 0023     		movs	r3, #0
 4921 0026 FB82     		strh	r3, [r7, #22]	@ movhi
 4922              	.L219:
1440:C:/Users/leonardo/Desktop/Code/Github/DawnBGC/Libraries/FWLIB/src\gd32f4xx_timer.c ****     }
1441:C:/Users/leonardo/Desktop/Code/Github/DawnBGC/Libraries/FWLIB/src\gd32f4xx_timer.c **** 
1442:C:/Users/leonardo/Desktop/Code/Github/DawnBGC/Libraries/FWLIB/src\gd32f4xx_timer.c ****     if(TIMER_IC_SELECTION_DIRECTTI == timer_icpwm->icselection){
 4923              		.loc 1 1442 50
 4924 0028 7B68     		ldr	r3, [r7, #4]
 4925 002a 5B88     		ldrh	r3, [r3, #2]
 4926              		.loc 1 1442 7
 4927 002c 012B     		cmp	r3, #1
 4928 002e 02D1     		bne	.L220
1443:C:/Users/leonardo/Desktop/Code/Github/DawnBGC/Libraries/FWLIB/src\gd32f4xx_timer.c ****         icselection = TIMER_IC_SELECTION_INDIRECTTI;
 4929              		.loc 1 1443 21
 4930 0030 0223     		movs	r3, #2
 4931 0032 BB82     		strh	r3, [r7, #20]	@ movhi
 4932 0034 01E0     		b	.L221
 4933              	.L220:
1444:C:/Users/leonardo/Desktop/Code/Github/DawnBGC/Libraries/FWLIB/src\gd32f4xx_timer.c ****     }else{
1445:C:/Users/leonardo/Desktop/Code/Github/DawnBGC/Libraries/FWLIB/src\gd32f4xx_timer.c ****         icselection = TIMER_IC_SELECTION_DIRECTTI;
 4934              		.loc 1 1445 21
 4935 0036 0123     		movs	r3, #1
 4936 0038 BB82     		strh	r3, [r7, #20]	@ movhi
 4937              	.L221:
1446:C:/Users/leonardo/Desktop/Code/Github/DawnBGC/Libraries/FWLIB/src\gd32f4xx_timer.c ****     }
1447:C:/Users/leonardo/Desktop/Code/Github/DawnBGC/Libraries/FWLIB/src\gd32f4xx_timer.c **** 
1448:C:/Users/leonardo/Desktop/Code/Github/DawnBGC/Libraries/FWLIB/src\gd32f4xx_timer.c ****     if(TIMER_CH_0 == timer_channel){
 4938              		.loc 1 1448 7
 4939 003a 7B89     		ldrh	r3, [r7, #10]
 4940 003c 002B     		cmp	r3, #0
 4941 003e 40F09980 		bne	.L222
1449:C:/Users/leonardo/Desktop/Code/Github/DawnBGC/Libraries/FWLIB/src\gd32f4xx_timer.c ****         /* reset the CH0EN bit */
1450:C:/Users/leonardo/Desktop/Code/Github/DawnBGC/Libraries/FWLIB/src\gd32f4xx_timer.c ****         TIMER_CHCTL2(timer_periph) &= (~(uint32_t)TIMER_CHCTL2_CH0EN);
 4942              		.loc 1 1450 36
 4943 0042 FB68     		ldr	r3, [r7, #12]
 4944 0044 2033     		adds	r3, r3, #32
 4945 0046 1B68     		ldr	r3, [r3]
 4946 0048 FA68     		ldr	r2, [r7, #12]
 4947 004a 2032     		adds	r2, r2, #32
 4948 004c 23F00103 		bic	r3, r3, #1
 4949 0050 1360     		str	r3, [r2]
1451:C:/Users/leonardo/Desktop/Code/Github/DawnBGC/Libraries/FWLIB/src\gd32f4xx_timer.c ****         /* reset the CH0P and CH0NP bits */
1452:C:/Users/leonardo/Desktop/Code/Github/DawnBGC/Libraries/FWLIB/src\gd32f4xx_timer.c ****         TIMER_CHCTL2(timer_periph) &= (~(uint32_t)(TIMER_CHCTL2_CH0P|TIMER_CHCTL2_CH0NP));
 4950              		.loc 1 1452 36
 4951 0052 FB68     		ldr	r3, [r7, #12]
 4952 0054 2033     		adds	r3, r3, #32
 4953 0056 1B68     		ldr	r3, [r3]
 4954 0058 FA68     		ldr	r2, [r7, #12]
 4955 005a 2032     		adds	r2, r2, #32
 4956 005c 23F00A03 		bic	r3, r3, #10
 4957 0060 1360     		str	r3, [r2]
1453:C:/Users/leonardo/Desktop/Code/Github/DawnBGC/Libraries/FWLIB/src\gd32f4xx_timer.c ****         /* set the CH0P and CH0NP bits */
1454:C:/Users/leonardo/Desktop/Code/Github/DawnBGC/Libraries/FWLIB/src\gd32f4xx_timer.c ****         TIMER_CHCTL2(timer_periph) |= (uint32_t)(timer_icpwm->icpolarity);
 4958              		.loc 1 1454 36
 4959 0062 FB68     		ldr	r3, [r7, #12]
 4960 0064 2033     		adds	r3, r3, #32
 4961 0066 1B68     		ldr	r3, [r3]
 4962              		.loc 1 1454 61
 4963 0068 7A68     		ldr	r2, [r7, #4]
 4964 006a 1288     		ldrh	r2, [r2]
 4965              		.loc 1 1454 39
 4966 006c 1146     		mov	r1, r2
 4967              		.loc 1 1454 36
 4968 006e FA68     		ldr	r2, [r7, #12]
 4969 0070 2032     		adds	r2, r2, #32
 4970 0072 0B43     		orrs	r3, r3, r1
 4971 0074 1360     		str	r3, [r2]
1455:C:/Users/leonardo/Desktop/Code/Github/DawnBGC/Libraries/FWLIB/src\gd32f4xx_timer.c ****         /* reset the CH0MS bit */
1456:C:/Users/leonardo/Desktop/Code/Github/DawnBGC/Libraries/FWLIB/src\gd32f4xx_timer.c ****         TIMER_CHCTL0(timer_periph) &= (~(uint32_t)TIMER_CHCTL0_CH0MS);
 4972              		.loc 1 1456 36
 4973 0076 FB68     		ldr	r3, [r7, #12]
 4974 0078 1833     		adds	r3, r3, #24
 4975 007a 1B68     		ldr	r3, [r3]
 4976 007c FA68     		ldr	r2, [r7, #12]
 4977 007e 1832     		adds	r2, r2, #24
 4978 0080 23F00303 		bic	r3, r3, #3
 4979 0084 1360     		str	r3, [r2]
1457:C:/Users/leonardo/Desktop/Code/Github/DawnBGC/Libraries/FWLIB/src\gd32f4xx_timer.c ****         /* set the CH0MS bit */
1458:C:/Users/leonardo/Desktop/Code/Github/DawnBGC/Libraries/FWLIB/src\gd32f4xx_timer.c ****         TIMER_CHCTL0(timer_periph) |= (uint32_t)(timer_icpwm->icselection);
 4980              		.loc 1 1458 36
 4981 0086 FB68     		ldr	r3, [r7, #12]
 4982 0088 1833     		adds	r3, r3, #24
 4983 008a 1B68     		ldr	r3, [r3]
 4984              		.loc 1 1458 61
 4985 008c 7A68     		ldr	r2, [r7, #4]
 4986 008e 5288     		ldrh	r2, [r2, #2]
 4987              		.loc 1 1458 39
 4988 0090 1146     		mov	r1, r2
 4989              		.loc 1 1458 36
 4990 0092 FA68     		ldr	r2, [r7, #12]
 4991 0094 1832     		adds	r2, r2, #24
 4992 0096 0B43     		orrs	r3, r3, r1
 4993 0098 1360     		str	r3, [r2]
1459:C:/Users/leonardo/Desktop/Code/Github/DawnBGC/Libraries/FWLIB/src\gd32f4xx_timer.c ****         /* reset the CH0CAPFLT bit */
1460:C:/Users/leonardo/Desktop/Code/Github/DawnBGC/Libraries/FWLIB/src\gd32f4xx_timer.c ****         TIMER_CHCTL0(timer_periph) &= (~(uint32_t)TIMER_CHCTL0_CH0CAPFLT);
 4994              		.loc 1 1460 36
 4995 009a FB68     		ldr	r3, [r7, #12]
 4996 009c 1833     		adds	r3, r3, #24
 4997 009e 1B68     		ldr	r3, [r3]
 4998 00a0 FA68     		ldr	r2, [r7, #12]
 4999 00a2 1832     		adds	r2, r2, #24
 5000 00a4 23F0F003 		bic	r3, r3, #240
 5001 00a8 1360     		str	r3, [r2]
1461:C:/Users/leonardo/Desktop/Code/Github/DawnBGC/Libraries/FWLIB/src\gd32f4xx_timer.c ****         /* set the CH0CAPFLT bit */
1462:C:/Users/leonardo/Desktop/Code/Github/DawnBGC/Libraries/FWLIB/src\gd32f4xx_timer.c ****         TIMER_CHCTL0(timer_periph) |= ((uint32_t)(timer_icpwm->icfilter) << 4U);
 5002              		.loc 1 1462 36
 5003 00aa FB68     		ldr	r3, [r7, #12]
 5004 00ac 1833     		adds	r3, r3, #24
 5005 00ae 1A68     		ldr	r2, [r3]
 5006              		.loc 1 1462 62
 5007 00b0 7B68     		ldr	r3, [r7, #4]
 5008 00b2 DB88     		ldrh	r3, [r3, #6]
 5009              		.loc 1 1462 74
 5010 00b4 1B01     		lsls	r3, r3, #4
 5011              		.loc 1 1462 36
 5012 00b6 F968     		ldr	r1, [r7, #12]
 5013 00b8 1831     		adds	r1, r1, #24
 5014 00ba 1343     		orrs	r3, r3, r2
 5015 00bc 0B60     		str	r3, [r1]
1463:C:/Users/leonardo/Desktop/Code/Github/DawnBGC/Libraries/FWLIB/src\gd32f4xx_timer.c ****         /* set the CH0EN bit */
1464:C:/Users/leonardo/Desktop/Code/Github/DawnBGC/Libraries/FWLIB/src\gd32f4xx_timer.c ****         TIMER_CHCTL2(timer_periph) |= (uint32_t)TIMER_CHCTL2_CH0EN;
 5016              		.loc 1 1464 36
 5017 00be FB68     		ldr	r3, [r7, #12]
 5018 00c0 2033     		adds	r3, r3, #32
 5019 00c2 1B68     		ldr	r3, [r3]
 5020 00c4 FA68     		ldr	r2, [r7, #12]
 5021 00c6 2032     		adds	r2, r2, #32
 5022 00c8 43F00103 		orr	r3, r3, #1
 5023 00cc 1360     		str	r3, [r2]
1465:C:/Users/leonardo/Desktop/Code/Github/DawnBGC/Libraries/FWLIB/src\gd32f4xx_timer.c ****         /* configure TIMER channel input capture prescaler value */
1466:C:/Users/leonardo/Desktop/Code/Github/DawnBGC/Libraries/FWLIB/src\gd32f4xx_timer.c ****         timer_channel_input_capture_prescaler_config(timer_periph,TIMER_CH_0,(uint16_t)(timer_icpwm
 5024              		.loc 1 1466 100
 5025 00ce 7B68     		ldr	r3, [r7, #4]
 5026 00d0 9B88     		ldrh	r3, [r3, #4]
 5027              		.loc 1 1466 9
 5028 00d2 1A46     		mov	r2, r3
 5029 00d4 0021     		movs	r1, #0
 5030 00d6 F868     		ldr	r0, [r7, #12]
 5031 00d8 FFF7FEFF 		bl	timer_channel_input_capture_prescaler_config
1467:C:/Users/leonardo/Desktop/Code/Github/DawnBGC/Libraries/FWLIB/src\gd32f4xx_timer.c **** 
1468:C:/Users/leonardo/Desktop/Code/Github/DawnBGC/Libraries/FWLIB/src\gd32f4xx_timer.c ****         /* reset the CH1EN bit */
1469:C:/Users/leonardo/Desktop/Code/Github/DawnBGC/Libraries/FWLIB/src\gd32f4xx_timer.c ****         TIMER_CHCTL2(timer_periph) &= (~(uint32_t)TIMER_CHCTL2_CH1EN);
 5032              		.loc 1 1469 36
 5033 00dc FB68     		ldr	r3, [r7, #12]
 5034 00de 2033     		adds	r3, r3, #32
 5035 00e0 1B68     		ldr	r3, [r3]
 5036 00e2 FA68     		ldr	r2, [r7, #12]
 5037 00e4 2032     		adds	r2, r2, #32
 5038 00e6 23F01003 		bic	r3, r3, #16
 5039 00ea 1360     		str	r3, [r2]
1470:C:/Users/leonardo/Desktop/Code/Github/DawnBGC/Libraries/FWLIB/src\gd32f4xx_timer.c ****         /* reset the CH1P and CH1NP bits */
1471:C:/Users/leonardo/Desktop/Code/Github/DawnBGC/Libraries/FWLIB/src\gd32f4xx_timer.c ****         TIMER_CHCTL2(timer_periph) &= (~(uint32_t)(TIMER_CHCTL2_CH1P|TIMER_CHCTL2_CH1NP));
 5040              		.loc 1 1471 36
 5041 00ec FB68     		ldr	r3, [r7, #12]
 5042 00ee 2033     		adds	r3, r3, #32
 5043 00f0 1B68     		ldr	r3, [r3]
 5044 00f2 FA68     		ldr	r2, [r7, #12]
 5045 00f4 2032     		adds	r2, r2, #32
 5046 00f6 23F0A003 		bic	r3, r3, #160
 5047 00fa 1360     		str	r3, [r2]
1472:C:/Users/leonardo/Desktop/Code/Github/DawnBGC/Libraries/FWLIB/src\gd32f4xx_timer.c ****         /* set the CH1P and CH1NP bits */
1473:C:/Users/leonardo/Desktop/Code/Github/DawnBGC/Libraries/FWLIB/src\gd32f4xx_timer.c ****         TIMER_CHCTL2(timer_periph) |= (uint32_t)((uint32_t)icpolarity<< 4U);
 5048              		.loc 1 1473 36
 5049 00fc FB68     		ldr	r3, [r7, #12]
 5050 00fe 2033     		adds	r3, r3, #32
 5051 0100 1A68     		ldr	r2, [r3]
 5052              		.loc 1 1473 50
 5053 0102 FB8A     		ldrh	r3, [r7, #22]
 5054              		.loc 1 1473 39
 5055 0104 1B01     		lsls	r3, r3, #4
 5056              		.loc 1 1473 36
 5057 0106 F968     		ldr	r1, [r7, #12]
 5058 0108 2031     		adds	r1, r1, #32
 5059 010a 1343     		orrs	r3, r3, r2
 5060 010c 0B60     		str	r3, [r1]
1474:C:/Users/leonardo/Desktop/Code/Github/DawnBGC/Libraries/FWLIB/src\gd32f4xx_timer.c ****         /* reset the CH1MS bit */
1475:C:/Users/leonardo/Desktop/Code/Github/DawnBGC/Libraries/FWLIB/src\gd32f4xx_timer.c ****         TIMER_CHCTL0(timer_periph) &= (~(uint32_t)TIMER_CHCTL0_CH1MS);
 5061              		.loc 1 1475 36
 5062 010e FB68     		ldr	r3, [r7, #12]
 5063 0110 1833     		adds	r3, r3, #24
 5064 0112 1B68     		ldr	r3, [r3]
 5065 0114 FA68     		ldr	r2, [r7, #12]
 5066 0116 1832     		adds	r2, r2, #24
 5067 0118 23F44073 		bic	r3, r3, #768
 5068 011c 1360     		str	r3, [r2]
1476:C:/Users/leonardo/Desktop/Code/Github/DawnBGC/Libraries/FWLIB/src\gd32f4xx_timer.c ****         /* set the CH1MS bit */
1477:C:/Users/leonardo/Desktop/Code/Github/DawnBGC/Libraries/FWLIB/src\gd32f4xx_timer.c ****         TIMER_CHCTL0(timer_periph) |= (uint32_t)((uint32_t)icselection<< 8U);
 5069              		.loc 1 1477 36
 5070 011e FB68     		ldr	r3, [r7, #12]
 5071 0120 1833     		adds	r3, r3, #24
 5072 0122 1A68     		ldr	r2, [r3]
 5073              		.loc 1 1477 50
 5074 0124 BB8A     		ldrh	r3, [r7, #20]
 5075              		.loc 1 1477 39
 5076 0126 1B02     		lsls	r3, r3, #8
 5077              		.loc 1 1477 36
 5078 0128 F968     		ldr	r1, [r7, #12]
 5079 012a 1831     		adds	r1, r1, #24
 5080 012c 1343     		orrs	r3, r3, r2
 5081 012e 0B60     		str	r3, [r1]
1478:C:/Users/leonardo/Desktop/Code/Github/DawnBGC/Libraries/FWLIB/src\gd32f4xx_timer.c ****         /* reset the CH1CAPFLT bit */
1479:C:/Users/leonardo/Desktop/Code/Github/DawnBGC/Libraries/FWLIB/src\gd32f4xx_timer.c ****         TIMER_CHCTL0(timer_periph) &= (~(uint32_t)TIMER_CHCTL0_CH1CAPFLT);
 5082              		.loc 1 1479 36
 5083 0130 FB68     		ldr	r3, [r7, #12]
 5084 0132 1833     		adds	r3, r3, #24
 5085 0134 1B68     		ldr	r3, [r3]
 5086 0136 FA68     		ldr	r2, [r7, #12]
 5087 0138 1832     		adds	r2, r2, #24
 5088 013a 23F47043 		bic	r3, r3, #61440
 5089 013e 1360     		str	r3, [r2]
1480:C:/Users/leonardo/Desktop/Code/Github/DawnBGC/Libraries/FWLIB/src\gd32f4xx_timer.c ****         /* set the CH1CAPFLT bit */
1481:C:/Users/leonardo/Desktop/Code/Github/DawnBGC/Libraries/FWLIB/src\gd32f4xx_timer.c ****         TIMER_CHCTL0(timer_periph) |= (uint32_t)((uint32_t)(timer_icpwm->icfilter)<< 12U);
 5090              		.loc 1 1481 36
 5091 0140 FB68     		ldr	r3, [r7, #12]
 5092 0142 1833     		adds	r3, r3, #24
 5093 0144 1A68     		ldr	r2, [r3]
 5094              		.loc 1 1481 72
 5095 0146 7B68     		ldr	r3, [r7, #4]
 5096 0148 DB88     		ldrh	r3, [r3, #6]
 5097              		.loc 1 1481 39
 5098 014a 1B03     		lsls	r3, r3, #12
 5099              		.loc 1 1481 36
 5100 014c F968     		ldr	r1, [r7, #12]
 5101 014e 1831     		adds	r1, r1, #24
 5102 0150 1343     		orrs	r3, r3, r2
 5103 0152 0B60     		str	r3, [r1]
1482:C:/Users/leonardo/Desktop/Code/Github/DawnBGC/Libraries/FWLIB/src\gd32f4xx_timer.c ****         /* set the CH1EN bit */
1483:C:/Users/leonardo/Desktop/Code/Github/DawnBGC/Libraries/FWLIB/src\gd32f4xx_timer.c ****         TIMER_CHCTL2(timer_periph) |= (uint32_t)TIMER_CHCTL2_CH1EN;
 5104              		.loc 1 1483 36
 5105 0154 FB68     		ldr	r3, [r7, #12]
 5106 0156 2033     		adds	r3, r3, #32
 5107 0158 1B68     		ldr	r3, [r3]
 5108 015a FA68     		ldr	r2, [r7, #12]
 5109 015c 2032     		adds	r2, r2, #32
 5110 015e 43F01003 		orr	r3, r3, #16
 5111 0162 1360     		str	r3, [r2]
1484:C:/Users/leonardo/Desktop/Code/Github/DawnBGC/Libraries/FWLIB/src\gd32f4xx_timer.c ****         /* configure TIMER channel input capture prescaler value */
1485:C:/Users/leonardo/Desktop/Code/Github/DawnBGC/Libraries/FWLIB/src\gd32f4xx_timer.c ****         timer_channel_input_capture_prescaler_config(timer_periph,TIMER_CH_1,(uint16_t)(timer_icpwm
 5112              		.loc 1 1485 100
 5113 0164 7B68     		ldr	r3, [r7, #4]
 5114 0166 9B88     		ldrh	r3, [r3, #4]
 5115              		.loc 1 1485 9
 5116 0168 1A46     		mov	r2, r3
 5117 016a 0121     		movs	r1, #1
 5118 016c F868     		ldr	r0, [r7, #12]
 5119 016e FFF7FEFF 		bl	timer_channel_input_capture_prescaler_config
1486:C:/Users/leonardo/Desktop/Code/Github/DawnBGC/Libraries/FWLIB/src\gd32f4xx_timer.c ****     }else{
1487:C:/Users/leonardo/Desktop/Code/Github/DawnBGC/Libraries/FWLIB/src\gd32f4xx_timer.c ****         /* reset the CH1EN bit */
1488:C:/Users/leonardo/Desktop/Code/Github/DawnBGC/Libraries/FWLIB/src\gd32f4xx_timer.c ****         TIMER_CHCTL2(timer_periph) &= (~(uint32_t)TIMER_CHCTL2_CH1EN);
1489:C:/Users/leonardo/Desktop/Code/Github/DawnBGC/Libraries/FWLIB/src\gd32f4xx_timer.c ****         /* reset the CH1P and CH1NP bits */
1490:C:/Users/leonardo/Desktop/Code/Github/DawnBGC/Libraries/FWLIB/src\gd32f4xx_timer.c ****         TIMER_CHCTL2(timer_periph) &= (~(uint32_t)(TIMER_CHCTL2_CH1P|TIMER_CHCTL2_CH1NP));
1491:C:/Users/leonardo/Desktop/Code/Github/DawnBGC/Libraries/FWLIB/src\gd32f4xx_timer.c ****         /* set the CH1P and CH1NP bits */
1492:C:/Users/leonardo/Desktop/Code/Github/DawnBGC/Libraries/FWLIB/src\gd32f4xx_timer.c ****         TIMER_CHCTL2(timer_periph) |= (uint32_t)((uint32_t)(timer_icpwm->icpolarity)<< 4U);
1493:C:/Users/leonardo/Desktop/Code/Github/DawnBGC/Libraries/FWLIB/src\gd32f4xx_timer.c ****         /* reset the CH1MS bit */
1494:C:/Users/leonardo/Desktop/Code/Github/DawnBGC/Libraries/FWLIB/src\gd32f4xx_timer.c ****         TIMER_CHCTL0(timer_periph) &= (~(uint32_t)TIMER_CHCTL0_CH1MS);
1495:C:/Users/leonardo/Desktop/Code/Github/DawnBGC/Libraries/FWLIB/src\gd32f4xx_timer.c ****         /* set the CH1MS bit */
1496:C:/Users/leonardo/Desktop/Code/Github/DawnBGC/Libraries/FWLIB/src\gd32f4xx_timer.c ****         TIMER_CHCTL0(timer_periph) |= (uint32_t)((uint32_t)(timer_icpwm->icselection)<< 8U);
1497:C:/Users/leonardo/Desktop/Code/Github/DawnBGC/Libraries/FWLIB/src\gd32f4xx_timer.c ****         /* reset the CH1CAPFLT bit */
1498:C:/Users/leonardo/Desktop/Code/Github/DawnBGC/Libraries/FWLIB/src\gd32f4xx_timer.c ****         TIMER_CHCTL0(timer_periph) &= (~(uint32_t)TIMER_CHCTL0_CH1CAPFLT);
1499:C:/Users/leonardo/Desktop/Code/Github/DawnBGC/Libraries/FWLIB/src\gd32f4xx_timer.c ****         /* set the CH1CAPFLT bit */
1500:C:/Users/leonardo/Desktop/Code/Github/DawnBGC/Libraries/FWLIB/src\gd32f4xx_timer.c ****         TIMER_CHCTL0(timer_periph) |= (uint32_t)((uint32_t)(timer_icpwm->icfilter)<< 12U);
1501:C:/Users/leonardo/Desktop/Code/Github/DawnBGC/Libraries/FWLIB/src\gd32f4xx_timer.c ****         /* set the CH1EN bit */
1502:C:/Users/leonardo/Desktop/Code/Github/DawnBGC/Libraries/FWLIB/src\gd32f4xx_timer.c ****         TIMER_CHCTL2(timer_periph) |= (uint32_t)TIMER_CHCTL2_CH1EN;
1503:C:/Users/leonardo/Desktop/Code/Github/DawnBGC/Libraries/FWLIB/src\gd32f4xx_timer.c ****         /* configure TIMER channel input capture prescaler value */
1504:C:/Users/leonardo/Desktop/Code/Github/DawnBGC/Libraries/FWLIB/src\gd32f4xx_timer.c ****         timer_channel_input_capture_prescaler_config(timer_periph,TIMER_CH_1,(uint16_t)(timer_icpwm
1505:C:/Users/leonardo/Desktop/Code/Github/DawnBGC/Libraries/FWLIB/src\gd32f4xx_timer.c **** 
1506:C:/Users/leonardo/Desktop/Code/Github/DawnBGC/Libraries/FWLIB/src\gd32f4xx_timer.c ****         /* reset the CH0EN bit */
1507:C:/Users/leonardo/Desktop/Code/Github/DawnBGC/Libraries/FWLIB/src\gd32f4xx_timer.c ****         TIMER_CHCTL2(timer_periph) &= (~(uint32_t)TIMER_CHCTL2_CH0EN);
1508:C:/Users/leonardo/Desktop/Code/Github/DawnBGC/Libraries/FWLIB/src\gd32f4xx_timer.c ****         /* reset the CH0P and CH0NP bits */
1509:C:/Users/leonardo/Desktop/Code/Github/DawnBGC/Libraries/FWLIB/src\gd32f4xx_timer.c ****         TIMER_CHCTL2(timer_periph) &= (~(uint32_t)(TIMER_CHCTL2_CH0P|TIMER_CHCTL2_CH0NP));
1510:C:/Users/leonardo/Desktop/Code/Github/DawnBGC/Libraries/FWLIB/src\gd32f4xx_timer.c ****         /* set the CH0P and CH0NP bits */
1511:C:/Users/leonardo/Desktop/Code/Github/DawnBGC/Libraries/FWLIB/src\gd32f4xx_timer.c ****         TIMER_CHCTL2(timer_periph) |= (uint32_t)icpolarity;
1512:C:/Users/leonardo/Desktop/Code/Github/DawnBGC/Libraries/FWLIB/src\gd32f4xx_timer.c ****         /* reset the CH0MS bit */
1513:C:/Users/leonardo/Desktop/Code/Github/DawnBGC/Libraries/FWLIB/src\gd32f4xx_timer.c ****         TIMER_CHCTL0(timer_periph) &= (~(uint32_t)TIMER_CHCTL0_CH0MS);
1514:C:/Users/leonardo/Desktop/Code/Github/DawnBGC/Libraries/FWLIB/src\gd32f4xx_timer.c ****         /* set the CH0MS bit */
1515:C:/Users/leonardo/Desktop/Code/Github/DawnBGC/Libraries/FWLIB/src\gd32f4xx_timer.c ****         TIMER_CHCTL0(timer_periph) |= (uint32_t)icselection;
1516:C:/Users/leonardo/Desktop/Code/Github/DawnBGC/Libraries/FWLIB/src\gd32f4xx_timer.c ****         /* reset the CH0CAPFLT bit */
1517:C:/Users/leonardo/Desktop/Code/Github/DawnBGC/Libraries/FWLIB/src\gd32f4xx_timer.c ****         TIMER_CHCTL0(timer_periph) &= (~(uint32_t)TIMER_CHCTL0_CH0CAPFLT);
1518:C:/Users/leonardo/Desktop/Code/Github/DawnBGC/Libraries/FWLIB/src\gd32f4xx_timer.c ****         /* set the CH0CAPFLT bit */
1519:C:/Users/leonardo/Desktop/Code/Github/DawnBGC/Libraries/FWLIB/src\gd32f4xx_timer.c ****         TIMER_CHCTL0(timer_periph) |= ((uint32_t)(timer_icpwm->icfilter) << 4U);
1520:C:/Users/leonardo/Desktop/Code/Github/DawnBGC/Libraries/FWLIB/src\gd32f4xx_timer.c ****         /* set the CH0EN bit */
1521:C:/Users/leonardo/Desktop/Code/Github/DawnBGC/Libraries/FWLIB/src\gd32f4xx_timer.c ****         TIMER_CHCTL2(timer_periph) |= (uint32_t)TIMER_CHCTL2_CH0EN;
1522:C:/Users/leonardo/Desktop/Code/Github/DawnBGC/Libraries/FWLIB/src\gd32f4xx_timer.c ****         /* configure TIMER channel input capture prescaler value */
1523:C:/Users/leonardo/Desktop/Code/Github/DawnBGC/Libraries/FWLIB/src\gd32f4xx_timer.c ****         timer_channel_input_capture_prescaler_config(timer_periph,TIMER_CH_0,(uint16_t)(timer_icpwm
1524:C:/Users/leonardo/Desktop/Code/Github/DawnBGC/Libraries/FWLIB/src\gd32f4xx_timer.c ****     }
1525:C:/Users/leonardo/Desktop/Code/Github/DawnBGC/Libraries/FWLIB/src\gd32f4xx_timer.c **** }
 5120              		.loc 1 1525 1
 5121 0172 95E0     		b	.L224
 5122              	.L222:
1488:C:/Users/leonardo/Desktop/Code/Github/DawnBGC/Libraries/FWLIB/src\gd32f4xx_timer.c ****         /* reset the CH1P and CH1NP bits */
 5123              		.loc 1 1488 36
 5124 0174 FB68     		ldr	r3, [r7, #12]
 5125 0176 2033     		adds	r3, r3, #32
 5126 0178 1B68     		ldr	r3, [r3]
 5127 017a FA68     		ldr	r2, [r7, #12]
 5128 017c 2032     		adds	r2, r2, #32
 5129 017e 23F01003 		bic	r3, r3, #16
 5130 0182 1360     		str	r3, [r2]
1490:C:/Users/leonardo/Desktop/Code/Github/DawnBGC/Libraries/FWLIB/src\gd32f4xx_timer.c ****         /* set the CH1P and CH1NP bits */
 5131              		.loc 1 1490 36
 5132 0184 FB68     		ldr	r3, [r7, #12]
 5133 0186 2033     		adds	r3, r3, #32
 5134 0188 1B68     		ldr	r3, [r3]
 5135 018a FA68     		ldr	r2, [r7, #12]
 5136 018c 2032     		adds	r2, r2, #32
 5137 018e 23F0A003 		bic	r3, r3, #160
 5138 0192 1360     		str	r3, [r2]
1492:C:/Users/leonardo/Desktop/Code/Github/DawnBGC/Libraries/FWLIB/src\gd32f4xx_timer.c ****         /* reset the CH1MS bit */
 5139              		.loc 1 1492 36
 5140 0194 FB68     		ldr	r3, [r7, #12]
 5141 0196 2033     		adds	r3, r3, #32
 5142 0198 1A68     		ldr	r2, [r3]
1492:C:/Users/leonardo/Desktop/Code/Github/DawnBGC/Libraries/FWLIB/src\gd32f4xx_timer.c ****         /* reset the CH1MS bit */
 5143              		.loc 1 1492 72
 5144 019a 7B68     		ldr	r3, [r7, #4]
 5145 019c 1B88     		ldrh	r3, [r3]
1492:C:/Users/leonardo/Desktop/Code/Github/DawnBGC/Libraries/FWLIB/src\gd32f4xx_timer.c ****         /* reset the CH1MS bit */
 5146              		.loc 1 1492 39
 5147 019e 1B01     		lsls	r3, r3, #4
1492:C:/Users/leonardo/Desktop/Code/Github/DawnBGC/Libraries/FWLIB/src\gd32f4xx_timer.c ****         /* reset the CH1MS bit */
 5148              		.loc 1 1492 36
 5149 01a0 F968     		ldr	r1, [r7, #12]
 5150 01a2 2031     		adds	r1, r1, #32
 5151 01a4 1343     		orrs	r3, r3, r2
 5152 01a6 0B60     		str	r3, [r1]
1494:C:/Users/leonardo/Desktop/Code/Github/DawnBGC/Libraries/FWLIB/src\gd32f4xx_timer.c ****         /* set the CH1MS bit */
 5153              		.loc 1 1494 36
 5154 01a8 FB68     		ldr	r3, [r7, #12]
 5155 01aa 1833     		adds	r3, r3, #24
 5156 01ac 1B68     		ldr	r3, [r3]
 5157 01ae FA68     		ldr	r2, [r7, #12]
 5158 01b0 1832     		adds	r2, r2, #24
 5159 01b2 23F44073 		bic	r3, r3, #768
 5160 01b6 1360     		str	r3, [r2]
1496:C:/Users/leonardo/Desktop/Code/Github/DawnBGC/Libraries/FWLIB/src\gd32f4xx_timer.c ****         /* reset the CH1CAPFLT bit */
 5161              		.loc 1 1496 36
 5162 01b8 FB68     		ldr	r3, [r7, #12]
 5163 01ba 1833     		adds	r3, r3, #24
 5164 01bc 1A68     		ldr	r2, [r3]
1496:C:/Users/leonardo/Desktop/Code/Github/DawnBGC/Libraries/FWLIB/src\gd32f4xx_timer.c ****         /* reset the CH1CAPFLT bit */
 5165              		.loc 1 1496 72
 5166 01be 7B68     		ldr	r3, [r7, #4]
 5167 01c0 5B88     		ldrh	r3, [r3, #2]
1496:C:/Users/leonardo/Desktop/Code/Github/DawnBGC/Libraries/FWLIB/src\gd32f4xx_timer.c ****         /* reset the CH1CAPFLT bit */
 5168              		.loc 1 1496 39
 5169 01c2 1B02     		lsls	r3, r3, #8
1496:C:/Users/leonardo/Desktop/Code/Github/DawnBGC/Libraries/FWLIB/src\gd32f4xx_timer.c ****         /* reset the CH1CAPFLT bit */
 5170              		.loc 1 1496 36
 5171 01c4 F968     		ldr	r1, [r7, #12]
 5172 01c6 1831     		adds	r1, r1, #24
 5173 01c8 1343     		orrs	r3, r3, r2
 5174 01ca 0B60     		str	r3, [r1]
1498:C:/Users/leonardo/Desktop/Code/Github/DawnBGC/Libraries/FWLIB/src\gd32f4xx_timer.c ****         /* set the CH1CAPFLT bit */
 5175              		.loc 1 1498 36
 5176 01cc FB68     		ldr	r3, [r7, #12]
 5177 01ce 1833     		adds	r3, r3, #24
 5178 01d0 1B68     		ldr	r3, [r3]
 5179 01d2 FA68     		ldr	r2, [r7, #12]
 5180 01d4 1832     		adds	r2, r2, #24
 5181 01d6 23F47043 		bic	r3, r3, #61440
 5182 01da 1360     		str	r3, [r2]
1500:C:/Users/leonardo/Desktop/Code/Github/DawnBGC/Libraries/FWLIB/src\gd32f4xx_timer.c ****         /* set the CH1EN bit */
 5183              		.loc 1 1500 36
 5184 01dc FB68     		ldr	r3, [r7, #12]
 5185 01de 1833     		adds	r3, r3, #24
 5186 01e0 1A68     		ldr	r2, [r3]
1500:C:/Users/leonardo/Desktop/Code/Github/DawnBGC/Libraries/FWLIB/src\gd32f4xx_timer.c ****         /* set the CH1EN bit */
 5187              		.loc 1 1500 72
 5188 01e2 7B68     		ldr	r3, [r7, #4]
 5189 01e4 DB88     		ldrh	r3, [r3, #6]
1500:C:/Users/leonardo/Desktop/Code/Github/DawnBGC/Libraries/FWLIB/src\gd32f4xx_timer.c ****         /* set the CH1EN bit */
 5190              		.loc 1 1500 39
 5191 01e6 1B03     		lsls	r3, r3, #12
1500:C:/Users/leonardo/Desktop/Code/Github/DawnBGC/Libraries/FWLIB/src\gd32f4xx_timer.c ****         /* set the CH1EN bit */
 5192              		.loc 1 1500 36
 5193 01e8 F968     		ldr	r1, [r7, #12]
 5194 01ea 1831     		adds	r1, r1, #24
 5195 01ec 1343     		orrs	r3, r3, r2
 5196 01ee 0B60     		str	r3, [r1]
1502:C:/Users/leonardo/Desktop/Code/Github/DawnBGC/Libraries/FWLIB/src\gd32f4xx_timer.c ****         /* configure TIMER channel input capture prescaler value */
 5197              		.loc 1 1502 36
 5198 01f0 FB68     		ldr	r3, [r7, #12]
 5199 01f2 2033     		adds	r3, r3, #32
 5200 01f4 1B68     		ldr	r3, [r3]
 5201 01f6 FA68     		ldr	r2, [r7, #12]
 5202 01f8 2032     		adds	r2, r2, #32
 5203 01fa 43F01003 		orr	r3, r3, #16
 5204 01fe 1360     		str	r3, [r2]
1504:C:/Users/leonardo/Desktop/Code/Github/DawnBGC/Libraries/FWLIB/src\gd32f4xx_timer.c **** 
 5205              		.loc 1 1504 100
 5206 0200 7B68     		ldr	r3, [r7, #4]
 5207 0202 9B88     		ldrh	r3, [r3, #4]
1504:C:/Users/leonardo/Desktop/Code/Github/DawnBGC/Libraries/FWLIB/src\gd32f4xx_timer.c **** 
 5208              		.loc 1 1504 9
 5209 0204 1A46     		mov	r2, r3
 5210 0206 0121     		movs	r1, #1
 5211 0208 F868     		ldr	r0, [r7, #12]
 5212 020a FFF7FEFF 		bl	timer_channel_input_capture_prescaler_config
1507:C:/Users/leonardo/Desktop/Code/Github/DawnBGC/Libraries/FWLIB/src\gd32f4xx_timer.c ****         /* reset the CH0P and CH0NP bits */
 5213              		.loc 1 1507 36
 5214 020e FB68     		ldr	r3, [r7, #12]
 5215 0210 2033     		adds	r3, r3, #32
 5216 0212 1B68     		ldr	r3, [r3]
 5217 0214 FA68     		ldr	r2, [r7, #12]
 5218 0216 2032     		adds	r2, r2, #32
 5219 0218 23F00103 		bic	r3, r3, #1
 5220 021c 1360     		str	r3, [r2]
1509:C:/Users/leonardo/Desktop/Code/Github/DawnBGC/Libraries/FWLIB/src\gd32f4xx_timer.c ****         /* set the CH0P and CH0NP bits */
 5221              		.loc 1 1509 36
 5222 021e FB68     		ldr	r3, [r7, #12]
 5223 0220 2033     		adds	r3, r3, #32
 5224 0222 1B68     		ldr	r3, [r3]
 5225 0224 FA68     		ldr	r2, [r7, #12]
 5226 0226 2032     		adds	r2, r2, #32
 5227 0228 23F00A03 		bic	r3, r3, #10
 5228 022c 1360     		str	r3, [r2]
1511:C:/Users/leonardo/Desktop/Code/Github/DawnBGC/Libraries/FWLIB/src\gd32f4xx_timer.c ****         /* reset the CH0MS bit */
 5229              		.loc 1 1511 36
 5230 022e FB68     		ldr	r3, [r7, #12]
 5231 0230 2033     		adds	r3, r3, #32
 5232 0232 1A68     		ldr	r2, [r3]
1511:C:/Users/leonardo/Desktop/Code/Github/DawnBGC/Libraries/FWLIB/src\gd32f4xx_timer.c ****         /* reset the CH0MS bit */
 5233              		.loc 1 1511 39
 5234 0234 FB8A     		ldrh	r3, [r7, #22]
1511:C:/Users/leonardo/Desktop/Code/Github/DawnBGC/Libraries/FWLIB/src\gd32f4xx_timer.c ****         /* reset the CH0MS bit */
 5235              		.loc 1 1511 36
 5236 0236 F968     		ldr	r1, [r7, #12]
 5237 0238 2031     		adds	r1, r1, #32
 5238 023a 1343     		orrs	r3, r3, r2
 5239 023c 0B60     		str	r3, [r1]
1513:C:/Users/leonardo/Desktop/Code/Github/DawnBGC/Libraries/FWLIB/src\gd32f4xx_timer.c ****         /* set the CH0MS bit */
 5240              		.loc 1 1513 36
 5241 023e FB68     		ldr	r3, [r7, #12]
 5242 0240 1833     		adds	r3, r3, #24
 5243 0242 1B68     		ldr	r3, [r3]
 5244 0244 FA68     		ldr	r2, [r7, #12]
 5245 0246 1832     		adds	r2, r2, #24
 5246 0248 23F00303 		bic	r3, r3, #3
 5247 024c 1360     		str	r3, [r2]
1515:C:/Users/leonardo/Desktop/Code/Github/DawnBGC/Libraries/FWLIB/src\gd32f4xx_timer.c ****         /* reset the CH0CAPFLT bit */
 5248              		.loc 1 1515 36
 5249 024e FB68     		ldr	r3, [r7, #12]
 5250 0250 1833     		adds	r3, r3, #24
 5251 0252 1A68     		ldr	r2, [r3]
1515:C:/Users/leonardo/Desktop/Code/Github/DawnBGC/Libraries/FWLIB/src\gd32f4xx_timer.c ****         /* reset the CH0CAPFLT bit */
 5252              		.loc 1 1515 39
 5253 0254 BB8A     		ldrh	r3, [r7, #20]
1515:C:/Users/leonardo/Desktop/Code/Github/DawnBGC/Libraries/FWLIB/src\gd32f4xx_timer.c ****         /* reset the CH0CAPFLT bit */
 5254              		.loc 1 1515 36
 5255 0256 F968     		ldr	r1, [r7, #12]
 5256 0258 1831     		adds	r1, r1, #24
 5257 025a 1343     		orrs	r3, r3, r2
 5258 025c 0B60     		str	r3, [r1]
1517:C:/Users/leonardo/Desktop/Code/Github/DawnBGC/Libraries/FWLIB/src\gd32f4xx_timer.c ****         /* set the CH0CAPFLT bit */
 5259              		.loc 1 1517 36
 5260 025e FB68     		ldr	r3, [r7, #12]
 5261 0260 1833     		adds	r3, r3, #24
 5262 0262 1B68     		ldr	r3, [r3]
 5263 0264 FA68     		ldr	r2, [r7, #12]
 5264 0266 1832     		adds	r2, r2, #24
 5265 0268 23F0F003 		bic	r3, r3, #240
 5266 026c 1360     		str	r3, [r2]
1519:C:/Users/leonardo/Desktop/Code/Github/DawnBGC/Libraries/FWLIB/src\gd32f4xx_timer.c ****         /* set the CH0EN bit */
 5267              		.loc 1 1519 36
 5268 026e FB68     		ldr	r3, [r7, #12]
 5269 0270 1833     		adds	r3, r3, #24
 5270 0272 1A68     		ldr	r2, [r3]
1519:C:/Users/leonardo/Desktop/Code/Github/DawnBGC/Libraries/FWLIB/src\gd32f4xx_timer.c ****         /* set the CH0EN bit */
 5271              		.loc 1 1519 62
 5272 0274 7B68     		ldr	r3, [r7, #4]
 5273 0276 DB88     		ldrh	r3, [r3, #6]
1519:C:/Users/leonardo/Desktop/Code/Github/DawnBGC/Libraries/FWLIB/src\gd32f4xx_timer.c ****         /* set the CH0EN bit */
 5274              		.loc 1 1519 74
 5275 0278 1B01     		lsls	r3, r3, #4
1519:C:/Users/leonardo/Desktop/Code/Github/DawnBGC/Libraries/FWLIB/src\gd32f4xx_timer.c ****         /* set the CH0EN bit */
 5276              		.loc 1 1519 36
 5277 027a F968     		ldr	r1, [r7, #12]
 5278 027c 1831     		adds	r1, r1, #24
 5279 027e 1343     		orrs	r3, r3, r2
 5280 0280 0B60     		str	r3, [r1]
1521:C:/Users/leonardo/Desktop/Code/Github/DawnBGC/Libraries/FWLIB/src\gd32f4xx_timer.c ****         /* configure TIMER channel input capture prescaler value */
 5281              		.loc 1 1521 36
 5282 0282 FB68     		ldr	r3, [r7, #12]
 5283 0284 2033     		adds	r3, r3, #32
 5284 0286 1B68     		ldr	r3, [r3]
 5285 0288 FA68     		ldr	r2, [r7, #12]
 5286 028a 2032     		adds	r2, r2, #32
 5287 028c 43F00103 		orr	r3, r3, #1
 5288 0290 1360     		str	r3, [r2]
1523:C:/Users/leonardo/Desktop/Code/Github/DawnBGC/Libraries/FWLIB/src\gd32f4xx_timer.c ****     }
 5289              		.loc 1 1523 100
 5290 0292 7B68     		ldr	r3, [r7, #4]
 5291 0294 9B88     		ldrh	r3, [r3, #4]
1523:C:/Users/leonardo/Desktop/Code/Github/DawnBGC/Libraries/FWLIB/src\gd32f4xx_timer.c ****     }
 5292              		.loc 1 1523 9
 5293 0296 1A46     		mov	r2, r3
 5294 0298 0021     		movs	r1, #0
 5295 029a F868     		ldr	r0, [r7, #12]
 5296 029c FFF7FEFF 		bl	timer_channel_input_capture_prescaler_config
 5297              	.L224:
 5298              		.loc 1 1525 1
 5299 02a0 00BF     		nop
 5300 02a2 1837     		adds	r7, r7, #24
 5301              		.cfi_def_cfa_offset 8
 5302 02a4 BD46     		mov	sp, r7
 5303              		.cfi_def_cfa_register 13
 5304              		@ sp needed
 5305 02a6 80BD     		pop	{r7, pc}
 5306              		.cfi_endproc
 5307              	.LFE174:
 5309              		.section	.text.timer_hall_mode_config,"ax",%progbits
 5310              		.align	1
 5311              		.global	timer_hall_mode_config
 5312              		.syntax unified
 5313              		.thumb
 5314              		.thumb_func
 5315              		.fpu softvfp
 5317              	timer_hall_mode_config:
 5318              	.LFB175:
1526:C:/Users/leonardo/Desktop/Code/Github/DawnBGC/Libraries/FWLIB/src\gd32f4xx_timer.c **** 
1527:C:/Users/leonardo/Desktop/Code/Github/DawnBGC/Libraries/FWLIB/src\gd32f4xx_timer.c **** /*!
1528:C:/Users/leonardo/Desktop/Code/Github/DawnBGC/Libraries/FWLIB/src\gd32f4xx_timer.c ****     \brief      configure TIMER hall sensor mode
1529:C:/Users/leonardo/Desktop/Code/Github/DawnBGC/Libraries/FWLIB/src\gd32f4xx_timer.c ****     \param[in]  timer_periph: TIMERx(x=0..4,7)
1530:C:/Users/leonardo/Desktop/Code/Github/DawnBGC/Libraries/FWLIB/src\gd32f4xx_timer.c ****     \param[in]  timer_hallmode: 
1531:C:/Users/leonardo/Desktop/Code/Github/DawnBGC/Libraries/FWLIB/src\gd32f4xx_timer.c ****       \arg        TIMER_HALLINTERFACE_ENABLE: TIMER hall sensor mode enable
1532:C:/Users/leonardo/Desktop/Code/Github/DawnBGC/Libraries/FWLIB/src\gd32f4xx_timer.c ****       \arg        TIMER_HALLINTERFACE_DISABLE: TIMER hall sensor mode disable
1533:C:/Users/leonardo/Desktop/Code/Github/DawnBGC/Libraries/FWLIB/src\gd32f4xx_timer.c ****     \param[out] none
1534:C:/Users/leonardo/Desktop/Code/Github/DawnBGC/Libraries/FWLIB/src\gd32f4xx_timer.c ****     \retval     none
1535:C:/Users/leonardo/Desktop/Code/Github/DawnBGC/Libraries/FWLIB/src\gd32f4xx_timer.c **** */
1536:C:/Users/leonardo/Desktop/Code/Github/DawnBGC/Libraries/FWLIB/src\gd32f4xx_timer.c **** void timer_hall_mode_config(uint32_t timer_periph,uint8_t timer_hallmode)
1537:C:/Users/leonardo/Desktop/Code/Github/DawnBGC/Libraries/FWLIB/src\gd32f4xx_timer.c **** {
 5319              		.loc 1 1537 1
 5320              		.cfi_startproc
 5321              		@ args = 0, pretend = 0, frame = 8
 5322              		@ frame_needed = 1, uses_anonymous_args = 0
 5323              		@ link register save eliminated.
 5324 0000 80B4     		push	{r7}
 5325              		.cfi_def_cfa_offset 4
 5326              		.cfi_offset 7, -4
 5327 0002 83B0     		sub	sp, sp, #12
 5328              		.cfi_def_cfa_offset 16
 5329 0004 00AF     		add	r7, sp, #0
 5330              		.cfi_def_cfa_register 7
 5331 0006 7860     		str	r0, [r7, #4]
 5332 0008 0B46     		mov	r3, r1
 5333 000a FB70     		strb	r3, [r7, #3]
1538:C:/Users/leonardo/Desktop/Code/Github/DawnBGC/Libraries/FWLIB/src\gd32f4xx_timer.c ****     if(TIMER_HALLINTERFACE_ENABLE == timer_hallmode){
 5334              		.loc 1 1538 7
 5335 000c FB78     		ldrb	r3, [r7, #3]	@ zero_extendqisi2
 5336 000e 002B     		cmp	r3, #0
 5337 0010 08D1     		bne	.L226
1539:C:/Users/leonardo/Desktop/Code/Github/DawnBGC/Libraries/FWLIB/src\gd32f4xx_timer.c ****         TIMER_CTL1(timer_periph) |= (uint32_t)TIMER_CTL1_TI0S;
 5338              		.loc 1 1539 34
 5339 0012 7B68     		ldr	r3, [r7, #4]
 5340 0014 0433     		adds	r3, r3, #4
 5341 0016 1B68     		ldr	r3, [r3]
 5342 0018 7A68     		ldr	r2, [r7, #4]
 5343 001a 0432     		adds	r2, r2, #4
 5344 001c 43F08003 		orr	r3, r3, #128
 5345 0020 1360     		str	r3, [r2]
1540:C:/Users/leonardo/Desktop/Code/Github/DawnBGC/Libraries/FWLIB/src\gd32f4xx_timer.c ****     }else if(TIMER_HALLINTERFACE_DISABLE == timer_hallmode){
1541:C:/Users/leonardo/Desktop/Code/Github/DawnBGC/Libraries/FWLIB/src\gd32f4xx_timer.c ****         TIMER_CTL1(timer_periph) &= ~(uint32_t)TIMER_CTL1_TI0S;
1542:C:/Users/leonardo/Desktop/Code/Github/DawnBGC/Libraries/FWLIB/src\gd32f4xx_timer.c ****     }else{
1543:C:/Users/leonardo/Desktop/Code/Github/DawnBGC/Libraries/FWLIB/src\gd32f4xx_timer.c ****     }
1544:C:/Users/leonardo/Desktop/Code/Github/DawnBGC/Libraries/FWLIB/src\gd32f4xx_timer.c **** }
 5346              		.loc 1 1544 1
 5347 0022 0AE0     		b	.L228
 5348              	.L226:
1540:C:/Users/leonardo/Desktop/Code/Github/DawnBGC/Libraries/FWLIB/src\gd32f4xx_timer.c ****     }else if(TIMER_HALLINTERFACE_DISABLE == timer_hallmode){
 5349              		.loc 1 1540 13
 5350 0024 FB78     		ldrb	r3, [r7, #3]	@ zero_extendqisi2
 5351 0026 012B     		cmp	r3, #1
 5352 0028 07D1     		bne	.L228
1541:C:/Users/leonardo/Desktop/Code/Github/DawnBGC/Libraries/FWLIB/src\gd32f4xx_timer.c ****     }else{
 5353              		.loc 1 1541 34
 5354 002a 7B68     		ldr	r3, [r7, #4]
 5355 002c 0433     		adds	r3, r3, #4
 5356 002e 1B68     		ldr	r3, [r3]
 5357 0030 7A68     		ldr	r2, [r7, #4]
 5358 0032 0432     		adds	r2, r2, #4
 5359 0034 23F08003 		bic	r3, r3, #128
 5360 0038 1360     		str	r3, [r2]
 5361              	.L228:
 5362              		.loc 1 1544 1
 5363 003a 00BF     		nop
 5364 003c 0C37     		adds	r7, r7, #12
 5365              		.cfi_def_cfa_offset 4
 5366 003e BD46     		mov	sp, r7
 5367              		.cfi_def_cfa_register 13
 5368              		@ sp needed
 5369 0040 80BC     		pop	{r7}
 5370              		.cfi_restore 7
 5371              		.cfi_def_cfa_offset 0
 5372 0042 7047     		bx	lr
 5373              		.cfi_endproc
 5374              	.LFE175:
 5376              		.section	.text.timer_input_trigger_source_select,"ax",%progbits
 5377              		.align	1
 5378              		.global	timer_input_trigger_source_select
 5379              		.syntax unified
 5380              		.thumb
 5381              		.thumb_func
 5382              		.fpu softvfp
 5384              	timer_input_trigger_source_select:
 5385              	.LFB176:
1545:C:/Users/leonardo/Desktop/Code/Github/DawnBGC/Libraries/FWLIB/src\gd32f4xx_timer.c **** 
1546:C:/Users/leonardo/Desktop/Code/Github/DawnBGC/Libraries/FWLIB/src\gd32f4xx_timer.c **** /*!
1547:C:/Users/leonardo/Desktop/Code/Github/DawnBGC/Libraries/FWLIB/src\gd32f4xx_timer.c ****     \brief      select TIMER input trigger source 
1548:C:/Users/leonardo/Desktop/Code/Github/DawnBGC/Libraries/FWLIB/src\gd32f4xx_timer.c ****     \param[in]  timer_periph: TIMERx(x=0..4,7,8,11)
1549:C:/Users/leonardo/Desktop/Code/Github/DawnBGC/Libraries/FWLIB/src\gd32f4xx_timer.c ****     \param[in]  timer_intrigger: 
1550:C:/Users/leonardo/Desktop/Code/Github/DawnBGC/Libraries/FWLIB/src\gd32f4xx_timer.c ****       \arg        TIMER_SMCFG_TRGSEL_ITI0: internal trigger 0
1551:C:/Users/leonardo/Desktop/Code/Github/DawnBGC/Libraries/FWLIB/src\gd32f4xx_timer.c ****       \arg        TIMER_SMCFG_TRGSEL_ITI1: internal trigger 1
1552:C:/Users/leonardo/Desktop/Code/Github/DawnBGC/Libraries/FWLIB/src\gd32f4xx_timer.c ****       \arg        TIMER_SMCFG_TRGSEL_ITI2: internal trigger 2
1553:C:/Users/leonardo/Desktop/Code/Github/DawnBGC/Libraries/FWLIB/src\gd32f4xx_timer.c ****       \arg        TIMER_SMCFG_TRGSEL_ITI3: internal trigger 3
1554:C:/Users/leonardo/Desktop/Code/Github/DawnBGC/Libraries/FWLIB/src\gd32f4xx_timer.c ****       \arg        TIMER_SMCFG_TRGSEL_CI0F_ED: TI0 Edge Detector
1555:C:/Users/leonardo/Desktop/Code/Github/DawnBGC/Libraries/FWLIB/src\gd32f4xx_timer.c ****       \arg        TIMER_SMCFG_TRGSEL_CI0FE0: filtered TIMER input 0
1556:C:/Users/leonardo/Desktop/Code/Github/DawnBGC/Libraries/FWLIB/src\gd32f4xx_timer.c ****       \arg        TIMER_SMCFG_TRGSEL_CI1FE1: filtered TIMER input 1
1557:C:/Users/leonardo/Desktop/Code/Github/DawnBGC/Libraries/FWLIB/src\gd32f4xx_timer.c ****       \arg        TIMER_SMCFG_TRGSEL_ETIFP: external trigger
1558:C:/Users/leonardo/Desktop/Code/Github/DawnBGC/Libraries/FWLIB/src\gd32f4xx_timer.c ****     \param[out] none
1559:C:/Users/leonardo/Desktop/Code/Github/DawnBGC/Libraries/FWLIB/src\gd32f4xx_timer.c ****     \retval     none
1560:C:/Users/leonardo/Desktop/Code/Github/DawnBGC/Libraries/FWLIB/src\gd32f4xx_timer.c **** */
1561:C:/Users/leonardo/Desktop/Code/Github/DawnBGC/Libraries/FWLIB/src\gd32f4xx_timer.c **** void timer_input_trigger_source_select(uint32_t timer_periph,uint32_t timer_intrigger)
1562:C:/Users/leonardo/Desktop/Code/Github/DawnBGC/Libraries/FWLIB/src\gd32f4xx_timer.c **** {
 5386              		.loc 1 1562 1
 5387              		.cfi_startproc
 5388              		@ args = 0, pretend = 0, frame = 8
 5389              		@ frame_needed = 1, uses_anonymous_args = 0
 5390              		@ link register save eliminated.
 5391 0000 80B4     		push	{r7}
 5392              		.cfi_def_cfa_offset 4
 5393              		.cfi_offset 7, -4
 5394 0002 83B0     		sub	sp, sp, #12
 5395              		.cfi_def_cfa_offset 16
 5396 0004 00AF     		add	r7, sp, #0
 5397              		.cfi_def_cfa_register 7
 5398 0006 7860     		str	r0, [r7, #4]
 5399 0008 3960     		str	r1, [r7]
1563:C:/Users/leonardo/Desktop/Code/Github/DawnBGC/Libraries/FWLIB/src\gd32f4xx_timer.c ****     TIMER_SMCFG(timer_periph) &= (~(uint32_t)TIMER_SMCFG_TRGS);
 5400              		.loc 1 1563 31
 5401 000a 7B68     		ldr	r3, [r7, #4]
 5402 000c 0833     		adds	r3, r3, #8
 5403 000e 1B68     		ldr	r3, [r3]
 5404 0010 7A68     		ldr	r2, [r7, #4]
 5405 0012 0832     		adds	r2, r2, #8
 5406 0014 23F07003 		bic	r3, r3, #112
 5407 0018 1360     		str	r3, [r2]
1564:C:/Users/leonardo/Desktop/Code/Github/DawnBGC/Libraries/FWLIB/src\gd32f4xx_timer.c ****     TIMER_SMCFG(timer_periph) |= (uint32_t)timer_intrigger;
 5408              		.loc 1 1564 31
 5409 001a 7B68     		ldr	r3, [r7, #4]
 5410 001c 0833     		adds	r3, r3, #8
 5411 001e 1A68     		ldr	r2, [r3]
 5412 0020 7B68     		ldr	r3, [r7, #4]
 5413 0022 0833     		adds	r3, r3, #8
 5414 0024 1946     		mov	r1, r3
 5415 0026 3B68     		ldr	r3, [r7]
 5416 0028 1343     		orrs	r3, r3, r2
 5417 002a 0B60     		str	r3, [r1]
1565:C:/Users/leonardo/Desktop/Code/Github/DawnBGC/Libraries/FWLIB/src\gd32f4xx_timer.c **** }
 5418              		.loc 1 1565 1
 5419 002c 00BF     		nop
 5420 002e 0C37     		adds	r7, r7, #12
 5421              		.cfi_def_cfa_offset 4
 5422 0030 BD46     		mov	sp, r7
 5423              		.cfi_def_cfa_register 13
 5424              		@ sp needed
 5425 0032 80BC     		pop	{r7}
 5426              		.cfi_restore 7
 5427              		.cfi_def_cfa_offset 0
 5428 0034 7047     		bx	lr
 5429              		.cfi_endproc
 5430              	.LFE176:
 5432              		.section	.text.timer_master_output_trigger_source_select,"ax",%progbits
 5433              		.align	1
 5434              		.global	timer_master_output_trigger_source_select
 5435              		.syntax unified
 5436              		.thumb
 5437              		.thumb_func
 5438              		.fpu softvfp
 5440              	timer_master_output_trigger_source_select:
 5441              	.LFB177:
1566:C:/Users/leonardo/Desktop/Code/Github/DawnBGC/Libraries/FWLIB/src\gd32f4xx_timer.c **** 
1567:C:/Users/leonardo/Desktop/Code/Github/DawnBGC/Libraries/FWLIB/src\gd32f4xx_timer.c **** /*!
1568:C:/Users/leonardo/Desktop/Code/Github/DawnBGC/Libraries/FWLIB/src\gd32f4xx_timer.c ****     \brief      select TIMER master mode output trigger source 
1569:C:/Users/leonardo/Desktop/Code/Github/DawnBGC/Libraries/FWLIB/src\gd32f4xx_timer.c ****     \param[in]  timer_periph: TIMERx(x=0..7)
1570:C:/Users/leonardo/Desktop/Code/Github/DawnBGC/Libraries/FWLIB/src\gd32f4xx_timer.c ****     \param[in]  timer_outrigger: 
1571:C:/Users/leonardo/Desktop/Code/Github/DawnBGC/Libraries/FWLIB/src\gd32f4xx_timer.c ****       \arg        TIMER_TRI_OUT_SRC_RESET: the UPG bit as trigger output
1572:C:/Users/leonardo/Desktop/Code/Github/DawnBGC/Libraries/FWLIB/src\gd32f4xx_timer.c ****       \arg        TIMER_TRI_OUT_SRC_ENABLE: the counter enable signal TIMER_CTL0_CEN as trigger out
1573:C:/Users/leonardo/Desktop/Code/Github/DawnBGC/Libraries/FWLIB/src\gd32f4xx_timer.c ****       \arg        TIMER_TRI_OUT_SRC_UPDATE: update event as trigger output
1574:C:/Users/leonardo/Desktop/Code/Github/DawnBGC/Libraries/FWLIB/src\gd32f4xx_timer.c ****       \arg        TIMER_TRI_OUT_SRC_CC0: a capture or a compare match occurred in channal0 as trigg
1575:C:/Users/leonardo/Desktop/Code/Github/DawnBGC/Libraries/FWLIB/src\gd32f4xx_timer.c ****       \arg        TIMER_TRI_OUT_SRC_O0CPRE: O0CPRE as trigger output
1576:C:/Users/leonardo/Desktop/Code/Github/DawnBGC/Libraries/FWLIB/src\gd32f4xx_timer.c ****       \arg        TIMER_TRI_OUT_SRC_O1CPRE: O1CPRE as trigger output
1577:C:/Users/leonardo/Desktop/Code/Github/DawnBGC/Libraries/FWLIB/src\gd32f4xx_timer.c ****       \arg        TIMER_TRI_OUT_SRC_O2CPRE: O2CPRE as trigger output
1578:C:/Users/leonardo/Desktop/Code/Github/DawnBGC/Libraries/FWLIB/src\gd32f4xx_timer.c ****       \arg        TIMER_TRI_OUT_SRC_O3CPRE: O3CPRE as trigger output
1579:C:/Users/leonardo/Desktop/Code/Github/DawnBGC/Libraries/FWLIB/src\gd32f4xx_timer.c ****     \param[out] none
1580:C:/Users/leonardo/Desktop/Code/Github/DawnBGC/Libraries/FWLIB/src\gd32f4xx_timer.c ****     \retval     none
1581:C:/Users/leonardo/Desktop/Code/Github/DawnBGC/Libraries/FWLIB/src\gd32f4xx_timer.c **** */
1582:C:/Users/leonardo/Desktop/Code/Github/DawnBGC/Libraries/FWLIB/src\gd32f4xx_timer.c **** void timer_master_output_trigger_source_select(uint32_t timer_periph,uint32_t timer_outrigger)
1583:C:/Users/leonardo/Desktop/Code/Github/DawnBGC/Libraries/FWLIB/src\gd32f4xx_timer.c **** {
 5442              		.loc 1 1583 1
 5443              		.cfi_startproc
 5444              		@ args = 0, pretend = 0, frame = 8
 5445              		@ frame_needed = 1, uses_anonymous_args = 0
 5446              		@ link register save eliminated.
 5447 0000 80B4     		push	{r7}
 5448              		.cfi_def_cfa_offset 4
 5449              		.cfi_offset 7, -4
 5450 0002 83B0     		sub	sp, sp, #12
 5451              		.cfi_def_cfa_offset 16
 5452 0004 00AF     		add	r7, sp, #0
 5453              		.cfi_def_cfa_register 7
 5454 0006 7860     		str	r0, [r7, #4]
 5455 0008 3960     		str	r1, [r7]
1584:C:/Users/leonardo/Desktop/Code/Github/DawnBGC/Libraries/FWLIB/src\gd32f4xx_timer.c ****     TIMER_CTL1(timer_periph) &= (~(uint32_t)TIMER_CTL1_MMC);
 5456              		.loc 1 1584 30
 5457 000a 7B68     		ldr	r3, [r7, #4]
 5458 000c 0433     		adds	r3, r3, #4
 5459 000e 1B68     		ldr	r3, [r3]
 5460 0010 7A68     		ldr	r2, [r7, #4]
 5461 0012 0432     		adds	r2, r2, #4
 5462 0014 23F07003 		bic	r3, r3, #112
 5463 0018 1360     		str	r3, [r2]
1585:C:/Users/leonardo/Desktop/Code/Github/DawnBGC/Libraries/FWLIB/src\gd32f4xx_timer.c ****     TIMER_CTL1(timer_periph) |= (uint32_t)timer_outrigger;
 5464              		.loc 1 1585 30
 5465 001a 7B68     		ldr	r3, [r7, #4]
 5466 001c 0433     		adds	r3, r3, #4
 5467 001e 1A68     		ldr	r2, [r3]
 5468 0020 7B68     		ldr	r3, [r7, #4]
 5469 0022 0433     		adds	r3, r3, #4
 5470 0024 1946     		mov	r1, r3
 5471 0026 3B68     		ldr	r3, [r7]
 5472 0028 1343     		orrs	r3, r3, r2
 5473 002a 0B60     		str	r3, [r1]
1586:C:/Users/leonardo/Desktop/Code/Github/DawnBGC/Libraries/FWLIB/src\gd32f4xx_timer.c **** }
 5474              		.loc 1 1586 1
 5475 002c 00BF     		nop
 5476 002e 0C37     		adds	r7, r7, #12
 5477              		.cfi_def_cfa_offset 4
 5478 0030 BD46     		mov	sp, r7
 5479              		.cfi_def_cfa_register 13
 5480              		@ sp needed
 5481 0032 80BC     		pop	{r7}
 5482              		.cfi_restore 7
 5483              		.cfi_def_cfa_offset 0
 5484 0034 7047     		bx	lr
 5485              		.cfi_endproc
 5486              	.LFE177:
 5488              		.section	.text.timer_slave_mode_select,"ax",%progbits
 5489              		.align	1
 5490              		.global	timer_slave_mode_select
 5491              		.syntax unified
 5492              		.thumb
 5493              		.thumb_func
 5494              		.fpu softvfp
 5496              	timer_slave_mode_select:
 5497              	.LFB178:
1587:C:/Users/leonardo/Desktop/Code/Github/DawnBGC/Libraries/FWLIB/src\gd32f4xx_timer.c **** 
1588:C:/Users/leonardo/Desktop/Code/Github/DawnBGC/Libraries/FWLIB/src\gd32f4xx_timer.c **** /*!
1589:C:/Users/leonardo/Desktop/Code/Github/DawnBGC/Libraries/FWLIB/src\gd32f4xx_timer.c ****     \brief      select TIMER slave mode 
1590:C:/Users/leonardo/Desktop/Code/Github/DawnBGC/Libraries/FWLIB/src\gd32f4xx_timer.c ****     \param[in]  timer_periph: TIMERx(x=0..4,7,8,11)
1591:C:/Users/leonardo/Desktop/Code/Github/DawnBGC/Libraries/FWLIB/src\gd32f4xx_timer.c ****     \param[in]  timer_slavemode: 
1592:C:/Users/leonardo/Desktop/Code/Github/DawnBGC/Libraries/FWLIB/src\gd32f4xx_timer.c ****       \arg        TIMER_SLAVE_MODE_DISABLE: slave mode disable
1593:C:/Users/leonardo/Desktop/Code/Github/DawnBGC/Libraries/FWLIB/src\gd32f4xx_timer.c ****       \arg        TIMER_ENCODER_MODE0: encoder mode 0
1594:C:/Users/leonardo/Desktop/Code/Github/DawnBGC/Libraries/FWLIB/src\gd32f4xx_timer.c ****       \arg        TIMER_ENCODER_MODE1: encoder mode 1
1595:C:/Users/leonardo/Desktop/Code/Github/DawnBGC/Libraries/FWLIB/src\gd32f4xx_timer.c ****       \arg        TIMER_ENCODER_MODE2: encoder mode 2
1596:C:/Users/leonardo/Desktop/Code/Github/DawnBGC/Libraries/FWLIB/src\gd32f4xx_timer.c ****       \arg        TIMER_SLAVE_MODE_RESTART: restart mode
1597:C:/Users/leonardo/Desktop/Code/Github/DawnBGC/Libraries/FWLIB/src\gd32f4xx_timer.c ****       \arg        TIMER_SLAVE_MODE_PAUSE: pause mode
1598:C:/Users/leonardo/Desktop/Code/Github/DawnBGC/Libraries/FWLIB/src\gd32f4xx_timer.c ****       \arg        TIMER_SLAVE_MODE_EVENT: event mode
1599:C:/Users/leonardo/Desktop/Code/Github/DawnBGC/Libraries/FWLIB/src\gd32f4xx_timer.c ****       \arg        TIMER_SLAVE_MODE_EXTERNAL0: external clock mode 0.
1600:C:/Users/leonardo/Desktop/Code/Github/DawnBGC/Libraries/FWLIB/src\gd32f4xx_timer.c ****     \param[out] none
1601:C:/Users/leonardo/Desktop/Code/Github/DawnBGC/Libraries/FWLIB/src\gd32f4xx_timer.c ****     \retval     none
1602:C:/Users/leonardo/Desktop/Code/Github/DawnBGC/Libraries/FWLIB/src\gd32f4xx_timer.c **** */
1603:C:/Users/leonardo/Desktop/Code/Github/DawnBGC/Libraries/FWLIB/src\gd32f4xx_timer.c **** 
1604:C:/Users/leonardo/Desktop/Code/Github/DawnBGC/Libraries/FWLIB/src\gd32f4xx_timer.c **** void timer_slave_mode_select(uint32_t timer_periph,uint32_t timer_slavemode)
1605:C:/Users/leonardo/Desktop/Code/Github/DawnBGC/Libraries/FWLIB/src\gd32f4xx_timer.c **** {
 5498              		.loc 1 1605 1
 5499              		.cfi_startproc
 5500              		@ args = 0, pretend = 0, frame = 8
 5501              		@ frame_needed = 1, uses_anonymous_args = 0
 5502              		@ link register save eliminated.
 5503 0000 80B4     		push	{r7}
 5504              		.cfi_def_cfa_offset 4
 5505              		.cfi_offset 7, -4
 5506 0002 83B0     		sub	sp, sp, #12
 5507              		.cfi_def_cfa_offset 16
 5508 0004 00AF     		add	r7, sp, #0
 5509              		.cfi_def_cfa_register 7
 5510 0006 7860     		str	r0, [r7, #4]
 5511 0008 3960     		str	r1, [r7]
1606:C:/Users/leonardo/Desktop/Code/Github/DawnBGC/Libraries/FWLIB/src\gd32f4xx_timer.c ****     TIMER_SMCFG(timer_periph) &= (~(uint32_t)TIMER_SMCFG_SMC);
 5512              		.loc 1 1606 31
 5513 000a 7B68     		ldr	r3, [r7, #4]
 5514 000c 0833     		adds	r3, r3, #8
 5515 000e 1B68     		ldr	r3, [r3]
 5516 0010 7A68     		ldr	r2, [r7, #4]
 5517 0012 0832     		adds	r2, r2, #8
 5518 0014 23F00703 		bic	r3, r3, #7
 5519 0018 1360     		str	r3, [r2]
1607:C:/Users/leonardo/Desktop/Code/Github/DawnBGC/Libraries/FWLIB/src\gd32f4xx_timer.c **** 
1608:C:/Users/leonardo/Desktop/Code/Github/DawnBGC/Libraries/FWLIB/src\gd32f4xx_timer.c ****     TIMER_SMCFG(timer_periph) |= (uint32_t)timer_slavemode;
 5520              		.loc 1 1608 31
 5521 001a 7B68     		ldr	r3, [r7, #4]
 5522 001c 0833     		adds	r3, r3, #8
 5523 001e 1A68     		ldr	r2, [r3]
 5524 0020 7B68     		ldr	r3, [r7, #4]
 5525 0022 0833     		adds	r3, r3, #8
 5526 0024 1946     		mov	r1, r3
 5527 0026 3B68     		ldr	r3, [r7]
 5528 0028 1343     		orrs	r3, r3, r2
 5529 002a 0B60     		str	r3, [r1]
1609:C:/Users/leonardo/Desktop/Code/Github/DawnBGC/Libraries/FWLIB/src\gd32f4xx_timer.c **** }
 5530              		.loc 1 1609 1
 5531 002c 00BF     		nop
 5532 002e 0C37     		adds	r7, r7, #12
 5533              		.cfi_def_cfa_offset 4
 5534 0030 BD46     		mov	sp, r7
 5535              		.cfi_def_cfa_register 13
 5536              		@ sp needed
 5537 0032 80BC     		pop	{r7}
 5538              		.cfi_restore 7
 5539              		.cfi_def_cfa_offset 0
 5540 0034 7047     		bx	lr
 5541              		.cfi_endproc
 5542              	.LFE178:
 5544              		.section	.text.timer_master_slave_mode_config,"ax",%progbits
 5545              		.align	1
 5546              		.global	timer_master_slave_mode_config
 5547              		.syntax unified
 5548              		.thumb
 5549              		.thumb_func
 5550              		.fpu softvfp
 5552              	timer_master_slave_mode_config:
 5553              	.LFB179:
1610:C:/Users/leonardo/Desktop/Code/Github/DawnBGC/Libraries/FWLIB/src\gd32f4xx_timer.c **** 
1611:C:/Users/leonardo/Desktop/Code/Github/DawnBGC/Libraries/FWLIB/src\gd32f4xx_timer.c **** /*!
1612:C:/Users/leonardo/Desktop/Code/Github/DawnBGC/Libraries/FWLIB/src\gd32f4xx_timer.c ****     \brief      configure TIMER master slave mode 
1613:C:/Users/leonardo/Desktop/Code/Github/DawnBGC/Libraries/FWLIB/src\gd32f4xx_timer.c ****     \param[in]  timer_periph: TIMERx(x=0..4,7,8,11)
1614:C:/Users/leonardo/Desktop/Code/Github/DawnBGC/Libraries/FWLIB/src\gd32f4xx_timer.c ****     \param[in]  timer_masterslave: 
1615:C:/Users/leonardo/Desktop/Code/Github/DawnBGC/Libraries/FWLIB/src\gd32f4xx_timer.c ****       \arg        TIMER_MASTER_SLAVE_MODE_ENABLE: master slave mode enable
1616:C:/Users/leonardo/Desktop/Code/Github/DawnBGC/Libraries/FWLIB/src\gd32f4xx_timer.c ****       \arg        TIMER_MASTER_SLAVE_MODE_DISABLE: master slave mode disable
1617:C:/Users/leonardo/Desktop/Code/Github/DawnBGC/Libraries/FWLIB/src\gd32f4xx_timer.c ****     \param[out] none
1618:C:/Users/leonardo/Desktop/Code/Github/DawnBGC/Libraries/FWLIB/src\gd32f4xx_timer.c ****     \retval     none
1619:C:/Users/leonardo/Desktop/Code/Github/DawnBGC/Libraries/FWLIB/src\gd32f4xx_timer.c **** */ 
1620:C:/Users/leonardo/Desktop/Code/Github/DawnBGC/Libraries/FWLIB/src\gd32f4xx_timer.c **** void timer_master_slave_mode_config(uint32_t timer_periph,uint8_t timer_masterslave)
1621:C:/Users/leonardo/Desktop/Code/Github/DawnBGC/Libraries/FWLIB/src\gd32f4xx_timer.c **** {
 5554              		.loc 1 1621 1
 5555              		.cfi_startproc
 5556              		@ args = 0, pretend = 0, frame = 8
 5557              		@ frame_needed = 1, uses_anonymous_args = 0
 5558              		@ link register save eliminated.
 5559 0000 80B4     		push	{r7}
 5560              		.cfi_def_cfa_offset 4
 5561              		.cfi_offset 7, -4
 5562 0002 83B0     		sub	sp, sp, #12
 5563              		.cfi_def_cfa_offset 16
 5564 0004 00AF     		add	r7, sp, #0
 5565              		.cfi_def_cfa_register 7
 5566 0006 7860     		str	r0, [r7, #4]
 5567 0008 0B46     		mov	r3, r1
 5568 000a FB70     		strb	r3, [r7, #3]
1622:C:/Users/leonardo/Desktop/Code/Github/DawnBGC/Libraries/FWLIB/src\gd32f4xx_timer.c ****     if(TIMER_MASTER_SLAVE_MODE_ENABLE == timer_masterslave){
 5569              		.loc 1 1622 7
 5570 000c FB78     		ldrb	r3, [r7, #3]	@ zero_extendqisi2
 5571 000e 002B     		cmp	r3, #0
 5572 0010 08D1     		bne	.L233
1623:C:/Users/leonardo/Desktop/Code/Github/DawnBGC/Libraries/FWLIB/src\gd32f4xx_timer.c ****         TIMER_SMCFG(timer_periph) |= (uint32_t)TIMER_SMCFG_MSM;
 5573              		.loc 1 1623 35
 5574 0012 7B68     		ldr	r3, [r7, #4]
 5575 0014 0833     		adds	r3, r3, #8
 5576 0016 1B68     		ldr	r3, [r3]
 5577 0018 7A68     		ldr	r2, [r7, #4]
 5578 001a 0832     		adds	r2, r2, #8
 5579 001c 43F08003 		orr	r3, r3, #128
 5580 0020 1360     		str	r3, [r2]
1624:C:/Users/leonardo/Desktop/Code/Github/DawnBGC/Libraries/FWLIB/src\gd32f4xx_timer.c ****     }else if(TIMER_MASTER_SLAVE_MODE_DISABLE == timer_masterslave){
1625:C:/Users/leonardo/Desktop/Code/Github/DawnBGC/Libraries/FWLIB/src\gd32f4xx_timer.c ****         TIMER_SMCFG(timer_periph) &= ~(uint32_t)TIMER_SMCFG_MSM;
1626:C:/Users/leonardo/Desktop/Code/Github/DawnBGC/Libraries/FWLIB/src\gd32f4xx_timer.c ****     }else{
1627:C:/Users/leonardo/Desktop/Code/Github/DawnBGC/Libraries/FWLIB/src\gd32f4xx_timer.c ****     }
1628:C:/Users/leonardo/Desktop/Code/Github/DawnBGC/Libraries/FWLIB/src\gd32f4xx_timer.c **** }
 5581              		.loc 1 1628 1
 5582 0022 0AE0     		b	.L235
 5583              	.L233:
1624:C:/Users/leonardo/Desktop/Code/Github/DawnBGC/Libraries/FWLIB/src\gd32f4xx_timer.c ****     }else if(TIMER_MASTER_SLAVE_MODE_DISABLE == timer_masterslave){
 5584              		.loc 1 1624 13
 5585 0024 FB78     		ldrb	r3, [r7, #3]	@ zero_extendqisi2
 5586 0026 012B     		cmp	r3, #1
 5587 0028 07D1     		bne	.L235
1625:C:/Users/leonardo/Desktop/Code/Github/DawnBGC/Libraries/FWLIB/src\gd32f4xx_timer.c ****     }else{
 5588              		.loc 1 1625 35
 5589 002a 7B68     		ldr	r3, [r7, #4]
 5590 002c 0833     		adds	r3, r3, #8
 5591 002e 1B68     		ldr	r3, [r3]
 5592 0030 7A68     		ldr	r2, [r7, #4]
 5593 0032 0832     		adds	r2, r2, #8
 5594 0034 23F08003 		bic	r3, r3, #128
 5595 0038 1360     		str	r3, [r2]
 5596              	.L235:
 5597              		.loc 1 1628 1
 5598 003a 00BF     		nop
 5599 003c 0C37     		adds	r7, r7, #12
 5600              		.cfi_def_cfa_offset 4
 5601 003e BD46     		mov	sp, r7
 5602              		.cfi_def_cfa_register 13
 5603              		@ sp needed
 5604 0040 80BC     		pop	{r7}
 5605              		.cfi_restore 7
 5606              		.cfi_def_cfa_offset 0
 5607 0042 7047     		bx	lr
 5608              		.cfi_endproc
 5609              	.LFE179:
 5611              		.section	.text.timer_external_trigger_config,"ax",%progbits
 5612              		.align	1
 5613              		.global	timer_external_trigger_config
 5614              		.syntax unified
 5615              		.thumb
 5616              		.thumb_func
 5617              		.fpu softvfp
 5619              	timer_external_trigger_config:
 5620              	.LFB180:
1629:C:/Users/leonardo/Desktop/Code/Github/DawnBGC/Libraries/FWLIB/src\gd32f4xx_timer.c **** 
1630:C:/Users/leonardo/Desktop/Code/Github/DawnBGC/Libraries/FWLIB/src\gd32f4xx_timer.c **** /*!
1631:C:/Users/leonardo/Desktop/Code/Github/DawnBGC/Libraries/FWLIB/src\gd32f4xx_timer.c ****     \brief      configure TIMER external trigger input
1632:C:/Users/leonardo/Desktop/Code/Github/DawnBGC/Libraries/FWLIB/src\gd32f4xx_timer.c ****     \param[in]  timer_periph: TIMERx(x=0..4,7)
1633:C:/Users/leonardo/Desktop/Code/Github/DawnBGC/Libraries/FWLIB/src\gd32f4xx_timer.c ****     \param[in]  timer_extprescaler: 
1634:C:/Users/leonardo/Desktop/Code/Github/DawnBGC/Libraries/FWLIB/src\gd32f4xx_timer.c ****       \arg        TIMER_EXT_TRI_PSC_OFF: no divided
1635:C:/Users/leonardo/Desktop/Code/Github/DawnBGC/Libraries/FWLIB/src\gd32f4xx_timer.c ****       \arg        TIMER_EXT_TRI_PSC_DIV2: divided by 2
1636:C:/Users/leonardo/Desktop/Code/Github/DawnBGC/Libraries/FWLIB/src\gd32f4xx_timer.c ****       \arg        TIMER_EXT_TRI_PSC_DIV4: divided by 4
1637:C:/Users/leonardo/Desktop/Code/Github/DawnBGC/Libraries/FWLIB/src\gd32f4xx_timer.c ****       \arg        TIMER_EXT_TRI_PSC_DIV8: divided by 8
1638:C:/Users/leonardo/Desktop/Code/Github/DawnBGC/Libraries/FWLIB/src\gd32f4xx_timer.c ****     \param[in]  timer_expolarity: 
1639:C:/Users/leonardo/Desktop/Code/Github/DawnBGC/Libraries/FWLIB/src\gd32f4xx_timer.c ****       \arg        TIMER_ETP_FALLING: active low or falling edge active
1640:C:/Users/leonardo/Desktop/Code/Github/DawnBGC/Libraries/FWLIB/src\gd32f4xx_timer.c ****       \arg        TIMER_ETP_RISING: active high or rising edge active
1641:C:/Users/leonardo/Desktop/Code/Github/DawnBGC/Libraries/FWLIB/src\gd32f4xx_timer.c ****     \param[in]  timer_extfilter: a value between 0 and 15
1642:C:/Users/leonardo/Desktop/Code/Github/DawnBGC/Libraries/FWLIB/src\gd32f4xx_timer.c ****     \param[out] none
1643:C:/Users/leonardo/Desktop/Code/Github/DawnBGC/Libraries/FWLIB/src\gd32f4xx_timer.c ****     \retval     none
1644:C:/Users/leonardo/Desktop/Code/Github/DawnBGC/Libraries/FWLIB/src\gd32f4xx_timer.c **** */
1645:C:/Users/leonardo/Desktop/Code/Github/DawnBGC/Libraries/FWLIB/src\gd32f4xx_timer.c **** void timer_external_trigger_config(uint32_t timer_periph,uint32_t timer_extprescaler,
1646:C:/Users/leonardo/Desktop/Code/Github/DawnBGC/Libraries/FWLIB/src\gd32f4xx_timer.c ****                                    uint32_t timer_expolarity,uint32_t timer_extfilter)
1647:C:/Users/leonardo/Desktop/Code/Github/DawnBGC/Libraries/FWLIB/src\gd32f4xx_timer.c **** {
 5621              		.loc 1 1647 1
 5622              		.cfi_startproc
 5623              		@ args = 0, pretend = 0, frame = 16
 5624              		@ frame_needed = 1, uses_anonymous_args = 0
 5625              		@ link register save eliminated.
 5626 0000 80B4     		push	{r7}
 5627              		.cfi_def_cfa_offset 4
 5628              		.cfi_offset 7, -4
 5629 0002 85B0     		sub	sp, sp, #20
 5630              		.cfi_def_cfa_offset 24
 5631 0004 00AF     		add	r7, sp, #0
 5632              		.cfi_def_cfa_register 7
 5633 0006 F860     		str	r0, [r7, #12]
 5634 0008 B960     		str	r1, [r7, #8]
 5635 000a 7A60     		str	r2, [r7, #4]
 5636 000c 3B60     		str	r3, [r7]
1648:C:/Users/leonardo/Desktop/Code/Github/DawnBGC/Libraries/FWLIB/src\gd32f4xx_timer.c ****     TIMER_SMCFG(timer_periph) &= (~(uint32_t)(TIMER_SMCFG_ETP|TIMER_SMCFG_ETPSC|TIMER_SMCFG_ETFC));
 5637              		.loc 1 1648 31
 5638 000e FB68     		ldr	r3, [r7, #12]
 5639 0010 0833     		adds	r3, r3, #8
 5640 0012 1B68     		ldr	r3, [r3]
 5641 0014 FA68     		ldr	r2, [r7, #12]
 5642 0016 0832     		adds	r2, r2, #8
 5643 0018 23F43F43 		bic	r3, r3, #48896
 5644 001c 1360     		str	r3, [r2]
1649:C:/Users/leonardo/Desktop/Code/Github/DawnBGC/Libraries/FWLIB/src\gd32f4xx_timer.c ****     TIMER_SMCFG(timer_periph) |= (uint32_t)(timer_extprescaler|timer_expolarity);
 5645              		.loc 1 1649 31
 5646 001e FB68     		ldr	r3, [r7, #12]
 5647 0020 0833     		adds	r3, r3, #8
 5648 0022 1A68     		ldr	r2, [r3]
 5649              		.loc 1 1649 63
 5650 0024 B968     		ldr	r1, [r7, #8]
 5651 0026 7B68     		ldr	r3, [r7, #4]
 5652 0028 0B43     		orrs	r3, r3, r1
 5653              		.loc 1 1649 31
 5654 002a F968     		ldr	r1, [r7, #12]
 5655 002c 0831     		adds	r1, r1, #8
 5656 002e 1343     		orrs	r3, r3, r2
 5657 0030 0B60     		str	r3, [r1]
1650:C:/Users/leonardo/Desktop/Code/Github/DawnBGC/Libraries/FWLIB/src\gd32f4xx_timer.c ****     TIMER_SMCFG(timer_periph) |= (uint32_t)(timer_extfilter<< 8U);
 5658              		.loc 1 1650 31
 5659 0032 FB68     		ldr	r3, [r7, #12]
 5660 0034 0833     		adds	r3, r3, #8
 5661 0036 1A68     		ldr	r2, [r3]
 5662              		.loc 1 1650 60
 5663 0038 3B68     		ldr	r3, [r7]
 5664 003a 1B02     		lsls	r3, r3, #8
 5665              		.loc 1 1650 31
 5666 003c F968     		ldr	r1, [r7, #12]
 5667 003e 0831     		adds	r1, r1, #8
 5668 0040 1343     		orrs	r3, r3, r2
 5669 0042 0B60     		str	r3, [r1]
1651:C:/Users/leonardo/Desktop/Code/Github/DawnBGC/Libraries/FWLIB/src\gd32f4xx_timer.c **** }
 5670              		.loc 1 1651 1
 5671 0044 00BF     		nop
 5672 0046 1437     		adds	r7, r7, #20
 5673              		.cfi_def_cfa_offset 4
 5674 0048 BD46     		mov	sp, r7
 5675              		.cfi_def_cfa_register 13
 5676              		@ sp needed
 5677 004a 80BC     		pop	{r7}
 5678              		.cfi_restore 7
 5679              		.cfi_def_cfa_offset 0
 5680 004c 7047     		bx	lr
 5681              		.cfi_endproc
 5682              	.LFE180:
 5684              		.section	.text.timer_quadrature_decoder_mode_config,"ax",%progbits
 5685              		.align	1
 5686              		.global	timer_quadrature_decoder_mode_config
 5687              		.syntax unified
 5688              		.thumb
 5689              		.thumb_func
 5690              		.fpu softvfp
 5692              	timer_quadrature_decoder_mode_config:
 5693              	.LFB181:
1652:C:/Users/leonardo/Desktop/Code/Github/DawnBGC/Libraries/FWLIB/src\gd32f4xx_timer.c **** 
1653:C:/Users/leonardo/Desktop/Code/Github/DawnBGC/Libraries/FWLIB/src\gd32f4xx_timer.c **** /*!
1654:C:/Users/leonardo/Desktop/Code/Github/DawnBGC/Libraries/FWLIB/src\gd32f4xx_timer.c ****     \brief      configure TIMER quadrature decoder mode
1655:C:/Users/leonardo/Desktop/Code/Github/DawnBGC/Libraries/FWLIB/src\gd32f4xx_timer.c ****     \param[in]  timer_periph: TIMERx(x=0..4,7,8,11)
1656:C:/Users/leonardo/Desktop/Code/Github/DawnBGC/Libraries/FWLIB/src\gd32f4xx_timer.c ****     \param[in]  timer_decomode: 
1657:C:/Users/leonardo/Desktop/Code/Github/DawnBGC/Libraries/FWLIB/src\gd32f4xx_timer.c ****       \arg        TIMER_ENCODER_MODE0: counter counts on CI0FE0 edge depending on CI1FE1 level
1658:C:/Users/leonardo/Desktop/Code/Github/DawnBGC/Libraries/FWLIB/src\gd32f4xx_timer.c ****       \arg        TIMER_ENCODER_MODE1: counter counts on CI1FE1 edge depending on CI0FE0 level
1659:C:/Users/leonardo/Desktop/Code/Github/DawnBGC/Libraries/FWLIB/src\gd32f4xx_timer.c ****       \arg        TIMER_ENCODER_MODE2: counter counts on both CI0FE0 and CI1FE1 edges depending on 
1660:C:/Users/leonardo/Desktop/Code/Github/DawnBGC/Libraries/FWLIB/src\gd32f4xx_timer.c ****     \param[in]  timer_ic0polarity: 
1661:C:/Users/leonardo/Desktop/Code/Github/DawnBGC/Libraries/FWLIB/src\gd32f4xx_timer.c ****       \arg        TIMER_IC_POLARITY_RISING: capture rising edge
1662:C:/Users/leonardo/Desktop/Code/Github/DawnBGC/Libraries/FWLIB/src\gd32f4xx_timer.c ****       \arg        TIMER_IC_POLARITY_FALLING: capture falling edge
1663:C:/Users/leonardo/Desktop/Code/Github/DawnBGC/Libraries/FWLIB/src\gd32f4xx_timer.c ****     \param[in]  timer_ic1polarity: 
1664:C:/Users/leonardo/Desktop/Code/Github/DawnBGC/Libraries/FWLIB/src\gd32f4xx_timer.c ****       \arg        TIMER_IC_POLARITY_RISING: capture rising edge
1665:C:/Users/leonardo/Desktop/Code/Github/DawnBGC/Libraries/FWLIB/src\gd32f4xx_timer.c ****       \arg        TIMER_IC_POLARITY_FALLING: capture falling edge
1666:C:/Users/leonardo/Desktop/Code/Github/DawnBGC/Libraries/FWLIB/src\gd32f4xx_timer.c ****     \param[out] none
1667:C:/Users/leonardo/Desktop/Code/Github/DawnBGC/Libraries/FWLIB/src\gd32f4xx_timer.c ****     \retval     none
1668:C:/Users/leonardo/Desktop/Code/Github/DawnBGC/Libraries/FWLIB/src\gd32f4xx_timer.c **** */
1669:C:/Users/leonardo/Desktop/Code/Github/DawnBGC/Libraries/FWLIB/src\gd32f4xx_timer.c **** void timer_quadrature_decoder_mode_config(uint32_t timer_periph,uint32_t timer_decomode,
1670:C:/Users/leonardo/Desktop/Code/Github/DawnBGC/Libraries/FWLIB/src\gd32f4xx_timer.c ****                                    uint16_t timer_ic0polarity,uint16_t timer_ic1polarity)
1671:C:/Users/leonardo/Desktop/Code/Github/DawnBGC/Libraries/FWLIB/src\gd32f4xx_timer.c **** {
 5694              		.loc 1 1671 1
 5695              		.cfi_startproc
 5696              		@ args = 0, pretend = 0, frame = 16
 5697              		@ frame_needed = 1, uses_anonymous_args = 0
 5698              		@ link register save eliminated.
 5699 0000 80B4     		push	{r7}
 5700              		.cfi_def_cfa_offset 4
 5701              		.cfi_offset 7, -4
 5702 0002 85B0     		sub	sp, sp, #20
 5703              		.cfi_def_cfa_offset 24
 5704 0004 00AF     		add	r7, sp, #0
 5705              		.cfi_def_cfa_register 7
 5706 0006 F860     		str	r0, [r7, #12]
 5707 0008 B960     		str	r1, [r7, #8]
 5708 000a 1146     		mov	r1, r2
 5709 000c 1A46     		mov	r2, r3
 5710 000e 0B46     		mov	r3, r1	@ movhi
 5711 0010 FB80     		strh	r3, [r7, #6]	@ movhi
 5712 0012 1346     		mov	r3, r2	@ movhi
 5713 0014 BB80     		strh	r3, [r7, #4]	@ movhi
1672:C:/Users/leonardo/Desktop/Code/Github/DawnBGC/Libraries/FWLIB/src\gd32f4xx_timer.c ****     TIMER_SMCFG(timer_periph) &= (~(uint32_t)TIMER_SMCFG_SMC);
 5714              		.loc 1 1672 31
 5715 0016 FB68     		ldr	r3, [r7, #12]
 5716 0018 0833     		adds	r3, r3, #8
 5717 001a 1B68     		ldr	r3, [r3]
 5718 001c FA68     		ldr	r2, [r7, #12]
 5719 001e 0832     		adds	r2, r2, #8
 5720 0020 23F00703 		bic	r3, r3, #7
 5721 0024 1360     		str	r3, [r2]
1673:C:/Users/leonardo/Desktop/Code/Github/DawnBGC/Libraries/FWLIB/src\gd32f4xx_timer.c ****     TIMER_SMCFG(timer_periph) |= (uint32_t)timer_decomode;
 5722              		.loc 1 1673 31
 5723 0026 FB68     		ldr	r3, [r7, #12]
 5724 0028 0833     		adds	r3, r3, #8
 5725 002a 1A68     		ldr	r2, [r3]
 5726 002c FB68     		ldr	r3, [r7, #12]
 5727 002e 0833     		adds	r3, r3, #8
 5728 0030 1946     		mov	r1, r3
 5729 0032 BB68     		ldr	r3, [r7, #8]
 5730 0034 1343     		orrs	r3, r3, r2
 5731 0036 0B60     		str	r3, [r1]
1674:C:/Users/leonardo/Desktop/Code/Github/DawnBGC/Libraries/FWLIB/src\gd32f4xx_timer.c **** 
1675:C:/Users/leonardo/Desktop/Code/Github/DawnBGC/Libraries/FWLIB/src\gd32f4xx_timer.c ****     TIMER_CHCTL0(timer_periph) &= (uint32_t)(((~(uint32_t)TIMER_CHCTL0_CH0MS))&((~(uint32_t)TIMER_C
 5732              		.loc 1 1675 32
 5733 0038 FB68     		ldr	r3, [r7, #12]
 5734 003a 1833     		adds	r3, r3, #24
 5735 003c 1B68     		ldr	r3, [r3]
 5736 003e FA68     		ldr	r2, [r7, #12]
 5737 0040 1832     		adds	r2, r2, #24
 5738 0042 23F44073 		bic	r3, r3, #768
 5739 0046 23F00303 		bic	r3, r3, #3
 5740 004a 1360     		str	r3, [r2]
1676:C:/Users/leonardo/Desktop/Code/Github/DawnBGC/Libraries/FWLIB/src\gd32f4xx_timer.c ****     TIMER_CHCTL0(timer_periph) |= (uint32_t)(TIMER_IC_SELECTION_DIRECTTI|((uint32_t)TIMER_IC_SELECT
 5741              		.loc 1 1676 32
 5742 004c FB68     		ldr	r3, [r7, #12]
 5743 004e 1833     		adds	r3, r3, #24
 5744 0050 1B68     		ldr	r3, [r3]
 5745 0052 FA68     		ldr	r2, [r7, #12]
 5746 0054 1832     		adds	r2, r2, #24
 5747 0056 43F48073 		orr	r3, r3, #256
 5748 005a 43F00103 		orr	r3, r3, #1
 5749 005e 1360     		str	r3, [r2]
1677:C:/Users/leonardo/Desktop/Code/Github/DawnBGC/Libraries/FWLIB/src\gd32f4xx_timer.c **** 
1678:C:/Users/leonardo/Desktop/Code/Github/DawnBGC/Libraries/FWLIB/src\gd32f4xx_timer.c ****     TIMER_CHCTL2(timer_periph) &= (~(uint32_t)(TIMER_CHCTL2_CH0P|TIMER_CHCTL2_CH0NP));
 5750              		.loc 1 1678 32
 5751 0060 FB68     		ldr	r3, [r7, #12]
 5752 0062 2033     		adds	r3, r3, #32
 5753 0064 1B68     		ldr	r3, [r3]
 5754 0066 FA68     		ldr	r2, [r7, #12]
 5755 0068 2032     		adds	r2, r2, #32
 5756 006a 23F00A03 		bic	r3, r3, #10
 5757 006e 1360     		str	r3, [r2]
1679:C:/Users/leonardo/Desktop/Code/Github/DawnBGC/Libraries/FWLIB/src\gd32f4xx_timer.c ****     TIMER_CHCTL2(timer_periph) &= (~(uint32_t)(TIMER_CHCTL2_CH1P|TIMER_CHCTL2_CH1NP));
 5758              		.loc 1 1679 32
 5759 0070 FB68     		ldr	r3, [r7, #12]
 5760 0072 2033     		adds	r3, r3, #32
 5761 0074 1B68     		ldr	r3, [r3]
 5762 0076 FA68     		ldr	r2, [r7, #12]
 5763 0078 2032     		adds	r2, r2, #32
 5764 007a 23F0A003 		bic	r3, r3, #160
 5765 007e 1360     		str	r3, [r2]
1680:C:/Users/leonardo/Desktop/Code/Github/DawnBGC/Libraries/FWLIB/src\gd32f4xx_timer.c ****     TIMER_CHCTL2(timer_periph) |= ((uint32_t)timer_ic0polarity|((uint32_t)timer_ic1polarity<< 4U));
 5766              		.loc 1 1680 32
 5767 0080 FB68     		ldr	r3, [r7, #12]
 5768 0082 2033     		adds	r3, r3, #32
 5769 0084 1A68     		ldr	r2, [r3]
 5770              		.loc 1 1680 36
 5771 0086 F988     		ldrh	r1, [r7, #6]
 5772              		.loc 1 1680 65
 5773 0088 BB88     		ldrh	r3, [r7, #4]
 5774              		.loc 1 1680 92
 5775 008a 1B01     		lsls	r3, r3, #4
 5776              		.loc 1 1680 63
 5777 008c 0B43     		orrs	r3, r3, r1
 5778              		.loc 1 1680 32
 5779 008e F968     		ldr	r1, [r7, #12]
 5780 0090 2031     		adds	r1, r1, #32
 5781 0092 1343     		orrs	r3, r3, r2
 5782 0094 0B60     		str	r3, [r1]
1681:C:/Users/leonardo/Desktop/Code/Github/DawnBGC/Libraries/FWLIB/src\gd32f4xx_timer.c **** }
 5783              		.loc 1 1681 1
 5784 0096 00BF     		nop
 5785 0098 1437     		adds	r7, r7, #20
 5786              		.cfi_def_cfa_offset 4
 5787 009a BD46     		mov	sp, r7
 5788              		.cfi_def_cfa_register 13
 5789              		@ sp needed
 5790 009c 80BC     		pop	{r7}
 5791              		.cfi_restore 7
 5792              		.cfi_def_cfa_offset 0
 5793 009e 7047     		bx	lr
 5794              		.cfi_endproc
 5795              	.LFE181:
 5797              		.section	.text.timer_internal_clock_config,"ax",%progbits
 5798              		.align	1
 5799              		.global	timer_internal_clock_config
 5800              		.syntax unified
 5801              		.thumb
 5802              		.thumb_func
 5803              		.fpu softvfp
 5805              	timer_internal_clock_config:
 5806              	.LFB182:
1682:C:/Users/leonardo/Desktop/Code/Github/DawnBGC/Libraries/FWLIB/src\gd32f4xx_timer.c **** 
1683:C:/Users/leonardo/Desktop/Code/Github/DawnBGC/Libraries/FWLIB/src\gd32f4xx_timer.c **** /*!
1684:C:/Users/leonardo/Desktop/Code/Github/DawnBGC/Libraries/FWLIB/src\gd32f4xx_timer.c ****     \brief      configure TIMER internal clock mode
1685:C:/Users/leonardo/Desktop/Code/Github/DawnBGC/Libraries/FWLIB/src\gd32f4xx_timer.c ****     \param[in]  timer_periph: TIMERx(x=0..4,7,8,11)
1686:C:/Users/leonardo/Desktop/Code/Github/DawnBGC/Libraries/FWLIB/src\gd32f4xx_timer.c ****     \param[out] none
1687:C:/Users/leonardo/Desktop/Code/Github/DawnBGC/Libraries/FWLIB/src\gd32f4xx_timer.c ****     \retval     none
1688:C:/Users/leonardo/Desktop/Code/Github/DawnBGC/Libraries/FWLIB/src\gd32f4xx_timer.c **** */
1689:C:/Users/leonardo/Desktop/Code/Github/DawnBGC/Libraries/FWLIB/src\gd32f4xx_timer.c **** void timer_internal_clock_config(uint32_t timer_periph)
1690:C:/Users/leonardo/Desktop/Code/Github/DawnBGC/Libraries/FWLIB/src\gd32f4xx_timer.c **** {
 5807              		.loc 1 1690 1
 5808              		.cfi_startproc
 5809              		@ args = 0, pretend = 0, frame = 8
 5810              		@ frame_needed = 1, uses_anonymous_args = 0
 5811              		@ link register save eliminated.
 5812 0000 80B4     		push	{r7}
 5813              		.cfi_def_cfa_offset 4
 5814              		.cfi_offset 7, -4
 5815 0002 83B0     		sub	sp, sp, #12
 5816              		.cfi_def_cfa_offset 16
 5817 0004 00AF     		add	r7, sp, #0
 5818              		.cfi_def_cfa_register 7
 5819 0006 7860     		str	r0, [r7, #4]
1691:C:/Users/leonardo/Desktop/Code/Github/DawnBGC/Libraries/FWLIB/src\gd32f4xx_timer.c ****     TIMER_SMCFG(timer_periph) &= ~(uint32_t)TIMER_SMCFG_SMC;
 5820              		.loc 1 1691 31
 5821 0008 7B68     		ldr	r3, [r7, #4]
 5822 000a 0833     		adds	r3, r3, #8
 5823 000c 1B68     		ldr	r3, [r3]
 5824 000e 7A68     		ldr	r2, [r7, #4]
 5825 0010 0832     		adds	r2, r2, #8
 5826 0012 23F00703 		bic	r3, r3, #7
 5827 0016 1360     		str	r3, [r2]
1692:C:/Users/leonardo/Desktop/Code/Github/DawnBGC/Libraries/FWLIB/src\gd32f4xx_timer.c **** }
 5828              		.loc 1 1692 1
 5829 0018 00BF     		nop
 5830 001a 0C37     		adds	r7, r7, #12
 5831              		.cfi_def_cfa_offset 4
 5832 001c BD46     		mov	sp, r7
 5833              		.cfi_def_cfa_register 13
 5834              		@ sp needed
 5835 001e 80BC     		pop	{r7}
 5836              		.cfi_restore 7
 5837              		.cfi_def_cfa_offset 0
 5838 0020 7047     		bx	lr
 5839              		.cfi_endproc
 5840              	.LFE182:
 5842              		.section	.text.timer_internal_trigger_as_external_clock_config,"ax",%progbits
 5843              		.align	1
 5844              		.global	timer_internal_trigger_as_external_clock_config
 5845              		.syntax unified
 5846              		.thumb
 5847              		.thumb_func
 5848              		.fpu softvfp
 5850              	timer_internal_trigger_as_external_clock_config:
 5851              	.LFB183:
1693:C:/Users/leonardo/Desktop/Code/Github/DawnBGC/Libraries/FWLIB/src\gd32f4xx_timer.c **** 
1694:C:/Users/leonardo/Desktop/Code/Github/DawnBGC/Libraries/FWLIB/src\gd32f4xx_timer.c **** /*!
1695:C:/Users/leonardo/Desktop/Code/Github/DawnBGC/Libraries/FWLIB/src\gd32f4xx_timer.c ****     \brief      configure TIMER the internal trigger as external clock input
1696:C:/Users/leonardo/Desktop/Code/Github/DawnBGC/Libraries/FWLIB/src\gd32f4xx_timer.c ****     \param[in]  timer_periph: TIMERx(x=0..4,7,8,11)
1697:C:/Users/leonardo/Desktop/Code/Github/DawnBGC/Libraries/FWLIB/src\gd32f4xx_timer.c ****     \param[in]  timer_intrigger: 
1698:C:/Users/leonardo/Desktop/Code/Github/DawnBGC/Libraries/FWLIB/src\gd32f4xx_timer.c ****       \arg        TIMER_SMCFG_TRGSEL_ITI0: internal trigger 0
1699:C:/Users/leonardo/Desktop/Code/Github/DawnBGC/Libraries/FWLIB/src\gd32f4xx_timer.c ****       \arg        TIMER_SMCFG_TRGSEL_ITI1: internal trigger 1
1700:C:/Users/leonardo/Desktop/Code/Github/DawnBGC/Libraries/FWLIB/src\gd32f4xx_timer.c ****       \arg        TIMER_SMCFG_TRGSEL_ITI2: internal trigger 2
1701:C:/Users/leonardo/Desktop/Code/Github/DawnBGC/Libraries/FWLIB/src\gd32f4xx_timer.c ****       \arg        TIMER_SMCFG_TRGSEL_ITI3: internal trigger 3
1702:C:/Users/leonardo/Desktop/Code/Github/DawnBGC/Libraries/FWLIB/src\gd32f4xx_timer.c ****     \param[out] none
1703:C:/Users/leonardo/Desktop/Code/Github/DawnBGC/Libraries/FWLIB/src\gd32f4xx_timer.c ****     \retval     none
1704:C:/Users/leonardo/Desktop/Code/Github/DawnBGC/Libraries/FWLIB/src\gd32f4xx_timer.c **** */
1705:C:/Users/leonardo/Desktop/Code/Github/DawnBGC/Libraries/FWLIB/src\gd32f4xx_timer.c **** void timer_internal_trigger_as_external_clock_config(uint32_t timer_periph, uint32_t timer_intrigge
1706:C:/Users/leonardo/Desktop/Code/Github/DawnBGC/Libraries/FWLIB/src\gd32f4xx_timer.c **** {
 5852              		.loc 1 1706 1
 5853              		.cfi_startproc
 5854              		@ args = 0, pretend = 0, frame = 8
 5855              		@ frame_needed = 1, uses_anonymous_args = 0
 5856 0000 80B5     		push	{r7, lr}
 5857              		.cfi_def_cfa_offset 8
 5858              		.cfi_offset 7, -8
 5859              		.cfi_offset 14, -4
 5860 0002 82B0     		sub	sp, sp, #8
 5861              		.cfi_def_cfa_offset 16
 5862 0004 00AF     		add	r7, sp, #0
 5863              		.cfi_def_cfa_register 7
 5864 0006 7860     		str	r0, [r7, #4]
 5865 0008 3960     		str	r1, [r7]
1707:C:/Users/leonardo/Desktop/Code/Github/DawnBGC/Libraries/FWLIB/src\gd32f4xx_timer.c ****     timer_input_trigger_source_select(timer_periph,timer_intrigger);
 5866              		.loc 1 1707 5
 5867 000a 3968     		ldr	r1, [r7]
 5868 000c 7868     		ldr	r0, [r7, #4]
 5869 000e FFF7FEFF 		bl	timer_input_trigger_source_select
1708:C:/Users/leonardo/Desktop/Code/Github/DawnBGC/Libraries/FWLIB/src\gd32f4xx_timer.c ****     TIMER_SMCFG(timer_periph) &= ~(uint32_t)TIMER_SMCFG_SMC;
 5870              		.loc 1 1708 31
 5871 0012 7B68     		ldr	r3, [r7, #4]
 5872 0014 0833     		adds	r3, r3, #8
 5873 0016 1B68     		ldr	r3, [r3]
 5874 0018 7A68     		ldr	r2, [r7, #4]
 5875 001a 0832     		adds	r2, r2, #8
 5876 001c 23F00703 		bic	r3, r3, #7
 5877 0020 1360     		str	r3, [r2]
1709:C:/Users/leonardo/Desktop/Code/Github/DawnBGC/Libraries/FWLIB/src\gd32f4xx_timer.c ****     TIMER_SMCFG(timer_periph) |= (uint32_t)TIMER_SLAVE_MODE_EXTERNAL0;
 5878              		.loc 1 1709 31
 5879 0022 7B68     		ldr	r3, [r7, #4]
 5880 0024 0833     		adds	r3, r3, #8
 5881 0026 1B68     		ldr	r3, [r3]
 5882 0028 7A68     		ldr	r2, [r7, #4]
 5883 002a 0832     		adds	r2, r2, #8
 5884 002c 43F00703 		orr	r3, r3, #7
 5885 0030 1360     		str	r3, [r2]
1710:C:/Users/leonardo/Desktop/Code/Github/DawnBGC/Libraries/FWLIB/src\gd32f4xx_timer.c **** }
 5886              		.loc 1 1710 1
 5887 0032 00BF     		nop
 5888 0034 0837     		adds	r7, r7, #8
 5889              		.cfi_def_cfa_offset 8
 5890 0036 BD46     		mov	sp, r7
 5891              		.cfi_def_cfa_register 13
 5892              		@ sp needed
 5893 0038 80BD     		pop	{r7, pc}
 5894              		.cfi_endproc
 5895              	.LFE183:
 5897              		.section	.text.timer_external_trigger_as_external_clock_config,"ax",%progbits
 5898              		.align	1
 5899              		.global	timer_external_trigger_as_external_clock_config
 5900              		.syntax unified
 5901              		.thumb
 5902              		.thumb_func
 5903              		.fpu softvfp
 5905              	timer_external_trigger_as_external_clock_config:
 5906              	.LFB184:
1711:C:/Users/leonardo/Desktop/Code/Github/DawnBGC/Libraries/FWLIB/src\gd32f4xx_timer.c **** 
1712:C:/Users/leonardo/Desktop/Code/Github/DawnBGC/Libraries/FWLIB/src\gd32f4xx_timer.c **** /*!
1713:C:/Users/leonardo/Desktop/Code/Github/DawnBGC/Libraries/FWLIB/src\gd32f4xx_timer.c ****     \brief      configure TIMER the external trigger as external clock input
1714:C:/Users/leonardo/Desktop/Code/Github/DawnBGC/Libraries/FWLIB/src\gd32f4xx_timer.c ****     \param[in]  timer_periph: TIMERx(x=0..4,7,8,11)
1715:C:/Users/leonardo/Desktop/Code/Github/DawnBGC/Libraries/FWLIB/src\gd32f4xx_timer.c ****     \param[in]  timer_extrigger: 
1716:C:/Users/leonardo/Desktop/Code/Github/DawnBGC/Libraries/FWLIB/src\gd32f4xx_timer.c ****       \arg        TIMER_SMCFG_TRGSEL_CI0F_ED: TI0 Edge Detector
1717:C:/Users/leonardo/Desktop/Code/Github/DawnBGC/Libraries/FWLIB/src\gd32f4xx_timer.c ****       \arg        TIMER_SMCFG_TRGSEL_CI0FE0: filtered TIMER input 0
1718:C:/Users/leonardo/Desktop/Code/Github/DawnBGC/Libraries/FWLIB/src\gd32f4xx_timer.c ****       \arg        TIMER_SMCFG_TRGSEL_CI1FE1: filtered TIMER input 1
1719:C:/Users/leonardo/Desktop/Code/Github/DawnBGC/Libraries/FWLIB/src\gd32f4xx_timer.c ****     \param[in]  timer_expolarity: 
1720:C:/Users/leonardo/Desktop/Code/Github/DawnBGC/Libraries/FWLIB/src\gd32f4xx_timer.c ****       \arg        TIMER_IC_POLARITY_RISING: active low or falling edge active
1721:C:/Users/leonardo/Desktop/Code/Github/DawnBGC/Libraries/FWLIB/src\gd32f4xx_timer.c ****       \arg        TIMER_IC_POLARITY_FALLING: active high or rising edge active
1722:C:/Users/leonardo/Desktop/Code/Github/DawnBGC/Libraries/FWLIB/src\gd32f4xx_timer.c ****     \param[in]  timer_extfilter: a value between 0 and 15
1723:C:/Users/leonardo/Desktop/Code/Github/DawnBGC/Libraries/FWLIB/src\gd32f4xx_timer.c ****     \param[out] none
1724:C:/Users/leonardo/Desktop/Code/Github/DawnBGC/Libraries/FWLIB/src\gd32f4xx_timer.c ****     \retval     none
1725:C:/Users/leonardo/Desktop/Code/Github/DawnBGC/Libraries/FWLIB/src\gd32f4xx_timer.c **** */
1726:C:/Users/leonardo/Desktop/Code/Github/DawnBGC/Libraries/FWLIB/src\gd32f4xx_timer.c **** void timer_external_trigger_as_external_clock_config(uint32_t timer_periph,uint32_t timer_extrigger
1727:C:/Users/leonardo/Desktop/Code/Github/DawnBGC/Libraries/FWLIB/src\gd32f4xx_timer.c ****                                        uint16_t timer_expolarity,uint32_t timer_extfilter)
1728:C:/Users/leonardo/Desktop/Code/Github/DawnBGC/Libraries/FWLIB/src\gd32f4xx_timer.c **** {
 5907              		.loc 1 1728 1
 5908              		.cfi_startproc
 5909              		@ args = 0, pretend = 0, frame = 16
 5910              		@ frame_needed = 1, uses_anonymous_args = 0
 5911 0000 80B5     		push	{r7, lr}
 5912              		.cfi_def_cfa_offset 8
 5913              		.cfi_offset 7, -8
 5914              		.cfi_offset 14, -4
 5915 0002 84B0     		sub	sp, sp, #16
 5916              		.cfi_def_cfa_offset 24
 5917 0004 00AF     		add	r7, sp, #0
 5918              		.cfi_def_cfa_register 7
 5919 0006 F860     		str	r0, [r7, #12]
 5920 0008 B960     		str	r1, [r7, #8]
 5921 000a 3B60     		str	r3, [r7]
 5922 000c 1346     		mov	r3, r2	@ movhi
 5923 000e FB80     		strh	r3, [r7, #6]	@ movhi
1729:C:/Users/leonardo/Desktop/Code/Github/DawnBGC/Libraries/FWLIB/src\gd32f4xx_timer.c ****     if(TIMER_SMCFG_TRGSEL_CI1FE1 == timer_extrigger){
 5924              		.loc 1 1729 7
 5925 0010 BB68     		ldr	r3, [r7, #8]
 5926 0012 602B     		cmp	r3, #96
 5927 0014 42D1     		bne	.L241
1730:C:/Users/leonardo/Desktop/Code/Github/DawnBGC/Libraries/FWLIB/src\gd32f4xx_timer.c ****         /* reset the CH1EN bit */
1731:C:/Users/leonardo/Desktop/Code/Github/DawnBGC/Libraries/FWLIB/src\gd32f4xx_timer.c ****         TIMER_CHCTL2(timer_periph) &= (~(uint32_t)TIMER_CHCTL2_CH1EN);
 5928              		.loc 1 1731 36
 5929 0016 FB68     		ldr	r3, [r7, #12]
 5930 0018 2033     		adds	r3, r3, #32
 5931 001a 1B68     		ldr	r3, [r3]
 5932 001c FA68     		ldr	r2, [r7, #12]
 5933 001e 2032     		adds	r2, r2, #32
 5934 0020 23F01003 		bic	r3, r3, #16
 5935 0024 1360     		str	r3, [r2]
1732:C:/Users/leonardo/Desktop/Code/Github/DawnBGC/Libraries/FWLIB/src\gd32f4xx_timer.c ****         /* reset the CH1NP bit */
1733:C:/Users/leonardo/Desktop/Code/Github/DawnBGC/Libraries/FWLIB/src\gd32f4xx_timer.c ****         TIMER_CHCTL2(timer_periph) &= (~(uint32_t)(TIMER_CHCTL2_CH1P|TIMER_CHCTL2_CH1NP));
 5936              		.loc 1 1733 36
 5937 0026 FB68     		ldr	r3, [r7, #12]
 5938 0028 2033     		adds	r3, r3, #32
 5939 002a 1B68     		ldr	r3, [r3]
 5940 002c FA68     		ldr	r2, [r7, #12]
 5941 002e 2032     		adds	r2, r2, #32
 5942 0030 23F0A003 		bic	r3, r3, #160
 5943 0034 1360     		str	r3, [r2]
1734:C:/Users/leonardo/Desktop/Code/Github/DawnBGC/Libraries/FWLIB/src\gd32f4xx_timer.c ****         /* set the CH1NP bit */
1735:C:/Users/leonardo/Desktop/Code/Github/DawnBGC/Libraries/FWLIB/src\gd32f4xx_timer.c ****         TIMER_CHCTL2(timer_periph) |= (uint32_t)((uint32_t)timer_expolarity << 4U);
 5944              		.loc 1 1735 36
 5945 0036 FB68     		ldr	r3, [r7, #12]
 5946 0038 2033     		adds	r3, r3, #32
 5947 003a 1A68     		ldr	r2, [r3]
 5948              		.loc 1 1735 50
 5949 003c FB88     		ldrh	r3, [r7, #6]
 5950              		.loc 1 1735 39
 5951 003e 1B01     		lsls	r3, r3, #4
 5952              		.loc 1 1735 36
 5953 0040 F968     		ldr	r1, [r7, #12]
 5954 0042 2031     		adds	r1, r1, #32
 5955 0044 1343     		orrs	r3, r3, r2
 5956 0046 0B60     		str	r3, [r1]
1736:C:/Users/leonardo/Desktop/Code/Github/DawnBGC/Libraries/FWLIB/src\gd32f4xx_timer.c ****         /* reset the CH1MS bit */
1737:C:/Users/leonardo/Desktop/Code/Github/DawnBGC/Libraries/FWLIB/src\gd32f4xx_timer.c ****         TIMER_CHCTL0(timer_periph) &= (~(uint32_t)TIMER_CHCTL0_CH1MS);
 5957              		.loc 1 1737 36
 5958 0048 FB68     		ldr	r3, [r7, #12]
 5959 004a 1833     		adds	r3, r3, #24
 5960 004c 1B68     		ldr	r3, [r3]
 5961 004e FA68     		ldr	r2, [r7, #12]
 5962 0050 1832     		adds	r2, r2, #24
 5963 0052 23F44073 		bic	r3, r3, #768
 5964 0056 1360     		str	r3, [r2]
1738:C:/Users/leonardo/Desktop/Code/Github/DawnBGC/Libraries/FWLIB/src\gd32f4xx_timer.c ****         /* set the CH1MS bit */
1739:C:/Users/leonardo/Desktop/Code/Github/DawnBGC/Libraries/FWLIB/src\gd32f4xx_timer.c ****         TIMER_CHCTL0(timer_periph) |= (uint32_t)((uint32_t)TIMER_IC_SELECTION_DIRECTTI<< 8U);
 5965              		.loc 1 1739 36
 5966 0058 FB68     		ldr	r3, [r7, #12]
 5967 005a 1833     		adds	r3, r3, #24
 5968 005c 1B68     		ldr	r3, [r3]
 5969 005e FA68     		ldr	r2, [r7, #12]
 5970 0060 1832     		adds	r2, r2, #24
 5971 0062 43F48073 		orr	r3, r3, #256
 5972 0066 1360     		str	r3, [r2]
1740:C:/Users/leonardo/Desktop/Code/Github/DawnBGC/Libraries/FWLIB/src\gd32f4xx_timer.c ****         /* reset the CH1CAPFLT bit */
1741:C:/Users/leonardo/Desktop/Code/Github/DawnBGC/Libraries/FWLIB/src\gd32f4xx_timer.c ****         TIMER_CHCTL0(timer_periph) &= (~(uint32_t)TIMER_CHCTL0_CH1CAPFLT);
 5973              		.loc 1 1741 36
 5974 0068 FB68     		ldr	r3, [r7, #12]
 5975 006a 1833     		adds	r3, r3, #24
 5976 006c 1B68     		ldr	r3, [r3]
 5977 006e FA68     		ldr	r2, [r7, #12]
 5978 0070 1832     		adds	r2, r2, #24
 5979 0072 23F47043 		bic	r3, r3, #61440
 5980 0076 1360     		str	r3, [r2]
1742:C:/Users/leonardo/Desktop/Code/Github/DawnBGC/Libraries/FWLIB/src\gd32f4xx_timer.c ****         /* set the CH1CAPFLT bit */
1743:C:/Users/leonardo/Desktop/Code/Github/DawnBGC/Libraries/FWLIB/src\gd32f4xx_timer.c ****         TIMER_CHCTL0(timer_periph) |= (uint32_t)(timer_extfilter<< 8U);
 5981              		.loc 1 1743 36
 5982 0078 FB68     		ldr	r3, [r7, #12]
 5983 007a 1833     		adds	r3, r3, #24
 5984 007c 1A68     		ldr	r2, [r3]
 5985              		.loc 1 1743 65
 5986 007e 3B68     		ldr	r3, [r7]
 5987 0080 1B02     		lsls	r3, r3, #8
 5988              		.loc 1 1743 36
 5989 0082 F968     		ldr	r1, [r7, #12]
 5990 0084 1831     		adds	r1, r1, #24
 5991 0086 1343     		orrs	r3, r3, r2
 5992 0088 0B60     		str	r3, [r1]
1744:C:/Users/leonardo/Desktop/Code/Github/DawnBGC/Libraries/FWLIB/src\gd32f4xx_timer.c ****         /* set the CH1EN bit */
1745:C:/Users/leonardo/Desktop/Code/Github/DawnBGC/Libraries/FWLIB/src\gd32f4xx_timer.c ****         TIMER_CHCTL2(timer_periph) |= (uint32_t)TIMER_CHCTL2_CH1EN;
 5993              		.loc 1 1745 36
 5994 008a FB68     		ldr	r3, [r7, #12]
 5995 008c 2033     		adds	r3, r3, #32
 5996 008e 1B68     		ldr	r3, [r3]
 5997 0090 FA68     		ldr	r2, [r7, #12]
 5998 0092 2032     		adds	r2, r2, #32
 5999 0094 43F01003 		orr	r3, r3, #16
 6000 0098 1360     		str	r3, [r2]
 6001 009a 40E0     		b	.L242
 6002              	.L241:
1746:C:/Users/leonardo/Desktop/Code/Github/DawnBGC/Libraries/FWLIB/src\gd32f4xx_timer.c ****     }else{
1747:C:/Users/leonardo/Desktop/Code/Github/DawnBGC/Libraries/FWLIB/src\gd32f4xx_timer.c ****         /* reset the CH0EN bit */
1748:C:/Users/leonardo/Desktop/Code/Github/DawnBGC/Libraries/FWLIB/src\gd32f4xx_timer.c ****         TIMER_CHCTL2(timer_periph) &= (~(uint32_t)TIMER_CHCTL2_CH0EN);
 6003              		.loc 1 1748 36
 6004 009c FB68     		ldr	r3, [r7, #12]
 6005 009e 2033     		adds	r3, r3, #32
 6006 00a0 1B68     		ldr	r3, [r3]
 6007 00a2 FA68     		ldr	r2, [r7, #12]
 6008 00a4 2032     		adds	r2, r2, #32
 6009 00a6 23F00103 		bic	r3, r3, #1
 6010 00aa 1360     		str	r3, [r2]
1749:C:/Users/leonardo/Desktop/Code/Github/DawnBGC/Libraries/FWLIB/src\gd32f4xx_timer.c ****         /* reset the CH0P and CH0NP bits */
1750:C:/Users/leonardo/Desktop/Code/Github/DawnBGC/Libraries/FWLIB/src\gd32f4xx_timer.c ****         TIMER_CHCTL2(timer_periph) &= (~(uint32_t)(TIMER_CHCTL2_CH0P|TIMER_CHCTL2_CH0NP));
 6011              		.loc 1 1750 36
 6012 00ac FB68     		ldr	r3, [r7, #12]
 6013 00ae 2033     		adds	r3, r3, #32
 6014 00b0 1B68     		ldr	r3, [r3]
 6015 00b2 FA68     		ldr	r2, [r7, #12]
 6016 00b4 2032     		adds	r2, r2, #32
 6017 00b6 23F00A03 		bic	r3, r3, #10
 6018 00ba 1360     		str	r3, [r2]
1751:C:/Users/leonardo/Desktop/Code/Github/DawnBGC/Libraries/FWLIB/src\gd32f4xx_timer.c ****         /* set the CH0P and CH0NP bits */
1752:C:/Users/leonardo/Desktop/Code/Github/DawnBGC/Libraries/FWLIB/src\gd32f4xx_timer.c ****         TIMER_CHCTL2(timer_periph) |= (uint32_t)timer_expolarity;
 6019              		.loc 1 1752 36
 6020 00bc FB68     		ldr	r3, [r7, #12]
 6021 00be 2033     		adds	r3, r3, #32
 6022 00c0 1A68     		ldr	r2, [r3]
 6023              		.loc 1 1752 39
 6024 00c2 FB88     		ldrh	r3, [r7, #6]
 6025              		.loc 1 1752 36
 6026 00c4 F968     		ldr	r1, [r7, #12]
 6027 00c6 2031     		adds	r1, r1, #32
 6028 00c8 1343     		orrs	r3, r3, r2
 6029 00ca 0B60     		str	r3, [r1]
1753:C:/Users/leonardo/Desktop/Code/Github/DawnBGC/Libraries/FWLIB/src\gd32f4xx_timer.c ****         /* reset the CH0MS bit */
1754:C:/Users/leonardo/Desktop/Code/Github/DawnBGC/Libraries/FWLIB/src\gd32f4xx_timer.c ****         TIMER_CHCTL0(timer_periph) &= (~(uint32_t)TIMER_CHCTL0_CH0MS);
 6030              		.loc 1 1754 36
 6031 00cc FB68     		ldr	r3, [r7, #12]
 6032 00ce 1833     		adds	r3, r3, #24
 6033 00d0 1B68     		ldr	r3, [r3]
 6034 00d2 FA68     		ldr	r2, [r7, #12]
 6035 00d4 1832     		adds	r2, r2, #24
 6036 00d6 23F00303 		bic	r3, r3, #3
 6037 00da 1360     		str	r3, [r2]
1755:C:/Users/leonardo/Desktop/Code/Github/DawnBGC/Libraries/FWLIB/src\gd32f4xx_timer.c ****         /* set the CH0MS bit */
1756:C:/Users/leonardo/Desktop/Code/Github/DawnBGC/Libraries/FWLIB/src\gd32f4xx_timer.c ****         TIMER_CHCTL0(timer_periph) |= (uint32_t)TIMER_IC_SELECTION_DIRECTTI;
 6038              		.loc 1 1756 36
 6039 00dc FB68     		ldr	r3, [r7, #12]
 6040 00de 1833     		adds	r3, r3, #24
 6041 00e0 1B68     		ldr	r3, [r3]
 6042 00e2 FA68     		ldr	r2, [r7, #12]
 6043 00e4 1832     		adds	r2, r2, #24
 6044 00e6 43F00103 		orr	r3, r3, #1
 6045 00ea 1360     		str	r3, [r2]
1757:C:/Users/leonardo/Desktop/Code/Github/DawnBGC/Libraries/FWLIB/src\gd32f4xx_timer.c ****         /* reset the CH0CAPFLT bit */
1758:C:/Users/leonardo/Desktop/Code/Github/DawnBGC/Libraries/FWLIB/src\gd32f4xx_timer.c ****         TIMER_CHCTL0(timer_periph) &= (~(uint32_t)TIMER_CHCTL0_CH0CAPFLT);
 6046              		.loc 1 1758 36
 6047 00ec FB68     		ldr	r3, [r7, #12]
 6048 00ee 1833     		adds	r3, r3, #24
 6049 00f0 1B68     		ldr	r3, [r3]
 6050 00f2 FA68     		ldr	r2, [r7, #12]
 6051 00f4 1832     		adds	r2, r2, #24
 6052 00f6 23F0F003 		bic	r3, r3, #240
 6053 00fa 1360     		str	r3, [r2]
1759:C:/Users/leonardo/Desktop/Code/Github/DawnBGC/Libraries/FWLIB/src\gd32f4xx_timer.c ****         /* reset the CH0CAPFLT bit */
1760:C:/Users/leonardo/Desktop/Code/Github/DawnBGC/Libraries/FWLIB/src\gd32f4xx_timer.c ****         TIMER_CHCTL0(timer_periph) |= (uint32_t)timer_extfilter;
 6054              		.loc 1 1760 36
 6055 00fc FB68     		ldr	r3, [r7, #12]
 6056 00fe 1833     		adds	r3, r3, #24
 6057 0100 1A68     		ldr	r2, [r3]
 6058 0102 FB68     		ldr	r3, [r7, #12]
 6059 0104 1833     		adds	r3, r3, #24
 6060 0106 1946     		mov	r1, r3
 6061 0108 3B68     		ldr	r3, [r7]
 6062 010a 1343     		orrs	r3, r3, r2
 6063 010c 0B60     		str	r3, [r1]
1761:C:/Users/leonardo/Desktop/Code/Github/DawnBGC/Libraries/FWLIB/src\gd32f4xx_timer.c ****         /* set the CH0EN bit */
1762:C:/Users/leonardo/Desktop/Code/Github/DawnBGC/Libraries/FWLIB/src\gd32f4xx_timer.c ****         TIMER_CHCTL2(timer_periph) |= (uint32_t)TIMER_CHCTL2_CH0EN;
 6064              		.loc 1 1762 36
 6065 010e FB68     		ldr	r3, [r7, #12]
 6066 0110 2033     		adds	r3, r3, #32
 6067 0112 1B68     		ldr	r3, [r3]
 6068 0114 FA68     		ldr	r2, [r7, #12]
 6069 0116 2032     		adds	r2, r2, #32
 6070 0118 43F00103 		orr	r3, r3, #1
 6071 011c 1360     		str	r3, [r2]
 6072              	.L242:
1763:C:/Users/leonardo/Desktop/Code/Github/DawnBGC/Libraries/FWLIB/src\gd32f4xx_timer.c ****     }
1764:C:/Users/leonardo/Desktop/Code/Github/DawnBGC/Libraries/FWLIB/src\gd32f4xx_timer.c ****     /* select TIMER input trigger source */
1765:C:/Users/leonardo/Desktop/Code/Github/DawnBGC/Libraries/FWLIB/src\gd32f4xx_timer.c ****     timer_input_trigger_source_select(timer_periph,timer_extrigger);
 6073              		.loc 1 1765 5
 6074 011e B968     		ldr	r1, [r7, #8]
 6075 0120 F868     		ldr	r0, [r7, #12]
 6076 0122 FFF7FEFF 		bl	timer_input_trigger_source_select
1766:C:/Users/leonardo/Desktop/Code/Github/DawnBGC/Libraries/FWLIB/src\gd32f4xx_timer.c ****     /* reset the SMC bit */
1767:C:/Users/leonardo/Desktop/Code/Github/DawnBGC/Libraries/FWLIB/src\gd32f4xx_timer.c ****     TIMER_SMCFG(timer_periph) &= (~(uint32_t)TIMER_SMCFG_SMC);
 6077              		.loc 1 1767 31
 6078 0126 FB68     		ldr	r3, [r7, #12]
 6079 0128 0833     		adds	r3, r3, #8
 6080 012a 1B68     		ldr	r3, [r3]
 6081 012c FA68     		ldr	r2, [r7, #12]
 6082 012e 0832     		adds	r2, r2, #8
 6083 0130 23F00703 		bic	r3, r3, #7
 6084 0134 1360     		str	r3, [r2]
1768:C:/Users/leonardo/Desktop/Code/Github/DawnBGC/Libraries/FWLIB/src\gd32f4xx_timer.c ****     /* set the SMC bit */
1769:C:/Users/leonardo/Desktop/Code/Github/DawnBGC/Libraries/FWLIB/src\gd32f4xx_timer.c ****     TIMER_SMCFG(timer_periph) |= (uint32_t)TIMER_SLAVE_MODE_EXTERNAL0;
 6085              		.loc 1 1769 31
 6086 0136 FB68     		ldr	r3, [r7, #12]
 6087 0138 0833     		adds	r3, r3, #8
 6088 013a 1B68     		ldr	r3, [r3]
 6089 013c FA68     		ldr	r2, [r7, #12]
 6090 013e 0832     		adds	r2, r2, #8
 6091 0140 43F00703 		orr	r3, r3, #7
 6092 0144 1360     		str	r3, [r2]
1770:C:/Users/leonardo/Desktop/Code/Github/DawnBGC/Libraries/FWLIB/src\gd32f4xx_timer.c **** }
 6093              		.loc 1 1770 1
 6094 0146 00BF     		nop
 6095 0148 1037     		adds	r7, r7, #16
 6096              		.cfi_def_cfa_offset 8
 6097 014a BD46     		mov	sp, r7
 6098              		.cfi_def_cfa_register 13
 6099              		@ sp needed
 6100 014c 80BD     		pop	{r7, pc}
 6101              		.cfi_endproc
 6102              	.LFE184:
 6104              		.section	.text.timer_external_clock_mode0_config,"ax",%progbits
 6105              		.align	1
 6106              		.global	timer_external_clock_mode0_config
 6107              		.syntax unified
 6108              		.thumb
 6109              		.thumb_func
 6110              		.fpu softvfp
 6112              	timer_external_clock_mode0_config:
 6113              	.LFB185:
1771:C:/Users/leonardo/Desktop/Code/Github/DawnBGC/Libraries/FWLIB/src\gd32f4xx_timer.c **** 
1772:C:/Users/leonardo/Desktop/Code/Github/DawnBGC/Libraries/FWLIB/src\gd32f4xx_timer.c **** /*!
1773:C:/Users/leonardo/Desktop/Code/Github/DawnBGC/Libraries/FWLIB/src\gd32f4xx_timer.c ****     \brief      configure TIMER the external clock mode0
1774:C:/Users/leonardo/Desktop/Code/Github/DawnBGC/Libraries/FWLIB/src\gd32f4xx_timer.c ****     \param[in]  timer_periph: TIMERx(x=0..4,7,8,11)
1775:C:/Users/leonardo/Desktop/Code/Github/DawnBGC/Libraries/FWLIB/src\gd32f4xx_timer.c ****     \param[in]  timer_extprescaler: 
1776:C:/Users/leonardo/Desktop/Code/Github/DawnBGC/Libraries/FWLIB/src\gd32f4xx_timer.c ****       \arg        TIMER_EXT_TRI_PSC_OFF: no divided
1777:C:/Users/leonardo/Desktop/Code/Github/DawnBGC/Libraries/FWLIB/src\gd32f4xx_timer.c ****       \arg        TIMER_EXT_TRI_PSC_DIV2: divided by 2
1778:C:/Users/leonardo/Desktop/Code/Github/DawnBGC/Libraries/FWLIB/src\gd32f4xx_timer.c ****       \arg        TIMER_EXT_TRI_PSC_DIV4: divided by 4
1779:C:/Users/leonardo/Desktop/Code/Github/DawnBGC/Libraries/FWLIB/src\gd32f4xx_timer.c ****       \arg        TIMER_EXT_TRI_PSC_DIV8: divided by 8
1780:C:/Users/leonardo/Desktop/Code/Github/DawnBGC/Libraries/FWLIB/src\gd32f4xx_timer.c ****     \param[in]  timer_expolarity: 
1781:C:/Users/leonardo/Desktop/Code/Github/DawnBGC/Libraries/FWLIB/src\gd32f4xx_timer.c ****       \arg        TIMER_ETP_FALLING: active low or falling edge active
1782:C:/Users/leonardo/Desktop/Code/Github/DawnBGC/Libraries/FWLIB/src\gd32f4xx_timer.c ****       \arg        TIMER_ETP_RISING: active high or rising edge active
1783:C:/Users/leonardo/Desktop/Code/Github/DawnBGC/Libraries/FWLIB/src\gd32f4xx_timer.c ****     \param[in]  timer_extfilter: a value between 0 and 15
1784:C:/Users/leonardo/Desktop/Code/Github/DawnBGC/Libraries/FWLIB/src\gd32f4xx_timer.c ****     \param[out] none
1785:C:/Users/leonardo/Desktop/Code/Github/DawnBGC/Libraries/FWLIB/src\gd32f4xx_timer.c ****     \retval     none
1786:C:/Users/leonardo/Desktop/Code/Github/DawnBGC/Libraries/FWLIB/src\gd32f4xx_timer.c **** */
1787:C:/Users/leonardo/Desktop/Code/Github/DawnBGC/Libraries/FWLIB/src\gd32f4xx_timer.c **** void timer_external_clock_mode0_config(uint32_t timer_periph,uint32_t timer_extprescaler,
1788:C:/Users/leonardo/Desktop/Code/Github/DawnBGC/Libraries/FWLIB/src\gd32f4xx_timer.c ****                                        uint32_t timer_expolarity,uint32_t timer_extfilter)
1789:C:/Users/leonardo/Desktop/Code/Github/DawnBGC/Libraries/FWLIB/src\gd32f4xx_timer.c **** {
 6114              		.loc 1 1789 1
 6115              		.cfi_startproc
 6116              		@ args = 0, pretend = 0, frame = 16
 6117              		@ frame_needed = 1, uses_anonymous_args = 0
 6118 0000 80B5     		push	{r7, lr}
 6119              		.cfi_def_cfa_offset 8
 6120              		.cfi_offset 7, -8
 6121              		.cfi_offset 14, -4
 6122 0002 84B0     		sub	sp, sp, #16
 6123              		.cfi_def_cfa_offset 24
 6124 0004 00AF     		add	r7, sp, #0
 6125              		.cfi_def_cfa_register 7
 6126 0006 F860     		str	r0, [r7, #12]
 6127 0008 B960     		str	r1, [r7, #8]
 6128 000a 7A60     		str	r2, [r7, #4]
 6129 000c 3B60     		str	r3, [r7]
1790:C:/Users/leonardo/Desktop/Code/Github/DawnBGC/Libraries/FWLIB/src\gd32f4xx_timer.c ****     /* configure TIMER external trigger input */
1791:C:/Users/leonardo/Desktop/Code/Github/DawnBGC/Libraries/FWLIB/src\gd32f4xx_timer.c ****     timer_external_trigger_config(timer_periph,timer_extprescaler,timer_expolarity,timer_extfilter)
 6130              		.loc 1 1791 5
 6131 000e 3B68     		ldr	r3, [r7]
 6132 0010 7A68     		ldr	r2, [r7, #4]
 6133 0012 B968     		ldr	r1, [r7, #8]
 6134 0014 F868     		ldr	r0, [r7, #12]
 6135 0016 FFF7FEFF 		bl	timer_external_trigger_config
1792:C:/Users/leonardo/Desktop/Code/Github/DawnBGC/Libraries/FWLIB/src\gd32f4xx_timer.c **** 
1793:C:/Users/leonardo/Desktop/Code/Github/DawnBGC/Libraries/FWLIB/src\gd32f4xx_timer.c ****     /* reset the SMC bit,TRGS bit */
1794:C:/Users/leonardo/Desktop/Code/Github/DawnBGC/Libraries/FWLIB/src\gd32f4xx_timer.c ****     TIMER_SMCFG(timer_periph) &= (~(uint32_t)(TIMER_SMCFG_SMC | TIMER_SMCFG_TRGS));
 6136              		.loc 1 1794 31
 6137 001a FB68     		ldr	r3, [r7, #12]
 6138 001c 0833     		adds	r3, r3, #8
 6139 001e 1B68     		ldr	r3, [r3]
 6140 0020 FA68     		ldr	r2, [r7, #12]
 6141 0022 0832     		adds	r2, r2, #8
 6142 0024 23F07703 		bic	r3, r3, #119
 6143 0028 1360     		str	r3, [r2]
1795:C:/Users/leonardo/Desktop/Code/Github/DawnBGC/Libraries/FWLIB/src\gd32f4xx_timer.c ****     /* set the SMC bit,TRGS bit */
1796:C:/Users/leonardo/Desktop/Code/Github/DawnBGC/Libraries/FWLIB/src\gd32f4xx_timer.c ****     TIMER_SMCFG(timer_periph) |= (uint32_t)(TIMER_SLAVE_MODE_EXTERNAL0 | TIMER_SMCFG_TRGSEL_ETIFP);
 6144              		.loc 1 1796 31
 6145 002a FB68     		ldr	r3, [r7, #12]
 6146 002c 0833     		adds	r3, r3, #8
 6147 002e 1B68     		ldr	r3, [r3]
 6148 0030 FA68     		ldr	r2, [r7, #12]
 6149 0032 0832     		adds	r2, r2, #8
 6150 0034 43F07703 		orr	r3, r3, #119
 6151 0038 1360     		str	r3, [r2]
1797:C:/Users/leonardo/Desktop/Code/Github/DawnBGC/Libraries/FWLIB/src\gd32f4xx_timer.c **** }
 6152              		.loc 1 1797 1
 6153 003a 00BF     		nop
 6154 003c 1037     		adds	r7, r7, #16
 6155              		.cfi_def_cfa_offset 8
 6156 003e BD46     		mov	sp, r7
 6157              		.cfi_def_cfa_register 13
 6158              		@ sp needed
 6159 0040 80BD     		pop	{r7, pc}
 6160              		.cfi_endproc
 6161              	.LFE185:
 6163              		.section	.text.timer_external_clock_mode1_config,"ax",%progbits
 6164              		.align	1
 6165              		.global	timer_external_clock_mode1_config
 6166              		.syntax unified
 6167              		.thumb
 6168              		.thumb_func
 6169              		.fpu softvfp
 6171              	timer_external_clock_mode1_config:
 6172              	.LFB186:
1798:C:/Users/leonardo/Desktop/Code/Github/DawnBGC/Libraries/FWLIB/src\gd32f4xx_timer.c **** 
1799:C:/Users/leonardo/Desktop/Code/Github/DawnBGC/Libraries/FWLIB/src\gd32f4xx_timer.c **** /*!
1800:C:/Users/leonardo/Desktop/Code/Github/DawnBGC/Libraries/FWLIB/src\gd32f4xx_timer.c ****     \brief      configure TIMER the external clock mode1
1801:C:/Users/leonardo/Desktop/Code/Github/DawnBGC/Libraries/FWLIB/src\gd32f4xx_timer.c ****     \param[in]  timer_periph: TIMERx(x=0..4,7)
1802:C:/Users/leonardo/Desktop/Code/Github/DawnBGC/Libraries/FWLIB/src\gd32f4xx_timer.c ****     \param[in]  timer_extprescaler: 
1803:C:/Users/leonardo/Desktop/Code/Github/DawnBGC/Libraries/FWLIB/src\gd32f4xx_timer.c ****       \arg        TIMER_EXT_TRI_PSC_OFF: no divided
1804:C:/Users/leonardo/Desktop/Code/Github/DawnBGC/Libraries/FWLIB/src\gd32f4xx_timer.c ****       \arg        TIMER_EXT_TRI_PSC_DIV2: divided by 2
1805:C:/Users/leonardo/Desktop/Code/Github/DawnBGC/Libraries/FWLIB/src\gd32f4xx_timer.c ****       \arg        TIMER_EXT_TRI_PSC_DIV4: divided by 4
1806:C:/Users/leonardo/Desktop/Code/Github/DawnBGC/Libraries/FWLIB/src\gd32f4xx_timer.c ****       \arg        TIMER_EXT_TRI_PSC_DIV8: divided by 8
1807:C:/Users/leonardo/Desktop/Code/Github/DawnBGC/Libraries/FWLIB/src\gd32f4xx_timer.c ****     \param[in]  timer_expolarity: 
1808:C:/Users/leonardo/Desktop/Code/Github/DawnBGC/Libraries/FWLIB/src\gd32f4xx_timer.c ****       \arg        TIMER_ETP_FALLING: active low or falling edge active
1809:C:/Users/leonardo/Desktop/Code/Github/DawnBGC/Libraries/FWLIB/src\gd32f4xx_timer.c ****       \arg        TIMER_ETP_RISING: active high or rising edge active
1810:C:/Users/leonardo/Desktop/Code/Github/DawnBGC/Libraries/FWLIB/src\gd32f4xx_timer.c ****     \param[in]  timer_extfilter: a value between 0 and 15
1811:C:/Users/leonardo/Desktop/Code/Github/DawnBGC/Libraries/FWLIB/src\gd32f4xx_timer.c ****     \param[out] none
1812:C:/Users/leonardo/Desktop/Code/Github/DawnBGC/Libraries/FWLIB/src\gd32f4xx_timer.c ****     \retval     none
1813:C:/Users/leonardo/Desktop/Code/Github/DawnBGC/Libraries/FWLIB/src\gd32f4xx_timer.c **** */
1814:C:/Users/leonardo/Desktop/Code/Github/DawnBGC/Libraries/FWLIB/src\gd32f4xx_timer.c **** void timer_external_clock_mode1_config(uint32_t timer_periph,uint32_t timer_extprescaler,
1815:C:/Users/leonardo/Desktop/Code/Github/DawnBGC/Libraries/FWLIB/src\gd32f4xx_timer.c ****                                        uint32_t timer_expolarity,uint32_t timer_extfilter)
1816:C:/Users/leonardo/Desktop/Code/Github/DawnBGC/Libraries/FWLIB/src\gd32f4xx_timer.c **** {
 6173              		.loc 1 1816 1
 6174              		.cfi_startproc
 6175              		@ args = 0, pretend = 0, frame = 16
 6176              		@ frame_needed = 1, uses_anonymous_args = 0
 6177 0000 80B5     		push	{r7, lr}
 6178              		.cfi_def_cfa_offset 8
 6179              		.cfi_offset 7, -8
 6180              		.cfi_offset 14, -4
 6181 0002 84B0     		sub	sp, sp, #16
 6182              		.cfi_def_cfa_offset 24
 6183 0004 00AF     		add	r7, sp, #0
 6184              		.cfi_def_cfa_register 7
 6185 0006 F860     		str	r0, [r7, #12]
 6186 0008 B960     		str	r1, [r7, #8]
 6187 000a 7A60     		str	r2, [r7, #4]
 6188 000c 3B60     		str	r3, [r7]
1817:C:/Users/leonardo/Desktop/Code/Github/DawnBGC/Libraries/FWLIB/src\gd32f4xx_timer.c ****     /* configure TIMER external trigger input */
1818:C:/Users/leonardo/Desktop/Code/Github/DawnBGC/Libraries/FWLIB/src\gd32f4xx_timer.c ****     timer_external_trigger_config(timer_periph,timer_extprescaler,timer_expolarity,timer_extfilter)
 6189              		.loc 1 1818 5
 6190 000e 3B68     		ldr	r3, [r7]
 6191 0010 7A68     		ldr	r2, [r7, #4]
 6192 0012 B968     		ldr	r1, [r7, #8]
 6193 0014 F868     		ldr	r0, [r7, #12]
 6194 0016 FFF7FEFF 		bl	timer_external_trigger_config
1819:C:/Users/leonardo/Desktop/Code/Github/DawnBGC/Libraries/FWLIB/src\gd32f4xx_timer.c **** 
1820:C:/Users/leonardo/Desktop/Code/Github/DawnBGC/Libraries/FWLIB/src\gd32f4xx_timer.c ****     TIMER_SMCFG(timer_periph) |= (uint32_t)TIMER_SMCFG_SMC1;
 6195              		.loc 1 1820 31
 6196 001a FB68     		ldr	r3, [r7, #12]
 6197 001c 0833     		adds	r3, r3, #8
 6198 001e 1B68     		ldr	r3, [r3]
 6199 0020 FA68     		ldr	r2, [r7, #12]
 6200 0022 0832     		adds	r2, r2, #8
 6201 0024 43F48043 		orr	r3, r3, #16384
 6202 0028 1360     		str	r3, [r2]
1821:C:/Users/leonardo/Desktop/Code/Github/DawnBGC/Libraries/FWLIB/src\gd32f4xx_timer.c **** }
 6203              		.loc 1 1821 1
 6204 002a 00BF     		nop
 6205 002c 1037     		adds	r7, r7, #16
 6206              		.cfi_def_cfa_offset 8
 6207 002e BD46     		mov	sp, r7
 6208              		.cfi_def_cfa_register 13
 6209              		@ sp needed
 6210 0030 80BD     		pop	{r7, pc}
 6211              		.cfi_endproc
 6212              	.LFE186:
 6214              		.section	.text.timer_external_clock_mode1_disable,"ax",%progbits
 6215              		.align	1
 6216              		.global	timer_external_clock_mode1_disable
 6217              		.syntax unified
 6218              		.thumb
 6219              		.thumb_func
 6220              		.fpu softvfp
 6222              	timer_external_clock_mode1_disable:
 6223              	.LFB187:
1822:C:/Users/leonardo/Desktop/Code/Github/DawnBGC/Libraries/FWLIB/src\gd32f4xx_timer.c **** 
1823:C:/Users/leonardo/Desktop/Code/Github/DawnBGC/Libraries/FWLIB/src\gd32f4xx_timer.c **** /*!
1824:C:/Users/leonardo/Desktop/Code/Github/DawnBGC/Libraries/FWLIB/src\gd32f4xx_timer.c ****     \brief      disable TIMER the external clock mode1
1825:C:/Users/leonardo/Desktop/Code/Github/DawnBGC/Libraries/FWLIB/src\gd32f4xx_timer.c ****     \param[in]  timer_periph: TIMERx(x=0..4,7)
1826:C:/Users/leonardo/Desktop/Code/Github/DawnBGC/Libraries/FWLIB/src\gd32f4xx_timer.c ****     \param[out] none
1827:C:/Users/leonardo/Desktop/Code/Github/DawnBGC/Libraries/FWLIB/src\gd32f4xx_timer.c ****     \retval     none
1828:C:/Users/leonardo/Desktop/Code/Github/DawnBGC/Libraries/FWLIB/src\gd32f4xx_timer.c **** */
1829:C:/Users/leonardo/Desktop/Code/Github/DawnBGC/Libraries/FWLIB/src\gd32f4xx_timer.c **** void timer_external_clock_mode1_disable(uint32_t timer_periph)
1830:C:/Users/leonardo/Desktop/Code/Github/DawnBGC/Libraries/FWLIB/src\gd32f4xx_timer.c **** {
 6224              		.loc 1 1830 1
 6225              		.cfi_startproc
 6226              		@ args = 0, pretend = 0, frame = 8
 6227              		@ frame_needed = 1, uses_anonymous_args = 0
 6228              		@ link register save eliminated.
 6229 0000 80B4     		push	{r7}
 6230              		.cfi_def_cfa_offset 4
 6231              		.cfi_offset 7, -4
 6232 0002 83B0     		sub	sp, sp, #12
 6233              		.cfi_def_cfa_offset 16
 6234 0004 00AF     		add	r7, sp, #0
 6235              		.cfi_def_cfa_register 7
 6236 0006 7860     		str	r0, [r7, #4]
1831:C:/Users/leonardo/Desktop/Code/Github/DawnBGC/Libraries/FWLIB/src\gd32f4xx_timer.c ****     TIMER_SMCFG(timer_periph) &= ~(uint32_t)TIMER_SMCFG_SMC1;
 6237              		.loc 1 1831 31
 6238 0008 7B68     		ldr	r3, [r7, #4]
 6239 000a 0833     		adds	r3, r3, #8
 6240 000c 1B68     		ldr	r3, [r3]
 6241 000e 7A68     		ldr	r2, [r7, #4]
 6242 0010 0832     		adds	r2, r2, #8
 6243 0012 23F48043 		bic	r3, r3, #16384
 6244 0016 1360     		str	r3, [r2]
1832:C:/Users/leonardo/Desktop/Code/Github/DawnBGC/Libraries/FWLIB/src\gd32f4xx_timer.c **** }
 6245              		.loc 1 1832 1
 6246 0018 00BF     		nop
 6247 001a 0C37     		adds	r7, r7, #12
 6248              		.cfi_def_cfa_offset 4
 6249 001c BD46     		mov	sp, r7
 6250              		.cfi_def_cfa_register 13
 6251              		@ sp needed
 6252 001e 80BC     		pop	{r7}
 6253              		.cfi_restore 7
 6254              		.cfi_def_cfa_offset 0
 6255 0020 7047     		bx	lr
 6256              		.cfi_endproc
 6257              	.LFE187:
 6259              		.section	.text.timer_channel_remap_config,"ax",%progbits
 6260              		.align	1
 6261              		.global	timer_channel_remap_config
 6262              		.syntax unified
 6263              		.thumb
 6264              		.thumb_func
 6265              		.fpu softvfp
 6267              	timer_channel_remap_config:
 6268              	.LFB188:
1833:C:/Users/leonardo/Desktop/Code/Github/DawnBGC/Libraries/FWLIB/src\gd32f4xx_timer.c **** 
1834:C:/Users/leonardo/Desktop/Code/Github/DawnBGC/Libraries/FWLIB/src\gd32f4xx_timer.c **** /*!
1835:C:/Users/leonardo/Desktop/Code/Github/DawnBGC/Libraries/FWLIB/src\gd32f4xx_timer.c ****     \brief      configure TIMER channel remap function
1836:C:/Users/leonardo/Desktop/Code/Github/DawnBGC/Libraries/FWLIB/src\gd32f4xx_timer.c ****     \param[in]  timer_periph: TIMERx(x=1,4,10)
1837:C:/Users/leonardo/Desktop/Code/Github/DawnBGC/Libraries/FWLIB/src\gd32f4xx_timer.c ****     \param[in]  timer_remap: 
1838:C:/Users/leonardo/Desktop/Code/Github/DawnBGC/Libraries/FWLIB/src\gd32f4xx_timer.c ****       \arg        TIMER1_ITI1_RMP_TIMER7_TRGO: timer1 internal trigger input1 remap to TIMER7_TRGO
1839:C:/Users/leonardo/Desktop/Code/Github/DawnBGC/Libraries/FWLIB/src\gd32f4xx_timer.c ****       \arg        TIMER1_ITI1_RMP_ETHERNET_PTP: timer1 internal trigger input1 remap to ethernet PT
1840:C:/Users/leonardo/Desktop/Code/Github/DawnBGC/Libraries/FWLIB/src\gd32f4xx_timer.c ****       \arg        TIMER1_ITI1_RMP_USB_FS_SOF: timer1 internal trigger input1 remap to USB FS SOF
1841:C:/Users/leonardo/Desktop/Code/Github/DawnBGC/Libraries/FWLIB/src\gd32f4xx_timer.c ****       \arg        TIMER1_ITI1_RMP_USB_HS_SOF: timer1 internal trigger input1 remap to USB HS SOF
1842:C:/Users/leonardo/Desktop/Code/Github/DawnBGC/Libraries/FWLIB/src\gd32f4xx_timer.c ****       \arg        TIMER4_CI3_RMP_GPIO: timer4 channel 3 input remap to GPIO pin
1843:C:/Users/leonardo/Desktop/Code/Github/DawnBGC/Libraries/FWLIB/src\gd32f4xx_timer.c ****       \arg        TIMER4_CI3_RMP_IRC32K: timer4 channel 3 input remap to IRC32K
1844:C:/Users/leonardo/Desktop/Code/Github/DawnBGC/Libraries/FWLIB/src\gd32f4xx_timer.c ****       \arg        TIMER4_CI3_RMP_LXTAL: timer4 channel 3 input remap to  LXTAL
1845:C:/Users/leonardo/Desktop/Code/Github/DawnBGC/Libraries/FWLIB/src\gd32f4xx_timer.c ****       \arg        TIMER4_CI3_RMP_RTC_WAKEUP_INT: timer4 channel 3 input remap to RTC wakeup interru
1846:C:/Users/leonardo/Desktop/Code/Github/DawnBGC/Libraries/FWLIB/src\gd32f4xx_timer.c ****       \arg        TIMER10_ITI1_RMP_GPIO: timer10 internal trigger input1 remap based on GPIO settin
1847:C:/Users/leonardo/Desktop/Code/Github/DawnBGC/Libraries/FWLIB/src\gd32f4xx_timer.c ****       \arg        TIMER10_ITI1_RMP_RTC_HXTAL_DIV: timer10 internal trigger input1 remap  HXTAL _DIV
1848:C:/Users/leonardo/Desktop/Code/Github/DawnBGC/Libraries/FWLIB/src\gd32f4xx_timer.c ****     \param[out] none
1849:C:/Users/leonardo/Desktop/Code/Github/DawnBGC/Libraries/FWLIB/src\gd32f4xx_timer.c ****     \retval     none
1850:C:/Users/leonardo/Desktop/Code/Github/DawnBGC/Libraries/FWLIB/src\gd32f4xx_timer.c **** */
1851:C:/Users/leonardo/Desktop/Code/Github/DawnBGC/Libraries/FWLIB/src\gd32f4xx_timer.c **** void timer_channel_remap_config(uint32_t timer_periph,uint32_t timer_remap)
1852:C:/Users/leonardo/Desktop/Code/Github/DawnBGC/Libraries/FWLIB/src\gd32f4xx_timer.c **** {
 6269              		.loc 1 1852 1
 6270              		.cfi_startproc
 6271              		@ args = 0, pretend = 0, frame = 8
 6272              		@ frame_needed = 1, uses_anonymous_args = 0
 6273              		@ link register save eliminated.
 6274 0000 80B4     		push	{r7}
 6275              		.cfi_def_cfa_offset 4
 6276              		.cfi_offset 7, -4
 6277 0002 83B0     		sub	sp, sp, #12
 6278              		.cfi_def_cfa_offset 16
 6279 0004 00AF     		add	r7, sp, #0
 6280              		.cfi_def_cfa_register 7
 6281 0006 7860     		str	r0, [r7, #4]
 6282 0008 3960     		str	r1, [r7]
1853:C:/Users/leonardo/Desktop/Code/Github/DawnBGC/Libraries/FWLIB/src\gd32f4xx_timer.c ****     TIMER_IRMP(timer_periph) = (uint32_t)timer_remap;
 6283              		.loc 1 1853 5
 6284 000a 7B68     		ldr	r3, [r7, #4]
 6285 000c 5033     		adds	r3, r3, #80
 6286 000e 1A46     		mov	r2, r3
 6287              		.loc 1 1853 30
 6288 0010 3B68     		ldr	r3, [r7]
 6289 0012 1360     		str	r3, [r2]
1854:C:/Users/leonardo/Desktop/Code/Github/DawnBGC/Libraries/FWLIB/src\gd32f4xx_timer.c **** }
 6290              		.loc 1 1854 1
 6291 0014 00BF     		nop
 6292 0016 0C37     		adds	r7, r7, #12
 6293              		.cfi_def_cfa_offset 4
 6294 0018 BD46     		mov	sp, r7
 6295              		.cfi_def_cfa_register 13
 6296              		@ sp needed
 6297 001a 80BC     		pop	{r7}
 6298              		.cfi_restore 7
 6299              		.cfi_def_cfa_offset 0
 6300 001c 7047     		bx	lr
 6301              		.cfi_endproc
 6302              	.LFE188:
 6304              		.section	.text.timer_write_cc_register_config,"ax",%progbits
 6305              		.align	1
 6306              		.global	timer_write_cc_register_config
 6307              		.syntax unified
 6308              		.thumb
 6309              		.thumb_func
 6310              		.fpu softvfp
 6312              	timer_write_cc_register_config:
 6313              	.LFB189:
1855:C:/Users/leonardo/Desktop/Code/Github/DawnBGC/Libraries/FWLIB/src\gd32f4xx_timer.c **** 
1856:C:/Users/leonardo/Desktop/Code/Github/DawnBGC/Libraries/FWLIB/src\gd32f4xx_timer.c **** /*!
1857:C:/Users/leonardo/Desktop/Code/Github/DawnBGC/Libraries/FWLIB/src\gd32f4xx_timer.c ****     \brief      configure TIMER write CHxVAL register selection
1858:C:/Users/leonardo/Desktop/Code/Github/DawnBGC/Libraries/FWLIB/src\gd32f4xx_timer.c ****     \param[in]  timer_periph: TIMERx(x=0,1,2,13,14,15,16)
1859:C:/Users/leonardo/Desktop/Code/Github/DawnBGC/Libraries/FWLIB/src\gd32f4xx_timer.c ****     \param[in]  timer_ccsel: 
1860:C:/Users/leonardo/Desktop/Code/Github/DawnBGC/Libraries/FWLIB/src\gd32f4xx_timer.c ****       \arg        TIMER_CCSEL_DISABLE: no effect
1861:C:/Users/leonardo/Desktop/Code/Github/DawnBGC/Libraries/FWLIB/src\gd32f4xx_timer.c ****       \arg        TIMER_CCSEL_ENABLE:  when write the CHxVAL register, if the write value is same a
1862:C:/Users/leonardo/Desktop/Code/Github/DawnBGC/Libraries/FWLIB/src\gd32f4xx_timer.c ****     \param[out] none
1863:C:/Users/leonardo/Desktop/Code/Github/DawnBGC/Libraries/FWLIB/src\gd32f4xx_timer.c ****     \retval     none
1864:C:/Users/leonardo/Desktop/Code/Github/DawnBGC/Libraries/FWLIB/src\gd32f4xx_timer.c **** */
1865:C:/Users/leonardo/Desktop/Code/Github/DawnBGC/Libraries/FWLIB/src\gd32f4xx_timer.c **** void timer_write_cc_register_config(uint32_t timer_periph, uint16_t timer_ccsel)
1866:C:/Users/leonardo/Desktop/Code/Github/DawnBGC/Libraries/FWLIB/src\gd32f4xx_timer.c **** {
 6314              		.loc 1 1866 1
 6315              		.cfi_startproc
 6316              		@ args = 0, pretend = 0, frame = 8
 6317              		@ frame_needed = 1, uses_anonymous_args = 0
 6318              		@ link register save eliminated.
 6319 0000 80B4     		push	{r7}
 6320              		.cfi_def_cfa_offset 4
 6321              		.cfi_offset 7, -4
 6322 0002 83B0     		sub	sp, sp, #12
 6323              		.cfi_def_cfa_offset 16
 6324 0004 00AF     		add	r7, sp, #0
 6325              		.cfi_def_cfa_register 7
 6326 0006 7860     		str	r0, [r7, #4]
 6327 0008 0B46     		mov	r3, r1
 6328 000a 7B80     		strh	r3, [r7, #2]	@ movhi
1867:C:/Users/leonardo/Desktop/Code/Github/DawnBGC/Libraries/FWLIB/src\gd32f4xx_timer.c ****     if(TIMER_CCSEL_ENABLE == timer_ccsel){
 6329              		.loc 1 1867 7
 6330 000c 7B88     		ldrh	r3, [r7, #2]
 6331 000e 022B     		cmp	r3, #2
 6332 0010 08D1     		bne	.L248
1868:C:/Users/leonardo/Desktop/Code/Github/DawnBGC/Libraries/FWLIB/src\gd32f4xx_timer.c ****         TIMER_CFG(timer_periph) |= (uint32_t)TIMER_CFG_CHVSEL;
 6333              		.loc 1 1868 33
 6334 0012 7B68     		ldr	r3, [r7, #4]
 6335 0014 FC33     		adds	r3, r3, #252
 6336 0016 1B68     		ldr	r3, [r3]
 6337 0018 7A68     		ldr	r2, [r7, #4]
 6338 001a FC32     		adds	r2, r2, #252
 6339 001c 43F00203 		orr	r3, r3, #2
 6340 0020 1360     		str	r3, [r2]
1869:C:/Users/leonardo/Desktop/Code/Github/DawnBGC/Libraries/FWLIB/src\gd32f4xx_timer.c ****     }else if(TIMER_CCSEL_DISABLE == timer_ccsel){
1870:C:/Users/leonardo/Desktop/Code/Github/DawnBGC/Libraries/FWLIB/src\gd32f4xx_timer.c ****         TIMER_CFG(timer_periph) &= ~(uint32_t)TIMER_CFG_CHVSEL;
1871:C:/Users/leonardo/Desktop/Code/Github/DawnBGC/Libraries/FWLIB/src\gd32f4xx_timer.c ****     }else{
1872:C:/Users/leonardo/Desktop/Code/Github/DawnBGC/Libraries/FWLIB/src\gd32f4xx_timer.c ****     }
1873:C:/Users/leonardo/Desktop/Code/Github/DawnBGC/Libraries/FWLIB/src\gd32f4xx_timer.c **** }
 6341              		.loc 1 1873 1
 6342 0022 0AE0     		b	.L250
 6343              	.L248:
1869:C:/Users/leonardo/Desktop/Code/Github/DawnBGC/Libraries/FWLIB/src\gd32f4xx_timer.c ****     }else if(TIMER_CCSEL_DISABLE == timer_ccsel){
 6344              		.loc 1 1869 13
 6345 0024 7B88     		ldrh	r3, [r7, #2]
 6346 0026 002B     		cmp	r3, #0
 6347 0028 07D1     		bne	.L250
1870:C:/Users/leonardo/Desktop/Code/Github/DawnBGC/Libraries/FWLIB/src\gd32f4xx_timer.c ****     }else{
 6348              		.loc 1 1870 33
 6349 002a 7B68     		ldr	r3, [r7, #4]
 6350 002c FC33     		adds	r3, r3, #252
 6351 002e 1B68     		ldr	r3, [r3]
 6352 0030 7A68     		ldr	r2, [r7, #4]
 6353 0032 FC32     		adds	r2, r2, #252
 6354 0034 23F00203 		bic	r3, r3, #2
 6355 0038 1360     		str	r3, [r2]
 6356              	.L250:
 6357              		.loc 1 1873 1
 6358 003a 00BF     		nop
 6359 003c 0C37     		adds	r7, r7, #12
 6360              		.cfi_def_cfa_offset 4
 6361 003e BD46     		mov	sp, r7
 6362              		.cfi_def_cfa_register 13
 6363              		@ sp needed
 6364 0040 80BC     		pop	{r7}
 6365              		.cfi_restore 7
 6366              		.cfi_def_cfa_offset 0
 6367 0042 7047     		bx	lr
 6368              		.cfi_endproc
 6369              	.LFE189:
 6371              		.section	.text.timer_output_value_selection_config,"ax",%progbits
 6372              		.align	1
 6373              		.global	timer_output_value_selection_config
 6374              		.syntax unified
 6375              		.thumb
 6376              		.thumb_func
 6377              		.fpu softvfp
 6379              	timer_output_value_selection_config:
 6380              	.LFB190:
1874:C:/Users/leonardo/Desktop/Code/Github/DawnBGC/Libraries/FWLIB/src\gd32f4xx_timer.c **** 
1875:C:/Users/leonardo/Desktop/Code/Github/DawnBGC/Libraries/FWLIB/src\gd32f4xx_timer.c **** /*!
1876:C:/Users/leonardo/Desktop/Code/Github/DawnBGC/Libraries/FWLIB/src\gd32f4xx_timer.c ****     \brief      configure TIMER output value selection
1877:C:/Users/leonardo/Desktop/Code/Github/DawnBGC/Libraries/FWLIB/src\gd32f4xx_timer.c ****     \param[in]  timer_periph: TIMERx(x=0,7)
1878:C:/Users/leonardo/Desktop/Code/Github/DawnBGC/Libraries/FWLIB/src\gd32f4xx_timer.c ****     \param[in]  timer_outsel: 
1879:C:/Users/leonardo/Desktop/Code/Github/DawnBGC/Libraries/FWLIB/src\gd32f4xx_timer.c ****       \arg        TIMER_OUTSEL_DISABLE: no effect
1880:C:/Users/leonardo/Desktop/Code/Github/DawnBGC/Libraries/FWLIB/src\gd32f4xx_timer.c ****       \arg        TIMER_OUTSEL_ENABLE: if POEN and IOS is 0, the output disabled
1881:C:/Users/leonardo/Desktop/Code/Github/DawnBGC/Libraries/FWLIB/src\gd32f4xx_timer.c ****     \param[out] none
1882:C:/Users/leonardo/Desktop/Code/Github/DawnBGC/Libraries/FWLIB/src\gd32f4xx_timer.c ****     \retval     none
1883:C:/Users/leonardo/Desktop/Code/Github/DawnBGC/Libraries/FWLIB/src\gd32f4xx_timer.c **** */
1884:C:/Users/leonardo/Desktop/Code/Github/DawnBGC/Libraries/FWLIB/src\gd32f4xx_timer.c **** void timer_output_value_selection_config(uint32_t timer_periph, uint16_t timer_outsel)
1885:C:/Users/leonardo/Desktop/Code/Github/DawnBGC/Libraries/FWLIB/src\gd32f4xx_timer.c **** {
 6381              		.loc 1 1885 1
 6382              		.cfi_startproc
 6383              		@ args = 0, pretend = 0, frame = 8
 6384              		@ frame_needed = 1, uses_anonymous_args = 0
 6385              		@ link register save eliminated.
 6386 0000 80B4     		push	{r7}
 6387              		.cfi_def_cfa_offset 4
 6388              		.cfi_offset 7, -4
 6389 0002 83B0     		sub	sp, sp, #12
 6390              		.cfi_def_cfa_offset 16
 6391 0004 00AF     		add	r7, sp, #0
 6392              		.cfi_def_cfa_register 7
 6393 0006 7860     		str	r0, [r7, #4]
 6394 0008 0B46     		mov	r3, r1
 6395 000a 7B80     		strh	r3, [r7, #2]	@ movhi
1886:C:/Users/leonardo/Desktop/Code/Github/DawnBGC/Libraries/FWLIB/src\gd32f4xx_timer.c ****     if(TIMER_OUTSEL_ENABLE == timer_outsel){
 6396              		.loc 1 1886 7
 6397 000c 7B88     		ldrh	r3, [r7, #2]
 6398 000e 012B     		cmp	r3, #1
 6399 0010 08D1     		bne	.L252
1887:C:/Users/leonardo/Desktop/Code/Github/DawnBGC/Libraries/FWLIB/src\gd32f4xx_timer.c ****         TIMER_CFG(timer_periph) |= (uint32_t)TIMER_CFG_OUTSEL;
 6400              		.loc 1 1887 33
 6401 0012 7B68     		ldr	r3, [r7, #4]
 6402 0014 FC33     		adds	r3, r3, #252
 6403 0016 1B68     		ldr	r3, [r3]
 6404 0018 7A68     		ldr	r2, [r7, #4]
 6405 001a FC32     		adds	r2, r2, #252
 6406 001c 43F00103 		orr	r3, r3, #1
 6407 0020 1360     		str	r3, [r2]
1888:C:/Users/leonardo/Desktop/Code/Github/DawnBGC/Libraries/FWLIB/src\gd32f4xx_timer.c ****     }else if(TIMER_OUTSEL_DISABLE == timer_outsel){
1889:C:/Users/leonardo/Desktop/Code/Github/DawnBGC/Libraries/FWLIB/src\gd32f4xx_timer.c ****         TIMER_CFG(timer_periph) &= ~(uint32_t)TIMER_CFG_OUTSEL;
1890:C:/Users/leonardo/Desktop/Code/Github/DawnBGC/Libraries/FWLIB/src\gd32f4xx_timer.c ****     }else{
1891:C:/Users/leonardo/Desktop/Code/Github/DawnBGC/Libraries/FWLIB/src\gd32f4xx_timer.c ****     }
1892:C:/Users/leonardo/Desktop/Code/Github/DawnBGC/Libraries/FWLIB/src\gd32f4xx_timer.c **** }
 6408              		.loc 1 1892 1
 6409 0022 0AE0     		b	.L254
 6410              	.L252:
1888:C:/Users/leonardo/Desktop/Code/Github/DawnBGC/Libraries/FWLIB/src\gd32f4xx_timer.c ****     }else if(TIMER_OUTSEL_DISABLE == timer_outsel){
 6411              		.loc 1 1888 13
 6412 0024 7B88     		ldrh	r3, [r7, #2]
 6413 0026 002B     		cmp	r3, #0
 6414 0028 07D1     		bne	.L254
1889:C:/Users/leonardo/Desktop/Code/Github/DawnBGC/Libraries/FWLIB/src\gd32f4xx_timer.c ****     }else{
 6415              		.loc 1 1889 33
 6416 002a 7B68     		ldr	r3, [r7, #4]
 6417 002c FC33     		adds	r3, r3, #252
 6418 002e 1B68     		ldr	r3, [r3]
 6419 0030 7A68     		ldr	r2, [r7, #4]
 6420 0032 FC32     		adds	r2, r2, #252
 6421 0034 23F00103 		bic	r3, r3, #1
 6422 0038 1360     		str	r3, [r2]
 6423              	.L254:
 6424              		.loc 1 1892 1
 6425 003a 00BF     		nop
 6426 003c 0C37     		adds	r7, r7, #12
 6427              		.cfi_def_cfa_offset 4
 6428 003e BD46     		mov	sp, r7
 6429              		.cfi_def_cfa_register 13
 6430              		@ sp needed
 6431 0040 80BC     		pop	{r7}
 6432              		.cfi_restore 7
 6433              		.cfi_def_cfa_offset 0
 6434 0042 7047     		bx	lr
 6435              		.cfi_endproc
 6436              	.LFE190:
 6438              		.text
 6439              	.Letext0:
 6440              		.file 2 "c:\\users\\leonardo\\desktop\\gd32embeddedbuilder_v1.5.6_rel\\tools\\gnu tools arm embedd
 6441              		.file 3 "c:\\users\\leonardo\\desktop\\gd32embeddedbuilder_v1.5.6_rel\\tools\\gnu tools arm embedd
 6442              		.file 4 "../../CMSIS/DSP/Include/core_cm4.h"
 6443              		.file 5 "../../CMSIS/system_gd32f4xx.h"
 6444              		.file 6 "../../CMSIS/gd32f4xx.h"
 6445              		.file 7 "../../Libraries/FWLIB/inc/gd32f4xx_rcu.h"
 6446              		.file 8 "../../Libraries/FWLIB/inc/gd32f4xx_timer.h"
DEFINED SYMBOLS
                            *ABS*:00000000 gd32f4xx_timer.c
C:\Users\leonardo\AppData\Local\Temp\ccCSbt8H.s:16     .text.timer_deinit:00000000 $t
C:\Users\leonardo\AppData\Local\Temp\ccCSbt8H.s:24     .text.timer_deinit:00000000 timer_deinit
C:\Users\leonardo\AppData\Local\Temp\ccCSbt8H.s:287    .text.timer_deinit:00000208 $d
C:\Users\leonardo\AppData\Local\Temp\ccCSbt8H.s:304    .text.timer_init:00000000 $t
C:\Users\leonardo\AppData\Local\Temp\ccCSbt8H.s:311    .text.timer_init:00000000 timer_init
C:\Users\leonardo\AppData\Local\Temp\ccCSbt8H.s:476    .text.timer_init:000000dc $d
C:\Users\leonardo\AppData\Local\Temp\ccCSbt8H.s:487    .text.timer_enable:00000000 $t
C:\Users\leonardo\AppData\Local\Temp\ccCSbt8H.s:494    .text.timer_enable:00000000 timer_enable
C:\Users\leonardo\AppData\Local\Temp\ccCSbt8H.s:530    .text.timer_disable:00000000 $t
C:\Users\leonardo\AppData\Local\Temp\ccCSbt8H.s:537    .text.timer_disable:00000000 timer_disable
C:\Users\leonardo\AppData\Local\Temp\ccCSbt8H.s:573    .text.timer_auto_reload_shadow_enable:00000000 $t
C:\Users\leonardo\AppData\Local\Temp\ccCSbt8H.s:580    .text.timer_auto_reload_shadow_enable:00000000 timer_auto_reload_shadow_enable
C:\Users\leonardo\AppData\Local\Temp\ccCSbt8H.s:616    .text.timer_auto_reload_shadow_disable:00000000 $t
C:\Users\leonardo\AppData\Local\Temp\ccCSbt8H.s:623    .text.timer_auto_reload_shadow_disable:00000000 timer_auto_reload_shadow_disable
C:\Users\leonardo\AppData\Local\Temp\ccCSbt8H.s:659    .text.timer_update_event_enable:00000000 $t
C:\Users\leonardo\AppData\Local\Temp\ccCSbt8H.s:666    .text.timer_update_event_enable:00000000 timer_update_event_enable
C:\Users\leonardo\AppData\Local\Temp\ccCSbt8H.s:702    .text.timer_update_event_disable:00000000 $t
C:\Users\leonardo\AppData\Local\Temp\ccCSbt8H.s:709    .text.timer_update_event_disable:00000000 timer_update_event_disable
C:\Users\leonardo\AppData\Local\Temp\ccCSbt8H.s:745    .text.timer_counter_alignment:00000000 $t
C:\Users\leonardo\AppData\Local\Temp\ccCSbt8H.s:752    .text.timer_counter_alignment:00000000 timer_counter_alignment
C:\Users\leonardo\AppData\Local\Temp\ccCSbt8H.s:799    .text.timer_counter_up_direction:00000000 $t
C:\Users\leonardo\AppData\Local\Temp\ccCSbt8H.s:806    .text.timer_counter_up_direction:00000000 timer_counter_up_direction
C:\Users\leonardo\AppData\Local\Temp\ccCSbt8H.s:842    .text.timer_counter_down_direction:00000000 $t
C:\Users\leonardo\AppData\Local\Temp\ccCSbt8H.s:849    .text.timer_counter_down_direction:00000000 timer_counter_down_direction
C:\Users\leonardo\AppData\Local\Temp\ccCSbt8H.s:885    .text.timer_prescaler_config:00000000 $t
C:\Users\leonardo\AppData\Local\Temp\ccCSbt8H.s:892    .text.timer_prescaler_config:00000000 timer_prescaler_config
C:\Users\leonardo\AppData\Local\Temp\ccCSbt8H.s:947    .text.timer_repetition_value_config:00000000 $t
C:\Users\leonardo\AppData\Local\Temp\ccCSbt8H.s:954    .text.timer_repetition_value_config:00000000 timer_repetition_value_config
C:\Users\leonardo\AppData\Local\Temp\ccCSbt8H.s:994    .text.timer_autoreload_value_config:00000000 $t
C:\Users\leonardo\AppData\Local\Temp\ccCSbt8H.s:1001   .text.timer_autoreload_value_config:00000000 timer_autoreload_value_config
C:\Users\leonardo\AppData\Local\Temp\ccCSbt8H.s:1039   .text.timer_counter_value_config:00000000 $t
C:\Users\leonardo\AppData\Local\Temp\ccCSbt8H.s:1046   .text.timer_counter_value_config:00000000 timer_counter_value_config
C:\Users\leonardo\AppData\Local\Temp\ccCSbt8H.s:1084   .text.timer_counter_read:00000000 $t
C:\Users\leonardo\AppData\Local\Temp\ccCSbt8H.s:1091   .text.timer_counter_read:00000000 timer_counter_read
C:\Users\leonardo\AppData\Local\Temp\ccCSbt8H.s:1132   .text.timer_prescaler_read:00000000 $t
C:\Users\leonardo\AppData\Local\Temp\ccCSbt8H.s:1139   .text.timer_prescaler_read:00000000 timer_prescaler_read
C:\Users\leonardo\AppData\Local\Temp\ccCSbt8H.s:1180   .text.timer_single_pulse_mode_config:00000000 $t
C:\Users\leonardo\AppData\Local\Temp\ccCSbt8H.s:1187   .text.timer_single_pulse_mode_config:00000000 timer_single_pulse_mode_config
C:\Users\leonardo\AppData\Local\Temp\ccCSbt8H.s:1243   .text.timer_update_source_config:00000000 $t
C:\Users\leonardo\AppData\Local\Temp\ccCSbt8H.s:1250   .text.timer_update_source_config:00000000 timer_update_source_config
C:\Users\leonardo\AppData\Local\Temp\ccCSbt8H.s:1306   .text.timer_interrupt_enable:00000000 $t
C:\Users\leonardo\AppData\Local\Temp\ccCSbt8H.s:1313   .text.timer_interrupt_enable:00000000 timer_interrupt_enable
C:\Users\leonardo\AppData\Local\Temp\ccCSbt8H.s:1354   .text.timer_interrupt_disable:00000000 $t
C:\Users\leonardo\AppData\Local\Temp\ccCSbt8H.s:1361   .text.timer_interrupt_disable:00000000 timer_interrupt_disable
C:\Users\leonardo\AppData\Local\Temp\ccCSbt8H.s:1404   .text.timer_interrupt_flag_get:00000000 $t
C:\Users\leonardo\AppData\Local\Temp\ccCSbt8H.s:1411   .text.timer_interrupt_flag_get:00000000 timer_interrupt_flag_get
C:\Users\leonardo\AppData\Local\Temp\ccCSbt8H.s:1471   .text.timer_interrupt_flag_clear:00000000 $t
C:\Users\leonardo\AppData\Local\Temp\ccCSbt8H.s:1478   .text.timer_interrupt_flag_clear:00000000 timer_interrupt_flag_clear
C:\Users\leonardo\AppData\Local\Temp\ccCSbt8H.s:1521   .text.timer_flag_get:00000000 $t
C:\Users\leonardo\AppData\Local\Temp\ccCSbt8H.s:1528   .text.timer_flag_get:00000000 timer_flag_get
C:\Users\leonardo\AppData\Local\Temp\ccCSbt8H.s:1576   .text.timer_flag_clear:00000000 $t
C:\Users\leonardo\AppData\Local\Temp\ccCSbt8H.s:1583   .text.timer_flag_clear:00000000 timer_flag_clear
C:\Users\leonardo\AppData\Local\Temp\ccCSbt8H.s:1626   .text.timer_dma_enable:00000000 $t
C:\Users\leonardo\AppData\Local\Temp\ccCSbt8H.s:1633   .text.timer_dma_enable:00000000 timer_dma_enable
C:\Users\leonardo\AppData\Local\Temp\ccCSbt8H.s:1676   .text.timer_dma_disable:00000000 $t
C:\Users\leonardo\AppData\Local\Temp\ccCSbt8H.s:1683   .text.timer_dma_disable:00000000 timer_dma_disable
C:\Users\leonardo\AppData\Local\Temp\ccCSbt8H.s:1728   .text.timer_channel_dma_request_source_select:00000000 $t
C:\Users\leonardo\AppData\Local\Temp\ccCSbt8H.s:1735   .text.timer_channel_dma_request_source_select:00000000 timer_channel_dma_request_source_select
C:\Users\leonardo\AppData\Local\Temp\ccCSbt8H.s:1795   .text.timer_dma_transfer_config:00000000 $t
C:\Users\leonardo\AppData\Local\Temp\ccCSbt8H.s:1802   .text.timer_dma_transfer_config:00000000 timer_dma_transfer_config
C:\Users\leonardo\AppData\Local\Temp\ccCSbt8H.s:1856   .text.timer_event_software_generate:00000000 $t
C:\Users\leonardo\AppData\Local\Temp\ccCSbt8H.s:1863   .text.timer_event_software_generate:00000000 timer_event_software_generate
C:\Users\leonardo\AppData\Local\Temp\ccCSbt8H.s:1906   .text.timer_break_config:00000000 $t
C:\Users\leonardo\AppData\Local\Temp\ccCSbt8H.s:1913   .text.timer_break_config:00000000 timer_break_config
C:\Users\leonardo\AppData\Local\Temp\ccCSbt8H.s:1986   .text.timer_break_enable:00000000 $t
C:\Users\leonardo\AppData\Local\Temp\ccCSbt8H.s:1993   .text.timer_break_enable:00000000 timer_break_enable
C:\Users\leonardo\AppData\Local\Temp\ccCSbt8H.s:2031   .text.timer_break_disable:00000000 $t
C:\Users\leonardo\AppData\Local\Temp\ccCSbt8H.s:2038   .text.timer_break_disable:00000000 timer_break_disable
C:\Users\leonardo\AppData\Local\Temp\ccCSbt8H.s:2076   .text.timer_automatic_output_enable:00000000 $t
C:\Users\leonardo\AppData\Local\Temp\ccCSbt8H.s:2083   .text.timer_automatic_output_enable:00000000 timer_automatic_output_enable
C:\Users\leonardo\AppData\Local\Temp\ccCSbt8H.s:2121   .text.timer_automatic_output_disable:00000000 $t
C:\Users\leonardo\AppData\Local\Temp\ccCSbt8H.s:2128   .text.timer_automatic_output_disable:00000000 timer_automatic_output_disable
C:\Users\leonardo\AppData\Local\Temp\ccCSbt8H.s:2166   .text.timer_primary_output_config:00000000 $t
C:\Users\leonardo\AppData\Local\Temp\ccCSbt8H.s:2173   .text.timer_primary_output_config:00000000 timer_primary_output_config
C:\Users\leonardo\AppData\Local\Temp\ccCSbt8H.s:2229   .text.timer_channel_control_shadow_config:00000000 $t
C:\Users\leonardo\AppData\Local\Temp\ccCSbt8H.s:2236   .text.timer_channel_control_shadow_config:00000000 timer_channel_control_shadow_config
C:\Users\leonardo\AppData\Local\Temp\ccCSbt8H.s:2292   .text.timer_channel_control_shadow_update_config:00000000 $t
C:\Users\leonardo\AppData\Local\Temp\ccCSbt8H.s:2299   .text.timer_channel_control_shadow_update_config:00000000 timer_channel_control_shadow_update_config
C:\Users\leonardo\AppData\Local\Temp\ccCSbt8H.s:2359   .text.timer_channel_output_config:00000000 $t
C:\Users\leonardo\AppData\Local\Temp\ccCSbt8H.s:2366   .text.timer_channel_output_config:00000000 timer_channel_output_config
C:\Users\leonardo\AppData\Local\Temp\ccCSbt8H.s:2392   .text.timer_channel_output_config:0000001c $d
C:\Users\leonardo\AppData\Local\Temp\ccCSbt8H.s:2396   .text.timer_channel_output_config:0000002c $t
C:\Users\leonardo\AppData\Local\Temp\ccCSbt8H.s:2708   .text.timer_channel_output_config:00000220 $d
C:\Users\leonardo\AppData\Local\Temp\ccCSbt8H.s:2712   .text.timer_channel_output_config:00000228 $t
C:\Users\leonardo\AppData\Local\Temp\ccCSbt8H.s:2972   .text.timer_channel_output_config:000003bc $d
C:\Users\leonardo\AppData\Local\Temp\ccCSbt8H.s:2978   .text.timer_channel_output_mode_config:00000000 $t
C:\Users\leonardo\AppData\Local\Temp\ccCSbt8H.s:2985   .text.timer_channel_output_mode_config:00000000 timer_channel_output_mode_config
C:\Users\leonardo\AppData\Local\Temp\ccCSbt8H.s:3012   .text.timer_channel_output_mode_config:0000001c $d
C:\Users\leonardo\AppData\Local\Temp\ccCSbt8H.s:3016   .text.timer_channel_output_mode_config:0000002c $t
C:\Users\leonardo\AppData\Local\Temp\ccCSbt8H.s:3128   .text.timer_channel_output_pulse_value_config:00000000 $t
C:\Users\leonardo\AppData\Local\Temp\ccCSbt8H.s:3135   .text.timer_channel_output_pulse_value_config:00000000 timer_channel_output_pulse_value_config
C:\Users\leonardo\AppData\Local\Temp\ccCSbt8H.s:3161   .text.timer_channel_output_pulse_value_config:0000001c $d
C:\Users\leonardo\AppData\Local\Temp\ccCSbt8H.s:3165   .text.timer_channel_output_pulse_value_config:0000002c $t
C:\Users\leonardo\AppData\Local\Temp\ccCSbt8H.s:3225   .text.timer_channel_output_shadow_config:00000000 $t
C:\Users\leonardo\AppData\Local\Temp\ccCSbt8H.s:3232   .text.timer_channel_output_shadow_config:00000000 timer_channel_output_shadow_config
C:\Users\leonardo\AppData\Local\Temp\ccCSbt8H.s:3259   .text.timer_channel_output_shadow_config:0000001c $d
C:\Users\leonardo\AppData\Local\Temp\ccCSbt8H.s:3263   .text.timer_channel_output_shadow_config:0000002c $t
C:\Users\leonardo\AppData\Local\Temp\ccCSbt8H.s:3375   .text.timer_channel_output_fast_config:00000000 $t
C:\Users\leonardo\AppData\Local\Temp\ccCSbt8H.s:3382   .text.timer_channel_output_fast_config:00000000 timer_channel_output_fast_config
C:\Users\leonardo\AppData\Local\Temp\ccCSbt8H.s:3409   .text.timer_channel_output_fast_config:0000001c $d
C:\Users\leonardo\AppData\Local\Temp\ccCSbt8H.s:3413   .text.timer_channel_output_fast_config:0000002c $t
C:\Users\leonardo\AppData\Local\Temp\ccCSbt8H.s:3525   .text.timer_channel_output_clear_config:00000000 $t
C:\Users\leonardo\AppData\Local\Temp\ccCSbt8H.s:3532   .text.timer_channel_output_clear_config:00000000 timer_channel_output_clear_config
C:\Users\leonardo\AppData\Local\Temp\ccCSbt8H.s:3559   .text.timer_channel_output_clear_config:0000001c $d
C:\Users\leonardo\AppData\Local\Temp\ccCSbt8H.s:3563   .text.timer_channel_output_clear_config:0000002c $t
C:\Users\leonardo\AppData\Local\Temp\ccCSbt8H.s:3675   .text.timer_channel_output_polarity_config:00000000 $t
C:\Users\leonardo\AppData\Local\Temp\ccCSbt8H.s:3682   .text.timer_channel_output_polarity_config:00000000 timer_channel_output_polarity_config
C:\Users\leonardo\AppData\Local\Temp\ccCSbt8H.s:3709   .text.timer_channel_output_polarity_config:0000001c $d
C:\Users\leonardo\AppData\Local\Temp\ccCSbt8H.s:3713   .text.timer_channel_output_polarity_config:0000002c $t
C:\Users\leonardo\AppData\Local\Temp\ccCSbt8H.s:3827   .text.timer_channel_complementary_output_polarity_config:00000000 $t
C:\Users\leonardo\AppData\Local\Temp\ccCSbt8H.s:3834   .text.timer_channel_complementary_output_polarity_config:00000000 timer_channel_complementary_output_polarity_config
C:\Users\leonardo\AppData\Local\Temp\ccCSbt8H.s:3954   .text.timer_channel_output_state_config:00000000 $t
C:\Users\leonardo\AppData\Local\Temp\ccCSbt8H.s:3961   .text.timer_channel_output_state_config:00000000 timer_channel_output_state_config
C:\Users\leonardo\AppData\Local\Temp\ccCSbt8H.s:3987   .text.timer_channel_output_state_config:0000001c $d
C:\Users\leonardo\AppData\Local\Temp\ccCSbt8H.s:3991   .text.timer_channel_output_state_config:0000002c $t
C:\Users\leonardo\AppData\Local\Temp\ccCSbt8H.s:4101   .text.timer_channel_complementary_output_state_config:00000000 $t
C:\Users\leonardo\AppData\Local\Temp\ccCSbt8H.s:4108   .text.timer_channel_complementary_output_state_config:00000000 timer_channel_complementary_output_state_config
C:\Users\leonardo\AppData\Local\Temp\ccCSbt8H.s:4228   .text.timer_input_capture_config:00000000 $t
C:\Users\leonardo\AppData\Local\Temp\ccCSbt8H.s:4235   .text.timer_input_capture_config:00000000 timer_input_capture_config
C:\Users\leonardo\AppData\Local\Temp\ccCSbt8H.s:4261   .text.timer_input_capture_config:0000001c $d
C:\Users\leonardo\AppData\Local\Temp\ccCSbt8H.s:4265   .text.timer_input_capture_config:0000002c $t
C:\Users\leonardo\AppData\Local\Temp\ccCSbt8H.s:4637   .text.timer_channel_input_capture_prescaler_config:00000000 timer_channel_input_capture_prescaler_config
C:\Users\leonardo\AppData\Local\Temp\ccCSbt8H.s:4630   .text.timer_channel_input_capture_prescaler_config:00000000 $t
C:\Users\leonardo\AppData\Local\Temp\ccCSbt8H.s:4664   .text.timer_channel_input_capture_prescaler_config:0000001c $d
C:\Users\leonardo\AppData\Local\Temp\ccCSbt8H.s:4668   .text.timer_channel_input_capture_prescaler_config:0000002c $t
C:\Users\leonardo\AppData\Local\Temp\ccCSbt8H.s:4780   .text.timer_channel_capture_value_register_read:00000000 $t
C:\Users\leonardo\AppData\Local\Temp\ccCSbt8H.s:4787   .text.timer_channel_capture_value_register_read:00000000 timer_channel_capture_value_register_read
C:\Users\leonardo\AppData\Local\Temp\ccCSbt8H.s:4815   .text.timer_channel_capture_value_register_read:0000001c $d
C:\Users\leonardo\AppData\Local\Temp\ccCSbt8H.s:4819   .text.timer_channel_capture_value_register_read:0000002c $t
C:\Users\leonardo\AppData\Local\Temp\ccCSbt8H.s:4877   .text.timer_input_pwm_capture_config:00000000 $t
C:\Users\leonardo\AppData\Local\Temp\ccCSbt8H.s:4884   .text.timer_input_pwm_capture_config:00000000 timer_input_pwm_capture_config
C:\Users\leonardo\AppData\Local\Temp\ccCSbt8H.s:5310   .text.timer_hall_mode_config:00000000 $t
C:\Users\leonardo\AppData\Local\Temp\ccCSbt8H.s:5317   .text.timer_hall_mode_config:00000000 timer_hall_mode_config
C:\Users\leonardo\AppData\Local\Temp\ccCSbt8H.s:5377   .text.timer_input_trigger_source_select:00000000 $t
C:\Users\leonardo\AppData\Local\Temp\ccCSbt8H.s:5384   .text.timer_input_trigger_source_select:00000000 timer_input_trigger_source_select
C:\Users\leonardo\AppData\Local\Temp\ccCSbt8H.s:5433   .text.timer_master_output_trigger_source_select:00000000 $t
C:\Users\leonardo\AppData\Local\Temp\ccCSbt8H.s:5440   .text.timer_master_output_trigger_source_select:00000000 timer_master_output_trigger_source_select
C:\Users\leonardo\AppData\Local\Temp\ccCSbt8H.s:5489   .text.timer_slave_mode_select:00000000 $t
C:\Users\leonardo\AppData\Local\Temp\ccCSbt8H.s:5496   .text.timer_slave_mode_select:00000000 timer_slave_mode_select
C:\Users\leonardo\AppData\Local\Temp\ccCSbt8H.s:5545   .text.timer_master_slave_mode_config:00000000 $t
C:\Users\leonardo\AppData\Local\Temp\ccCSbt8H.s:5552   .text.timer_master_slave_mode_config:00000000 timer_master_slave_mode_config
C:\Users\leonardo\AppData\Local\Temp\ccCSbt8H.s:5612   .text.timer_external_trigger_config:00000000 $t
C:\Users\leonardo\AppData\Local\Temp\ccCSbt8H.s:5619   .text.timer_external_trigger_config:00000000 timer_external_trigger_config
C:\Users\leonardo\AppData\Local\Temp\ccCSbt8H.s:5685   .text.timer_quadrature_decoder_mode_config:00000000 $t
C:\Users\leonardo\AppData\Local\Temp\ccCSbt8H.s:5692   .text.timer_quadrature_decoder_mode_config:00000000 timer_quadrature_decoder_mode_config
C:\Users\leonardo\AppData\Local\Temp\ccCSbt8H.s:5798   .text.timer_internal_clock_config:00000000 $t
C:\Users\leonardo\AppData\Local\Temp\ccCSbt8H.s:5805   .text.timer_internal_clock_config:00000000 timer_internal_clock_config
C:\Users\leonardo\AppData\Local\Temp\ccCSbt8H.s:5843   .text.timer_internal_trigger_as_external_clock_config:00000000 $t
C:\Users\leonardo\AppData\Local\Temp\ccCSbt8H.s:5850   .text.timer_internal_trigger_as_external_clock_config:00000000 timer_internal_trigger_as_external_clock_config
C:\Users\leonardo\AppData\Local\Temp\ccCSbt8H.s:5898   .text.timer_external_trigger_as_external_clock_config:00000000 $t
C:\Users\leonardo\AppData\Local\Temp\ccCSbt8H.s:5905   .text.timer_external_trigger_as_external_clock_config:00000000 timer_external_trigger_as_external_clock_config
C:\Users\leonardo\AppData\Local\Temp\ccCSbt8H.s:6105   .text.timer_external_clock_mode0_config:00000000 $t
C:\Users\leonardo\AppData\Local\Temp\ccCSbt8H.s:6112   .text.timer_external_clock_mode0_config:00000000 timer_external_clock_mode0_config
C:\Users\leonardo\AppData\Local\Temp\ccCSbt8H.s:6164   .text.timer_external_clock_mode1_config:00000000 $t
C:\Users\leonardo\AppData\Local\Temp\ccCSbt8H.s:6171   .text.timer_external_clock_mode1_config:00000000 timer_external_clock_mode1_config
C:\Users\leonardo\AppData\Local\Temp\ccCSbt8H.s:6215   .text.timer_external_clock_mode1_disable:00000000 $t
C:\Users\leonardo\AppData\Local\Temp\ccCSbt8H.s:6222   .text.timer_external_clock_mode1_disable:00000000 timer_external_clock_mode1_disable
C:\Users\leonardo\AppData\Local\Temp\ccCSbt8H.s:6260   .text.timer_channel_remap_config:00000000 $t
C:\Users\leonardo\AppData\Local\Temp\ccCSbt8H.s:6267   .text.timer_channel_remap_config:00000000 timer_channel_remap_config
C:\Users\leonardo\AppData\Local\Temp\ccCSbt8H.s:6305   .text.timer_write_cc_register_config:00000000 $t
C:\Users\leonardo\AppData\Local\Temp\ccCSbt8H.s:6312   .text.timer_write_cc_register_config:00000000 timer_write_cc_register_config
C:\Users\leonardo\AppData\Local\Temp\ccCSbt8H.s:6372   .text.timer_output_value_selection_config:00000000 $t
C:\Users\leonardo\AppData\Local\Temp\ccCSbt8H.s:6379   .text.timer_output_value_selection_config:00000000 timer_output_value_selection_config
                           .group:00000000 wm4.0.a684136774235169b6efdc382df56ab0
                           .group:00000000 wm4.gd32f4xx.h.13.7e2e481b0ab689b59679fcf9de8ad53f
                           .group:00000000 wm4.core_cm4.h.43.9593ac0dcec24a3a6f1d638d754e90b2
                           .group:00000000 wm4._newlib_version.h.4.9ba035841e762c3308916a0ce96032e7
                           .group:00000000 wm4.features.h.33.5bd1eea2d80518b50f7af0b5ce6750e0
                           .group:00000000 wm4._default_types.h.15.247e5cd201eca3442cbf5404108c4935
                           .group:00000000 wm4._intsup.h.10.cce27fed8484c08a33f522034c30d2b5
                           .group:00000000 wm4._stdint.h.10.c24fa3af3bc1706662bb5593a907e841
                           .group:00000000 wm4.stdint.h.23.d53047a68f4a85177f80b422d52785ed
                           .group:00000000 wm4.core_cmInstr.h.39.addda81f1f3453ba31dd54fc5b6fcee8
                           .group:00000000 wm4.core_cmSimd.h.43.c355993beb49ccd10586af5b1cfe5aee
                           .group:00000000 wm4.core_cm4.h.201.38b66ea2c12d55e26a2374d5521b1bde
                           .group:00000000 wm4.gd32f4xx.h.268.6244d4312c046a64f69632f7ef07b287
                           .group:00000000 wm4.gd32f4xx_rcu.h.18.5c1e5e7e0de404504004d8bb7db8129d
                           .group:00000000 wm4.gd32f4xx_adc.h.13.555e7341a9ddcdbc980571a940325972
                           .group:00000000 wm4.gd32f4xx_can.h.13.2811f1e7e0dd1a163a8850b48ae09a18
                           .group:00000000 wm4.gd32f4xx_crc.h.13.e3fa8cb47f74e88ac6e7a18c10f0cae7
                           .group:00000000 wm4.gd32f4xx_ctc.h.13.979d5c7db9c07247dafcdc888120aeeb
                           .group:00000000 wm4.gd32f4xx_dac.h.13.6aae99156ce94e45e273c87252f3e1b5
                           .group:00000000 wm4.gd32f4xx_dbg.h.13.c5f36ebf9ff6bf00cb705dace0230749
                           .group:00000000 wm4.gd32f4xx_dci.h.13.43c4239de7bb8115ecac688727adc34d
                           .group:00000000 wm4.gd32f4xx_dma.h.13.dd34986dcd88f37eef0ac885fade6a96
                           .group:00000000 wm4.gd32f4xx_exti.h.13.f61fefc984e3d5d6bfd619e837d781f0
                           .group:00000000 wm4.gd32f4xx_fmc.h.12.6ad1d5b3792ad9539d3cdeacd021dc9f
                           .group:00000000 wm4.gd32f4xx_fwdgt.h.13.cc9a34a06b043d4b817ab3d1a6056177
                           .group:00000000 wm4.gd32f4xx_gpio.h.13.ac5c85bea0e960885418a329bb1f1322
                           .group:00000000 wm4.gd32f4xx_syscfg.h.13.b2bd3727e52dfdd22af4632a1311bbb7
                           .group:00000000 wm4.gd32f4xx_i2c.h.13.eb0f8b31bd16ee5fe82cc39a9dd42f2d
                           .group:00000000 wm4.gd32f4xx_iref.h.13.7fc1143691d228493f7100d3cc247638
                           .group:00000000 wm4.gd32f4xx_pmu.h.13.724bacbcb5c124f50a6b00f61a9eb756
                           .group:00000000 wm4.gd32f4xx_rtc.h.13.fc493d83f9d78f0b7c4919b6d2f31956
                           .group:00000000 wm4.gd32f4xx_sdio.h.13.81c3455a223eea59b64370eea49a57de
                           .group:00000000 wm4.gd32f4xx_spi.h.13.03d2444bcb21a0c2481c42cb6d9fce79
                           .group:00000000 wm4.gd32f4xx_trng.h.13.8e3605226dc73eb8a884d03608e7b6df
                           .group:00000000 wm4.gd32f4xx_usart.h.13.2986dbbf12f17711a1874d27609e0b55
                           .group:00000000 wm4.gd32f4xx_wwdgt.h.13.1abc40e3831eb7a2ed947144f7cb9188
                           .group:00000000 wm4.gd32f4xx_misc.h.13.b10945aa7ed210c08c1585a4b5874d8c
                           .group:00000000 wm4.gd32f4xx_timer.h.18.43156390f667e6b68933203f96405cff

UNDEFINED SYMBOLS
rcu_periph_reset_enable
rcu_periph_reset_disable
