   1              		.cpu cortex-m4
   2              		.eabi_attribute 20, 1
   3              		.eabi_attribute 21, 1
   4              		.eabi_attribute 23, 3
   5              		.eabi_attribute 24, 1
   6              		.eabi_attribute 25, 1
   7              		.eabi_attribute 26, 1
   8              		.eabi_attribute 30, 6
   9              		.eabi_attribute 34, 1
  10              		.eabi_attribute 18, 4
  11              		.file	"gd32f4xx_timer.c"
  12              		.text
  13              	.Ltext0:
  14              		.cfi_sections	.debug_frame
  15              		.section	.text.timer_deinit,"ax",%progbits
  16              		.align	1
  17              		.global	timer_deinit
  18              		.arch armv7e-m
  19              		.syntax unified
  20              		.thumb
  21              		.thumb_func
  22              		.fpu softvfp
  24              	timer_deinit:
  25              	.LFB123:
  26              		.file 1 "C:/Users/leonardo/Desktop/Code/Github/DawnBGC/Libraries/FWLIB/src/gd32f4xx_timer.c"
   1:C:/Users/leonardo/Desktop/Code/Github/DawnBGC/Libraries/FWLIB/src\gd32f4xx_timer.c **** /*!
   2:C:/Users/leonardo/Desktop/Code/Github/DawnBGC/Libraries/FWLIB/src\gd32f4xx_timer.c ****     \file  gd32f4xx_timer.c
   3:C:/Users/leonardo/Desktop/Code/Github/DawnBGC/Libraries/FWLIB/src\gd32f4xx_timer.c ****     \brief TIMER driver
   4:C:/Users/leonardo/Desktop/Code/Github/DawnBGC/Libraries/FWLIB/src\gd32f4xx_timer.c **** */
   5:C:/Users/leonardo/Desktop/Code/Github/DawnBGC/Libraries/FWLIB/src\gd32f4xx_timer.c **** 
   6:C:/Users/leonardo/Desktop/Code/Github/DawnBGC/Libraries/FWLIB/src\gd32f4xx_timer.c **** /*
   7:C:/Users/leonardo/Desktop/Code/Github/DawnBGC/Libraries/FWLIB/src\gd32f4xx_timer.c ****     Copyright (C) 2016 GigaDevice
   8:C:/Users/leonardo/Desktop/Code/Github/DawnBGC/Libraries/FWLIB/src\gd32f4xx_timer.c **** 
   9:C:/Users/leonardo/Desktop/Code/Github/DawnBGC/Libraries/FWLIB/src\gd32f4xx_timer.c ****     2016-08-15, V1.0.1, firmware for GD32F4xx
  10:C:/Users/leonardo/Desktop/Code/Github/DawnBGC/Libraries/FWLIB/src\gd32f4xx_timer.c **** */
  11:C:/Users/leonardo/Desktop/Code/Github/DawnBGC/Libraries/FWLIB/src\gd32f4xx_timer.c **** 
  12:C:/Users/leonardo/Desktop/Code/Github/DawnBGC/Libraries/FWLIB/src\gd32f4xx_timer.c **** #include "gd32f4xx_timer.h"
  13:C:/Users/leonardo/Desktop/Code/Github/DawnBGC/Libraries/FWLIB/src\gd32f4xx_timer.c **** 
  14:C:/Users/leonardo/Desktop/Code/Github/DawnBGC/Libraries/FWLIB/src\gd32f4xx_timer.c **** /*!
  15:C:/Users/leonardo/Desktop/Code/Github/DawnBGC/Libraries/FWLIB/src\gd32f4xx_timer.c ****     \brief      deinit a TIMER
  16:C:/Users/leonardo/Desktop/Code/Github/DawnBGC/Libraries/FWLIB/src\gd32f4xx_timer.c ****     \param[in]  timer_periph: TIMERx(x=0..13)
  17:C:/Users/leonardo/Desktop/Code/Github/DawnBGC/Libraries/FWLIB/src\gd32f4xx_timer.c ****     \param[out] none
  18:C:/Users/leonardo/Desktop/Code/Github/DawnBGC/Libraries/FWLIB/src\gd32f4xx_timer.c ****     \retval     none
  19:C:/Users/leonardo/Desktop/Code/Github/DawnBGC/Libraries/FWLIB/src\gd32f4xx_timer.c **** */
  20:C:/Users/leonardo/Desktop/Code/Github/DawnBGC/Libraries/FWLIB/src\gd32f4xx_timer.c **** void timer_deinit(uint32_t timer_periph)
  21:C:/Users/leonardo/Desktop/Code/Github/DawnBGC/Libraries/FWLIB/src\gd32f4xx_timer.c **** {
  27              		.loc 1 21 1
  28              		.cfi_startproc
  29              		@ args = 0, pretend = 0, frame = 8
  30              		@ frame_needed = 1, uses_anonymous_args = 0
  31 0000 80B5     		push	{r7, lr}
  32              		.cfi_def_cfa_offset 8
  33              		.cfi_offset 7, -8
  34              		.cfi_offset 14, -4
  35 0002 82B0     		sub	sp, sp, #8
  36              		.cfi_def_cfa_offset 16
  37 0004 00AF     		add	r7, sp, #0
  38              		.cfi_def_cfa_register 7
  39 0006 7860     		str	r0, [r7, #4]
  22:C:/Users/leonardo/Desktop/Code/Github/DawnBGC/Libraries/FWLIB/src\gd32f4xx_timer.c ****     switch(timer_periph){
  40              		.loc 1 22 5
  41 0008 7B68     		ldr	r3, [r7, #4]
  42 000a 7F4A     		ldr	r2, .L19
  43 000c 9342     		cmp	r3, r2
  44 000e 00F0D180 		beq	.L2
  45 0012 7B68     		ldr	r3, [r7, #4]
  46 0014 7C4A     		ldr	r2, .L19
  47 0016 9342     		cmp	r3, r2
  48 0018 00F2F080 		bhi	.L18
  49 001c 7B68     		ldr	r3, [r7, #4]
  50 001e 7B4A     		ldr	r2, .L19+4
  51 0020 9342     		cmp	r3, r2
  52 0022 00F0BE80 		beq	.L4
  53 0026 7B68     		ldr	r3, [r7, #4]
  54 0028 784A     		ldr	r2, .L19+4
  55 002a 9342     		cmp	r3, r2
  56 002c 00F2E680 		bhi	.L18
  57 0030 7B68     		ldr	r3, [r7, #4]
  58 0032 774A     		ldr	r2, .L19+8
  59 0034 9342     		cmp	r3, r2
  60 0036 00F0AB80 		beq	.L5
  61 003a 7B68     		ldr	r3, [r7, #4]
  62 003c 744A     		ldr	r2, .L19+8
  63 003e 9342     		cmp	r3, r2
  64 0040 00F2DC80 		bhi	.L18
  65 0044 7B68     		ldr	r3, [r7, #4]
  66 0046 734A     		ldr	r2, .L19+12
  67 0048 9342     		cmp	r3, r2
  68 004a 00F09880 		beq	.L6
  69 004e 7B68     		ldr	r3, [r7, #4]
  70 0050 704A     		ldr	r2, .L19+12
  71 0052 9342     		cmp	r3, r2
  72 0054 00F2D280 		bhi	.L18
  73 0058 7B68     		ldr	r3, [r7, #4]
  74 005a 6F4A     		ldr	r2, .L19+16
  75 005c 9342     		cmp	r3, r2
  76 005e 4FD0     		beq	.L7
  77 0060 7B68     		ldr	r3, [r7, #4]
  78 0062 6D4A     		ldr	r2, .L19+16
  79 0064 9342     		cmp	r3, r2
  80 0066 00F2C980 		bhi	.L18
  81 006a 7B68     		ldr	r3, [r7, #4]
  82 006c 6B4A     		ldr	r2, .L19+20
  83 006e 9342     		cmp	r3, r2
  84 0070 00F0BB80 		beq	.L8
  85 0074 7B68     		ldr	r3, [r7, #4]
  86 0076 694A     		ldr	r2, .L19+20
  87 0078 9342     		cmp	r3, r2
  88 007a 00F2BF80 		bhi	.L18
  89 007e 7B68     		ldr	r3, [r7, #4]
  90 0080 674A     		ldr	r2, .L19+24
  91 0082 9342     		cmp	r3, r2
  92 0084 00F0A880 		beq	.L9
  93 0088 7B68     		ldr	r3, [r7, #4]
  94 008a 654A     		ldr	r2, .L19+24
  95 008c 9342     		cmp	r3, r2
  96 008e 00F2B580 		bhi	.L18
  97 0092 7B68     		ldr	r3, [r7, #4]
  98 0094 634A     		ldr	r2, .L19+28
  99 0096 9342     		cmp	r3, r2
 100 0098 00F09580 		beq	.L10
 101 009c 7B68     		ldr	r3, [r7, #4]
 102 009e 614A     		ldr	r2, .L19+28
 103 00a0 9342     		cmp	r3, r2
 104 00a2 00F2AB80 		bhi	.L18
 105 00a6 7B68     		ldr	r3, [r7, #4]
 106 00a8 5F4A     		ldr	r2, .L19+32
 107 00aa 9342     		cmp	r3, r2
 108 00ac 5ED0     		beq	.L11
 109 00ae 7B68     		ldr	r3, [r7, #4]
 110 00b0 5D4A     		ldr	r2, .L19+32
 111 00b2 9342     		cmp	r3, r2
 112 00b4 00F2A280 		bhi	.L18
 113 00b8 7B68     		ldr	r3, [r7, #4]
 114 00ba 5C4A     		ldr	r2, .L19+36
 115 00bc 9342     		cmp	r3, r2
 116 00be 4CD0     		beq	.L12
 117 00c0 7B68     		ldr	r3, [r7, #4]
 118 00c2 5A4A     		ldr	r2, .L19+36
 119 00c4 9342     		cmp	r3, r2
 120 00c6 00F29980 		bhi	.L18
 121 00ca 7B68     		ldr	r3, [r7, #4]
 122 00cc 584A     		ldr	r2, .L19+40
 123 00ce 9342     		cmp	r3, r2
 124 00d0 3AD0     		beq	.L13
 125 00d2 7B68     		ldr	r3, [r7, #4]
 126 00d4 564A     		ldr	r2, .L19+40
 127 00d6 9342     		cmp	r3, r2
 128 00d8 00F29080 		bhi	.L18
 129 00dc 7B68     		ldr	r3, [r7, #4]
 130 00de 554A     		ldr	r2, .L19+44
 131 00e0 9342     		cmp	r3, r2
 132 00e2 28D0     		beq	.L14
 133 00e4 7B68     		ldr	r3, [r7, #4]
 134 00e6 534A     		ldr	r2, .L19+44
 135 00e8 9342     		cmp	r3, r2
 136 00ea 00F28780 		bhi	.L18
 137 00ee 7B68     		ldr	r3, [r7, #4]
 138 00f0 B3F1804F 		cmp	r3, #1073741824
 139 00f4 0DD0     		beq	.L15
 140 00f6 7B68     		ldr	r3, [r7, #4]
 141 00f8 4F4A     		ldr	r2, .L19+48
 142 00fa 9342     		cmp	r3, r2
 143 00fc 12D0     		beq	.L16
  23:C:/Users/leonardo/Desktop/Code/Github/DawnBGC/Libraries/FWLIB/src\gd32f4xx_timer.c ****     case TIMER0:
  24:C:/Users/leonardo/Desktop/Code/Github/DawnBGC/Libraries/FWLIB/src\gd32f4xx_timer.c ****         /* reset TIMER0 */
  25:C:/Users/leonardo/Desktop/Code/Github/DawnBGC/Libraries/FWLIB/src\gd32f4xx_timer.c ****         rcu_periph_reset_enable(RCU_TIMER0RST);
  26:C:/Users/leonardo/Desktop/Code/Github/DawnBGC/Libraries/FWLIB/src\gd32f4xx_timer.c ****         rcu_periph_reset_disable(RCU_TIMER0RST);
  27:C:/Users/leonardo/Desktop/Code/Github/DawnBGC/Libraries/FWLIB/src\gd32f4xx_timer.c ****         break;
  28:C:/Users/leonardo/Desktop/Code/Github/DawnBGC/Libraries/FWLIB/src\gd32f4xx_timer.c ****     case TIMER1:
  29:C:/Users/leonardo/Desktop/Code/Github/DawnBGC/Libraries/FWLIB/src\gd32f4xx_timer.c ****         /* reset TIMER1 */
  30:C:/Users/leonardo/Desktop/Code/Github/DawnBGC/Libraries/FWLIB/src\gd32f4xx_timer.c ****         rcu_periph_reset_enable(RCU_TIMER1RST);
  31:C:/Users/leonardo/Desktop/Code/Github/DawnBGC/Libraries/FWLIB/src\gd32f4xx_timer.c ****         rcu_periph_reset_disable(RCU_TIMER1RST);
  32:C:/Users/leonardo/Desktop/Code/Github/DawnBGC/Libraries/FWLIB/src\gd32f4xx_timer.c ****         break;
  33:C:/Users/leonardo/Desktop/Code/Github/DawnBGC/Libraries/FWLIB/src\gd32f4xx_timer.c ****     case TIMER2:
  34:C:/Users/leonardo/Desktop/Code/Github/DawnBGC/Libraries/FWLIB/src\gd32f4xx_timer.c ****         /* reset TIMER2 */
  35:C:/Users/leonardo/Desktop/Code/Github/DawnBGC/Libraries/FWLIB/src\gd32f4xx_timer.c ****         rcu_periph_reset_enable(RCU_TIMER2RST);
  36:C:/Users/leonardo/Desktop/Code/Github/DawnBGC/Libraries/FWLIB/src\gd32f4xx_timer.c ****         rcu_periph_reset_disable(RCU_TIMER2RST);
  37:C:/Users/leonardo/Desktop/Code/Github/DawnBGC/Libraries/FWLIB/src\gd32f4xx_timer.c ****         break;
  38:C:/Users/leonardo/Desktop/Code/Github/DawnBGC/Libraries/FWLIB/src\gd32f4xx_timer.c ****     case TIMER3:
  39:C:/Users/leonardo/Desktop/Code/Github/DawnBGC/Libraries/FWLIB/src\gd32f4xx_timer.c ****         /* reset TIMER3 */
  40:C:/Users/leonardo/Desktop/Code/Github/DawnBGC/Libraries/FWLIB/src\gd32f4xx_timer.c ****         rcu_periph_reset_enable(RCU_TIMER3RST);
  41:C:/Users/leonardo/Desktop/Code/Github/DawnBGC/Libraries/FWLIB/src\gd32f4xx_timer.c ****         rcu_periph_reset_disable(RCU_TIMER3RST);
  42:C:/Users/leonardo/Desktop/Code/Github/DawnBGC/Libraries/FWLIB/src\gd32f4xx_timer.c ****         break;
  43:C:/Users/leonardo/Desktop/Code/Github/DawnBGC/Libraries/FWLIB/src\gd32f4xx_timer.c ****     case TIMER4:
  44:C:/Users/leonardo/Desktop/Code/Github/DawnBGC/Libraries/FWLIB/src\gd32f4xx_timer.c ****         /* reset TIMER4 */
  45:C:/Users/leonardo/Desktop/Code/Github/DawnBGC/Libraries/FWLIB/src\gd32f4xx_timer.c ****         rcu_periph_reset_enable(RCU_TIMER4RST);
  46:C:/Users/leonardo/Desktop/Code/Github/DawnBGC/Libraries/FWLIB/src\gd32f4xx_timer.c ****         rcu_periph_reset_disable(RCU_TIMER4RST);
  47:C:/Users/leonardo/Desktop/Code/Github/DawnBGC/Libraries/FWLIB/src\gd32f4xx_timer.c ****         break;
  48:C:/Users/leonardo/Desktop/Code/Github/DawnBGC/Libraries/FWLIB/src\gd32f4xx_timer.c ****     case TIMER5:
  49:C:/Users/leonardo/Desktop/Code/Github/DawnBGC/Libraries/FWLIB/src\gd32f4xx_timer.c ****         /* reset TIMER5 */
  50:C:/Users/leonardo/Desktop/Code/Github/DawnBGC/Libraries/FWLIB/src\gd32f4xx_timer.c ****         rcu_periph_reset_enable(RCU_TIMER5RST);
  51:C:/Users/leonardo/Desktop/Code/Github/DawnBGC/Libraries/FWLIB/src\gd32f4xx_timer.c ****         rcu_periph_reset_disable(RCU_TIMER5RST);
  52:C:/Users/leonardo/Desktop/Code/Github/DawnBGC/Libraries/FWLIB/src\gd32f4xx_timer.c ****         break;
  53:C:/Users/leonardo/Desktop/Code/Github/DawnBGC/Libraries/FWLIB/src\gd32f4xx_timer.c ****     case TIMER6:
  54:C:/Users/leonardo/Desktop/Code/Github/DawnBGC/Libraries/FWLIB/src\gd32f4xx_timer.c ****         /* reset TIMER6 */
  55:C:/Users/leonardo/Desktop/Code/Github/DawnBGC/Libraries/FWLIB/src\gd32f4xx_timer.c ****         rcu_periph_reset_enable(RCU_TIMER6RST);
  56:C:/Users/leonardo/Desktop/Code/Github/DawnBGC/Libraries/FWLIB/src\gd32f4xx_timer.c ****         rcu_periph_reset_disable(RCU_TIMER6RST);
  57:C:/Users/leonardo/Desktop/Code/Github/DawnBGC/Libraries/FWLIB/src\gd32f4xx_timer.c ****         break;
  58:C:/Users/leonardo/Desktop/Code/Github/DawnBGC/Libraries/FWLIB/src\gd32f4xx_timer.c ****     case TIMER7:
  59:C:/Users/leonardo/Desktop/Code/Github/DawnBGC/Libraries/FWLIB/src\gd32f4xx_timer.c ****         /* reset TIMER7 */
  60:C:/Users/leonardo/Desktop/Code/Github/DawnBGC/Libraries/FWLIB/src\gd32f4xx_timer.c ****         rcu_periph_reset_enable(RCU_TIMER7RST);
  61:C:/Users/leonardo/Desktop/Code/Github/DawnBGC/Libraries/FWLIB/src\gd32f4xx_timer.c ****         rcu_periph_reset_disable(RCU_TIMER7RST);
  62:C:/Users/leonardo/Desktop/Code/Github/DawnBGC/Libraries/FWLIB/src\gd32f4xx_timer.c ****         break;
  63:C:/Users/leonardo/Desktop/Code/Github/DawnBGC/Libraries/FWLIB/src\gd32f4xx_timer.c ****     case TIMER8:
  64:C:/Users/leonardo/Desktop/Code/Github/DawnBGC/Libraries/FWLIB/src\gd32f4xx_timer.c ****         /* reset TIMER8 */
  65:C:/Users/leonardo/Desktop/Code/Github/DawnBGC/Libraries/FWLIB/src\gd32f4xx_timer.c ****         rcu_periph_reset_enable(RCU_TIMER8RST);
  66:C:/Users/leonardo/Desktop/Code/Github/DawnBGC/Libraries/FWLIB/src\gd32f4xx_timer.c ****         rcu_periph_reset_disable(RCU_TIMER8RST);
  67:C:/Users/leonardo/Desktop/Code/Github/DawnBGC/Libraries/FWLIB/src\gd32f4xx_timer.c ****         break;
  68:C:/Users/leonardo/Desktop/Code/Github/DawnBGC/Libraries/FWLIB/src\gd32f4xx_timer.c ****     case TIMER9:
  69:C:/Users/leonardo/Desktop/Code/Github/DawnBGC/Libraries/FWLIB/src\gd32f4xx_timer.c ****         /* reset TIMER9 */
  70:C:/Users/leonardo/Desktop/Code/Github/DawnBGC/Libraries/FWLIB/src\gd32f4xx_timer.c ****         rcu_periph_reset_enable(RCU_TIMER9RST);
  71:C:/Users/leonardo/Desktop/Code/Github/DawnBGC/Libraries/FWLIB/src\gd32f4xx_timer.c ****         rcu_periph_reset_disable(RCU_TIMER9RST);
  72:C:/Users/leonardo/Desktop/Code/Github/DawnBGC/Libraries/FWLIB/src\gd32f4xx_timer.c ****         break;
  73:C:/Users/leonardo/Desktop/Code/Github/DawnBGC/Libraries/FWLIB/src\gd32f4xx_timer.c ****     case TIMER10:
  74:C:/Users/leonardo/Desktop/Code/Github/DawnBGC/Libraries/FWLIB/src\gd32f4xx_timer.c ****         /* reset TIMER10 */
  75:C:/Users/leonardo/Desktop/Code/Github/DawnBGC/Libraries/FWLIB/src\gd32f4xx_timer.c ****         rcu_periph_reset_enable(RCU_TIMER10RST);
  76:C:/Users/leonardo/Desktop/Code/Github/DawnBGC/Libraries/FWLIB/src\gd32f4xx_timer.c ****         rcu_periph_reset_disable(RCU_TIMER10RST);
  77:C:/Users/leonardo/Desktop/Code/Github/DawnBGC/Libraries/FWLIB/src\gd32f4xx_timer.c ****         break;
  78:C:/Users/leonardo/Desktop/Code/Github/DawnBGC/Libraries/FWLIB/src\gd32f4xx_timer.c ****     case TIMER11:
  79:C:/Users/leonardo/Desktop/Code/Github/DawnBGC/Libraries/FWLIB/src\gd32f4xx_timer.c ****         /* reset TIMER11 */
  80:C:/Users/leonardo/Desktop/Code/Github/DawnBGC/Libraries/FWLIB/src\gd32f4xx_timer.c ****         rcu_periph_reset_enable(RCU_TIMER11RST);
  81:C:/Users/leonardo/Desktop/Code/Github/DawnBGC/Libraries/FWLIB/src\gd32f4xx_timer.c ****         rcu_periph_reset_disable(RCU_TIMER11RST);
  82:C:/Users/leonardo/Desktop/Code/Github/DawnBGC/Libraries/FWLIB/src\gd32f4xx_timer.c ****         break;
  83:C:/Users/leonardo/Desktop/Code/Github/DawnBGC/Libraries/FWLIB/src\gd32f4xx_timer.c ****     case TIMER12:
  84:C:/Users/leonardo/Desktop/Code/Github/DawnBGC/Libraries/FWLIB/src\gd32f4xx_timer.c ****         /* reset TIMER12 */
  85:C:/Users/leonardo/Desktop/Code/Github/DawnBGC/Libraries/FWLIB/src\gd32f4xx_timer.c ****         rcu_periph_reset_enable(RCU_TIMER12RST);
  86:C:/Users/leonardo/Desktop/Code/Github/DawnBGC/Libraries/FWLIB/src\gd32f4xx_timer.c ****         rcu_periph_reset_disable(RCU_TIMER12RST);
  87:C:/Users/leonardo/Desktop/Code/Github/DawnBGC/Libraries/FWLIB/src\gd32f4xx_timer.c ****         break;
  88:C:/Users/leonardo/Desktop/Code/Github/DawnBGC/Libraries/FWLIB/src\gd32f4xx_timer.c ****     case TIMER13:
  89:C:/Users/leonardo/Desktop/Code/Github/DawnBGC/Libraries/FWLIB/src\gd32f4xx_timer.c ****         /* reset TIMER13 */
  90:C:/Users/leonardo/Desktop/Code/Github/DawnBGC/Libraries/FWLIB/src\gd32f4xx_timer.c ****         rcu_periph_reset_enable(RCU_TIMER13RST);
  91:C:/Users/leonardo/Desktop/Code/Github/DawnBGC/Libraries/FWLIB/src\gd32f4xx_timer.c ****         rcu_periph_reset_disable(RCU_TIMER13RST);
  92:C:/Users/leonardo/Desktop/Code/Github/DawnBGC/Libraries/FWLIB/src\gd32f4xx_timer.c ****         break;
  93:C:/Users/leonardo/Desktop/Code/Github/DawnBGC/Libraries/FWLIB/src\gd32f4xx_timer.c ****     default:
  94:C:/Users/leonardo/Desktop/Code/Github/DawnBGC/Libraries/FWLIB/src\gd32f4xx_timer.c ****         break;
 144              		.loc 1 94 9
 145 00fe 7DE0     		b	.L18
 146              	.L7:
  25:C:/Users/leonardo/Desktop/Code/Github/DawnBGC/Libraries/FWLIB/src\gd32f4xx_timer.c ****         rcu_periph_reset_disable(RCU_TIMER0RST);
 147              		.loc 1 25 9
 148 0100 4FF41060 		mov	r0, #2304
 149 0104 FFF7FEFF 		bl	rcu_periph_reset_enable
  26:C:/Users/leonardo/Desktop/Code/Github/DawnBGC/Libraries/FWLIB/src\gd32f4xx_timer.c ****         break;
 150              		.loc 1 26 9
 151 0108 4FF41060 		mov	r0, #2304
 152 010c FFF7FEFF 		bl	rcu_periph_reset_disable
  27:C:/Users/leonardo/Desktop/Code/Github/DawnBGC/Libraries/FWLIB/src\gd32f4xx_timer.c ****     case TIMER1:
 153              		.loc 1 27 9
 154 0110 75E0     		b	.L17
 155              	.L15:
  30:C:/Users/leonardo/Desktop/Code/Github/DawnBGC/Libraries/FWLIB/src\gd32f4xx_timer.c ****         rcu_periph_reset_disable(RCU_TIMER1RST);
 156              		.loc 1 30 9
 157 0112 4FF40060 		mov	r0, #2048
 158 0116 FFF7FEFF 		bl	rcu_periph_reset_enable
  31:C:/Users/leonardo/Desktop/Code/Github/DawnBGC/Libraries/FWLIB/src\gd32f4xx_timer.c ****         break;
 159              		.loc 1 31 9
 160 011a 4FF40060 		mov	r0, #2048
 161 011e FFF7FEFF 		bl	rcu_periph_reset_disable
  32:C:/Users/leonardo/Desktop/Code/Github/DawnBGC/Libraries/FWLIB/src\gd32f4xx_timer.c ****     case TIMER2:
 162              		.loc 1 32 9
 163 0122 6CE0     		b	.L17
 164              	.L16:
  35:C:/Users/leonardo/Desktop/Code/Github/DawnBGC/Libraries/FWLIB/src\gd32f4xx_timer.c ****         rcu_periph_reset_disable(RCU_TIMER2RST);
 165              		.loc 1 35 9
 166 0124 40F60100 		movw	r0, #2049
 167 0128 FFF7FEFF 		bl	rcu_periph_reset_enable
  36:C:/Users/leonardo/Desktop/Code/Github/DawnBGC/Libraries/FWLIB/src\gd32f4xx_timer.c ****         break;
 168              		.loc 1 36 9
 169 012c 40F60100 		movw	r0, #2049
 170 0130 FFF7FEFF 		bl	rcu_periph_reset_disable
  37:C:/Users/leonardo/Desktop/Code/Github/DawnBGC/Libraries/FWLIB/src\gd32f4xx_timer.c ****     case TIMER3:
 171              		.loc 1 37 9
 172 0134 63E0     		b	.L17
 173              	.L14:
  40:C:/Users/leonardo/Desktop/Code/Github/DawnBGC/Libraries/FWLIB/src\gd32f4xx_timer.c ****         rcu_periph_reset_disable(RCU_TIMER3RST);
 174              		.loc 1 40 9
 175 0136 40F60200 		movw	r0, #2050
 176 013a FFF7FEFF 		bl	rcu_periph_reset_enable
  41:C:/Users/leonardo/Desktop/Code/Github/DawnBGC/Libraries/FWLIB/src\gd32f4xx_timer.c ****         break;
 177              		.loc 1 41 9
 178 013e 40F60200 		movw	r0, #2050
 179 0142 FFF7FEFF 		bl	rcu_periph_reset_disable
  42:C:/Users/leonardo/Desktop/Code/Github/DawnBGC/Libraries/FWLIB/src\gd32f4xx_timer.c ****     case TIMER4:
 180              		.loc 1 42 9
 181 0146 5AE0     		b	.L17
 182              	.L13:
  45:C:/Users/leonardo/Desktop/Code/Github/DawnBGC/Libraries/FWLIB/src\gd32f4xx_timer.c ****         rcu_periph_reset_disable(RCU_TIMER4RST);
 183              		.loc 1 45 9
 184 0148 40F60300 		movw	r0, #2051
 185 014c FFF7FEFF 		bl	rcu_periph_reset_enable
  46:C:/Users/leonardo/Desktop/Code/Github/DawnBGC/Libraries/FWLIB/src\gd32f4xx_timer.c ****         break;
 186              		.loc 1 46 9
 187 0150 40F60300 		movw	r0, #2051
 188 0154 FFF7FEFF 		bl	rcu_periph_reset_disable
  47:C:/Users/leonardo/Desktop/Code/Github/DawnBGC/Libraries/FWLIB/src\gd32f4xx_timer.c ****     case TIMER5:
 189              		.loc 1 47 9
 190 0158 51E0     		b	.L17
 191              	.L12:
  50:C:/Users/leonardo/Desktop/Code/Github/DawnBGC/Libraries/FWLIB/src\gd32f4xx_timer.c ****         rcu_periph_reset_disable(RCU_TIMER5RST);
 192              		.loc 1 50 9
 193 015a 40F60400 		movw	r0, #2052
 194 015e FFF7FEFF 		bl	rcu_periph_reset_enable
  51:C:/Users/leonardo/Desktop/Code/Github/DawnBGC/Libraries/FWLIB/src\gd32f4xx_timer.c ****         break;
 195              		.loc 1 51 9
 196 0162 40F60400 		movw	r0, #2052
 197 0166 FFF7FEFF 		bl	rcu_periph_reset_disable
  52:C:/Users/leonardo/Desktop/Code/Github/DawnBGC/Libraries/FWLIB/src\gd32f4xx_timer.c ****     case TIMER6:
 198              		.loc 1 52 9
 199 016a 48E0     		b	.L17
 200              	.L11:
  55:C:/Users/leonardo/Desktop/Code/Github/DawnBGC/Libraries/FWLIB/src\gd32f4xx_timer.c ****         rcu_periph_reset_disable(RCU_TIMER6RST);
 201              		.loc 1 55 9
 202 016c 40F60500 		movw	r0, #2053
 203 0170 FFF7FEFF 		bl	rcu_periph_reset_enable
  56:C:/Users/leonardo/Desktop/Code/Github/DawnBGC/Libraries/FWLIB/src\gd32f4xx_timer.c ****         break;
 204              		.loc 1 56 9
 205 0174 40F60500 		movw	r0, #2053
 206 0178 FFF7FEFF 		bl	rcu_periph_reset_disable
  57:C:/Users/leonardo/Desktop/Code/Github/DawnBGC/Libraries/FWLIB/src\gd32f4xx_timer.c ****     case TIMER7:
 207              		.loc 1 57 9
 208 017c 3FE0     		b	.L17
 209              	.L6:
  60:C:/Users/leonardo/Desktop/Code/Github/DawnBGC/Libraries/FWLIB/src\gd32f4xx_timer.c ****         rcu_periph_reset_disable(RCU_TIMER7RST);
 210              		.loc 1 60 9
 211 017e 40F60110 		movw	r0, #2305
 212 0182 FFF7FEFF 		bl	rcu_periph_reset_enable
  61:C:/Users/leonardo/Desktop/Code/Github/DawnBGC/Libraries/FWLIB/src\gd32f4xx_timer.c ****         break;
 213              		.loc 1 61 9
 214 0186 40F60110 		movw	r0, #2305
 215 018a FFF7FEFF 		bl	rcu_periph_reset_disable
  62:C:/Users/leonardo/Desktop/Code/Github/DawnBGC/Libraries/FWLIB/src\gd32f4xx_timer.c ****     case TIMER8:
 216              		.loc 1 62 9
 217 018e 36E0     		b	.L17
 218              	.L5:
  65:C:/Users/leonardo/Desktop/Code/Github/DawnBGC/Libraries/FWLIB/src\gd32f4xx_timer.c ****         rcu_periph_reset_disable(RCU_TIMER8RST);
 219              		.loc 1 65 9
 220 0190 4FF41160 		mov	r0, #2320
 221 0194 FFF7FEFF 		bl	rcu_periph_reset_enable
  66:C:/Users/leonardo/Desktop/Code/Github/DawnBGC/Libraries/FWLIB/src\gd32f4xx_timer.c ****         break;
 222              		.loc 1 66 9
 223 0198 4FF41160 		mov	r0, #2320
 224 019c FFF7FEFF 		bl	rcu_periph_reset_disable
  67:C:/Users/leonardo/Desktop/Code/Github/DawnBGC/Libraries/FWLIB/src\gd32f4xx_timer.c ****     case TIMER9:
 225              		.loc 1 67 9
 226 01a0 2DE0     		b	.L17
 227              	.L4:
  70:C:/Users/leonardo/Desktop/Code/Github/DawnBGC/Libraries/FWLIB/src\gd32f4xx_timer.c ****         rcu_periph_reset_disable(RCU_TIMER9RST);
 228              		.loc 1 70 9
 229 01a2 40F61110 		movw	r0, #2321
 230 01a6 FFF7FEFF 		bl	rcu_periph_reset_enable
  71:C:/Users/leonardo/Desktop/Code/Github/DawnBGC/Libraries/FWLIB/src\gd32f4xx_timer.c ****         break;
 231              		.loc 1 71 9
 232 01aa 40F61110 		movw	r0, #2321
 233 01ae FFF7FEFF 		bl	rcu_periph_reset_disable
  72:C:/Users/leonardo/Desktop/Code/Github/DawnBGC/Libraries/FWLIB/src\gd32f4xx_timer.c ****     case TIMER10:
 234              		.loc 1 72 9
 235 01b2 24E0     		b	.L17
 236              	.L2:
  75:C:/Users/leonardo/Desktop/Code/Github/DawnBGC/Libraries/FWLIB/src\gd32f4xx_timer.c ****         rcu_periph_reset_disable(RCU_TIMER10RST);
 237              		.loc 1 75 9
 238 01b4 40F61210 		movw	r0, #2322
 239 01b8 FFF7FEFF 		bl	rcu_periph_reset_enable
  76:C:/Users/leonardo/Desktop/Code/Github/DawnBGC/Libraries/FWLIB/src\gd32f4xx_timer.c ****         break;
 240              		.loc 1 76 9
 241 01bc 40F61210 		movw	r0, #2322
 242 01c0 FFF7FEFF 		bl	rcu_periph_reset_disable
  77:C:/Users/leonardo/Desktop/Code/Github/DawnBGC/Libraries/FWLIB/src\gd32f4xx_timer.c ****     case TIMER11:
 243              		.loc 1 77 9
 244 01c4 1BE0     		b	.L17
 245              	.L10:
  80:C:/Users/leonardo/Desktop/Code/Github/DawnBGC/Libraries/FWLIB/src\gd32f4xx_timer.c ****         rcu_periph_reset_disable(RCU_TIMER11RST);
 246              		.loc 1 80 9
 247 01c6 40F60600 		movw	r0, #2054
 248 01ca FFF7FEFF 		bl	rcu_periph_reset_enable
  81:C:/Users/leonardo/Desktop/Code/Github/DawnBGC/Libraries/FWLIB/src\gd32f4xx_timer.c ****         break;
 249              		.loc 1 81 9
 250 01ce 40F60600 		movw	r0, #2054
 251 01d2 FFF7FEFF 		bl	rcu_periph_reset_disable
  82:C:/Users/leonardo/Desktop/Code/Github/DawnBGC/Libraries/FWLIB/src\gd32f4xx_timer.c ****     case TIMER12:
 252              		.loc 1 82 9
 253 01d6 12E0     		b	.L17
 254              	.L9:
  85:C:/Users/leonardo/Desktop/Code/Github/DawnBGC/Libraries/FWLIB/src\gd32f4xx_timer.c ****         rcu_periph_reset_disable(RCU_TIMER12RST);
 255              		.loc 1 85 9
 256 01d8 40F60700 		movw	r0, #2055
 257 01dc FFF7FEFF 		bl	rcu_periph_reset_enable
  86:C:/Users/leonardo/Desktop/Code/Github/DawnBGC/Libraries/FWLIB/src\gd32f4xx_timer.c ****         break;
 258              		.loc 1 86 9
 259 01e0 40F60700 		movw	r0, #2055
 260 01e4 FFF7FEFF 		bl	rcu_periph_reset_disable
  87:C:/Users/leonardo/Desktop/Code/Github/DawnBGC/Libraries/FWLIB/src\gd32f4xx_timer.c ****     case TIMER13:
 261              		.loc 1 87 9
 262 01e8 09E0     		b	.L17
 263              	.L8:
  90:C:/Users/leonardo/Desktop/Code/Github/DawnBGC/Libraries/FWLIB/src\gd32f4xx_timer.c ****         rcu_periph_reset_disable(RCU_TIMER13RST);
 264              		.loc 1 90 9
 265 01ea 40F60800 		movw	r0, #2056
 266 01ee FFF7FEFF 		bl	rcu_periph_reset_enable
  91:C:/Users/leonardo/Desktop/Code/Github/DawnBGC/Libraries/FWLIB/src\gd32f4xx_timer.c ****         break;
 267              		.loc 1 91 9
 268 01f2 40F60800 		movw	r0, #2056
 269 01f6 FFF7FEFF 		bl	rcu_periph_reset_disable
  92:C:/Users/leonardo/Desktop/Code/Github/DawnBGC/Libraries/FWLIB/src\gd32f4xx_timer.c ****     default:
 270              		.loc 1 92 9
 271 01fa 00E0     		b	.L17
 272              	.L18:
 273              		.loc 1 94 9
 274 01fc 00BF     		nop
 275              	.L17:
  95:C:/Users/leonardo/Desktop/Code/Github/DawnBGC/Libraries/FWLIB/src\gd32f4xx_timer.c ****     }
  96:C:/Users/leonardo/Desktop/Code/Github/DawnBGC/Libraries/FWLIB/src\gd32f4xx_timer.c **** }
 276              		.loc 1 96 1
 277 01fe 00BF     		nop
 278 0200 0837     		adds	r7, r7, #8
 279              		.cfi_def_cfa_offset 8
 280 0202 BD46     		mov	sp, r7
 281              		.cfi_def_cfa_register 13
 282              		@ sp needed
 283 0204 80BD     		pop	{r7, pc}
 284              	.L20:
 285 0206 00BF     		.align	2
 286              	.L19:
 287 0208 00480140 		.word	1073825792
 288 020c 00440140 		.word	1073824768
 289 0210 00400140 		.word	1073823744
 290 0214 00040140 		.word	1073808384
 291 0218 00000140 		.word	1073807360
 292 021c 00200040 		.word	1073750016
 293 0220 001C0040 		.word	1073748992
 294 0224 00180040 		.word	1073747968
 295 0228 00140040 		.word	1073746944
 296 022c 00100040 		.word	1073745920
 297 0230 000C0040 		.word	1073744896
 298 0234 00080040 		.word	1073743872
 299 0238 00040040 		.word	1073742848
 300              		.cfi_endproc
 301              	.LFE123:
 303              		.section	.text.timer_init,"ax",%progbits
 304              		.align	1
 305              		.global	timer_init
 306              		.syntax unified
 307              		.thumb
 308              		.thumb_func
 309              		.fpu softvfp
 311              	timer_init:
 312              	.LFB124:
  97:C:/Users/leonardo/Desktop/Code/Github/DawnBGC/Libraries/FWLIB/src\gd32f4xx_timer.c **** 
  98:C:/Users/leonardo/Desktop/Code/Github/DawnBGC/Libraries/FWLIB/src\gd32f4xx_timer.c **** /*!
  99:C:/Users/leonardo/Desktop/Code/Github/DawnBGC/Libraries/FWLIB/src\gd32f4xx_timer.c ****     \brief      initialize TIMER counter
 100:C:/Users/leonardo/Desktop/Code/Github/DawnBGC/Libraries/FWLIB/src\gd32f4xx_timer.c ****     \param[in]  timer_periph: TIMERx(x=0..13)
 101:C:/Users/leonardo/Desktop/Code/Github/DawnBGC/Libraries/FWLIB/src\gd32f4xx_timer.c ****     \param[in]  timer_initpara: init parameter struct
 102:C:/Users/leonardo/Desktop/Code/Github/DawnBGC/Libraries/FWLIB/src\gd32f4xx_timer.c ****                 prescaler: prescaler value of the counter clock,0~65535
 103:C:/Users/leonardo/Desktop/Code/Github/DawnBGC/Libraries/FWLIB/src\gd32f4xx_timer.c ****                 alignedmode: TIMER_COUNTER_EDGE,TIMER_COUNTER_CENTER_DOWN,TIMER_COUNTER_CENTER_UP,T
 104:C:/Users/leonardo/Desktop/Code/Github/DawnBGC/Libraries/FWLIB/src\gd32f4xx_timer.c ****                 counterdirection: TIMER_COUNTER_UP,TIMER_COUNTER_DOWN
 105:C:/Users/leonardo/Desktop/Code/Github/DawnBGC/Libraries/FWLIB/src\gd32f4xx_timer.c ****                 period: counter auto reload value,(TIMER1,TIMER4,32 bit)
 106:C:/Users/leonardo/Desktop/Code/Github/DawnBGC/Libraries/FWLIB/src\gd32f4xx_timer.c ****                 clockdivision: TIMER_CKDIV_DIV1,TIMER_CKDIV_DIV2,TIMER_CKDIV_DIV4
 107:C:/Users/leonardo/Desktop/Code/Github/DawnBGC/Libraries/FWLIB/src\gd32f4xx_timer.c ****                 repetitioncounter: counter repetition value,0~255
 108:C:/Users/leonardo/Desktop/Code/Github/DawnBGC/Libraries/FWLIB/src\gd32f4xx_timer.c ****     \param[out] none
 109:C:/Users/leonardo/Desktop/Code/Github/DawnBGC/Libraries/FWLIB/src\gd32f4xx_timer.c ****     \retval     none
 110:C:/Users/leonardo/Desktop/Code/Github/DawnBGC/Libraries/FWLIB/src\gd32f4xx_timer.c **** */
 111:C:/Users/leonardo/Desktop/Code/Github/DawnBGC/Libraries/FWLIB/src\gd32f4xx_timer.c **** void timer_init(uint32_t timer_periph, timer_parameter_struct* timer_initpara)
 112:C:/Users/leonardo/Desktop/Code/Github/DawnBGC/Libraries/FWLIB/src\gd32f4xx_timer.c **** {
 313              		.loc 1 112 1
 314              		.cfi_startproc
 315              		@ args = 0, pretend = 0, frame = 8
 316              		@ frame_needed = 1, uses_anonymous_args = 0
 317              		@ link register save eliminated.
 318 0000 80B4     		push	{r7}
 319              		.cfi_def_cfa_offset 4
 320              		.cfi_offset 7, -4
 321 0002 83B0     		sub	sp, sp, #12
 322              		.cfi_def_cfa_offset 16
 323 0004 00AF     		add	r7, sp, #0
 324              		.cfi_def_cfa_register 7
 325 0006 7860     		str	r0, [r7, #4]
 326 0008 3960     		str	r1, [r7]
 113:C:/Users/leonardo/Desktop/Code/Github/DawnBGC/Libraries/FWLIB/src\gd32f4xx_timer.c ****     /* configure the counter prescaler value */
 114:C:/Users/leonardo/Desktop/Code/Github/DawnBGC/Libraries/FWLIB/src\gd32f4xx_timer.c ****     TIMER_PSC(timer_periph) = (uint16_t)timer_initpara->prescaler;
 327              		.loc 1 114 55
 328 000a 3B68     		ldr	r3, [r7]
 329 000c 1A88     		ldrh	r2, [r3]
 330              		.loc 1 114 5
 331 000e 7B68     		ldr	r3, [r7, #4]
 332 0010 2833     		adds	r3, r3, #40
 333              		.loc 1 114 29
 334 0012 1A60     		str	r2, [r3]
 115:C:/Users/leonardo/Desktop/Code/Github/DawnBGC/Libraries/FWLIB/src\gd32f4xx_timer.c **** 
 116:C:/Users/leonardo/Desktop/Code/Github/DawnBGC/Libraries/FWLIB/src\gd32f4xx_timer.c ****     /* configure the counter direction and aligned mode */
 117:C:/Users/leonardo/Desktop/Code/Github/DawnBGC/Libraries/FWLIB/src\gd32f4xx_timer.c ****     if((TIMER0 == timer_periph) || (TIMER1 == timer_periph) || (TIMER2 == timer_periph)
 335              		.loc 1 117 7
 336 0014 7B68     		ldr	r3, [r7, #4]
 337 0016 314A     		ldr	r2, .L27
 338 0018 9342     		cmp	r3, r2
 339 001a 13D0     		beq	.L22
 340              		.loc 1 117 33 discriminator 1
 341 001c 7B68     		ldr	r3, [r7, #4]
 342 001e B3F1804F 		cmp	r3, #1073741824
 343 0022 0FD0     		beq	.L22
 344              		.loc 1 117 61 discriminator 2
 345 0024 7B68     		ldr	r3, [r7, #4]
 346 0026 2E4A     		ldr	r2, .L27+4
 347 0028 9342     		cmp	r3, r2
 348 002a 0BD0     		beq	.L22
 118:C:/Users/leonardo/Desktop/Code/Github/DawnBGC/Libraries/FWLIB/src\gd32f4xx_timer.c ****         || (TIMER3 == timer_periph) || (TIMER4 == timer_periph) || (TIMER7 == timer_periph)){
 349              		.loc 1 118 9
 350 002c 7B68     		ldr	r3, [r7, #4]
 351 002e 2D4A     		ldr	r2, .L27+8
 352 0030 9342     		cmp	r3, r2
 353 0032 07D0     		beq	.L22
 354              		.loc 1 118 37 discriminator 1
 355 0034 7B68     		ldr	r3, [r7, #4]
 356 0036 2C4A     		ldr	r2, .L27+12
 357 0038 9342     		cmp	r3, r2
 358 003a 03D0     		beq	.L22
 359              		.loc 1 118 65 discriminator 2
 360 003c 7B68     		ldr	r3, [r7, #4]
 361 003e 2B4A     		ldr	r2, .L27+16
 362 0040 9342     		cmp	r3, r2
 363 0042 15D1     		bne	.L23
 364              	.L22:
 119:C:/Users/leonardo/Desktop/Code/Github/DawnBGC/Libraries/FWLIB/src\gd32f4xx_timer.c ****         TIMER_CTL0(timer_periph) &= ~(uint32_t)(TIMER_CTL0_DIR|TIMER_CTL0_CAM);
 365              		.loc 1 119 34
 366 0044 7B68     		ldr	r3, [r7, #4]
 367 0046 1A68     		ldr	r2, [r3]
 368 0048 7B68     		ldr	r3, [r7, #4]
 369 004a 22F07002 		bic	r2, r2, #112
 370 004e 1A60     		str	r2, [r3]
 120:C:/Users/leonardo/Desktop/Code/Github/DawnBGC/Libraries/FWLIB/src\gd32f4xx_timer.c ****         TIMER_CTL0(timer_periph) |= (uint32_t)timer_initpara->alignedmode;
 371              		.loc 1 120 34
 372 0050 7B68     		ldr	r3, [r7, #4]
 373 0052 1A68     		ldr	r2, [r3]
 374              		.loc 1 120 61
 375 0054 3B68     		ldr	r3, [r7]
 376 0056 5B88     		ldrh	r3, [r3, #2]
 377              		.loc 1 120 37
 378 0058 1946     		mov	r1, r3
 379              		.loc 1 120 34
 380 005a 7B68     		ldr	r3, [r7, #4]
 381 005c 0A43     		orrs	r2, r2, r1
 382 005e 1A60     		str	r2, [r3]
 121:C:/Users/leonardo/Desktop/Code/Github/DawnBGC/Libraries/FWLIB/src\gd32f4xx_timer.c ****         TIMER_CTL0(timer_periph) |= (uint32_t)timer_initpara->counterdirection;
 383              		.loc 1 121 34
 384 0060 7B68     		ldr	r3, [r7, #4]
 385 0062 1A68     		ldr	r2, [r3]
 386              		.loc 1 121 61
 387 0064 3B68     		ldr	r3, [r7]
 388 0066 9B88     		ldrh	r3, [r3, #4]
 389              		.loc 1 121 37
 390 0068 1946     		mov	r1, r3
 391              		.loc 1 121 34
 392 006a 7B68     		ldr	r3, [r7, #4]
 393 006c 0A43     		orrs	r2, r2, r1
 394 006e 1A60     		str	r2, [r3]
 395              	.L23:
 122:C:/Users/leonardo/Desktop/Code/Github/DawnBGC/Libraries/FWLIB/src\gd32f4xx_timer.c ****     }
 123:C:/Users/leonardo/Desktop/Code/Github/DawnBGC/Libraries/FWLIB/src\gd32f4xx_timer.c **** 
 124:C:/Users/leonardo/Desktop/Code/Github/DawnBGC/Libraries/FWLIB/src\gd32f4xx_timer.c ****     /* configure the autoreload value */
 125:C:/Users/leonardo/Desktop/Code/Github/DawnBGC/Libraries/FWLIB/src\gd32f4xx_timer.c ****     TIMER_CAR(timer_periph) = (uint32_t)timer_initpara->period;
 396              		.loc 1 125 5
 397 0070 7B68     		ldr	r3, [r7, #4]
 398 0072 2C33     		adds	r3, r3, #44
 399 0074 1A46     		mov	r2, r3
 400              		.loc 1 125 55
 401 0076 3B68     		ldr	r3, [r7]
 402 0078 9B68     		ldr	r3, [r3, #8]
 403              		.loc 1 125 29
 404 007a 1360     		str	r3, [r2]
 126:C:/Users/leonardo/Desktop/Code/Github/DawnBGC/Libraries/FWLIB/src\gd32f4xx_timer.c **** 
 127:C:/Users/leonardo/Desktop/Code/Github/DawnBGC/Libraries/FWLIB/src\gd32f4xx_timer.c ****     if((TIMER5 != timer_periph) && (TIMER6 != timer_periph)){
 405              		.loc 1 127 7
 406 007c 7B68     		ldr	r3, [r7, #4]
 407 007e 1C4A     		ldr	r2, .L27+20
 408 0080 9342     		cmp	r3, r2
 409 0082 11D0     		beq	.L24
 410              		.loc 1 127 33 discriminator 1
 411 0084 7B68     		ldr	r3, [r7, #4]
 412 0086 1B4A     		ldr	r2, .L27+24
 413 0088 9342     		cmp	r3, r2
 414 008a 0DD0     		beq	.L24
 128:C:/Users/leonardo/Desktop/Code/Github/DawnBGC/Libraries/FWLIB/src\gd32f4xx_timer.c ****         /* reset the CKDIV bit */
 129:C:/Users/leonardo/Desktop/Code/Github/DawnBGC/Libraries/FWLIB/src\gd32f4xx_timer.c ****         TIMER_CTL0(timer_periph) &= ~(uint32_t)TIMER_CTL0_CKDIV;
 415              		.loc 1 129 34
 416 008c 7B68     		ldr	r3, [r7, #4]
 417 008e 1A68     		ldr	r2, [r3]
 418 0090 7B68     		ldr	r3, [r7, #4]
 419 0092 22F44072 		bic	r2, r2, #768
 420 0096 1A60     		str	r2, [r3]
 130:C:/Users/leonardo/Desktop/Code/Github/DawnBGC/Libraries/FWLIB/src\gd32f4xx_timer.c ****         TIMER_CTL0(timer_periph) |= (uint32_t)timer_initpara->clockdivision;
 421              		.loc 1 130 34
 422 0098 7B68     		ldr	r3, [r7, #4]
 423 009a 1A68     		ldr	r2, [r3]
 424              		.loc 1 130 61
 425 009c 3B68     		ldr	r3, [r7]
 426 009e 9B89     		ldrh	r3, [r3, #12]
 427              		.loc 1 130 37
 428 00a0 1946     		mov	r1, r3
 429              		.loc 1 130 34
 430 00a2 7B68     		ldr	r3, [r7, #4]
 431 00a4 0A43     		orrs	r2, r2, r1
 432 00a6 1A60     		str	r2, [r3]
 433              	.L24:
 131:C:/Users/leonardo/Desktop/Code/Github/DawnBGC/Libraries/FWLIB/src\gd32f4xx_timer.c ****     }
 132:C:/Users/leonardo/Desktop/Code/Github/DawnBGC/Libraries/FWLIB/src\gd32f4xx_timer.c **** 
 133:C:/Users/leonardo/Desktop/Code/Github/DawnBGC/Libraries/FWLIB/src\gd32f4xx_timer.c ****     if((TIMER0 == timer_periph) || (TIMER7 == timer_periph)){
 434              		.loc 1 133 7
 435 00a8 7B68     		ldr	r3, [r7, #4]
 436 00aa 0C4A     		ldr	r2, .L27
 437 00ac 9342     		cmp	r3, r2
 438 00ae 03D0     		beq	.L25
 439              		.loc 1 133 33 discriminator 1
 440 00b0 7B68     		ldr	r3, [r7, #4]
 441 00b2 0E4A     		ldr	r2, .L27+16
 442 00b4 9342     		cmp	r3, r2
 443 00b6 04D1     		bne	.L26
 444              	.L25:
 134:C:/Users/leonardo/Desktop/Code/Github/DawnBGC/Libraries/FWLIB/src\gd32f4xx_timer.c ****         /* configure the repetition counter value */
 135:C:/Users/leonardo/Desktop/Code/Github/DawnBGC/Libraries/FWLIB/src\gd32f4xx_timer.c ****         TIMER_CREP(timer_periph) = (uint32_t)timer_initpara->repetitioncounter;
 445              		.loc 1 135 60
 446 00b8 3B68     		ldr	r3, [r7]
 447 00ba 9A7B     		ldrb	r2, [r3, #14]	@ zero_extendqisi2
 448              		.loc 1 135 9
 449 00bc 7B68     		ldr	r3, [r7, #4]
 450 00be 3033     		adds	r3, r3, #48
 451              		.loc 1 135 34
 452 00c0 1A60     		str	r2, [r3]
 453              	.L26:
 136:C:/Users/leonardo/Desktop/Code/Github/DawnBGC/Libraries/FWLIB/src\gd32f4xx_timer.c ****     }
 137:C:/Users/leonardo/Desktop/Code/Github/DawnBGC/Libraries/FWLIB/src\gd32f4xx_timer.c **** 
 138:C:/Users/leonardo/Desktop/Code/Github/DawnBGC/Libraries/FWLIB/src\gd32f4xx_timer.c ****     /* generate an update event */
 139:C:/Users/leonardo/Desktop/Code/Github/DawnBGC/Libraries/FWLIB/src\gd32f4xx_timer.c ****     TIMER_SWEVG(timer_periph) |= (uint32_t)TIMER_SWEVG_UPG;
 454              		.loc 1 139 31
 455 00c2 7B68     		ldr	r3, [r7, #4]
 456 00c4 1433     		adds	r3, r3, #20
 457 00c6 1B68     		ldr	r3, [r3]
 458 00c8 7A68     		ldr	r2, [r7, #4]
 459 00ca 1432     		adds	r2, r2, #20
 460 00cc 43F00103 		orr	r3, r3, #1
 461 00d0 1360     		str	r3, [r2]
 140:C:/Users/leonardo/Desktop/Code/Github/DawnBGC/Libraries/FWLIB/src\gd32f4xx_timer.c **** }
 462              		.loc 1 140 1
 463 00d2 00BF     		nop
 464 00d4 0C37     		adds	r7, r7, #12
 465              		.cfi_def_cfa_offset 4
 466 00d6 BD46     		mov	sp, r7
 467              		.cfi_def_cfa_register 13
 468              		@ sp needed
 469 00d8 80BC     		pop	{r7}
 470              		.cfi_restore 7
 471              		.cfi_def_cfa_offset 0
 472 00da 7047     		bx	lr
 473              	.L28:
 474              		.align	2
 475              	.L27:
 476 00dc 00000140 		.word	1073807360
 477 00e0 00040040 		.word	1073742848
 478 00e4 00080040 		.word	1073743872
 479 00e8 000C0040 		.word	1073744896
 480 00ec 00040140 		.word	1073808384
 481 00f0 00100040 		.word	1073745920
 482 00f4 00140040 		.word	1073746944
 483              		.cfi_endproc
 484              	.LFE124:
 486              		.section	.text.timer_enable,"ax",%progbits
 487              		.align	1
 488              		.global	timer_enable
 489              		.syntax unified
 490              		.thumb
 491              		.thumb_func
 492              		.fpu softvfp
 494              	timer_enable:
 495              	.LFB125:
 141:C:/Users/leonardo/Desktop/Code/Github/DawnBGC/Libraries/FWLIB/src\gd32f4xx_timer.c **** 
 142:C:/Users/leonardo/Desktop/Code/Github/DawnBGC/Libraries/FWLIB/src\gd32f4xx_timer.c **** /*!
 143:C:/Users/leonardo/Desktop/Code/Github/DawnBGC/Libraries/FWLIB/src\gd32f4xx_timer.c ****     \brief      enable a TIMER
 144:C:/Users/leonardo/Desktop/Code/Github/DawnBGC/Libraries/FWLIB/src\gd32f4xx_timer.c ****     \param[in]  timer_periph: TIMERx(x=0..13)
 145:C:/Users/leonardo/Desktop/Code/Github/DawnBGC/Libraries/FWLIB/src\gd32f4xx_timer.c ****     \param[out] none
 146:C:/Users/leonardo/Desktop/Code/Github/DawnBGC/Libraries/FWLIB/src\gd32f4xx_timer.c ****     \retval     none
 147:C:/Users/leonardo/Desktop/Code/Github/DawnBGC/Libraries/FWLIB/src\gd32f4xx_timer.c **** */
 148:C:/Users/leonardo/Desktop/Code/Github/DawnBGC/Libraries/FWLIB/src\gd32f4xx_timer.c **** void timer_enable(uint32_t timer_periph)
 149:C:/Users/leonardo/Desktop/Code/Github/DawnBGC/Libraries/FWLIB/src\gd32f4xx_timer.c **** {
 496              		.loc 1 149 1
 497              		.cfi_startproc
 498              		@ args = 0, pretend = 0, frame = 8
 499              		@ frame_needed = 1, uses_anonymous_args = 0
 500              		@ link register save eliminated.
 501 0000 80B4     		push	{r7}
 502              		.cfi_def_cfa_offset 4
 503              		.cfi_offset 7, -4
 504 0002 83B0     		sub	sp, sp, #12
 505              		.cfi_def_cfa_offset 16
 506 0004 00AF     		add	r7, sp, #0
 507              		.cfi_def_cfa_register 7
 508 0006 7860     		str	r0, [r7, #4]
 150:C:/Users/leonardo/Desktop/Code/Github/DawnBGC/Libraries/FWLIB/src\gd32f4xx_timer.c ****     TIMER_CTL0(timer_periph) |= (uint32_t)TIMER_CTL0_CEN;
 509              		.loc 1 150 30
 510 0008 7B68     		ldr	r3, [r7, #4]
 511 000a 1A68     		ldr	r2, [r3]
 512 000c 7B68     		ldr	r3, [r7, #4]
 513 000e 42F00102 		orr	r2, r2, #1
 514 0012 1A60     		str	r2, [r3]
 151:C:/Users/leonardo/Desktop/Code/Github/DawnBGC/Libraries/FWLIB/src\gd32f4xx_timer.c **** }
 515              		.loc 1 151 1
 516 0014 00BF     		nop
 517 0016 0C37     		adds	r7, r7, #12
 518              		.cfi_def_cfa_offset 4
 519 0018 BD46     		mov	sp, r7
 520              		.cfi_def_cfa_register 13
 521              		@ sp needed
 522 001a 80BC     		pop	{r7}
 523              		.cfi_restore 7
 524              		.cfi_def_cfa_offset 0
 525 001c 7047     		bx	lr
 526              		.cfi_endproc
 527              	.LFE125:
 529              		.section	.text.timer_disable,"ax",%progbits
 530              		.align	1
 531              		.global	timer_disable
 532              		.syntax unified
 533              		.thumb
 534              		.thumb_func
 535              		.fpu softvfp
 537              	timer_disable:
 538              	.LFB126:
 152:C:/Users/leonardo/Desktop/Code/Github/DawnBGC/Libraries/FWLIB/src\gd32f4xx_timer.c **** 
 153:C:/Users/leonardo/Desktop/Code/Github/DawnBGC/Libraries/FWLIB/src\gd32f4xx_timer.c **** /*!
 154:C:/Users/leonardo/Desktop/Code/Github/DawnBGC/Libraries/FWLIB/src\gd32f4xx_timer.c ****     \brief      disable a TIMER
 155:C:/Users/leonardo/Desktop/Code/Github/DawnBGC/Libraries/FWLIB/src\gd32f4xx_timer.c ****     \param[in]  timer_periph: TIMERx(x=0..13)
 156:C:/Users/leonardo/Desktop/Code/Github/DawnBGC/Libraries/FWLIB/src\gd32f4xx_timer.c ****     \param[out] none
 157:C:/Users/leonardo/Desktop/Code/Github/DawnBGC/Libraries/FWLIB/src\gd32f4xx_timer.c ****     \retval     none
 158:C:/Users/leonardo/Desktop/Code/Github/DawnBGC/Libraries/FWLIB/src\gd32f4xx_timer.c **** */
 159:C:/Users/leonardo/Desktop/Code/Github/DawnBGC/Libraries/FWLIB/src\gd32f4xx_timer.c **** void timer_disable(uint32_t timer_periph)
 160:C:/Users/leonardo/Desktop/Code/Github/DawnBGC/Libraries/FWLIB/src\gd32f4xx_timer.c **** {
 539              		.loc 1 160 1
 540              		.cfi_startproc
 541              		@ args = 0, pretend = 0, frame = 8
 542              		@ frame_needed = 1, uses_anonymous_args = 0
 543              		@ link register save eliminated.
 544 0000 80B4     		push	{r7}
 545              		.cfi_def_cfa_offset 4
 546              		.cfi_offset 7, -4
 547 0002 83B0     		sub	sp, sp, #12
 548              		.cfi_def_cfa_offset 16
 549 0004 00AF     		add	r7, sp, #0
 550              		.cfi_def_cfa_register 7
 551 0006 7860     		str	r0, [r7, #4]
 161:C:/Users/leonardo/Desktop/Code/Github/DawnBGC/Libraries/FWLIB/src\gd32f4xx_timer.c ****     TIMER_CTL0(timer_periph) &= ~(uint32_t)TIMER_CTL0_CEN;
 552              		.loc 1 161 30
 553 0008 7B68     		ldr	r3, [r7, #4]
 554 000a 1A68     		ldr	r2, [r3]
 555 000c 7B68     		ldr	r3, [r7, #4]
 556 000e 22F00102 		bic	r2, r2, #1
 557 0012 1A60     		str	r2, [r3]
 162:C:/Users/leonardo/Desktop/Code/Github/DawnBGC/Libraries/FWLIB/src\gd32f4xx_timer.c **** }
 558              		.loc 1 162 1
 559 0014 00BF     		nop
 560 0016 0C37     		adds	r7, r7, #12
 561              		.cfi_def_cfa_offset 4
 562 0018 BD46     		mov	sp, r7
 563              		.cfi_def_cfa_register 13
 564              		@ sp needed
 565 001a 80BC     		pop	{r7}
 566              		.cfi_restore 7
 567              		.cfi_def_cfa_offset 0
 568 001c 7047     		bx	lr
 569              		.cfi_endproc
 570              	.LFE126:
 572              		.section	.text.timer_auto_reload_shadow_enable,"ax",%progbits
 573              		.align	1
 574              		.global	timer_auto_reload_shadow_enable
 575              		.syntax unified
 576              		.thumb
 577              		.thumb_func
 578              		.fpu softvfp
 580              	timer_auto_reload_shadow_enable:
 581              	.LFB127:
 163:C:/Users/leonardo/Desktop/Code/Github/DawnBGC/Libraries/FWLIB/src\gd32f4xx_timer.c **** 
 164:C:/Users/leonardo/Desktop/Code/Github/DawnBGC/Libraries/FWLIB/src\gd32f4xx_timer.c **** /*!
 165:C:/Users/leonardo/Desktop/Code/Github/DawnBGC/Libraries/FWLIB/src\gd32f4xx_timer.c ****     \brief      enable the auto reload shadow function
 166:C:/Users/leonardo/Desktop/Code/Github/DawnBGC/Libraries/FWLIB/src\gd32f4xx_timer.c ****     \param[in]  timer_periph: TIMERx(x=0..13)
 167:C:/Users/leonardo/Desktop/Code/Github/DawnBGC/Libraries/FWLIB/src\gd32f4xx_timer.c ****     \param[out] none
 168:C:/Users/leonardo/Desktop/Code/Github/DawnBGC/Libraries/FWLIB/src\gd32f4xx_timer.c ****     \retval     none
 169:C:/Users/leonardo/Desktop/Code/Github/DawnBGC/Libraries/FWLIB/src\gd32f4xx_timer.c **** */
 170:C:/Users/leonardo/Desktop/Code/Github/DawnBGC/Libraries/FWLIB/src\gd32f4xx_timer.c **** void timer_auto_reload_shadow_enable(uint32_t timer_periph)
 171:C:/Users/leonardo/Desktop/Code/Github/DawnBGC/Libraries/FWLIB/src\gd32f4xx_timer.c **** {
 582              		.loc 1 171 1
 583              		.cfi_startproc
 584              		@ args = 0, pretend = 0, frame = 8
 585              		@ frame_needed = 1, uses_anonymous_args = 0
 586              		@ link register save eliminated.
 587 0000 80B4     		push	{r7}
 588              		.cfi_def_cfa_offset 4
 589              		.cfi_offset 7, -4
 590 0002 83B0     		sub	sp, sp, #12
 591              		.cfi_def_cfa_offset 16
 592 0004 00AF     		add	r7, sp, #0
 593              		.cfi_def_cfa_register 7
 594 0006 7860     		str	r0, [r7, #4]
 172:C:/Users/leonardo/Desktop/Code/Github/DawnBGC/Libraries/FWLIB/src\gd32f4xx_timer.c ****     TIMER_CTL0(timer_periph) |= (uint32_t)TIMER_CTL0_ARSE;
 595              		.loc 1 172 30
 596 0008 7B68     		ldr	r3, [r7, #4]
 597 000a 1A68     		ldr	r2, [r3]
 598 000c 7B68     		ldr	r3, [r7, #4]
 599 000e 42F08002 		orr	r2, r2, #128
 600 0012 1A60     		str	r2, [r3]
 173:C:/Users/leonardo/Desktop/Code/Github/DawnBGC/Libraries/FWLIB/src\gd32f4xx_timer.c **** }
 601              		.loc 1 173 1
 602 0014 00BF     		nop
 603 0016 0C37     		adds	r7, r7, #12
 604              		.cfi_def_cfa_offset 4
 605 0018 BD46     		mov	sp, r7
 606              		.cfi_def_cfa_register 13
 607              		@ sp needed
 608 001a 80BC     		pop	{r7}
 609              		.cfi_restore 7
 610              		.cfi_def_cfa_offset 0
 611 001c 7047     		bx	lr
 612              		.cfi_endproc
 613              	.LFE127:
 615              		.section	.text.timer_auto_reload_shadow_disable,"ax",%progbits
 616              		.align	1
 617              		.global	timer_auto_reload_shadow_disable
 618              		.syntax unified
 619              		.thumb
 620              		.thumb_func
 621              		.fpu softvfp
 623              	timer_auto_reload_shadow_disable:
 624              	.LFB128:
 174:C:/Users/leonardo/Desktop/Code/Github/DawnBGC/Libraries/FWLIB/src\gd32f4xx_timer.c **** 
 175:C:/Users/leonardo/Desktop/Code/Github/DawnBGC/Libraries/FWLIB/src\gd32f4xx_timer.c **** /*!
 176:C:/Users/leonardo/Desktop/Code/Github/DawnBGC/Libraries/FWLIB/src\gd32f4xx_timer.c ****     \brief      disable the auto reload shadow function
 177:C:/Users/leonardo/Desktop/Code/Github/DawnBGC/Libraries/FWLIB/src\gd32f4xx_timer.c ****     \param[in]  timer_periph: TIMERx(x=0..13)
 178:C:/Users/leonardo/Desktop/Code/Github/DawnBGC/Libraries/FWLIB/src\gd32f4xx_timer.c ****     \param[out] none
 179:C:/Users/leonardo/Desktop/Code/Github/DawnBGC/Libraries/FWLIB/src\gd32f4xx_timer.c ****     \retval     none
 180:C:/Users/leonardo/Desktop/Code/Github/DawnBGC/Libraries/FWLIB/src\gd32f4xx_timer.c **** */
 181:C:/Users/leonardo/Desktop/Code/Github/DawnBGC/Libraries/FWLIB/src\gd32f4xx_timer.c **** void timer_auto_reload_shadow_disable(uint32_t timer_periph)
 182:C:/Users/leonardo/Desktop/Code/Github/DawnBGC/Libraries/FWLIB/src\gd32f4xx_timer.c **** {
 625              		.loc 1 182 1
 626              		.cfi_startproc
 627              		@ args = 0, pretend = 0, frame = 8
 628              		@ frame_needed = 1, uses_anonymous_args = 0
 629              		@ link register save eliminated.
 630 0000 80B4     		push	{r7}
 631              		.cfi_def_cfa_offset 4
 632              		.cfi_offset 7, -4
 633 0002 83B0     		sub	sp, sp, #12
 634              		.cfi_def_cfa_offset 16
 635 0004 00AF     		add	r7, sp, #0
 636              		.cfi_def_cfa_register 7
 637 0006 7860     		str	r0, [r7, #4]
 183:C:/Users/leonardo/Desktop/Code/Github/DawnBGC/Libraries/FWLIB/src\gd32f4xx_timer.c ****     TIMER_CTL0(timer_periph) &= ~(uint32_t)TIMER_CTL0_ARSE;
 638              		.loc 1 183 30
 639 0008 7B68     		ldr	r3, [r7, #4]
 640 000a 1A68     		ldr	r2, [r3]
 641 000c 7B68     		ldr	r3, [r7, #4]
 642 000e 22F08002 		bic	r2, r2, #128
 643 0012 1A60     		str	r2, [r3]
 184:C:/Users/leonardo/Desktop/Code/Github/DawnBGC/Libraries/FWLIB/src\gd32f4xx_timer.c **** }
 644              		.loc 1 184 1
 645 0014 00BF     		nop
 646 0016 0C37     		adds	r7, r7, #12
 647              		.cfi_def_cfa_offset 4
 648 0018 BD46     		mov	sp, r7
 649              		.cfi_def_cfa_register 13
 650              		@ sp needed
 651 001a 80BC     		pop	{r7}
 652              		.cfi_restore 7
 653              		.cfi_def_cfa_offset 0
 654 001c 7047     		bx	lr
 655              		.cfi_endproc
 656              	.LFE128:
 658              		.section	.text.timer_update_event_enable,"ax",%progbits
 659              		.align	1
 660              		.global	timer_update_event_enable
 661              		.syntax unified
 662              		.thumb
 663              		.thumb_func
 664              		.fpu softvfp
 666              	timer_update_event_enable:
 667              	.LFB129:
 185:C:/Users/leonardo/Desktop/Code/Github/DawnBGC/Libraries/FWLIB/src\gd32f4xx_timer.c **** 
 186:C:/Users/leonardo/Desktop/Code/Github/DawnBGC/Libraries/FWLIB/src\gd32f4xx_timer.c **** /*!
 187:C:/Users/leonardo/Desktop/Code/Github/DawnBGC/Libraries/FWLIB/src\gd32f4xx_timer.c ****     \brief      enable the update event
 188:C:/Users/leonardo/Desktop/Code/Github/DawnBGC/Libraries/FWLIB/src\gd32f4xx_timer.c ****     \param[in]  timer_periph: TIMERx(x=0..13)
 189:C:/Users/leonardo/Desktop/Code/Github/DawnBGC/Libraries/FWLIB/src\gd32f4xx_timer.c ****     \param[out] none
 190:C:/Users/leonardo/Desktop/Code/Github/DawnBGC/Libraries/FWLIB/src\gd32f4xx_timer.c ****     \retval     none
 191:C:/Users/leonardo/Desktop/Code/Github/DawnBGC/Libraries/FWLIB/src\gd32f4xx_timer.c **** */
 192:C:/Users/leonardo/Desktop/Code/Github/DawnBGC/Libraries/FWLIB/src\gd32f4xx_timer.c **** void timer_update_event_enable(uint32_t timer_periph)
 193:C:/Users/leonardo/Desktop/Code/Github/DawnBGC/Libraries/FWLIB/src\gd32f4xx_timer.c **** {
 668              		.loc 1 193 1
 669              		.cfi_startproc
 670              		@ args = 0, pretend = 0, frame = 8
 671              		@ frame_needed = 1, uses_anonymous_args = 0
 672              		@ link register save eliminated.
 673 0000 80B4     		push	{r7}
 674              		.cfi_def_cfa_offset 4
 675              		.cfi_offset 7, -4
 676 0002 83B0     		sub	sp, sp, #12
 677              		.cfi_def_cfa_offset 16
 678 0004 00AF     		add	r7, sp, #0
 679              		.cfi_def_cfa_register 7
 680 0006 7860     		str	r0, [r7, #4]
 194:C:/Users/leonardo/Desktop/Code/Github/DawnBGC/Libraries/FWLIB/src\gd32f4xx_timer.c ****     TIMER_CTL0(timer_periph) &= ~(uint32_t)TIMER_CTL0_UPDIS;
 681              		.loc 1 194 30
 682 0008 7B68     		ldr	r3, [r7, #4]
 683 000a 1A68     		ldr	r2, [r3]
 684 000c 7B68     		ldr	r3, [r7, #4]
 685 000e 22F00202 		bic	r2, r2, #2
 686 0012 1A60     		str	r2, [r3]
 195:C:/Users/leonardo/Desktop/Code/Github/DawnBGC/Libraries/FWLIB/src\gd32f4xx_timer.c **** }
 687              		.loc 1 195 1
 688 0014 00BF     		nop
 689 0016 0C37     		adds	r7, r7, #12
 690              		.cfi_def_cfa_offset 4
 691 0018 BD46     		mov	sp, r7
 692              		.cfi_def_cfa_register 13
 693              		@ sp needed
 694 001a 80BC     		pop	{r7}
 695              		.cfi_restore 7
 696              		.cfi_def_cfa_offset 0
 697 001c 7047     		bx	lr
 698              		.cfi_endproc
 699              	.LFE129:
 701              		.section	.text.timer_update_event_disable,"ax",%progbits
 702              		.align	1
 703              		.global	timer_update_event_disable
 704              		.syntax unified
 705              		.thumb
 706              		.thumb_func
 707              		.fpu softvfp
 709              	timer_update_event_disable:
 710              	.LFB130:
 196:C:/Users/leonardo/Desktop/Code/Github/DawnBGC/Libraries/FWLIB/src\gd32f4xx_timer.c **** 
 197:C:/Users/leonardo/Desktop/Code/Github/DawnBGC/Libraries/FWLIB/src\gd32f4xx_timer.c **** /*!
 198:C:/Users/leonardo/Desktop/Code/Github/DawnBGC/Libraries/FWLIB/src\gd32f4xx_timer.c ****     \brief      disable the update event
 199:C:/Users/leonardo/Desktop/Code/Github/DawnBGC/Libraries/FWLIB/src\gd32f4xx_timer.c ****     \param[in]  timer_periph: TIMERx(x=0..13)
 200:C:/Users/leonardo/Desktop/Code/Github/DawnBGC/Libraries/FWLIB/src\gd32f4xx_timer.c ****     \param[out] none
 201:C:/Users/leonardo/Desktop/Code/Github/DawnBGC/Libraries/FWLIB/src\gd32f4xx_timer.c ****     \retval     none
 202:C:/Users/leonardo/Desktop/Code/Github/DawnBGC/Libraries/FWLIB/src\gd32f4xx_timer.c **** */
 203:C:/Users/leonardo/Desktop/Code/Github/DawnBGC/Libraries/FWLIB/src\gd32f4xx_timer.c **** void timer_update_event_disable(uint32_t timer_periph)
 204:C:/Users/leonardo/Desktop/Code/Github/DawnBGC/Libraries/FWLIB/src\gd32f4xx_timer.c **** {
 711              		.loc 1 204 1
 712              		.cfi_startproc
 713              		@ args = 0, pretend = 0, frame = 8
 714              		@ frame_needed = 1, uses_anonymous_args = 0
 715              		@ link register save eliminated.
 716 0000 80B4     		push	{r7}
 717              		.cfi_def_cfa_offset 4
 718              		.cfi_offset 7, -4
 719 0002 83B0     		sub	sp, sp, #12
 720              		.cfi_def_cfa_offset 16
 721 0004 00AF     		add	r7, sp, #0
 722              		.cfi_def_cfa_register 7
 723 0006 7860     		str	r0, [r7, #4]
 205:C:/Users/leonardo/Desktop/Code/Github/DawnBGC/Libraries/FWLIB/src\gd32f4xx_timer.c ****     TIMER_CTL0(timer_periph) |= (uint32_t) TIMER_CTL0_UPDIS;
 724              		.loc 1 205 30
 725 0008 7B68     		ldr	r3, [r7, #4]
 726 000a 1A68     		ldr	r2, [r3]
 727 000c 7B68     		ldr	r3, [r7, #4]
 728 000e 42F00202 		orr	r2, r2, #2
 729 0012 1A60     		str	r2, [r3]
 206:C:/Users/leonardo/Desktop/Code/Github/DawnBGC/Libraries/FWLIB/src\gd32f4xx_timer.c **** }
 730              		.loc 1 206 1
 731 0014 00BF     		nop
 732 0016 0C37     		adds	r7, r7, #12
 733              		.cfi_def_cfa_offset 4
 734 0018 BD46     		mov	sp, r7
 735              		.cfi_def_cfa_register 13
 736              		@ sp needed
 737 001a 80BC     		pop	{r7}
 738              		.cfi_restore 7
 739              		.cfi_def_cfa_offset 0
 740 001c 7047     		bx	lr
 741              		.cfi_endproc
 742              	.LFE130:
 744              		.section	.text.timer_counter_alignment,"ax",%progbits
 745              		.align	1
 746              		.global	timer_counter_alignment
 747              		.syntax unified
 748              		.thumb
 749              		.thumb_func
 750              		.fpu softvfp
 752              	timer_counter_alignment:
 753              	.LFB131:
 207:C:/Users/leonardo/Desktop/Code/Github/DawnBGC/Libraries/FWLIB/src\gd32f4xx_timer.c **** 
 208:C:/Users/leonardo/Desktop/Code/Github/DawnBGC/Libraries/FWLIB/src\gd32f4xx_timer.c **** /*!
 209:C:/Users/leonardo/Desktop/Code/Github/DawnBGC/Libraries/FWLIB/src\gd32f4xx_timer.c ****     \brief      set TIMER counter alignment mode
 210:C:/Users/leonardo/Desktop/Code/Github/DawnBGC/Libraries/FWLIB/src\gd32f4xx_timer.c ****     \param[in]  timer_periph: TIMERx(x=0..4,7)
 211:C:/Users/leonardo/Desktop/Code/Github/DawnBGC/Libraries/FWLIB/src\gd32f4xx_timer.c ****     \param[in]  timer_aligned: 
 212:C:/Users/leonardo/Desktop/Code/Github/DawnBGC/Libraries/FWLIB/src\gd32f4xx_timer.c ****       \arg        TIMER_COUNTER_EDGE: edge-aligned mode
 213:C:/Users/leonardo/Desktop/Code/Github/DawnBGC/Libraries/FWLIB/src\gd32f4xx_timer.c ****       \arg        TIMER_COUNTER_CENTER_DOWN: center-aligned and counting down assert mode
 214:C:/Users/leonardo/Desktop/Code/Github/DawnBGC/Libraries/FWLIB/src\gd32f4xx_timer.c ****       \arg        TIMER_COUNTER_CENTER_UP: center-aligned and counting up assert mode
 215:C:/Users/leonardo/Desktop/Code/Github/DawnBGC/Libraries/FWLIB/src\gd32f4xx_timer.c ****       \arg        TIMER_COUNTER_CENTER_BOTH: center-aligned and counting up/down assert mode
 216:C:/Users/leonardo/Desktop/Code/Github/DawnBGC/Libraries/FWLIB/src\gd32f4xx_timer.c ****     \param[out] none
 217:C:/Users/leonardo/Desktop/Code/Github/DawnBGC/Libraries/FWLIB/src\gd32f4xx_timer.c ****     \retval     none
 218:C:/Users/leonardo/Desktop/Code/Github/DawnBGC/Libraries/FWLIB/src\gd32f4xx_timer.c **** */
 219:C:/Users/leonardo/Desktop/Code/Github/DawnBGC/Libraries/FWLIB/src\gd32f4xx_timer.c **** void timer_counter_alignment(uint32_t timer_periph,uint16_t timer_aligned)
 220:C:/Users/leonardo/Desktop/Code/Github/DawnBGC/Libraries/FWLIB/src\gd32f4xx_timer.c **** {
 754              		.loc 1 220 1
 755              		.cfi_startproc
 756              		@ args = 0, pretend = 0, frame = 8
 757              		@ frame_needed = 1, uses_anonymous_args = 0
 758              		@ link register save eliminated.
 759 0000 80B4     		push	{r7}
 760              		.cfi_def_cfa_offset 4
 761              		.cfi_offset 7, -4
 762 0002 83B0     		sub	sp, sp, #12
 763              		.cfi_def_cfa_offset 16
 764 0004 00AF     		add	r7, sp, #0
 765              		.cfi_def_cfa_register 7
 766 0006 7860     		str	r0, [r7, #4]
 767 0008 0B46     		mov	r3, r1
 768 000a 7B80     		strh	r3, [r7, #2]	@ movhi
 221:C:/Users/leonardo/Desktop/Code/Github/DawnBGC/Libraries/FWLIB/src\gd32f4xx_timer.c ****     TIMER_CTL0(timer_periph) &= ~(uint32_t)TIMER_CTL0_CAM;
 769              		.loc 1 221 30
 770 000c 7B68     		ldr	r3, [r7, #4]
 771 000e 1A68     		ldr	r2, [r3]
 772 0010 7B68     		ldr	r3, [r7, #4]
 773 0012 22F06002 		bic	r2, r2, #96
 774 0016 1A60     		str	r2, [r3]
 222:C:/Users/leonardo/Desktop/Code/Github/DawnBGC/Libraries/FWLIB/src\gd32f4xx_timer.c ****     TIMER_CTL0(timer_periph) |= (uint32_t)timer_aligned;
 775              		.loc 1 222 30
 776 0018 7B68     		ldr	r3, [r7, #4]
 777 001a 1968     		ldr	r1, [r3]
 778              		.loc 1 222 33
 779 001c 7A88     		ldrh	r2, [r7, #2]
 780              		.loc 1 222 30
 781 001e 7B68     		ldr	r3, [r7, #4]
 782 0020 0A43     		orrs	r2, r2, r1
 783 0022 1A60     		str	r2, [r3]
 223:C:/Users/leonardo/Desktop/Code/Github/DawnBGC/Libraries/FWLIB/src\gd32f4xx_timer.c **** }
 784              		.loc 1 223 1
 785 0024 00BF     		nop
 786 0026 0C37     		adds	r7, r7, #12
 787              		.cfi_def_cfa_offset 4
 788 0028 BD46     		mov	sp, r7
 789              		.cfi_def_cfa_register 13
 790              		@ sp needed
 791 002a 80BC     		pop	{r7}
 792              		.cfi_restore 7
 793              		.cfi_def_cfa_offset 0
 794 002c 7047     		bx	lr
 795              		.cfi_endproc
 796              	.LFE131:
 798              		.section	.text.timer_counter_up_direction,"ax",%progbits
 799              		.align	1
 800              		.global	timer_counter_up_direction
 801              		.syntax unified
 802              		.thumb
 803              		.thumb_func
 804              		.fpu softvfp
 806              	timer_counter_up_direction:
 807              	.LFB132:
 224:C:/Users/leonardo/Desktop/Code/Github/DawnBGC/Libraries/FWLIB/src\gd32f4xx_timer.c **** 
 225:C:/Users/leonardo/Desktop/Code/Github/DawnBGC/Libraries/FWLIB/src\gd32f4xx_timer.c **** /*!
 226:C:/Users/leonardo/Desktop/Code/Github/DawnBGC/Libraries/FWLIB/src\gd32f4xx_timer.c ****     \brief      set TIMER counter up direction
 227:C:/Users/leonardo/Desktop/Code/Github/DawnBGC/Libraries/FWLIB/src\gd32f4xx_timer.c ****     \param[in]  timer_periph: TIMERx(x=0..4,7)
 228:C:/Users/leonardo/Desktop/Code/Github/DawnBGC/Libraries/FWLIB/src\gd32f4xx_timer.c ****     \param[out] none
 229:C:/Users/leonardo/Desktop/Code/Github/DawnBGC/Libraries/FWLIB/src\gd32f4xx_timer.c ****     \retval     none
 230:C:/Users/leonardo/Desktop/Code/Github/DawnBGC/Libraries/FWLIB/src\gd32f4xx_timer.c **** */
 231:C:/Users/leonardo/Desktop/Code/Github/DawnBGC/Libraries/FWLIB/src\gd32f4xx_timer.c **** void timer_counter_up_direction(uint32_t timer_periph)
 232:C:/Users/leonardo/Desktop/Code/Github/DawnBGC/Libraries/FWLIB/src\gd32f4xx_timer.c **** {
 808              		.loc 1 232 1
 809              		.cfi_startproc
 810              		@ args = 0, pretend = 0, frame = 8
 811              		@ frame_needed = 1, uses_anonymous_args = 0
 812              		@ link register save eliminated.
 813 0000 80B4     		push	{r7}
 814              		.cfi_def_cfa_offset 4
 815              		.cfi_offset 7, -4
 816 0002 83B0     		sub	sp, sp, #12
 817              		.cfi_def_cfa_offset 16
 818 0004 00AF     		add	r7, sp, #0
 819              		.cfi_def_cfa_register 7
 820 0006 7860     		str	r0, [r7, #4]
 233:C:/Users/leonardo/Desktop/Code/Github/DawnBGC/Libraries/FWLIB/src\gd32f4xx_timer.c ****     TIMER_CTL0(timer_periph) &= ~(uint32_t)TIMER_CTL0_DIR;
 821              		.loc 1 233 30
 822 0008 7B68     		ldr	r3, [r7, #4]
 823 000a 1A68     		ldr	r2, [r3]
 824 000c 7B68     		ldr	r3, [r7, #4]
 825 000e 22F01002 		bic	r2, r2, #16
 826 0012 1A60     		str	r2, [r3]
 234:C:/Users/leonardo/Desktop/Code/Github/DawnBGC/Libraries/FWLIB/src\gd32f4xx_timer.c **** }
 827              		.loc 1 234 1
 828 0014 00BF     		nop
 829 0016 0C37     		adds	r7, r7, #12
 830              		.cfi_def_cfa_offset 4
 831 0018 BD46     		mov	sp, r7
 832              		.cfi_def_cfa_register 13
 833              		@ sp needed
 834 001a 80BC     		pop	{r7}
 835              		.cfi_restore 7
 836              		.cfi_def_cfa_offset 0
 837 001c 7047     		bx	lr
 838              		.cfi_endproc
 839              	.LFE132:
 841              		.section	.text.timer_counter_down_direction,"ax",%progbits
 842              		.align	1
 843              		.global	timer_counter_down_direction
 844              		.syntax unified
 845              		.thumb
 846              		.thumb_func
 847              		.fpu softvfp
 849              	timer_counter_down_direction:
 850              	.LFB133:
 235:C:/Users/leonardo/Desktop/Code/Github/DawnBGC/Libraries/FWLIB/src\gd32f4xx_timer.c **** 
 236:C:/Users/leonardo/Desktop/Code/Github/DawnBGC/Libraries/FWLIB/src\gd32f4xx_timer.c **** /*!
 237:C:/Users/leonardo/Desktop/Code/Github/DawnBGC/Libraries/FWLIB/src\gd32f4xx_timer.c ****     \brief      set TIMER counter down direction
 238:C:/Users/leonardo/Desktop/Code/Github/DawnBGC/Libraries/FWLIB/src\gd32f4xx_timer.c ****     \param[in]  timer_periph: TIMERx(x=0..4,7)
 239:C:/Users/leonardo/Desktop/Code/Github/DawnBGC/Libraries/FWLIB/src\gd32f4xx_timer.c ****     \param[out] none
 240:C:/Users/leonardo/Desktop/Code/Github/DawnBGC/Libraries/FWLIB/src\gd32f4xx_timer.c ****     \retval     none
 241:C:/Users/leonardo/Desktop/Code/Github/DawnBGC/Libraries/FWLIB/src\gd32f4xx_timer.c **** */
 242:C:/Users/leonardo/Desktop/Code/Github/DawnBGC/Libraries/FWLIB/src\gd32f4xx_timer.c **** void timer_counter_down_direction(uint32_t timer_periph)
 243:C:/Users/leonardo/Desktop/Code/Github/DawnBGC/Libraries/FWLIB/src\gd32f4xx_timer.c **** {
 851              		.loc 1 243 1
 852              		.cfi_startproc
 853              		@ args = 0, pretend = 0, frame = 8
 854              		@ frame_needed = 1, uses_anonymous_args = 0
 855              		@ link register save eliminated.
 856 0000 80B4     		push	{r7}
 857              		.cfi_def_cfa_offset 4
 858              		.cfi_offset 7, -4
 859 0002 83B0     		sub	sp, sp, #12
 860              		.cfi_def_cfa_offset 16
 861 0004 00AF     		add	r7, sp, #0
 862              		.cfi_def_cfa_register 7
 863 0006 7860     		str	r0, [r7, #4]
 244:C:/Users/leonardo/Desktop/Code/Github/DawnBGC/Libraries/FWLIB/src\gd32f4xx_timer.c ****     TIMER_CTL0(timer_periph) |= (uint32_t)TIMER_CTL0_DIR;
 864              		.loc 1 244 30
 865 0008 7B68     		ldr	r3, [r7, #4]
 866 000a 1A68     		ldr	r2, [r3]
 867 000c 7B68     		ldr	r3, [r7, #4]
 868 000e 42F01002 		orr	r2, r2, #16
 869 0012 1A60     		str	r2, [r3]
 245:C:/Users/leonardo/Desktop/Code/Github/DawnBGC/Libraries/FWLIB/src\gd32f4xx_timer.c **** }
 870              		.loc 1 245 1
 871 0014 00BF     		nop
 872 0016 0C37     		adds	r7, r7, #12
 873              		.cfi_def_cfa_offset 4
 874 0018 BD46     		mov	sp, r7
 875              		.cfi_def_cfa_register 13
 876              		@ sp needed
 877 001a 80BC     		pop	{r7}
 878              		.cfi_restore 7
 879              		.cfi_def_cfa_offset 0
 880 001c 7047     		bx	lr
 881              		.cfi_endproc
 882              	.LFE133:
 884              		.section	.text.timer_prescaler_config,"ax",%progbits
 885              		.align	1
 886              		.global	timer_prescaler_config
 887              		.syntax unified
 888              		.thumb
 889              		.thumb_func
 890              		.fpu softvfp
 892              	timer_prescaler_config:
 893              	.LFB134:
 246:C:/Users/leonardo/Desktop/Code/Github/DawnBGC/Libraries/FWLIB/src\gd32f4xx_timer.c **** 
 247:C:/Users/leonardo/Desktop/Code/Github/DawnBGC/Libraries/FWLIB/src\gd32f4xx_timer.c **** /*!
 248:C:/Users/leonardo/Desktop/Code/Github/DawnBGC/Libraries/FWLIB/src\gd32f4xx_timer.c ****     \brief      configure TIMER prescaler
 249:C:/Users/leonardo/Desktop/Code/Github/DawnBGC/Libraries/FWLIB/src\gd32f4xx_timer.c ****     \param[in]  timer_periph: TIMERx(x=0..13)
 250:C:/Users/leonardo/Desktop/Code/Github/DawnBGC/Libraries/FWLIB/src\gd32f4xx_timer.c ****     \param[in]  timer_prescaler: prescaler value
 251:C:/Users/leonardo/Desktop/Code/Github/DawnBGC/Libraries/FWLIB/src\gd32f4xx_timer.c ****     \param[in]  timer_pscreload: prescaler reload mode
 252:C:/Users/leonardo/Desktop/Code/Github/DawnBGC/Libraries/FWLIB/src\gd32f4xx_timer.c ****       \arg        TIMER_PSC_RELOAD_NOW: the prescaler is loaded right now
 253:C:/Users/leonardo/Desktop/Code/Github/DawnBGC/Libraries/FWLIB/src\gd32f4xx_timer.c ****       \arg        TIMER_PSC_RELOAD_UPDATE: the prescaler is loaded at the next update event
 254:C:/Users/leonardo/Desktop/Code/Github/DawnBGC/Libraries/FWLIB/src\gd32f4xx_timer.c ****     \param[out] none
 255:C:/Users/leonardo/Desktop/Code/Github/DawnBGC/Libraries/FWLIB/src\gd32f4xx_timer.c ****     \retval     none
 256:C:/Users/leonardo/Desktop/Code/Github/DawnBGC/Libraries/FWLIB/src\gd32f4xx_timer.c **** */
 257:C:/Users/leonardo/Desktop/Code/Github/DawnBGC/Libraries/FWLIB/src\gd32f4xx_timer.c **** void timer_prescaler_config(uint32_t timer_periph,uint16_t timer_prescaler,uint8_t timer_pscreload)
 258:C:/Users/leonardo/Desktop/Code/Github/DawnBGC/Libraries/FWLIB/src\gd32f4xx_timer.c **** {
 894              		.loc 1 258 1
 895              		.cfi_startproc
 896              		@ args = 0, pretend = 0, frame = 8
 897              		@ frame_needed = 1, uses_anonymous_args = 0
 898              		@ link register save eliminated.
 899 0000 80B4     		push	{r7}
 900              		.cfi_def_cfa_offset 4
 901              		.cfi_offset 7, -4
 902 0002 83B0     		sub	sp, sp, #12
 903              		.cfi_def_cfa_offset 16
 904 0004 00AF     		add	r7, sp, #0
 905              		.cfi_def_cfa_register 7
 906 0006 7860     		str	r0, [r7, #4]
 907 0008 0B46     		mov	r3, r1
 908 000a 7B80     		strh	r3, [r7, #2]	@ movhi
 909 000c 1346     		mov	r3, r2
 910 000e 7B70     		strb	r3, [r7, #1]
 259:C:/Users/leonardo/Desktop/Code/Github/DawnBGC/Libraries/FWLIB/src\gd32f4xx_timer.c ****     TIMER_PSC(timer_periph) = (uint32_t)timer_prescaler;
 911              		.loc 1 259 5
 912 0010 7B68     		ldr	r3, [r7, #4]
 913 0012 2833     		adds	r3, r3, #40
 914 0014 1A46     		mov	r2, r3
 915              		.loc 1 259 31
 916 0016 7B88     		ldrh	r3, [r7, #2]
 917              		.loc 1 259 29
 918 0018 1360     		str	r3, [r2]
 260:C:/Users/leonardo/Desktop/Code/Github/DawnBGC/Libraries/FWLIB/src\gd32f4xx_timer.c ****     
 261:C:/Users/leonardo/Desktop/Code/Github/DawnBGC/Libraries/FWLIB/src\gd32f4xx_timer.c ****     if(TIMER_PSC_RELOAD_NOW == timer_pscreload){
 919              		.loc 1 261 7
 920 001a 7B78     		ldrb	r3, [r7, #1]	@ zero_extendqisi2
 921 001c 002B     		cmp	r3, #0
 922 001e 07D1     		bne	.L40
 262:C:/Users/leonardo/Desktop/Code/Github/DawnBGC/Libraries/FWLIB/src\gd32f4xx_timer.c ****         TIMER_SWEVG(timer_periph) |= (uint32_t)TIMER_SWEVG_UPG;
 923              		.loc 1 262 35
 924 0020 7B68     		ldr	r3, [r7, #4]
 925 0022 1433     		adds	r3, r3, #20
 926 0024 1B68     		ldr	r3, [r3]
 927 0026 7A68     		ldr	r2, [r7, #4]
 928 0028 1432     		adds	r2, r2, #20
 929 002a 43F00103 		orr	r3, r3, #1
 930 002e 1360     		str	r3, [r2]
 931              	.L40:
 263:C:/Users/leonardo/Desktop/Code/Github/DawnBGC/Libraries/FWLIB/src\gd32f4xx_timer.c ****     }
 264:C:/Users/leonardo/Desktop/Code/Github/DawnBGC/Libraries/FWLIB/src\gd32f4xx_timer.c **** }
 932              		.loc 1 264 1
 933 0030 00BF     		nop
 934 0032 0C37     		adds	r7, r7, #12
 935              		.cfi_def_cfa_offset 4
 936 0034 BD46     		mov	sp, r7
 937              		.cfi_def_cfa_register 13
 938              		@ sp needed
 939 0036 80BC     		pop	{r7}
 940              		.cfi_restore 7
 941              		.cfi_def_cfa_offset 0
 942 0038 7047     		bx	lr
 943              		.cfi_endproc
 944              	.LFE134:
 946              		.section	.text.timer_repetition_value_config,"ax",%progbits
 947              		.align	1
 948              		.global	timer_repetition_value_config
 949              		.syntax unified
 950              		.thumb
 951              		.thumb_func
 952              		.fpu softvfp
 954              	timer_repetition_value_config:
 955              	.LFB135:
 265:C:/Users/leonardo/Desktop/Code/Github/DawnBGC/Libraries/FWLIB/src\gd32f4xx_timer.c **** 
 266:C:/Users/leonardo/Desktop/Code/Github/DawnBGC/Libraries/FWLIB/src\gd32f4xx_timer.c **** /*!
 267:C:/Users/leonardo/Desktop/Code/Github/DawnBGC/Libraries/FWLIB/src\gd32f4xx_timer.c ****     \brief      configure TIMER repetition register value
 268:C:/Users/leonardo/Desktop/Code/Github/DawnBGC/Libraries/FWLIB/src\gd32f4xx_timer.c ****     \param[in]  timer_periph: TIMERx(x=0,7)
 269:C:/Users/leonardo/Desktop/Code/Github/DawnBGC/Libraries/FWLIB/src\gd32f4xx_timer.c ****     \param[in]  timer_repetition: the counter repetition value,0~255
 270:C:/Users/leonardo/Desktop/Code/Github/DawnBGC/Libraries/FWLIB/src\gd32f4xx_timer.c ****     \param[out] none
 271:C:/Users/leonardo/Desktop/Code/Github/DawnBGC/Libraries/FWLIB/src\gd32f4xx_timer.c ****     \retval     none
 272:C:/Users/leonardo/Desktop/Code/Github/DawnBGC/Libraries/FWLIB/src\gd32f4xx_timer.c **** */
 273:C:/Users/leonardo/Desktop/Code/Github/DawnBGC/Libraries/FWLIB/src\gd32f4xx_timer.c **** void timer_repetition_value_config(uint32_t timer_periph,uint16_t timer_repetition)
 274:C:/Users/leonardo/Desktop/Code/Github/DawnBGC/Libraries/FWLIB/src\gd32f4xx_timer.c **** {
 956              		.loc 1 274 1
 957              		.cfi_startproc
 958              		@ args = 0, pretend = 0, frame = 8
 959              		@ frame_needed = 1, uses_anonymous_args = 0
 960              		@ link register save eliminated.
 961 0000 80B4     		push	{r7}
 962              		.cfi_def_cfa_offset 4
 963              		.cfi_offset 7, -4
 964 0002 83B0     		sub	sp, sp, #12
 965              		.cfi_def_cfa_offset 16
 966 0004 00AF     		add	r7, sp, #0
 967              		.cfi_def_cfa_register 7
 968 0006 7860     		str	r0, [r7, #4]
 969 0008 0B46     		mov	r3, r1
 970 000a 7B80     		strh	r3, [r7, #2]	@ movhi
 275:C:/Users/leonardo/Desktop/Code/Github/DawnBGC/Libraries/FWLIB/src\gd32f4xx_timer.c ****     TIMER_CREP(timer_periph) = (uint32_t)timer_repetition;
 971              		.loc 1 275 5
 972 000c 7B68     		ldr	r3, [r7, #4]
 973 000e 3033     		adds	r3, r3, #48
 974 0010 1A46     		mov	r2, r3
 975              		.loc 1 275 32
 976 0012 7B88     		ldrh	r3, [r7, #2]
 977              		.loc 1 275 30
 978 0014 1360     		str	r3, [r2]
 276:C:/Users/leonardo/Desktop/Code/Github/DawnBGC/Libraries/FWLIB/src\gd32f4xx_timer.c **** } 
 979              		.loc 1 276 1
 980 0016 00BF     		nop
 981 0018 0C37     		adds	r7, r7, #12
 982              		.cfi_def_cfa_offset 4
 983 001a BD46     		mov	sp, r7
 984              		.cfi_def_cfa_register 13
 985              		@ sp needed
 986 001c 80BC     		pop	{r7}
 987              		.cfi_restore 7
 988              		.cfi_def_cfa_offset 0
 989 001e 7047     		bx	lr
 990              		.cfi_endproc
 991              	.LFE135:
 993              		.section	.text.timer_autoreload_value_config,"ax",%progbits
 994              		.align	1
 995              		.global	timer_autoreload_value_config
 996              		.syntax unified
 997              		.thumb
 998              		.thumb_func
 999              		.fpu softvfp
 1001              	timer_autoreload_value_config:
 1002              	.LFB136:
 277:C:/Users/leonardo/Desktop/Code/Github/DawnBGC/Libraries/FWLIB/src\gd32f4xx_timer.c ****  
 278:C:/Users/leonardo/Desktop/Code/Github/DawnBGC/Libraries/FWLIB/src\gd32f4xx_timer.c **** /*!
 279:C:/Users/leonardo/Desktop/Code/Github/DawnBGC/Libraries/FWLIB/src\gd32f4xx_timer.c ****     \brief      configure TIMER autoreload register value
 280:C:/Users/leonardo/Desktop/Code/Github/DawnBGC/Libraries/FWLIB/src\gd32f4xx_timer.c ****     \param[in]  timer_periph: TIMERx(x=0..13)
 281:C:/Users/leonardo/Desktop/Code/Github/DawnBGC/Libraries/FWLIB/src\gd32f4xx_timer.c ****     \param[in]  timer_autoreload: the counter auto-reload value
 282:C:/Users/leonardo/Desktop/Code/Github/DawnBGC/Libraries/FWLIB/src\gd32f4xx_timer.c ****     \param[out] none
 283:C:/Users/leonardo/Desktop/Code/Github/DawnBGC/Libraries/FWLIB/src\gd32f4xx_timer.c ****     \retval     none
 284:C:/Users/leonardo/Desktop/Code/Github/DawnBGC/Libraries/FWLIB/src\gd32f4xx_timer.c **** */         
 285:C:/Users/leonardo/Desktop/Code/Github/DawnBGC/Libraries/FWLIB/src\gd32f4xx_timer.c **** void timer_autoreload_value_config(uint32_t timer_periph,uint32_t timer_autoreload)
 286:C:/Users/leonardo/Desktop/Code/Github/DawnBGC/Libraries/FWLIB/src\gd32f4xx_timer.c **** {
 1003              		.loc 1 286 1
 1004              		.cfi_startproc
 1005              		@ args = 0, pretend = 0, frame = 8
 1006              		@ frame_needed = 1, uses_anonymous_args = 0
 1007              		@ link register save eliminated.
 1008 0000 80B4     		push	{r7}
 1009              		.cfi_def_cfa_offset 4
 1010              		.cfi_offset 7, -4
 1011 0002 83B0     		sub	sp, sp, #12
 1012              		.cfi_def_cfa_offset 16
 1013 0004 00AF     		add	r7, sp, #0
 1014              		.cfi_def_cfa_register 7
 1015 0006 7860     		str	r0, [r7, #4]
 1016 0008 3960     		str	r1, [r7]
 287:C:/Users/leonardo/Desktop/Code/Github/DawnBGC/Libraries/FWLIB/src\gd32f4xx_timer.c ****     TIMER_CAR(timer_periph) = (uint32_t)timer_autoreload;
 1017              		.loc 1 287 5
 1018 000a 7B68     		ldr	r3, [r7, #4]
 1019 000c 2C33     		adds	r3, r3, #44
 1020 000e 1A46     		mov	r2, r3
 1021              		.loc 1 287 29
 1022 0010 3B68     		ldr	r3, [r7]
 1023 0012 1360     		str	r3, [r2]
 288:C:/Users/leonardo/Desktop/Code/Github/DawnBGC/Libraries/FWLIB/src\gd32f4xx_timer.c **** }
 1024              		.loc 1 288 1
 1025 0014 00BF     		nop
 1026 0016 0C37     		adds	r7, r7, #12
 1027              		.cfi_def_cfa_offset 4
 1028 0018 BD46     		mov	sp, r7
 1029              		.cfi_def_cfa_register 13
 1030              		@ sp needed
 1031 001a 80BC     		pop	{r7}
 1032              		.cfi_restore 7
 1033              		.cfi_def_cfa_offset 0
 1034 001c 7047     		bx	lr
 1035              		.cfi_endproc
 1036              	.LFE136:
 1038              		.section	.text.timer_counter_value_config,"ax",%progbits
 1039              		.align	1
 1040              		.global	timer_counter_value_config
 1041              		.syntax unified
 1042              		.thumb
 1043              		.thumb_func
 1044              		.fpu softvfp
 1046              	timer_counter_value_config:
 1047              	.LFB137:
 289:C:/Users/leonardo/Desktop/Code/Github/DawnBGC/Libraries/FWLIB/src\gd32f4xx_timer.c **** 
 290:C:/Users/leonardo/Desktop/Code/Github/DawnBGC/Libraries/FWLIB/src\gd32f4xx_timer.c **** /*!
 291:C:/Users/leonardo/Desktop/Code/Github/DawnBGC/Libraries/FWLIB/src\gd32f4xx_timer.c ****     \brief      configure TIMER counter register value
 292:C:/Users/leonardo/Desktop/Code/Github/DawnBGC/Libraries/FWLIB/src\gd32f4xx_timer.c ****     \param[in]  timer_periph: TIMERx(x=0..13)
 293:C:/Users/leonardo/Desktop/Code/Github/DawnBGC/Libraries/FWLIB/src\gd32f4xx_timer.c ****     \param[in]  timer_counter: the counter value
 294:C:/Users/leonardo/Desktop/Code/Github/DawnBGC/Libraries/FWLIB/src\gd32f4xx_timer.c ****     \param[out] none
 295:C:/Users/leonardo/Desktop/Code/Github/DawnBGC/Libraries/FWLIB/src\gd32f4xx_timer.c ****     \retval     none
 296:C:/Users/leonardo/Desktop/Code/Github/DawnBGC/Libraries/FWLIB/src\gd32f4xx_timer.c **** */         
 297:C:/Users/leonardo/Desktop/Code/Github/DawnBGC/Libraries/FWLIB/src\gd32f4xx_timer.c **** void timer_counter_value_config(uint32_t timer_periph , uint32_t timer_counter)
 298:C:/Users/leonardo/Desktop/Code/Github/DawnBGC/Libraries/FWLIB/src\gd32f4xx_timer.c **** {
 1048              		.loc 1 298 1
 1049              		.cfi_startproc
 1050              		@ args = 0, pretend = 0, frame = 8
 1051              		@ frame_needed = 1, uses_anonymous_args = 0
 1052              		@ link register save eliminated.
 1053 0000 80B4     		push	{r7}
 1054              		.cfi_def_cfa_offset 4
 1055              		.cfi_offset 7, -4
 1056 0002 83B0     		sub	sp, sp, #12
 1057              		.cfi_def_cfa_offset 16
 1058 0004 00AF     		add	r7, sp, #0
 1059              		.cfi_def_cfa_register 7
 1060 0006 7860     		str	r0, [r7, #4]
 1061 0008 3960     		str	r1, [r7]
 299:C:/Users/leonardo/Desktop/Code/Github/DawnBGC/Libraries/FWLIB/src\gd32f4xx_timer.c ****     TIMER_CNT(timer_periph) = (uint32_t)timer_counter;
 1062              		.loc 1 299 5
 1063 000a 7B68     		ldr	r3, [r7, #4]
 1064 000c 2433     		adds	r3, r3, #36
 1065 000e 1A46     		mov	r2, r3
 1066              		.loc 1 299 29
 1067 0010 3B68     		ldr	r3, [r7]
 1068 0012 1360     		str	r3, [r2]
 300:C:/Users/leonardo/Desktop/Code/Github/DawnBGC/Libraries/FWLIB/src\gd32f4xx_timer.c **** }
 1069              		.loc 1 300 1
 1070 0014 00BF     		nop
 1071 0016 0C37     		adds	r7, r7, #12
 1072              		.cfi_def_cfa_offset 4
 1073 0018 BD46     		mov	sp, r7
 1074              		.cfi_def_cfa_register 13
 1075              		@ sp needed
 1076 001a 80BC     		pop	{r7}
 1077              		.cfi_restore 7
 1078              		.cfi_def_cfa_offset 0
 1079 001c 7047     		bx	lr
 1080              		.cfi_endproc
 1081              	.LFE137:
 1083              		.section	.text.timer_counter_read,"ax",%progbits
 1084              		.align	1
 1085              		.global	timer_counter_read
 1086              		.syntax unified
 1087              		.thumb
 1088              		.thumb_func
 1089              		.fpu softvfp
 1091              	timer_counter_read:
 1092              	.LFB138:
 301:C:/Users/leonardo/Desktop/Code/Github/DawnBGC/Libraries/FWLIB/src\gd32f4xx_timer.c **** 
 302:C:/Users/leonardo/Desktop/Code/Github/DawnBGC/Libraries/FWLIB/src\gd32f4xx_timer.c **** /*!
 303:C:/Users/leonardo/Desktop/Code/Github/DawnBGC/Libraries/FWLIB/src\gd32f4xx_timer.c ****     \brief      read TIMER counter value
 304:C:/Users/leonardo/Desktop/Code/Github/DawnBGC/Libraries/FWLIB/src\gd32f4xx_timer.c ****     \param[in]  timer_periph: TIMERx(x=0..13)
 305:C:/Users/leonardo/Desktop/Code/Github/DawnBGC/Libraries/FWLIB/src\gd32f4xx_timer.c ****     \param[out] none
 306:C:/Users/leonardo/Desktop/Code/Github/DawnBGC/Libraries/FWLIB/src\gd32f4xx_timer.c ****     \retval     counter value
 307:C:/Users/leonardo/Desktop/Code/Github/DawnBGC/Libraries/FWLIB/src\gd32f4xx_timer.c **** */         
 308:C:/Users/leonardo/Desktop/Code/Github/DawnBGC/Libraries/FWLIB/src\gd32f4xx_timer.c **** uint32_t timer_counter_read(uint32_t timer_periph)
 309:C:/Users/leonardo/Desktop/Code/Github/DawnBGC/Libraries/FWLIB/src\gd32f4xx_timer.c **** {
 1093              		.loc 1 309 1
 1094              		.cfi_startproc
 1095              		@ args = 0, pretend = 0, frame = 16
 1096              		@ frame_needed = 1, uses_anonymous_args = 0
 1097              		@ link register save eliminated.
 1098 0000 80B4     		push	{r7}
 1099              		.cfi_def_cfa_offset 4
 1100              		.cfi_offset 7, -4
 1101 0002 85B0     		sub	sp, sp, #20
 1102              		.cfi_def_cfa_offset 24
 1103 0004 00AF     		add	r7, sp, #0
 1104              		.cfi_def_cfa_register 7
 1105 0006 7860     		str	r0, [r7, #4]
 310:C:/Users/leonardo/Desktop/Code/Github/DawnBGC/Libraries/FWLIB/src\gd32f4xx_timer.c ****     uint32_t count_value = 0U;
 1106              		.loc 1 310 14
 1107 0008 0023     		movs	r3, #0
 1108 000a FB60     		str	r3, [r7, #12]
 311:C:/Users/leonardo/Desktop/Code/Github/DawnBGC/Libraries/FWLIB/src\gd32f4xx_timer.c ****     count_value = TIMER_CNT(timer_periph);
 1109              		.loc 1 311 19
 1110 000c 7B68     		ldr	r3, [r7, #4]
 1111 000e 2433     		adds	r3, r3, #36
 1112              		.loc 1 311 17
 1113 0010 1B68     		ldr	r3, [r3]
 1114 0012 FB60     		str	r3, [r7, #12]
 312:C:/Users/leonardo/Desktop/Code/Github/DawnBGC/Libraries/FWLIB/src\gd32f4xx_timer.c ****     return (count_value);
 1115              		.loc 1 312 12
 1116 0014 FB68     		ldr	r3, [r7, #12]
 313:C:/Users/leonardo/Desktop/Code/Github/DawnBGC/Libraries/FWLIB/src\gd32f4xx_timer.c **** }
 1117              		.loc 1 313 1
 1118 0016 1846     		mov	r0, r3
 1119 0018 1437     		adds	r7, r7, #20
 1120              		.cfi_def_cfa_offset 4
 1121 001a BD46     		mov	sp, r7
 1122              		.cfi_def_cfa_register 13
 1123              		@ sp needed
 1124 001c 80BC     		pop	{r7}
 1125              		.cfi_restore 7
 1126              		.cfi_def_cfa_offset 0
 1127 001e 7047     		bx	lr
 1128              		.cfi_endproc
 1129              	.LFE138:
 1131              		.section	.text.timer_prescaler_read,"ax",%progbits
 1132              		.align	1
 1133              		.global	timer_prescaler_read
 1134              		.syntax unified
 1135              		.thumb
 1136              		.thumb_func
 1137              		.fpu softvfp
 1139              	timer_prescaler_read:
 1140              	.LFB139:
 314:C:/Users/leonardo/Desktop/Code/Github/DawnBGC/Libraries/FWLIB/src\gd32f4xx_timer.c **** 
 315:C:/Users/leonardo/Desktop/Code/Github/DawnBGC/Libraries/FWLIB/src\gd32f4xx_timer.c **** /*!
 316:C:/Users/leonardo/Desktop/Code/Github/DawnBGC/Libraries/FWLIB/src\gd32f4xx_timer.c ****     \brief      read TIMER prescaler value
 317:C:/Users/leonardo/Desktop/Code/Github/DawnBGC/Libraries/FWLIB/src\gd32f4xx_timer.c ****     \param[in]  timer_periph: TIMERx(x=0..13)
 318:C:/Users/leonardo/Desktop/Code/Github/DawnBGC/Libraries/FWLIB/src\gd32f4xx_timer.c ****     \param[out] none
 319:C:/Users/leonardo/Desktop/Code/Github/DawnBGC/Libraries/FWLIB/src\gd32f4xx_timer.c ****     \retval     prescaler register value
 320:C:/Users/leonardo/Desktop/Code/Github/DawnBGC/Libraries/FWLIB/src\gd32f4xx_timer.c **** */         
 321:C:/Users/leonardo/Desktop/Code/Github/DawnBGC/Libraries/FWLIB/src\gd32f4xx_timer.c **** uint16_t timer_prescaler_read(uint32_t timer_periph)
 322:C:/Users/leonardo/Desktop/Code/Github/DawnBGC/Libraries/FWLIB/src\gd32f4xx_timer.c **** {
 1141              		.loc 1 322 1
 1142              		.cfi_startproc
 1143              		@ args = 0, pretend = 0, frame = 16
 1144              		@ frame_needed = 1, uses_anonymous_args = 0
 1145              		@ link register save eliminated.
 1146 0000 80B4     		push	{r7}
 1147              		.cfi_def_cfa_offset 4
 1148              		.cfi_offset 7, -4
 1149 0002 85B0     		sub	sp, sp, #20
 1150              		.cfi_def_cfa_offset 24
 1151 0004 00AF     		add	r7, sp, #0
 1152              		.cfi_def_cfa_register 7
 1153 0006 7860     		str	r0, [r7, #4]
 323:C:/Users/leonardo/Desktop/Code/Github/DawnBGC/Libraries/FWLIB/src\gd32f4xx_timer.c ****     uint16_t prescaler_value = 0U;
 1154              		.loc 1 323 14
 1155 0008 0023     		movs	r3, #0
 1156 000a FB81     		strh	r3, [r7, #14]	@ movhi
 324:C:/Users/leonardo/Desktop/Code/Github/DawnBGC/Libraries/FWLIB/src\gd32f4xx_timer.c ****     prescaler_value = (uint16_t)(TIMER_CAR(timer_periph));
 1157              		.loc 1 324 34
 1158 000c 7B68     		ldr	r3, [r7, #4]
 1159 000e 2C33     		adds	r3, r3, #44
 1160 0010 1B68     		ldr	r3, [r3]
 1161              		.loc 1 324 21
 1162 0012 FB81     		strh	r3, [r7, #14]	@ movhi
 325:C:/Users/leonardo/Desktop/Code/Github/DawnBGC/Libraries/FWLIB/src\gd32f4xx_timer.c ****     return (prescaler_value);
 1163              		.loc 1 325 12
 1164 0014 FB89     		ldrh	r3, [r7, #14]
 326:C:/Users/leonardo/Desktop/Code/Github/DawnBGC/Libraries/FWLIB/src\gd32f4xx_timer.c **** }
 1165              		.loc 1 326 1
 1166 0016 1846     		mov	r0, r3
 1167 0018 1437     		adds	r7, r7, #20
 1168              		.cfi_def_cfa_offset 4
 1169 001a BD46     		mov	sp, r7
 1170              		.cfi_def_cfa_register 13
 1171              		@ sp needed
 1172 001c 80BC     		pop	{r7}
 1173              		.cfi_restore 7
 1174              		.cfi_def_cfa_offset 0
 1175 001e 7047     		bx	lr
 1176              		.cfi_endproc
 1177              	.LFE139:
 1179              		.section	.text.timer_single_pulse_mode_config,"ax",%progbits
 1180              		.align	1
 1181              		.global	timer_single_pulse_mode_config
 1182              		.syntax unified
 1183              		.thumb
 1184              		.thumb_func
 1185              		.fpu softvfp
 1187              	timer_single_pulse_mode_config:
 1188              	.LFB140:
 327:C:/Users/leonardo/Desktop/Code/Github/DawnBGC/Libraries/FWLIB/src\gd32f4xx_timer.c **** 
 328:C:/Users/leonardo/Desktop/Code/Github/DawnBGC/Libraries/FWLIB/src\gd32f4xx_timer.c **** /*!
 329:C:/Users/leonardo/Desktop/Code/Github/DawnBGC/Libraries/FWLIB/src\gd32f4xx_timer.c ****     \brief      configure TIMER single pulse mode
 330:C:/Users/leonardo/Desktop/Code/Github/DawnBGC/Libraries/FWLIB/src\gd32f4xx_timer.c ****     \param[in]  timer_periph: TIMERx(x=0..8,11)
 331:C:/Users/leonardo/Desktop/Code/Github/DawnBGC/Libraries/FWLIB/src\gd32f4xx_timer.c ****     \param[in]  timer_spmode: 
 332:C:/Users/leonardo/Desktop/Code/Github/DawnBGC/Libraries/FWLIB/src\gd32f4xx_timer.c ****       \arg        TIMER_SP_MODE_SINGLE: single pulse mode
 333:C:/Users/leonardo/Desktop/Code/Github/DawnBGC/Libraries/FWLIB/src\gd32f4xx_timer.c ****       \arg        TIMER_SP_MODE_REPETITIVE: repetitive pulse mode
 334:C:/Users/leonardo/Desktop/Code/Github/DawnBGC/Libraries/FWLIB/src\gd32f4xx_timer.c ****     \param[out] none
 335:C:/Users/leonardo/Desktop/Code/Github/DawnBGC/Libraries/FWLIB/src\gd32f4xx_timer.c ****     \retval     none
 336:C:/Users/leonardo/Desktop/Code/Github/DawnBGC/Libraries/FWLIB/src\gd32f4xx_timer.c **** */
 337:C:/Users/leonardo/Desktop/Code/Github/DawnBGC/Libraries/FWLIB/src\gd32f4xx_timer.c **** void timer_single_pulse_mode_config(uint32_t timer_periph,uint8_t timer_spmode)
 338:C:/Users/leonardo/Desktop/Code/Github/DawnBGC/Libraries/FWLIB/src\gd32f4xx_timer.c **** {
 1189              		.loc 1 338 1
 1190              		.cfi_startproc
 1191              		@ args = 0, pretend = 0, frame = 8
 1192              		@ frame_needed = 1, uses_anonymous_args = 0
 1193              		@ link register save eliminated.
 1194 0000 80B4     		push	{r7}
 1195              		.cfi_def_cfa_offset 4
 1196              		.cfi_offset 7, -4
 1197 0002 83B0     		sub	sp, sp, #12
 1198              		.cfi_def_cfa_offset 16
 1199 0004 00AF     		add	r7, sp, #0
 1200              		.cfi_def_cfa_register 7
 1201 0006 7860     		str	r0, [r7, #4]
 1202 0008 0B46     		mov	r3, r1
 1203 000a FB70     		strb	r3, [r7, #3]
 339:C:/Users/leonardo/Desktop/Code/Github/DawnBGC/Libraries/FWLIB/src\gd32f4xx_timer.c ****     if(TIMER_SP_MODE_SINGLE == timer_spmode){
 1204              		.loc 1 339 7
 1205 000c FB78     		ldrb	r3, [r7, #3]	@ zero_extendqisi2
 1206 000e 002B     		cmp	r3, #0
 1207 0010 06D1     		bne	.L49
 340:C:/Users/leonardo/Desktop/Code/Github/DawnBGC/Libraries/FWLIB/src\gd32f4xx_timer.c ****         TIMER_CTL0(timer_periph) |= (uint32_t)TIMER_CTL0_SPM;
 1208              		.loc 1 340 34
 1209 0012 7B68     		ldr	r3, [r7, #4]
 1210 0014 1A68     		ldr	r2, [r3]
 1211 0016 7B68     		ldr	r3, [r7, #4]
 1212 0018 42F00802 		orr	r2, r2, #8
 1213 001c 1A60     		str	r2, [r3]
 341:C:/Users/leonardo/Desktop/Code/Github/DawnBGC/Libraries/FWLIB/src\gd32f4xx_timer.c ****     }else if(TIMER_SP_MODE_REPETITIVE == timer_spmode){
 342:C:/Users/leonardo/Desktop/Code/Github/DawnBGC/Libraries/FWLIB/src\gd32f4xx_timer.c ****         TIMER_CTL0(timer_periph) &= ~((uint32_t)TIMER_CTL0_SPM);
 343:C:/Users/leonardo/Desktop/Code/Github/DawnBGC/Libraries/FWLIB/src\gd32f4xx_timer.c ****     }else{
 344:C:/Users/leonardo/Desktop/Code/Github/DawnBGC/Libraries/FWLIB/src\gd32f4xx_timer.c ****     }
 345:C:/Users/leonardo/Desktop/Code/Github/DawnBGC/Libraries/FWLIB/src\gd32f4xx_timer.c **** }
 1214              		.loc 1 345 1
 1215 001e 08E0     		b	.L51
 1216              	.L49:
 341:C:/Users/leonardo/Desktop/Code/Github/DawnBGC/Libraries/FWLIB/src\gd32f4xx_timer.c ****     }else if(TIMER_SP_MODE_REPETITIVE == timer_spmode){
 1217              		.loc 1 341 13
 1218 0020 FB78     		ldrb	r3, [r7, #3]	@ zero_extendqisi2
 1219 0022 012B     		cmp	r3, #1
 1220 0024 05D1     		bne	.L51
 342:C:/Users/leonardo/Desktop/Code/Github/DawnBGC/Libraries/FWLIB/src\gd32f4xx_timer.c ****     }else{
 1221              		.loc 1 342 34
 1222 0026 7B68     		ldr	r3, [r7, #4]
 1223 0028 1A68     		ldr	r2, [r3]
 1224 002a 7B68     		ldr	r3, [r7, #4]
 1225 002c 22F00802 		bic	r2, r2, #8
 1226 0030 1A60     		str	r2, [r3]
 1227              	.L51:
 1228              		.loc 1 345 1
 1229 0032 00BF     		nop
 1230 0034 0C37     		adds	r7, r7, #12
 1231              		.cfi_def_cfa_offset 4
 1232 0036 BD46     		mov	sp, r7
 1233              		.cfi_def_cfa_register 13
 1234              		@ sp needed
 1235 0038 80BC     		pop	{r7}
 1236              		.cfi_restore 7
 1237              		.cfi_def_cfa_offset 0
 1238 003a 7047     		bx	lr
 1239              		.cfi_endproc
 1240              	.LFE140:
 1242              		.section	.text.timer_update_source_config,"ax",%progbits
 1243              		.align	1
 1244              		.global	timer_update_source_config
 1245              		.syntax unified
 1246              		.thumb
 1247              		.thumb_func
 1248              		.fpu softvfp
 1250              	timer_update_source_config:
 1251              	.LFB141:
 346:C:/Users/leonardo/Desktop/Code/Github/DawnBGC/Libraries/FWLIB/src\gd32f4xx_timer.c **** 
 347:C:/Users/leonardo/Desktop/Code/Github/DawnBGC/Libraries/FWLIB/src\gd32f4xx_timer.c **** /*!
 348:C:/Users/leonardo/Desktop/Code/Github/DawnBGC/Libraries/FWLIB/src\gd32f4xx_timer.c ****     \brief      configure TIMER update source 
 349:C:/Users/leonardo/Desktop/Code/Github/DawnBGC/Libraries/FWLIB/src\gd32f4xx_timer.c ****     \param[in]  timer_periph: TIMERx(x=0..13)
 350:C:/Users/leonardo/Desktop/Code/Github/DawnBGC/Libraries/FWLIB/src\gd32f4xx_timer.c ****     \param[in]  timer_update: 
 351:C:/Users/leonardo/Desktop/Code/Github/DawnBGC/Libraries/FWLIB/src\gd32f4xx_timer.c ****       \arg        TIMER_UPDATE_SRC_GLOBAL: update generate by setting of UPG bit or the counter ove
 352:C:/Users/leonardo/Desktop/Code/Github/DawnBGC/Libraries/FWLIB/src\gd32f4xx_timer.c ****       \arg        TIMER_UPDATE_SRC_REGULAR: update generate only by counter overflow/underflow
 353:C:/Users/leonardo/Desktop/Code/Github/DawnBGC/Libraries/FWLIB/src\gd32f4xx_timer.c ****     \param[out] none
 354:C:/Users/leonardo/Desktop/Code/Github/DawnBGC/Libraries/FWLIB/src\gd32f4xx_timer.c ****     \retval     none
 355:C:/Users/leonardo/Desktop/Code/Github/DawnBGC/Libraries/FWLIB/src\gd32f4xx_timer.c **** */
 356:C:/Users/leonardo/Desktop/Code/Github/DawnBGC/Libraries/FWLIB/src\gd32f4xx_timer.c **** void timer_update_source_config(uint32_t timer_periph,uint8_t timer_update)
 357:C:/Users/leonardo/Desktop/Code/Github/DawnBGC/Libraries/FWLIB/src\gd32f4xx_timer.c **** {
 1252              		.loc 1 357 1
 1253              		.cfi_startproc
 1254              		@ args = 0, pretend = 0, frame = 8
 1255              		@ frame_needed = 1, uses_anonymous_args = 0
 1256              		@ link register save eliminated.
 1257 0000 80B4     		push	{r7}
 1258              		.cfi_def_cfa_offset 4
 1259              		.cfi_offset 7, -4
 1260 0002 83B0     		sub	sp, sp, #12
 1261              		.cfi_def_cfa_offset 16
 1262 0004 00AF     		add	r7, sp, #0
 1263              		.cfi_def_cfa_register 7
 1264 0006 7860     		str	r0, [r7, #4]
 1265 0008 0B46     		mov	r3, r1
 1266 000a FB70     		strb	r3, [r7, #3]
 358:C:/Users/leonardo/Desktop/Code/Github/DawnBGC/Libraries/FWLIB/src\gd32f4xx_timer.c ****     if(TIMER_UPDATE_SRC_REGULAR == timer_update){
 1267              		.loc 1 358 7
 1268 000c FB78     		ldrb	r3, [r7, #3]	@ zero_extendqisi2
 1269 000e 002B     		cmp	r3, #0
 1270 0010 06D1     		bne	.L53
 359:C:/Users/leonardo/Desktop/Code/Github/DawnBGC/Libraries/FWLIB/src\gd32f4xx_timer.c ****         TIMER_CTL0(timer_periph) |= (uint32_t)TIMER_CTL0_UPS;
 1271              		.loc 1 359 34
 1272 0012 7B68     		ldr	r3, [r7, #4]
 1273 0014 1A68     		ldr	r2, [r3]
 1274 0016 7B68     		ldr	r3, [r7, #4]
 1275 0018 42F00402 		orr	r2, r2, #4
 1276 001c 1A60     		str	r2, [r3]
 360:C:/Users/leonardo/Desktop/Code/Github/DawnBGC/Libraries/FWLIB/src\gd32f4xx_timer.c ****     }else if(timer_update == TIMER_UPDATE_SRC_GLOBAL){
 361:C:/Users/leonardo/Desktop/Code/Github/DawnBGC/Libraries/FWLIB/src\gd32f4xx_timer.c ****         TIMER_CTL0(timer_periph) &= ~(uint32_t)TIMER_CTL0_UPS;
 362:C:/Users/leonardo/Desktop/Code/Github/DawnBGC/Libraries/FWLIB/src\gd32f4xx_timer.c ****     }else{
 363:C:/Users/leonardo/Desktop/Code/Github/DawnBGC/Libraries/FWLIB/src\gd32f4xx_timer.c ****     }
 364:C:/Users/leonardo/Desktop/Code/Github/DawnBGC/Libraries/FWLIB/src\gd32f4xx_timer.c **** }
 1277              		.loc 1 364 1
 1278 001e 08E0     		b	.L55
 1279              	.L53:
 360:C:/Users/leonardo/Desktop/Code/Github/DawnBGC/Libraries/FWLIB/src\gd32f4xx_timer.c ****     }else if(timer_update == TIMER_UPDATE_SRC_GLOBAL){
 1280              		.loc 1 360 13
 1281 0020 FB78     		ldrb	r3, [r7, #3]	@ zero_extendqisi2
 1282 0022 012B     		cmp	r3, #1
 1283 0024 05D1     		bne	.L55
 361:C:/Users/leonardo/Desktop/Code/Github/DawnBGC/Libraries/FWLIB/src\gd32f4xx_timer.c ****     }else{
 1284              		.loc 1 361 34
 1285 0026 7B68     		ldr	r3, [r7, #4]
 1286 0028 1A68     		ldr	r2, [r3]
 1287 002a 7B68     		ldr	r3, [r7, #4]
 1288 002c 22F00402 		bic	r2, r2, #4
 1289 0030 1A60     		str	r2, [r3]
 1290              	.L55:
 1291              		.loc 1 364 1
 1292 0032 00BF     		nop
 1293 0034 0C37     		adds	r7, r7, #12
 1294              		.cfi_def_cfa_offset 4
 1295 0036 BD46     		mov	sp, r7
 1296              		.cfi_def_cfa_register 13
 1297              		@ sp needed
 1298 0038 80BC     		pop	{r7}
 1299              		.cfi_restore 7
 1300              		.cfi_def_cfa_offset 0
 1301 003a 7047     		bx	lr
 1302              		.cfi_endproc
 1303              	.LFE141:
 1305              		.section	.text.timer_interrupt_enable,"ax",%progbits
 1306              		.align	1
 1307              		.global	timer_interrupt_enable
 1308              		.syntax unified
 1309              		.thumb
 1310              		.thumb_func
 1311              		.fpu softvfp
 1313              	timer_interrupt_enable:
 1314              	.LFB142:
 365:C:/Users/leonardo/Desktop/Code/Github/DawnBGC/Libraries/FWLIB/src\gd32f4xx_timer.c **** 
 366:C:/Users/leonardo/Desktop/Code/Github/DawnBGC/Libraries/FWLIB/src\gd32f4xx_timer.c **** /*!
 367:C:/Users/leonardo/Desktop/Code/Github/DawnBGC/Libraries/FWLIB/src\gd32f4xx_timer.c ****     \brief      enable the TIMER interrupt
 368:C:/Users/leonardo/Desktop/Code/Github/DawnBGC/Libraries/FWLIB/src\gd32f4xx_timer.c ****     \param[in]  timer_periph: please refer to the following parameters 
 369:C:/Users/leonardo/Desktop/Code/Github/DawnBGC/Libraries/FWLIB/src\gd32f4xx_timer.c ****     \param[in]  timer_interrupt: timer interrupt enable source
 370:C:/Users/leonardo/Desktop/Code/Github/DawnBGC/Libraries/FWLIB/src\gd32f4xx_timer.c ****       \arg        TIMER_INT_UP: update interrupt enable, TIMERx(x=0..13)
 371:C:/Users/leonardo/Desktop/Code/Github/DawnBGC/Libraries/FWLIB/src\gd32f4xx_timer.c ****       \arg        TIMER_INT_CH0: channel 0 interrupt enable, TIMERx(x=0..4,7..13)
 372:C:/Users/leonardo/Desktop/Code/Github/DawnBGC/Libraries/FWLIB/src\gd32f4xx_timer.c ****       \arg        TIMER_INT_CH1: channel 1 interrupt enable, TIMERx(x=0..4,7,8,11)
 373:C:/Users/leonardo/Desktop/Code/Github/DawnBGC/Libraries/FWLIB/src\gd32f4xx_timer.c ****       \arg        TIMER_INT_CH2: channel 2 interrupt enable, TIMERx(x=0..4,7)
 374:C:/Users/leonardo/Desktop/Code/Github/DawnBGC/Libraries/FWLIB/src\gd32f4xx_timer.c ****       \arg        TIMER_INT_CH3: channel 3 interrupt enable , TIMERx(x=0..4,7)
 375:C:/Users/leonardo/Desktop/Code/Github/DawnBGC/Libraries/FWLIB/src\gd32f4xx_timer.c ****       \arg        TIMER_INT_CMT: commutation interrupt enable, TIMERx(x=0,7)
 376:C:/Users/leonardo/Desktop/Code/Github/DawnBGC/Libraries/FWLIB/src\gd32f4xx_timer.c ****       \arg        TIMER_INT_TRG: trigger interrupt enable, TIMERx(x=0..4,7,8,11)
 377:C:/Users/leonardo/Desktop/Code/Github/DawnBGC/Libraries/FWLIB/src\gd32f4xx_timer.c ****       \arg        TIMER_INT_BRK: break interrupt enable, TIMERx(x=0,7)
 378:C:/Users/leonardo/Desktop/Code/Github/DawnBGC/Libraries/FWLIB/src\gd32f4xx_timer.c ****     \param[out] none
 379:C:/Users/leonardo/Desktop/Code/Github/DawnBGC/Libraries/FWLIB/src\gd32f4xx_timer.c ****     \retval     none
 380:C:/Users/leonardo/Desktop/Code/Github/DawnBGC/Libraries/FWLIB/src\gd32f4xx_timer.c **** */
 381:C:/Users/leonardo/Desktop/Code/Github/DawnBGC/Libraries/FWLIB/src\gd32f4xx_timer.c **** void timer_interrupt_enable(uint32_t timer_periph,uint32_t timer_interrupt)
 382:C:/Users/leonardo/Desktop/Code/Github/DawnBGC/Libraries/FWLIB/src\gd32f4xx_timer.c **** {
 1315              		.loc 1 382 1
 1316              		.cfi_startproc
 1317              		@ args = 0, pretend = 0, frame = 8
 1318              		@ frame_needed = 1, uses_anonymous_args = 0
 1319              		@ link register save eliminated.
 1320 0000 80B4     		push	{r7}
 1321              		.cfi_def_cfa_offset 4
 1322              		.cfi_offset 7, -4
 1323 0002 83B0     		sub	sp, sp, #12
 1324              		.cfi_def_cfa_offset 16
 1325 0004 00AF     		add	r7, sp, #0
 1326              		.cfi_def_cfa_register 7
 1327 0006 7860     		str	r0, [r7, #4]
 1328 0008 3960     		str	r1, [r7]
 383:C:/Users/leonardo/Desktop/Code/Github/DawnBGC/Libraries/FWLIB/src\gd32f4xx_timer.c ****     TIMER_DMAINTEN(timer_periph) |= (uint32_t) timer_interrupt; 
 1329              		.loc 1 383 34
 1330 000a 7B68     		ldr	r3, [r7, #4]
 1331 000c 0C33     		adds	r3, r3, #12
 1332 000e 1A68     		ldr	r2, [r3]
 1333 0010 7B68     		ldr	r3, [r7, #4]
 1334 0012 0C33     		adds	r3, r3, #12
 1335 0014 1946     		mov	r1, r3
 1336 0016 3B68     		ldr	r3, [r7]
 1337 0018 1343     		orrs	r3, r3, r2
 1338 001a 0B60     		str	r3, [r1]
 384:C:/Users/leonardo/Desktop/Code/Github/DawnBGC/Libraries/FWLIB/src\gd32f4xx_timer.c **** }
 1339              		.loc 1 384 1
 1340 001c 00BF     		nop
 1341 001e 0C37     		adds	r7, r7, #12
 1342              		.cfi_def_cfa_offset 4
 1343 0020 BD46     		mov	sp, r7
 1344              		.cfi_def_cfa_register 13
 1345              		@ sp needed
 1346 0022 80BC     		pop	{r7}
 1347              		.cfi_restore 7
 1348              		.cfi_def_cfa_offset 0
 1349 0024 7047     		bx	lr
 1350              		.cfi_endproc
 1351              	.LFE142:
 1353              		.section	.text.timer_interrupt_disable,"ax",%progbits
 1354              		.align	1
 1355              		.global	timer_interrupt_disable
 1356              		.syntax unified
 1357              		.thumb
 1358              		.thumb_func
 1359              		.fpu softvfp
 1361              	timer_interrupt_disable:
 1362              	.LFB143:
 385:C:/Users/leonardo/Desktop/Code/Github/DawnBGC/Libraries/FWLIB/src\gd32f4xx_timer.c **** 
 386:C:/Users/leonardo/Desktop/Code/Github/DawnBGC/Libraries/FWLIB/src\gd32f4xx_timer.c **** /*!
 387:C:/Users/leonardo/Desktop/Code/Github/DawnBGC/Libraries/FWLIB/src\gd32f4xx_timer.c ****     \brief      disable the TIMER interrupt
 388:C:/Users/leonardo/Desktop/Code/Github/DawnBGC/Libraries/FWLIB/src\gd32f4xx_timer.c ****     \param[in]  timer_periph: please refer to the following parameters
 389:C:/Users/leonardo/Desktop/Code/Github/DawnBGC/Libraries/FWLIB/src\gd32f4xx_timer.c ****     \param[in]  timer_interrupt: timer interrupt source enable 
 390:C:/Users/leonardo/Desktop/Code/Github/DawnBGC/Libraries/FWLIB/src\gd32f4xx_timer.c ****       \arg        TIMER_INT_UP: update interrupt enable, TIMERx(x=0..13)
 391:C:/Users/leonardo/Desktop/Code/Github/DawnBGC/Libraries/FWLIB/src\gd32f4xx_timer.c ****       \arg        TIMER_INT_CH0: channel 0 interrupt enable, TIMERx(x=0..4,7..13)
 392:C:/Users/leonardo/Desktop/Code/Github/DawnBGC/Libraries/FWLIB/src\gd32f4xx_timer.c ****       \arg        TIMER_INT_CH1: channel 1 interrupt enable, TIMERx(x=0..4,7,8,11)
 393:C:/Users/leonardo/Desktop/Code/Github/DawnBGC/Libraries/FWLIB/src\gd32f4xx_timer.c ****       \arg        TIMER_INT_CH2: channel 2 interrupt enable, TIMERx(x=0..4,7)
 394:C:/Users/leonardo/Desktop/Code/Github/DawnBGC/Libraries/FWLIB/src\gd32f4xx_timer.c ****       \arg        TIMER_INT_CH3: channel 3 interrupt enable , TIMERx(x=0..4,7)
 395:C:/Users/leonardo/Desktop/Code/Github/DawnBGC/Libraries/FWLIB/src\gd32f4xx_timer.c ****       \arg        TIMER_INT_CMT: commutation interrupt enable, TIMERx(x=0,7)
 396:C:/Users/leonardo/Desktop/Code/Github/DawnBGC/Libraries/FWLIB/src\gd32f4xx_timer.c ****       \arg        TIMER_INT_TRG: trigger interrupt enable, TIMERx(x=0..4,7,8,11)
 397:C:/Users/leonardo/Desktop/Code/Github/DawnBGC/Libraries/FWLIB/src\gd32f4xx_timer.c ****       \arg        TIMER_INT_BRK: break interrupt enable, TIMERx(x=0,7)
 398:C:/Users/leonardo/Desktop/Code/Github/DawnBGC/Libraries/FWLIB/src\gd32f4xx_timer.c ****     \param[out] none
 399:C:/Users/leonardo/Desktop/Code/Github/DawnBGC/Libraries/FWLIB/src\gd32f4xx_timer.c ****     \retval     none
 400:C:/Users/leonardo/Desktop/Code/Github/DawnBGC/Libraries/FWLIB/src\gd32f4xx_timer.c **** */
 401:C:/Users/leonardo/Desktop/Code/Github/DawnBGC/Libraries/FWLIB/src\gd32f4xx_timer.c **** void timer_interrupt_disable(uint32_t timer_periph,uint32_t timer_interrupt)
 402:C:/Users/leonardo/Desktop/Code/Github/DawnBGC/Libraries/FWLIB/src\gd32f4xx_timer.c **** {
 1363              		.loc 1 402 1
 1364              		.cfi_startproc
 1365              		@ args = 0, pretend = 0, frame = 8
 1366              		@ frame_needed = 1, uses_anonymous_args = 0
 1367              		@ link register save eliminated.
 1368 0000 80B4     		push	{r7}
 1369              		.cfi_def_cfa_offset 4
 1370              		.cfi_offset 7, -4
 1371 0002 83B0     		sub	sp, sp, #12
 1372              		.cfi_def_cfa_offset 16
 1373 0004 00AF     		add	r7, sp, #0
 1374              		.cfi_def_cfa_register 7
 1375 0006 7860     		str	r0, [r7, #4]
 1376 0008 3960     		str	r1, [r7]
 403:C:/Users/leonardo/Desktop/Code/Github/DawnBGC/Libraries/FWLIB/src\gd32f4xx_timer.c ****     TIMER_DMAINTEN(timer_periph) &= (~(uint32_t)timer_interrupt); 
 1377              		.loc 1 403 34
 1378 000a 7B68     		ldr	r3, [r7, #4]
 1379 000c 0C33     		adds	r3, r3, #12
 1380 000e 1A68     		ldr	r2, [r3]
 1381              		.loc 1 403 38
 1382 0010 3B68     		ldr	r3, [r7]
 1383 0012 DB43     		mvns	r3, r3
 1384              		.loc 1 403 34
 1385 0014 7968     		ldr	r1, [r7, #4]
 1386 0016 0C31     		adds	r1, r1, #12
 1387 0018 1340     		ands	r3, r3, r2
 1388 001a 0B60     		str	r3, [r1]
 404:C:/Users/leonardo/Desktop/Code/Github/DawnBGC/Libraries/FWLIB/src\gd32f4xx_timer.c **** }
 1389              		.loc 1 404 1
 1390 001c 00BF     		nop
 1391 001e 0C37     		adds	r7, r7, #12
 1392              		.cfi_def_cfa_offset 4
 1393 0020 BD46     		mov	sp, r7
 1394              		.cfi_def_cfa_register 13
 1395              		@ sp needed
 1396 0022 80BC     		pop	{r7}
 1397              		.cfi_restore 7
 1398              		.cfi_def_cfa_offset 0
 1399 0024 7047     		bx	lr
 1400              		.cfi_endproc
 1401              	.LFE143:
 1403              		.section	.text.timer_interrupt_flag_get,"ax",%progbits
 1404              		.align	1
 1405              		.global	timer_interrupt_flag_get
 1406              		.syntax unified
 1407              		.thumb
 1408              		.thumb_func
 1409              		.fpu softvfp
 1411              	timer_interrupt_flag_get:
 1412              	.LFB144:
 405:C:/Users/leonardo/Desktop/Code/Github/DawnBGC/Libraries/FWLIB/src\gd32f4xx_timer.c **** 
 406:C:/Users/leonardo/Desktop/Code/Github/DawnBGC/Libraries/FWLIB/src\gd32f4xx_timer.c **** /*!
 407:C:/Users/leonardo/Desktop/Code/Github/DawnBGC/Libraries/FWLIB/src\gd32f4xx_timer.c ****     \brief      get timer interrupt flag
 408:C:/Users/leonardo/Desktop/Code/Github/DawnBGC/Libraries/FWLIB/src\gd32f4xx_timer.c ****     \param[in]  timer_periph: please refer to the following parameters
 409:C:/Users/leonardo/Desktop/Code/Github/DawnBGC/Libraries/FWLIB/src\gd32f4xx_timer.c ****     \param[in]  timer_interrupt: the timer interrupt bits
 410:C:/Users/leonardo/Desktop/Code/Github/DawnBGC/Libraries/FWLIB/src\gd32f4xx_timer.c ****       \arg        TIMER_INT_UP: update interrupt flag,TIMERx(x=0..13)
 411:C:/Users/leonardo/Desktop/Code/Github/DawnBGC/Libraries/FWLIB/src\gd32f4xx_timer.c ****       \arg        TIMER_INT_CH0: channel 0 interrupt flag,TIMERx(x=0..4,7..13)
 412:C:/Users/leonardo/Desktop/Code/Github/DawnBGC/Libraries/FWLIB/src\gd32f4xx_timer.c ****       \arg        TIMER_INT_CH1: channel 1 interrupt flag,TIMERx(x=0..4,7,8,11)
 413:C:/Users/leonardo/Desktop/Code/Github/DawnBGC/Libraries/FWLIB/src\gd32f4xx_timer.c ****       \arg        TIMER_INT_CH2: channel 2 interrupt flag,TIMERx(x=0..4,7)
 414:C:/Users/leonardo/Desktop/Code/Github/DawnBGC/Libraries/FWLIB/src\gd32f4xx_timer.c ****       \arg        TIMER_INT_CH3: channel 3 interrupt flag,TIMERx(x=0..4,7)
 415:C:/Users/leonardo/Desktop/Code/Github/DawnBGC/Libraries/FWLIB/src\gd32f4xx_timer.c ****       \arg        TIMER_INT_CMT: channel commutation interrupt flag,TIMERx(x=0,7) 
 416:C:/Users/leonardo/Desktop/Code/Github/DawnBGC/Libraries/FWLIB/src\gd32f4xx_timer.c ****       \arg        TIMER_INT_TRG: trigger interrupt flag,TIMERx(x=0,7,8,11)
 417:C:/Users/leonardo/Desktop/Code/Github/DawnBGC/Libraries/FWLIB/src\gd32f4xx_timer.c ****       \arg        TIMER_INT_BRK:  break interrupt flag,TIMERx(x=0,7)
 418:C:/Users/leonardo/Desktop/Code/Github/DawnBGC/Libraries/FWLIB/src\gd32f4xx_timer.c ****     \param[out] none
 419:C:/Users/leonardo/Desktop/Code/Github/DawnBGC/Libraries/FWLIB/src\gd32f4xx_timer.c ****     \retval     FlagStatus: SET or RESET
 420:C:/Users/leonardo/Desktop/Code/Github/DawnBGC/Libraries/FWLIB/src\gd32f4xx_timer.c **** */
 421:C:/Users/leonardo/Desktop/Code/Github/DawnBGC/Libraries/FWLIB/src\gd32f4xx_timer.c **** FlagStatus timer_interrupt_flag_get(uint32_t timer_periph,uint32_t timer_interrupt)
 422:C:/Users/leonardo/Desktop/Code/Github/DawnBGC/Libraries/FWLIB/src\gd32f4xx_timer.c **** {
 1413              		.loc 1 422 1
 1414              		.cfi_startproc
 1415              		@ args = 0, pretend = 0, frame = 16
 1416              		@ frame_needed = 1, uses_anonymous_args = 0
 1417              		@ link register save eliminated.
 1418 0000 80B4     		push	{r7}
 1419              		.cfi_def_cfa_offset 4
 1420              		.cfi_offset 7, -4
 1421 0002 85B0     		sub	sp, sp, #20
 1422              		.cfi_def_cfa_offset 24
 1423 0004 00AF     		add	r7, sp, #0
 1424              		.cfi_def_cfa_register 7
 1425 0006 7860     		str	r0, [r7, #4]
 1426 0008 3960     		str	r1, [r7]
 423:C:/Users/leonardo/Desktop/Code/Github/DawnBGC/Libraries/FWLIB/src\gd32f4xx_timer.c ****     uint32_t val;
 424:C:/Users/leonardo/Desktop/Code/Github/DawnBGC/Libraries/FWLIB/src\gd32f4xx_timer.c ****     val = (TIMER_DMAINTEN(timer_periph) & timer_interrupt);
 1427              		.loc 1 424 12
 1428 000a 7B68     		ldr	r3, [r7, #4]
 1429 000c 0C33     		adds	r3, r3, #12
 1430 000e 1B68     		ldr	r3, [r3]
 1431              		.loc 1 424 9
 1432 0010 3A68     		ldr	r2, [r7]
 1433 0012 1340     		ands	r3, r3, r2
 1434 0014 FB60     		str	r3, [r7, #12]
 425:C:/Users/leonardo/Desktop/Code/Github/DawnBGC/Libraries/FWLIB/src\gd32f4xx_timer.c ****     if((RESET != (TIMER_INTF(timer_periph) & timer_interrupt) ) && (RESET != val)){
 1435              		.loc 1 425 19
 1436 0016 7B68     		ldr	r3, [r7, #4]
 1437 0018 1033     		adds	r3, r3, #16
 1438 001a 1A68     		ldr	r2, [r3]
 1439              		.loc 1 425 44
 1440 001c 3B68     		ldr	r3, [r7]
 1441 001e 1340     		ands	r3, r3, r2
 1442              		.loc 1 425 7
 1443 0020 002B     		cmp	r3, #0
 1444 0022 04D0     		beq	.L59
 1445              		.loc 1 425 65 discriminator 1
 1446 0024 FB68     		ldr	r3, [r7, #12]
 1447 0026 002B     		cmp	r3, #0
 1448 0028 01D0     		beq	.L59
 426:C:/Users/leonardo/Desktop/Code/Github/DawnBGC/Libraries/FWLIB/src\gd32f4xx_timer.c ****         return SET;
 1449              		.loc 1 426 16
 1450 002a 0123     		movs	r3, #1
 1451 002c 00E0     		b	.L60
 1452              	.L59:
 427:C:/Users/leonardo/Desktop/Code/Github/DawnBGC/Libraries/FWLIB/src\gd32f4xx_timer.c ****     }else{
 428:C:/Users/leonardo/Desktop/Code/Github/DawnBGC/Libraries/FWLIB/src\gd32f4xx_timer.c ****         return RESET;
 1453              		.loc 1 428 16
 1454 002e 0023     		movs	r3, #0
 1455              	.L60:
 429:C:/Users/leonardo/Desktop/Code/Github/DawnBGC/Libraries/FWLIB/src\gd32f4xx_timer.c ****     }
 430:C:/Users/leonardo/Desktop/Code/Github/DawnBGC/Libraries/FWLIB/src\gd32f4xx_timer.c **** }
 1456              		.loc 1 430 1
 1457 0030 1846     		mov	r0, r3
 1458 0032 1437     		adds	r7, r7, #20
 1459              		.cfi_def_cfa_offset 4
 1460 0034 BD46     		mov	sp, r7
 1461              		.cfi_def_cfa_register 13
 1462              		@ sp needed
 1463 0036 80BC     		pop	{r7}
 1464              		.cfi_restore 7
 1465              		.cfi_def_cfa_offset 0
 1466 0038 7047     		bx	lr
 1467              		.cfi_endproc
 1468              	.LFE144:
 1470              		.section	.text.timer_interrupt_flag_clear,"ax",%progbits
 1471              		.align	1
 1472              		.global	timer_interrupt_flag_clear
 1473              		.syntax unified
 1474              		.thumb
 1475              		.thumb_func
 1476              		.fpu softvfp
 1478              	timer_interrupt_flag_clear:
 1479              	.LFB145:
 431:C:/Users/leonardo/Desktop/Code/Github/DawnBGC/Libraries/FWLIB/src\gd32f4xx_timer.c **** 
 432:C:/Users/leonardo/Desktop/Code/Github/DawnBGC/Libraries/FWLIB/src\gd32f4xx_timer.c **** /*!
 433:C:/Users/leonardo/Desktop/Code/Github/DawnBGC/Libraries/FWLIB/src\gd32f4xx_timer.c ****     \brief      clear TIMER interrupt flag
 434:C:/Users/leonardo/Desktop/Code/Github/DawnBGC/Libraries/FWLIB/src\gd32f4xx_timer.c ****     \param[in]  timer_periph: please refer to the following parameters
 435:C:/Users/leonardo/Desktop/Code/Github/DawnBGC/Libraries/FWLIB/src\gd32f4xx_timer.c ****     \param[in]  timer_interrupt: the timer interrupt bits
 436:C:/Users/leonardo/Desktop/Code/Github/DawnBGC/Libraries/FWLIB/src\gd32f4xx_timer.c ****       \arg        TIMER_INT_UP: update interrupt flag,TIMERx(x=0..13)
 437:C:/Users/leonardo/Desktop/Code/Github/DawnBGC/Libraries/FWLIB/src\gd32f4xx_timer.c ****       \arg        TIMER_INT_CH0: channel 0 interrupt flag,TIMERx(x=0..4,7..13)
 438:C:/Users/leonardo/Desktop/Code/Github/DawnBGC/Libraries/FWLIB/src\gd32f4xx_timer.c ****       \arg        TIMER_INT_CH1: channel 1 interrupt flag,TIMERx(x=0..4,7,8,11)
 439:C:/Users/leonardo/Desktop/Code/Github/DawnBGC/Libraries/FWLIB/src\gd32f4xx_timer.c ****       \arg        TIMER_INT_CH2: channel 2 interrupt flag,TIMERx(x=0..4,7)
 440:C:/Users/leonardo/Desktop/Code/Github/DawnBGC/Libraries/FWLIB/src\gd32f4xx_timer.c ****       \arg        TIMER_INT_CH3: channel 3 interrupt flag,TIMERx(x=0..4,7)
 441:C:/Users/leonardo/Desktop/Code/Github/DawnBGC/Libraries/FWLIB/src\gd32f4xx_timer.c ****       \arg        TIMER_INT_CMT: channel commutation interrupt flag,TIMERx(x=0,7) 
 442:C:/Users/leonardo/Desktop/Code/Github/DawnBGC/Libraries/FWLIB/src\gd32f4xx_timer.c ****       \arg        TIMER_INT_TRG: trigger interrupt flag,TIMERx(x=0,7,8,11)
 443:C:/Users/leonardo/Desktop/Code/Github/DawnBGC/Libraries/FWLIB/src\gd32f4xx_timer.c ****       \arg        TIMER_INT_BRK:  break interrupt flag,TIMERx(x=0,7)
 444:C:/Users/leonardo/Desktop/Code/Github/DawnBGC/Libraries/FWLIB/src\gd32f4xx_timer.c ****     \param[out] none
 445:C:/Users/leonardo/Desktop/Code/Github/DawnBGC/Libraries/FWLIB/src\gd32f4xx_timer.c ****     \retval     none
 446:C:/Users/leonardo/Desktop/Code/Github/DawnBGC/Libraries/FWLIB/src\gd32f4xx_timer.c **** */
 447:C:/Users/leonardo/Desktop/Code/Github/DawnBGC/Libraries/FWLIB/src\gd32f4xx_timer.c **** void timer_interrupt_flag_clear(uint32_t timer_periph,uint32_t timer_interrupt)
 448:C:/Users/leonardo/Desktop/Code/Github/DawnBGC/Libraries/FWLIB/src\gd32f4xx_timer.c **** {
 1480              		.loc 1 448 1
 1481              		.cfi_startproc
 1482              		@ args = 0, pretend = 0, frame = 8
 1483              		@ frame_needed = 1, uses_anonymous_args = 0
 1484              		@ link register save eliminated.
 1485 0000 80B4     		push	{r7}
 1486              		.cfi_def_cfa_offset 4
 1487              		.cfi_offset 7, -4
 1488 0002 83B0     		sub	sp, sp, #12
 1489              		.cfi_def_cfa_offset 16
 1490 0004 00AF     		add	r7, sp, #0
 1491              		.cfi_def_cfa_register 7
 1492 0006 7860     		str	r0, [r7, #4]
 1493 0008 3960     		str	r1, [r7]
 449:C:/Users/leonardo/Desktop/Code/Github/DawnBGC/Libraries/FWLIB/src\gd32f4xx_timer.c ****     TIMER_INTF(timer_periph) &= (~(uint32_t)timer_interrupt);
 1494              		.loc 1 449 30
 1495 000a 7B68     		ldr	r3, [r7, #4]
 1496 000c 1033     		adds	r3, r3, #16
 1497 000e 1A68     		ldr	r2, [r3]
 1498              		.loc 1 449 34
 1499 0010 3B68     		ldr	r3, [r7]
 1500 0012 DB43     		mvns	r3, r3
 1501              		.loc 1 449 30
 1502 0014 7968     		ldr	r1, [r7, #4]
 1503 0016 1031     		adds	r1, r1, #16
 1504 0018 1340     		ands	r3, r3, r2
 1505 001a 0B60     		str	r3, [r1]
 450:C:/Users/leonardo/Desktop/Code/Github/DawnBGC/Libraries/FWLIB/src\gd32f4xx_timer.c **** }
 1506              		.loc 1 450 1
 1507 001c 00BF     		nop
 1508 001e 0C37     		adds	r7, r7, #12
 1509              		.cfi_def_cfa_offset 4
 1510 0020 BD46     		mov	sp, r7
 1511              		.cfi_def_cfa_register 13
 1512              		@ sp needed
 1513 0022 80BC     		pop	{r7}
 1514              		.cfi_restore 7
 1515              		.cfi_def_cfa_offset 0
 1516 0024 7047     		bx	lr
 1517              		.cfi_endproc
 1518              	.LFE145:
 1520              		.section	.text.timer_flag_get,"ax",%progbits
 1521              		.align	1
 1522              		.global	timer_flag_get
 1523              		.syntax unified
 1524              		.thumb
 1525              		.thumb_func
 1526              		.fpu softvfp
 1528              	timer_flag_get:
 1529              	.LFB146:
 451:C:/Users/leonardo/Desktop/Code/Github/DawnBGC/Libraries/FWLIB/src\gd32f4xx_timer.c **** 
 452:C:/Users/leonardo/Desktop/Code/Github/DawnBGC/Libraries/FWLIB/src\gd32f4xx_timer.c **** /*!
 453:C:/Users/leonardo/Desktop/Code/Github/DawnBGC/Libraries/FWLIB/src\gd32f4xx_timer.c ****     \brief      get TIMER flags
 454:C:/Users/leonardo/Desktop/Code/Github/DawnBGC/Libraries/FWLIB/src\gd32f4xx_timer.c ****     \param[in]  timer_periph: please refer to the following parameters
 455:C:/Users/leonardo/Desktop/Code/Github/DawnBGC/Libraries/FWLIB/src\gd32f4xx_timer.c ****     \param[in]  timer_flag: the timer interrupt flags
 456:C:/Users/leonardo/Desktop/Code/Github/DawnBGC/Libraries/FWLIB/src\gd32f4xx_timer.c ****       \arg        TIMER_FLAG_UP: update flag,TIMERx(x=0..13)
 457:C:/Users/leonardo/Desktop/Code/Github/DawnBGC/Libraries/FWLIB/src\gd32f4xx_timer.c ****       \arg        TIMER_FLAG_CH0: channel 0 flag,TIMERx(x=0..4,7..13)
 458:C:/Users/leonardo/Desktop/Code/Github/DawnBGC/Libraries/FWLIB/src\gd32f4xx_timer.c ****       \arg        TIMER_FLAG_CH1: channel 1 flag,TIMERx(x=0..4,7,8,11)
 459:C:/Users/leonardo/Desktop/Code/Github/DawnBGC/Libraries/FWLIB/src\gd32f4xx_timer.c ****       \arg        TIMER_FLAG_CH2: channel 2 flag,TIMERx(x=0..4,7)
 460:C:/Users/leonardo/Desktop/Code/Github/DawnBGC/Libraries/FWLIB/src\gd32f4xx_timer.c ****       \arg        TIMER_FLAG_CH3: channel 3 flag,TIMERx(x=0..4,7)
 461:C:/Users/leonardo/Desktop/Code/Github/DawnBGC/Libraries/FWLIB/src\gd32f4xx_timer.c ****       \arg        TIMER_FLAG_CMT: channel control update flag,TIMERx(x=0,7) 
 462:C:/Users/leonardo/Desktop/Code/Github/DawnBGC/Libraries/FWLIB/src\gd32f4xx_timer.c ****       \arg        TIMER_FLAG_TRG: trigger flag,TIMERx(x=0,7,8,11) 
 463:C:/Users/leonardo/Desktop/Code/Github/DawnBGC/Libraries/FWLIB/src\gd32f4xx_timer.c ****       \arg        TIMER_FLAG_BRK: break flag,TIMERx(x=0,7)
 464:C:/Users/leonardo/Desktop/Code/Github/DawnBGC/Libraries/FWLIB/src\gd32f4xx_timer.c ****       \arg        TIMER_FLAG_CH0OF: channel 0 overcapture flag,TIMERx(x=0..4,7..11)
 465:C:/Users/leonardo/Desktop/Code/Github/DawnBGC/Libraries/FWLIB/src\gd32f4xx_timer.c ****       \arg        TIMER_FLAG_CH1OF: channel 1 overcapture flag,TIMERx(x=0..4,7,8,11)
 466:C:/Users/leonardo/Desktop/Code/Github/DawnBGC/Libraries/FWLIB/src\gd32f4xx_timer.c ****       \arg        TIMER_FLAG_CH2OF: channel 2 overcapture flag,TIMERx(x=0..4,7)
 467:C:/Users/leonardo/Desktop/Code/Github/DawnBGC/Libraries/FWLIB/src\gd32f4xx_timer.c ****       \arg        TIMER_FLAG_CH3OF: channel 3 overcapture flag,TIMERx(x=0..4,7)
 468:C:/Users/leonardo/Desktop/Code/Github/DawnBGC/Libraries/FWLIB/src\gd32f4xx_timer.c ****     \param[out] none
 469:C:/Users/leonardo/Desktop/Code/Github/DawnBGC/Libraries/FWLIB/src\gd32f4xx_timer.c ****     \retval     FlagStatus: SET or RESET
 470:C:/Users/leonardo/Desktop/Code/Github/DawnBGC/Libraries/FWLIB/src\gd32f4xx_timer.c **** */
 471:C:/Users/leonardo/Desktop/Code/Github/DawnBGC/Libraries/FWLIB/src\gd32f4xx_timer.c **** FlagStatus timer_flag_get(uint32_t timer_periph , uint32_t timer_flag)
 472:C:/Users/leonardo/Desktop/Code/Github/DawnBGC/Libraries/FWLIB/src\gd32f4xx_timer.c **** {
 1530              		.loc 1 472 1
 1531              		.cfi_startproc
 1532              		@ args = 0, pretend = 0, frame = 8
 1533              		@ frame_needed = 1, uses_anonymous_args = 0
 1534              		@ link register save eliminated.
 1535 0000 80B4     		push	{r7}
 1536              		.cfi_def_cfa_offset 4
 1537              		.cfi_offset 7, -4
 1538 0002 83B0     		sub	sp, sp, #12
 1539              		.cfi_def_cfa_offset 16
 1540 0004 00AF     		add	r7, sp, #0
 1541              		.cfi_def_cfa_register 7
 1542 0006 7860     		str	r0, [r7, #4]
 1543 0008 3960     		str	r1, [r7]
 473:C:/Users/leonardo/Desktop/Code/Github/DawnBGC/Libraries/FWLIB/src\gd32f4xx_timer.c ****     if(RESET != (TIMER_INTF(timer_periph) & timer_flag)){
 1544              		.loc 1 473 18
 1545 000a 7B68     		ldr	r3, [r7, #4]
 1546 000c 1033     		adds	r3, r3, #16
 1547 000e 1A68     		ldr	r2, [r3]
 1548              		.loc 1 473 43
 1549 0010 3B68     		ldr	r3, [r7]
 1550 0012 1340     		ands	r3, r3, r2
 1551              		.loc 1 473 7
 1552 0014 002B     		cmp	r3, #0
 1553 0016 01D0     		beq	.L63
 474:C:/Users/leonardo/Desktop/Code/Github/DawnBGC/Libraries/FWLIB/src\gd32f4xx_timer.c ****         return SET;
 1554              		.loc 1 474 16
 1555 0018 0123     		movs	r3, #1
 1556 001a 00E0     		b	.L64
 1557              	.L63:
 475:C:/Users/leonardo/Desktop/Code/Github/DawnBGC/Libraries/FWLIB/src\gd32f4xx_timer.c ****     }else{
 476:C:/Users/leonardo/Desktop/Code/Github/DawnBGC/Libraries/FWLIB/src\gd32f4xx_timer.c ****         return RESET;
 1558              		.loc 1 476 16
 1559 001c 0023     		movs	r3, #0
 1560              	.L64:
 477:C:/Users/leonardo/Desktop/Code/Github/DawnBGC/Libraries/FWLIB/src\gd32f4xx_timer.c ****     }
 478:C:/Users/leonardo/Desktop/Code/Github/DawnBGC/Libraries/FWLIB/src\gd32f4xx_timer.c **** }
 1561              		.loc 1 478 1
 1562 001e 1846     		mov	r0, r3
 1563 0020 0C37     		adds	r7, r7, #12
 1564              		.cfi_def_cfa_offset 4
 1565 0022 BD46     		mov	sp, r7
 1566              		.cfi_def_cfa_register 13
 1567              		@ sp needed
 1568 0024 80BC     		pop	{r7}
 1569              		.cfi_restore 7
 1570              		.cfi_def_cfa_offset 0
 1571 0026 7047     		bx	lr
 1572              		.cfi_endproc
 1573              	.LFE146:
 1575              		.section	.text.timer_flag_clear,"ax",%progbits
 1576              		.align	1
 1577              		.global	timer_flag_clear
 1578              		.syntax unified
 1579              		.thumb
 1580              		.thumb_func
 1581              		.fpu softvfp
 1583              	timer_flag_clear:
 1584              	.LFB147:
 479:C:/Users/leonardo/Desktop/Code/Github/DawnBGC/Libraries/FWLIB/src\gd32f4xx_timer.c **** 
 480:C:/Users/leonardo/Desktop/Code/Github/DawnBGC/Libraries/FWLIB/src\gd32f4xx_timer.c **** /*!
 481:C:/Users/leonardo/Desktop/Code/Github/DawnBGC/Libraries/FWLIB/src\gd32f4xx_timer.c ****     \brief      clear TIMER flags
 482:C:/Users/leonardo/Desktop/Code/Github/DawnBGC/Libraries/FWLIB/src\gd32f4xx_timer.c ****     \param[in]  timer_periph: please refer to the following parameters
 483:C:/Users/leonardo/Desktop/Code/Github/DawnBGC/Libraries/FWLIB/src\gd32f4xx_timer.c ****     \param[in]  timer_flag: the timer interrupt flags
 484:C:/Users/leonardo/Desktop/Code/Github/DawnBGC/Libraries/FWLIB/src\gd32f4xx_timer.c ****       \arg        TIMER_FLAG_UP: update flag,TIMERx(x=0..13)
 485:C:/Users/leonardo/Desktop/Code/Github/DawnBGC/Libraries/FWLIB/src\gd32f4xx_timer.c ****       \arg        TIMER_FLAG_CH0: channel 0 flag,TIMERx(x=0..4,7..13)
 486:C:/Users/leonardo/Desktop/Code/Github/DawnBGC/Libraries/FWLIB/src\gd32f4xx_timer.c ****       \arg        TIMER_FLAG_CH1: channel 1 flag,TIMERx(x=0..4,7,8,11)
 487:C:/Users/leonardo/Desktop/Code/Github/DawnBGC/Libraries/FWLIB/src\gd32f4xx_timer.c ****       \arg        TIMER_FLAG_CH2: channel 2 flag,TIMERx(x=0..4,7)
 488:C:/Users/leonardo/Desktop/Code/Github/DawnBGC/Libraries/FWLIB/src\gd32f4xx_timer.c ****       \arg        TIMER_FLAG_CH3: channel 3 flag,TIMERx(x=0..4,7)
 489:C:/Users/leonardo/Desktop/Code/Github/DawnBGC/Libraries/FWLIB/src\gd32f4xx_timer.c ****       \arg        TIMER_FLAG_CMT: channel control update flag,TIMERx(x=0,7) 
 490:C:/Users/leonardo/Desktop/Code/Github/DawnBGC/Libraries/FWLIB/src\gd32f4xx_timer.c ****       \arg        TIMER_FLAG_TRG: trigger flag,TIMERx(x=0,7,8,11) 
 491:C:/Users/leonardo/Desktop/Code/Github/DawnBGC/Libraries/FWLIB/src\gd32f4xx_timer.c ****       \arg        TIMER_FLAG_BRK: break flag,TIMERx(x=0,7)
 492:C:/Users/leonardo/Desktop/Code/Github/DawnBGC/Libraries/FWLIB/src\gd32f4xx_timer.c ****       \arg        TIMER_FLAG_CH0OF: channel 0 overcapture flag,TIMERx(x=0..4,7..11)
 493:C:/Users/leonardo/Desktop/Code/Github/DawnBGC/Libraries/FWLIB/src\gd32f4xx_timer.c ****       \arg        TIMER_FLAG_CH1OF: channel 1 overcapture flag,TIMERx(x=0..4,7,8,11)
 494:C:/Users/leonardo/Desktop/Code/Github/DawnBGC/Libraries/FWLIB/src\gd32f4xx_timer.c ****       \arg        TIMER_FLAG_CH2OF: channel 2 overcapture flag,TIMERx(x=0..4,7)
 495:C:/Users/leonardo/Desktop/Code/Github/DawnBGC/Libraries/FWLIB/src\gd32f4xx_timer.c ****       \arg        TIMER_FLAG_CH3OF: channel 3 overcapture flag,TIMERx(x=0..4,7)
 496:C:/Users/leonardo/Desktop/Code/Github/DawnBGC/Libraries/FWLIB/src\gd32f4xx_timer.c ****     \param[out] none
 497:C:/Users/leonardo/Desktop/Code/Github/DawnBGC/Libraries/FWLIB/src\gd32f4xx_timer.c ****     \retval     none
 498:C:/Users/leonardo/Desktop/Code/Github/DawnBGC/Libraries/FWLIB/src\gd32f4xx_timer.c **** */
 499:C:/Users/leonardo/Desktop/Code/Github/DawnBGC/Libraries/FWLIB/src\gd32f4xx_timer.c **** void timer_flag_clear(uint32_t timer_periph , uint32_t timer_flag)
 500:C:/Users/leonardo/Desktop/Code/Github/DawnBGC/Libraries/FWLIB/src\gd32f4xx_timer.c **** {
 1585              		.loc 1 500 1
 1586              		.cfi_startproc
 1587              		@ args = 0, pretend = 0, frame = 8
 1588              		@ frame_needed = 1, uses_anonymous_args = 0
 1589              		@ link register save eliminated.
 1590 0000 80B4     		push	{r7}
 1591              		.cfi_def_cfa_offset 4
 1592              		.cfi_offset 7, -4
 1593 0002 83B0     		sub	sp, sp, #12
 1594              		.cfi_def_cfa_offset 16
 1595 0004 00AF     		add	r7, sp, #0
 1596              		.cfi_def_cfa_register 7
 1597 0006 7860     		str	r0, [r7, #4]
 1598 0008 3960     		str	r1, [r7]
 501:C:/Users/leonardo/Desktop/Code/Github/DawnBGC/Libraries/FWLIB/src\gd32f4xx_timer.c ****     TIMER_INTF(timer_periph) &= (~(uint32_t)timer_flag);
 1599              		.loc 1 501 30
 1600 000a 7B68     		ldr	r3, [r7, #4]
 1601 000c 1033     		adds	r3, r3, #16
 1602 000e 1A68     		ldr	r2, [r3]
 1603              		.loc 1 501 34
 1604 0010 3B68     		ldr	r3, [r7]
 1605 0012 DB43     		mvns	r3, r3
 1606              		.loc 1 501 30
 1607 0014 7968     		ldr	r1, [r7, #4]
 1608 0016 1031     		adds	r1, r1, #16
 1609 0018 1340     		ands	r3, r3, r2
 1610 001a 0B60     		str	r3, [r1]
 502:C:/Users/leonardo/Desktop/Code/Github/DawnBGC/Libraries/FWLIB/src\gd32f4xx_timer.c **** }
 1611              		.loc 1 502 1
 1612 001c 00BF     		nop
 1613 001e 0C37     		adds	r7, r7, #12
 1614              		.cfi_def_cfa_offset 4
 1615 0020 BD46     		mov	sp, r7
 1616              		.cfi_def_cfa_register 13
 1617              		@ sp needed
 1618 0022 80BC     		pop	{r7}
 1619              		.cfi_restore 7
 1620              		.cfi_def_cfa_offset 0
 1621 0024 7047     		bx	lr
 1622              		.cfi_endproc
 1623              	.LFE147:
 1625              		.section	.text.timer_dma_enable,"ax",%progbits
 1626              		.align	1
 1627              		.global	timer_dma_enable
 1628              		.syntax unified
 1629              		.thumb
 1630              		.thumb_func
 1631              		.fpu softvfp
 1633              	timer_dma_enable:
 1634              	.LFB148:
 503:C:/Users/leonardo/Desktop/Code/Github/DawnBGC/Libraries/FWLIB/src\gd32f4xx_timer.c **** 
 504:C:/Users/leonardo/Desktop/Code/Github/DawnBGC/Libraries/FWLIB/src\gd32f4xx_timer.c **** /*!
 505:C:/Users/leonardo/Desktop/Code/Github/DawnBGC/Libraries/FWLIB/src\gd32f4xx_timer.c ****     \brief      enable the TIMER DMA
 506:C:/Users/leonardo/Desktop/Code/Github/DawnBGC/Libraries/FWLIB/src\gd32f4xx_timer.c ****     \param[in]  timer_periph: TIMERx(x=0,1,2,5,14,15,16)
 507:C:/Users/leonardo/Desktop/Code/Github/DawnBGC/Libraries/FWLIB/src\gd32f4xx_timer.c ****     \param[in]  timer_dma: timer DMA source enable 
 508:C:/Users/leonardo/Desktop/Code/Github/DawnBGC/Libraries/FWLIB/src\gd32f4xx_timer.c ****       \arg        TIMER_DMA_UPD:  update DMA enable,TIMERx(x=0..7)
 509:C:/Users/leonardo/Desktop/Code/Github/DawnBGC/Libraries/FWLIB/src\gd32f4xx_timer.c ****       \arg        TIMER_DMA_CH0D: channel 0 DMA enable,TIMERx(x=0..4,7)
 510:C:/Users/leonardo/Desktop/Code/Github/DawnBGC/Libraries/FWLIB/src\gd32f4xx_timer.c ****       \arg        TIMER_DMA_CH1D: channel 1 DMA enable,TIMERx(x=0..4,7)
 511:C:/Users/leonardo/Desktop/Code/Github/DawnBGC/Libraries/FWLIB/src\gd32f4xx_timer.c ****       \arg        TIMER_DMA_CH2D: channel 2 DMA enable,TIMERx(x=0..4,7)
 512:C:/Users/leonardo/Desktop/Code/Github/DawnBGC/Libraries/FWLIB/src\gd32f4xx_timer.c ****       \arg        TIMER_DMA_CH3D: channel 3 DMA enable,TIMERx(x=0..4,7)
 513:C:/Users/leonardo/Desktop/Code/Github/DawnBGC/Libraries/FWLIB/src\gd32f4xx_timer.c ****       \arg        TIMER_DMA_CMTD: commutation DMA request enable,TIMERx(x=0,7)
 514:C:/Users/leonardo/Desktop/Code/Github/DawnBGC/Libraries/FWLIB/src\gd32f4xx_timer.c ****       \arg        TIMER_DMA_TRGD: trigger DMA enable,TIMERx(x=0..4,7)
 515:C:/Users/leonardo/Desktop/Code/Github/DawnBGC/Libraries/FWLIB/src\gd32f4xx_timer.c ****     \param[out] none
 516:C:/Users/leonardo/Desktop/Code/Github/DawnBGC/Libraries/FWLIB/src\gd32f4xx_timer.c ****     \retval     none
 517:C:/Users/leonardo/Desktop/Code/Github/DawnBGC/Libraries/FWLIB/src\gd32f4xx_timer.c **** */
 518:C:/Users/leonardo/Desktop/Code/Github/DawnBGC/Libraries/FWLIB/src\gd32f4xx_timer.c **** void timer_dma_enable(uint32_t timer_periph,uint16_t timer_dma)
 519:C:/Users/leonardo/Desktop/Code/Github/DawnBGC/Libraries/FWLIB/src\gd32f4xx_timer.c **** {
 1635              		.loc 1 519 1
 1636              		.cfi_startproc
 1637              		@ args = 0, pretend = 0, frame = 8
 1638              		@ frame_needed = 1, uses_anonymous_args = 0
 1639              		@ link register save eliminated.
 1640 0000 80B4     		push	{r7}
 1641              		.cfi_def_cfa_offset 4
 1642              		.cfi_offset 7, -4
 1643 0002 83B0     		sub	sp, sp, #12
 1644              		.cfi_def_cfa_offset 16
 1645 0004 00AF     		add	r7, sp, #0
 1646              		.cfi_def_cfa_register 7
 1647 0006 7860     		str	r0, [r7, #4]
 1648 0008 0B46     		mov	r3, r1
 1649 000a 7B80     		strh	r3, [r7, #2]	@ movhi
 520:C:/Users/leonardo/Desktop/Code/Github/DawnBGC/Libraries/FWLIB/src\gd32f4xx_timer.c ****     TIMER_DMAINTEN(timer_periph) |= (uint32_t) timer_dma; 
 1650              		.loc 1 520 34
 1651 000c 7B68     		ldr	r3, [r7, #4]
 1652 000e 0C33     		adds	r3, r3, #12
 1653 0010 1A68     		ldr	r2, [r3]
 1654              		.loc 1 520 37
 1655 0012 7B88     		ldrh	r3, [r7, #2]
 1656              		.loc 1 520 34
 1657 0014 7968     		ldr	r1, [r7, #4]
 1658 0016 0C31     		adds	r1, r1, #12
 1659 0018 1343     		orrs	r3, r3, r2
 1660 001a 0B60     		str	r3, [r1]
 521:C:/Users/leonardo/Desktop/Code/Github/DawnBGC/Libraries/FWLIB/src\gd32f4xx_timer.c **** }
 1661              		.loc 1 521 1
 1662 001c 00BF     		nop
 1663 001e 0C37     		adds	r7, r7, #12
 1664              		.cfi_def_cfa_offset 4
 1665 0020 BD46     		mov	sp, r7
 1666              		.cfi_def_cfa_register 13
 1667              		@ sp needed
 1668 0022 80BC     		pop	{r7}
 1669              		.cfi_restore 7
 1670              		.cfi_def_cfa_offset 0
 1671 0024 7047     		bx	lr
 1672              		.cfi_endproc
 1673              	.LFE148:
 1675              		.section	.text.timer_dma_disable,"ax",%progbits
 1676              		.align	1
 1677              		.global	timer_dma_disable
 1678              		.syntax unified
 1679              		.thumb
 1680              		.thumb_func
 1681              		.fpu softvfp
 1683              	timer_dma_disable:
 1684              	.LFB149:
 522:C:/Users/leonardo/Desktop/Code/Github/DawnBGC/Libraries/FWLIB/src\gd32f4xx_timer.c **** 
 523:C:/Users/leonardo/Desktop/Code/Github/DawnBGC/Libraries/FWLIB/src\gd32f4xx_timer.c **** /*!
 524:C:/Users/leonardo/Desktop/Code/Github/DawnBGC/Libraries/FWLIB/src\gd32f4xx_timer.c ****     \brief      disable the TIMER DMA
 525:C:/Users/leonardo/Desktop/Code/Github/DawnBGC/Libraries/FWLIB/src\gd32f4xx_timer.c ****     \param[in]  timer_periph: please refer to the following parameters
 526:C:/Users/leonardo/Desktop/Code/Github/DawnBGC/Libraries/FWLIB/src\gd32f4xx_timer.c ****     \param[in]  timer_dma: timer DMA source enable 
 527:C:/Users/leonardo/Desktop/Code/Github/DawnBGC/Libraries/FWLIB/src\gd32f4xx_timer.c ****       \arg        TIMER_DMA_UPD:  update DMA enable,TIMERx(x=0..7)
 528:C:/Users/leonardo/Desktop/Code/Github/DawnBGC/Libraries/FWLIB/src\gd32f4xx_timer.c ****       \arg        TIMER_DMA_CH0D: channel 0 DMA enable,TIMERx(x=0..4,7)
 529:C:/Users/leonardo/Desktop/Code/Github/DawnBGC/Libraries/FWLIB/src\gd32f4xx_timer.c ****       \arg        TIMER_DMA_CH1D: channel 1 DMA enable,TIMERx(x=0..4,7)
 530:C:/Users/leonardo/Desktop/Code/Github/DawnBGC/Libraries/FWLIB/src\gd32f4xx_timer.c ****       \arg        TIMER_DMA_CH2D: channel 2 DMA enable,TIMERx(x=0..4,7)
 531:C:/Users/leonardo/Desktop/Code/Github/DawnBGC/Libraries/FWLIB/src\gd32f4xx_timer.c ****       \arg        TIMER_DMA_CH3D: channel 3 DMA enable,TIMERx(x=0..4,7)
 532:C:/Users/leonardo/Desktop/Code/Github/DawnBGC/Libraries/FWLIB/src\gd32f4xx_timer.c ****       \arg        TIMER_DMA_CMTD: commutation DMA request enable,TIMERx(x=0,7)
 533:C:/Users/leonardo/Desktop/Code/Github/DawnBGC/Libraries/FWLIB/src\gd32f4xx_timer.c ****       \arg        TIMER_DMA_TRGD: trigger DMA enable,TIMERx(x=0..4,7)
 534:C:/Users/leonardo/Desktop/Code/Github/DawnBGC/Libraries/FWLIB/src\gd32f4xx_timer.c ****     \param[out] none
 535:C:/Users/leonardo/Desktop/Code/Github/DawnBGC/Libraries/FWLIB/src\gd32f4xx_timer.c ****     \retval     none
 536:C:/Users/leonardo/Desktop/Code/Github/DawnBGC/Libraries/FWLIB/src\gd32f4xx_timer.c **** */
 537:C:/Users/leonardo/Desktop/Code/Github/DawnBGC/Libraries/FWLIB/src\gd32f4xx_timer.c **** void timer_dma_disable(uint32_t timer_periph,uint16_t timer_dma)
 538:C:/Users/leonardo/Desktop/Code/Github/DawnBGC/Libraries/FWLIB/src\gd32f4xx_timer.c **** {
 1685              		.loc 1 538 1
 1686              		.cfi_startproc
 1687              		@ args = 0, pretend = 0, frame = 8
 1688              		@ frame_needed = 1, uses_anonymous_args = 0
 1689              		@ link register save eliminated.
 1690 0000 80B4     		push	{r7}
 1691              		.cfi_def_cfa_offset 4
 1692              		.cfi_offset 7, -4
 1693 0002 83B0     		sub	sp, sp, #12
 1694              		.cfi_def_cfa_offset 16
 1695 0004 00AF     		add	r7, sp, #0
 1696              		.cfi_def_cfa_register 7
 1697 0006 7860     		str	r0, [r7, #4]
 1698 0008 0B46     		mov	r3, r1
 1699 000a 7B80     		strh	r3, [r7, #2]	@ movhi
 539:C:/Users/leonardo/Desktop/Code/Github/DawnBGC/Libraries/FWLIB/src\gd32f4xx_timer.c ****     TIMER_DMAINTEN(timer_periph) &= (~(uint32_t)(timer_dma)); 
 1700              		.loc 1 539 34
 1701 000c 7B68     		ldr	r3, [r7, #4]
 1702 000e 0C33     		adds	r3, r3, #12
 1703 0010 1A68     		ldr	r2, [r3]
 1704              		.loc 1 539 39
 1705 0012 7B88     		ldrh	r3, [r7, #2]
 1706              		.loc 1 539 38
 1707 0014 DB43     		mvns	r3, r3
 1708              		.loc 1 539 34
 1709 0016 7968     		ldr	r1, [r7, #4]
 1710 0018 0C31     		adds	r1, r1, #12
 1711 001a 1340     		ands	r3, r3, r2
 1712 001c 0B60     		str	r3, [r1]
 540:C:/Users/leonardo/Desktop/Code/Github/DawnBGC/Libraries/FWLIB/src\gd32f4xx_timer.c **** }
 1713              		.loc 1 540 1
 1714 001e 00BF     		nop
 1715 0020 0C37     		adds	r7, r7, #12
 1716              		.cfi_def_cfa_offset 4
 1717 0022 BD46     		mov	sp, r7
 1718              		.cfi_def_cfa_register 13
 1719              		@ sp needed
 1720 0024 80BC     		pop	{r7}
 1721              		.cfi_restore 7
 1722              		.cfi_def_cfa_offset 0
 1723 0026 7047     		bx	lr
 1724              		.cfi_endproc
 1725              	.LFE149:
 1727              		.section	.text.timer_channel_dma_request_source_select,"ax",%progbits
 1728              		.align	1
 1729              		.global	timer_channel_dma_request_source_select
 1730              		.syntax unified
 1731              		.thumb
 1732              		.thumb_func
 1733              		.fpu softvfp
 1735              	timer_channel_dma_request_source_select:
 1736              	.LFB150:
 541:C:/Users/leonardo/Desktop/Code/Github/DawnBGC/Libraries/FWLIB/src\gd32f4xx_timer.c **** 
 542:C:/Users/leonardo/Desktop/Code/Github/DawnBGC/Libraries/FWLIB/src\gd32f4xx_timer.c **** /*!
 543:C:/Users/leonardo/Desktop/Code/Github/DawnBGC/Libraries/FWLIB/src\gd32f4xx_timer.c ****     \brief      channel DMA request source selection
 544:C:/Users/leonardo/Desktop/Code/Github/DawnBGC/Libraries/FWLIB/src\gd32f4xx_timer.c ****     \param[in]  timer_periph: TIMERx(x=0..4,7)
 545:C:/Users/leonardo/Desktop/Code/Github/DawnBGC/Libraries/FWLIB/src\gd32f4xx_timer.c ****     \param[in]  dma_request: channel DMA request source selection
 546:C:/Users/leonardo/Desktop/Code/Github/DawnBGC/Libraries/FWLIB/src\gd32f4xx_timer.c ****        \arg        TIMER_DMAREQUEST_CHANNELEVENT: DMA request of channel y is sent when channel y e
 547:C:/Users/leonardo/Desktop/Code/Github/DawnBGC/Libraries/FWLIB/src\gd32f4xx_timer.c ****        \arg        TIMER_DMAREQUEST_UPDATEEVENT: DMA request of channel y is sent when update event
 548:C:/Users/leonardo/Desktop/Code/Github/DawnBGC/Libraries/FWLIB/src\gd32f4xx_timer.c ****     \param[out] none
 549:C:/Users/leonardo/Desktop/Code/Github/DawnBGC/Libraries/FWLIB/src\gd32f4xx_timer.c ****     \retval     none
 550:C:/Users/leonardo/Desktop/Code/Github/DawnBGC/Libraries/FWLIB/src\gd32f4xx_timer.c **** */
 551:C:/Users/leonardo/Desktop/Code/Github/DawnBGC/Libraries/FWLIB/src\gd32f4xx_timer.c **** void timer_channel_dma_request_source_select(uint32_t timer_periph,uint8_t dma_request)
 552:C:/Users/leonardo/Desktop/Code/Github/DawnBGC/Libraries/FWLIB/src\gd32f4xx_timer.c **** {
 1737              		.loc 1 552 1
 1738              		.cfi_startproc
 1739              		@ args = 0, pretend = 0, frame = 8
 1740              		@ frame_needed = 1, uses_anonymous_args = 0
 1741              		@ link register save eliminated.
 1742 0000 80B4     		push	{r7}
 1743              		.cfi_def_cfa_offset 4
 1744              		.cfi_offset 7, -4
 1745 0002 83B0     		sub	sp, sp, #12
 1746              		.cfi_def_cfa_offset 16
 1747 0004 00AF     		add	r7, sp, #0
 1748              		.cfi_def_cfa_register 7
 1749 0006 7860     		str	r0, [r7, #4]
 1750 0008 0B46     		mov	r3, r1
 1751 000a FB70     		strb	r3, [r7, #3]
 553:C:/Users/leonardo/Desktop/Code/Github/DawnBGC/Libraries/FWLIB/src\gd32f4xx_timer.c ****     if(TIMER_DMAREQUEST_UPDATEEVENT == dma_request){
 1752              		.loc 1 553 7
 1753 000c FB78     		ldrb	r3, [r7, #3]	@ zero_extendqisi2
 1754 000e 002B     		cmp	r3, #0
 1755 0010 08D1     		bne	.L69
 554:C:/Users/leonardo/Desktop/Code/Github/DawnBGC/Libraries/FWLIB/src\gd32f4xx_timer.c ****         TIMER_CTL1(timer_periph) |= (uint32_t)TIMER_CTL1_DMAS;
 1756              		.loc 1 554 34
 1757 0012 7B68     		ldr	r3, [r7, #4]
 1758 0014 0433     		adds	r3, r3, #4
 1759 0016 1B68     		ldr	r3, [r3]
 1760 0018 7A68     		ldr	r2, [r7, #4]
 1761 001a 0432     		adds	r2, r2, #4
 1762 001c 43F00803 		orr	r3, r3, #8
 1763 0020 1360     		str	r3, [r2]
 555:C:/Users/leonardo/Desktop/Code/Github/DawnBGC/Libraries/FWLIB/src\gd32f4xx_timer.c ****     }else if(TIMER_DMAREQUEST_CHANNELEVENT == dma_request){
 556:C:/Users/leonardo/Desktop/Code/Github/DawnBGC/Libraries/FWLIB/src\gd32f4xx_timer.c ****         TIMER_CTL1(timer_periph) &= ~(uint32_t)TIMER_CTL1_DMAS;
 557:C:/Users/leonardo/Desktop/Code/Github/DawnBGC/Libraries/FWLIB/src\gd32f4xx_timer.c ****     }else{
 558:C:/Users/leonardo/Desktop/Code/Github/DawnBGC/Libraries/FWLIB/src\gd32f4xx_timer.c ****     }
 559:C:/Users/leonardo/Desktop/Code/Github/DawnBGC/Libraries/FWLIB/src\gd32f4xx_timer.c **** }
 1764              		.loc 1 559 1
 1765 0022 0AE0     		b	.L71
 1766              	.L69:
 555:C:/Users/leonardo/Desktop/Code/Github/DawnBGC/Libraries/FWLIB/src\gd32f4xx_timer.c ****     }else if(TIMER_DMAREQUEST_CHANNELEVENT == dma_request){
 1767              		.loc 1 555 13
 1768 0024 FB78     		ldrb	r3, [r7, #3]	@ zero_extendqisi2
 1769 0026 012B     		cmp	r3, #1
 1770 0028 07D1     		bne	.L71
 556:C:/Users/leonardo/Desktop/Code/Github/DawnBGC/Libraries/FWLIB/src\gd32f4xx_timer.c ****     }else{
 1771              		.loc 1 556 34
 1772 002a 7B68     		ldr	r3, [r7, #4]
 1773 002c 0433     		adds	r3, r3, #4
 1774 002e 1B68     		ldr	r3, [r3]
 1775 0030 7A68     		ldr	r2, [r7, #4]
 1776 0032 0432     		adds	r2, r2, #4
 1777 0034 23F00803 		bic	r3, r3, #8
 1778 0038 1360     		str	r3, [r2]
 1779              	.L71:
 1780              		.loc 1 559 1
 1781 003a 00BF     		nop
 1782 003c 0C37     		adds	r7, r7, #12
 1783              		.cfi_def_cfa_offset 4
 1784 003e BD46     		mov	sp, r7
 1785              		.cfi_def_cfa_register 13
 1786              		@ sp needed
 1787 0040 80BC     		pop	{r7}
 1788              		.cfi_restore 7
 1789              		.cfi_def_cfa_offset 0
 1790 0042 7047     		bx	lr
 1791              		.cfi_endproc
 1792              	.LFE150:
 1794              		.section	.text.timer_dma_transfer_config,"ax",%progbits
 1795              		.align	1
 1796              		.global	timer_dma_transfer_config
 1797              		.syntax unified
 1798              		.thumb
 1799              		.thumb_func
 1800              		.fpu softvfp
 1802              	timer_dma_transfer_config:
 1803              	.LFB151:
 560:C:/Users/leonardo/Desktop/Code/Github/DawnBGC/Libraries/FWLIB/src\gd32f4xx_timer.c **** 
 561:C:/Users/leonardo/Desktop/Code/Github/DawnBGC/Libraries/FWLIB/src\gd32f4xx_timer.c **** /*!
 562:C:/Users/leonardo/Desktop/Code/Github/DawnBGC/Libraries/FWLIB/src\gd32f4xx_timer.c ****     \brief      configure the TIMER DMA transfer
 563:C:/Users/leonardo/Desktop/Code/Github/DawnBGC/Libraries/FWLIB/src\gd32f4xx_timer.c ****     \param[in]  timer_periph: please refer to the following parameters
 564:C:/Users/leonardo/Desktop/Code/Github/DawnBGC/Libraries/FWLIB/src\gd32f4xx_timer.c ****     \param[in]  dma_baseaddr: 
 565:C:/Users/leonardo/Desktop/Code/Github/DawnBGC/Libraries/FWLIB/src\gd32f4xx_timer.c ****        \arg        TIMER_DMACFG_DMATA_CTL0: DMA transfer address is TIMER_CTL0,TIMERx(x=0..4,7)
 566:C:/Users/leonardo/Desktop/Code/Github/DawnBGC/Libraries/FWLIB/src\gd32f4xx_timer.c ****        \arg        TIMER_DMACFG_DMATA_CTL1: DMA transfer address is TIMER_CTL1,TIMERx(x=0..4,7)
 567:C:/Users/leonardo/Desktop/Code/Github/DawnBGC/Libraries/FWLIB/src\gd32f4xx_timer.c ****        \arg        TIMER_DMACFG_DMATA_SMCFG: DMA transfer address is TIMER_SMCFG,TIMERx(x=0..4,7)
 568:C:/Users/leonardo/Desktop/Code/Github/DawnBGC/Libraries/FWLIB/src\gd32f4xx_timer.c ****        \arg        TIMER_DMACFG_DMATA_DMAINTEN: DMA transfer address is TIMER_DMAINTEN,TIMERx(x=0..
 569:C:/Users/leonardo/Desktop/Code/Github/DawnBGC/Libraries/FWLIB/src\gd32f4xx_timer.c ****        \arg        TIMER_DMACFG_DMATA_INTF: DMA transfer address is TIMER_INTF,TIMERx(x=0..4,7)
 570:C:/Users/leonardo/Desktop/Code/Github/DawnBGC/Libraries/FWLIB/src\gd32f4xx_timer.c ****        \arg        TIMER_DMACFG_DMATA_SWEVG: DMA transfer address is TIMER_SWEVG,TIMERx(x=0..4,7)
 571:C:/Users/leonardo/Desktop/Code/Github/DawnBGC/Libraries/FWLIB/src\gd32f4xx_timer.c ****        \arg        TIMER_DMACFG_DMATA_CHCTL0: DMA transfer address is TIMER_CHCTL0,TIMERx(x=0..4,7)
 572:C:/Users/leonardo/Desktop/Code/Github/DawnBGC/Libraries/FWLIB/src\gd32f4xx_timer.c ****        \arg        TIMER_DMACFG_DMATA_CHCTL1: DMA transfer address is TIMER_CHCTL1,TIMERx(x=0..4,7)
 573:C:/Users/leonardo/Desktop/Code/Github/DawnBGC/Libraries/FWLIB/src\gd32f4xx_timer.c ****        \arg        TIMER_DMACFG_DMATA_CHCTL2: DMA transfer address is TIMER_CHCTL2,TIMERx(x=0..4,7)
 574:C:/Users/leonardo/Desktop/Code/Github/DawnBGC/Libraries/FWLIB/src\gd32f4xx_timer.c ****        \arg        TIMER_DMACFG_DMATA_CNT: DMA transfer address is TIMER_CNT,TIMERx(x=0..4,7)
 575:C:/Users/leonardo/Desktop/Code/Github/DawnBGC/Libraries/FWLIB/src\gd32f4xx_timer.c ****        \arg        TIMER_DMACFG_DMATA_PSC: DMA transfer address is TIMER_PSC,TIMERx(x=0..4,7)
 576:C:/Users/leonardo/Desktop/Code/Github/DawnBGC/Libraries/FWLIB/src\gd32f4xx_timer.c ****        \arg        TIMER_DMACFG_DMATA_CAR: DMA transfer address is TIMER_CAR,TIMERx(x=0..4,7)
 577:C:/Users/leonardo/Desktop/Code/Github/DawnBGC/Libraries/FWLIB/src\gd32f4xx_timer.c ****        \arg        TIMER_DMACFG_DMATA_CREP: DMA transfer address is TIMER_CREP,TIMERx(x=0,7)
 578:C:/Users/leonardo/Desktop/Code/Github/DawnBGC/Libraries/FWLIB/src\gd32f4xx_timer.c ****        \arg        TIMER_DMACFG_DMATA_CH0CV: DMA transfer address is TIMER_CH0CV,TIMERx(x=0..4,7)
 579:C:/Users/leonardo/Desktop/Code/Github/DawnBGC/Libraries/FWLIB/src\gd32f4xx_timer.c ****        \arg        TIMER_DMACFG_DMATA_CH1CV: DMA transfer address is TIMER_CH1CV,TIMERx(x=0..4,7)
 580:C:/Users/leonardo/Desktop/Code/Github/DawnBGC/Libraries/FWLIB/src\gd32f4xx_timer.c ****        \arg        TIMER_DMACFG_DMATA_CH2CV: DMA transfer address is TIMER_CH2CV,TIMERx(x=0..4,7)
 581:C:/Users/leonardo/Desktop/Code/Github/DawnBGC/Libraries/FWLIB/src\gd32f4xx_timer.c ****        \arg        TIMER_DMACFG_DMATA_CH3CV: DMA transfer address is TIMER_CH3CV,TIMERx(x=0..4,7)
 582:C:/Users/leonardo/Desktop/Code/Github/DawnBGC/Libraries/FWLIB/src\gd32f4xx_timer.c ****        \arg        TIMER_DMACFG_DMATA_CCHP: DMA transfer address is TIMER_CCHP,TIMERx(x=0,7)
 583:C:/Users/leonardo/Desktop/Code/Github/DawnBGC/Libraries/FWLIB/src\gd32f4xx_timer.c ****        \arg        TIMER_DMACFG_DMATA_DMACFG: DMA transfer address is TIMER_DMACFG,TIMERx(x=0..4,7)
 584:C:/Users/leonardo/Desktop/Code/Github/DawnBGC/Libraries/FWLIB/src\gd32f4xx_timer.c ****        \arg        TIMER_DMACFG_DMATA_DMATB: DMA transfer address is TIMER_DMATB,TIMERx(x=0..4,7)
 585:C:/Users/leonardo/Desktop/Code/Github/DawnBGC/Libraries/FWLIB/src\gd32f4xx_timer.c ****     \param[in]  dma_lenth:
 586:C:/Users/leonardo/Desktop/Code/Github/DawnBGC/Libraries/FWLIB/src\gd32f4xx_timer.c ****        \arg        TIMER_DMACFG_DMATC_xTRANSFER(x=1..18): DMA transfer x time
 587:C:/Users/leonardo/Desktop/Code/Github/DawnBGC/Libraries/FWLIB/src\gd32f4xx_timer.c ****     \param[out] none
 588:C:/Users/leonardo/Desktop/Code/Github/DawnBGC/Libraries/FWLIB/src\gd32f4xx_timer.c ****     \retval     none
 589:C:/Users/leonardo/Desktop/Code/Github/DawnBGC/Libraries/FWLIB/src\gd32f4xx_timer.c **** */
 590:C:/Users/leonardo/Desktop/Code/Github/DawnBGC/Libraries/FWLIB/src\gd32f4xx_timer.c **** void timer_dma_transfer_config(uint32_t timer_periph,uint32_t dma_baseaddr,uint32_t dma_lenth)
 591:C:/Users/leonardo/Desktop/Code/Github/DawnBGC/Libraries/FWLIB/src\gd32f4xx_timer.c **** {
 1804              		.loc 1 591 1
 1805              		.cfi_startproc
 1806              		@ args = 0, pretend = 0, frame = 16
 1807              		@ frame_needed = 1, uses_anonymous_args = 0
 1808              		@ link register save eliminated.
 1809 0000 80B4     		push	{r7}
 1810              		.cfi_def_cfa_offset 4
 1811              		.cfi_offset 7, -4
 1812 0002 85B0     		sub	sp, sp, #20
 1813              		.cfi_def_cfa_offset 24
 1814 0004 00AF     		add	r7, sp, #0
 1815              		.cfi_def_cfa_register 7
 1816 0006 F860     		str	r0, [r7, #12]
 1817 0008 B960     		str	r1, [r7, #8]
 1818 000a 7A60     		str	r2, [r7, #4]
 592:C:/Users/leonardo/Desktop/Code/Github/DawnBGC/Libraries/FWLIB/src\gd32f4xx_timer.c ****     TIMER_DMACFG(timer_periph) &= (~(uint32_t)(TIMER_DMACFG_DMATA | TIMER_DMACFG_DMATC));
 1819              		.loc 1 592 32
 1820 000c FB68     		ldr	r3, [r7, #12]
 1821 000e 4833     		adds	r3, r3, #72
 1822 0010 1B68     		ldr	r3, [r3]
 1823 0012 FA68     		ldr	r2, [r7, #12]
 1824 0014 4832     		adds	r2, r2, #72
 1825 0016 23F4F853 		bic	r3, r3, #7936
 1826 001a 23F01F03 		bic	r3, r3, #31
 1827 001e 1360     		str	r3, [r2]
 593:C:/Users/leonardo/Desktop/Code/Github/DawnBGC/Libraries/FWLIB/src\gd32f4xx_timer.c ****     TIMER_DMACFG(timer_periph) |= (uint32_t)(dma_baseaddr | dma_lenth);
 1828              		.loc 1 593 32
 1829 0020 FB68     		ldr	r3, [r7, #12]
 1830 0022 4833     		adds	r3, r3, #72
 1831 0024 1A68     		ldr	r2, [r3]
 1832              		.loc 1 593 59
 1833 0026 B968     		ldr	r1, [r7, #8]
 1834 0028 7B68     		ldr	r3, [r7, #4]
 1835 002a 0B43     		orrs	r3, r3, r1
 1836              		.loc 1 593 32
 1837 002c F968     		ldr	r1, [r7, #12]
 1838 002e 4831     		adds	r1, r1, #72
 1839 0030 1343     		orrs	r3, r3, r2
 1840 0032 0B60     		str	r3, [r1]
 594:C:/Users/leonardo/Desktop/Code/Github/DawnBGC/Libraries/FWLIB/src\gd32f4xx_timer.c **** }
 1841              		.loc 1 594 1
 1842 0034 00BF     		nop
 1843 0036 1437     		adds	r7, r7, #20
 1844              		.cfi_def_cfa_offset 4
 1845 0038 BD46     		mov	sp, r7
 1846              		.cfi_def_cfa_register 13
 1847              		@ sp needed
 1848 003a 80BC     		pop	{r7}
 1849              		.cfi_restore 7
 1850              		.cfi_def_cfa_offset 0
 1851 003c 7047     		bx	lr
 1852              		.cfi_endproc
 1853              	.LFE151:
 1855              		.section	.text.timer_event_software_generate,"ax",%progbits
 1856              		.align	1
 1857              		.global	timer_event_software_generate
 1858              		.syntax unified
 1859              		.thumb
 1860              		.thumb_func
 1861              		.fpu softvfp
 1863              	timer_event_software_generate:
 1864              	.LFB152:
 595:C:/Users/leonardo/Desktop/Code/Github/DawnBGC/Libraries/FWLIB/src\gd32f4xx_timer.c **** 
 596:C:/Users/leonardo/Desktop/Code/Github/DawnBGC/Libraries/FWLIB/src\gd32f4xx_timer.c **** /*!
 597:C:/Users/leonardo/Desktop/Code/Github/DawnBGC/Libraries/FWLIB/src\gd32f4xx_timer.c ****     \brief      software generate events 
 598:C:/Users/leonardo/Desktop/Code/Github/DawnBGC/Libraries/FWLIB/src\gd32f4xx_timer.c ****     \param[in]  timer_periph: please refer to the following parameters
 599:C:/Users/leonardo/Desktop/Code/Github/DawnBGC/Libraries/FWLIB/src\gd32f4xx_timer.c ****     \param[in]  timer_event: the timer software event generation sources
 600:C:/Users/leonardo/Desktop/Code/Github/DawnBGC/Libraries/FWLIB/src\gd32f4xx_timer.c ****       \arg        TIMER_EVENT_SRC_UPG: update event,TIMERx(x=0..13)
 601:C:/Users/leonardo/Desktop/Code/Github/DawnBGC/Libraries/FWLIB/src\gd32f4xx_timer.c ****       \arg        TIMER_EVENT_SRC_CH0G: channel 0 capture or compare event generation,TIMERx(x=0..4
 602:C:/Users/leonardo/Desktop/Code/Github/DawnBGC/Libraries/FWLIB/src\gd32f4xx_timer.c ****       \arg        TIMER_EVENT_SRC_CH1G: channel 1 capture or compare event generation,TIMERx(x=0..4
 603:C:/Users/leonardo/Desktop/Code/Github/DawnBGC/Libraries/FWLIB/src\gd32f4xx_timer.c ****       \arg        TIMER_EVENT_SRC_CH2G: channel 2 capture or compare event generation,TIMERx(x=0..4
 604:C:/Users/leonardo/Desktop/Code/Github/DawnBGC/Libraries/FWLIB/src\gd32f4xx_timer.c ****       \arg        TIMER_EVENT_SRC_CH3G: channel 3 capture or compare event generation,TIMERx(x=0..4
 605:C:/Users/leonardo/Desktop/Code/Github/DawnBGC/Libraries/FWLIB/src\gd32f4xx_timer.c ****       \arg        TIMER_EVENT_SRC_CMTG: channel commutation event generation,TIMERx(x=0,7) 
 606:C:/Users/leonardo/Desktop/Code/Github/DawnBGC/Libraries/FWLIB/src\gd32f4xx_timer.c ****       \arg        TIMER_EVENT_SRC_TRGG: trigger event generation,TIMERx(x=0..4,7,8,11)
 607:C:/Users/leonardo/Desktop/Code/Github/DawnBGC/Libraries/FWLIB/src\gd32f4xx_timer.c ****       \arg        TIMER_EVENT_SRC_BRKG:  break event generation,TIMERx(x=0,7)
 608:C:/Users/leonardo/Desktop/Code/Github/DawnBGC/Libraries/FWLIB/src\gd32f4xx_timer.c ****     \param[out] none
 609:C:/Users/leonardo/Desktop/Code/Github/DawnBGC/Libraries/FWLIB/src\gd32f4xx_timer.c ****     \retval     none
 610:C:/Users/leonardo/Desktop/Code/Github/DawnBGC/Libraries/FWLIB/src\gd32f4xx_timer.c **** */
 611:C:/Users/leonardo/Desktop/Code/Github/DawnBGC/Libraries/FWLIB/src\gd32f4xx_timer.c **** void timer_event_software_generate(uint32_t timer_periph,uint16_t timer_event)
 612:C:/Users/leonardo/Desktop/Code/Github/DawnBGC/Libraries/FWLIB/src\gd32f4xx_timer.c **** {
 1865              		.loc 1 612 1
 1866              		.cfi_startproc
 1867              		@ args = 0, pretend = 0, frame = 8
 1868              		@ frame_needed = 1, uses_anonymous_args = 0
 1869              		@ link register save eliminated.
 1870 0000 80B4     		push	{r7}
 1871              		.cfi_def_cfa_offset 4
 1872              		.cfi_offset 7, -4
 1873 0002 83B0     		sub	sp, sp, #12
 1874              		.cfi_def_cfa_offset 16
 1875 0004 00AF     		add	r7, sp, #0
 1876              		.cfi_def_cfa_register 7
 1877 0006 7860     		str	r0, [r7, #4]
 1878 0008 0B46     		mov	r3, r1
 1879 000a 7B80     		strh	r3, [r7, #2]	@ movhi
 613:C:/Users/leonardo/Desktop/Code/Github/DawnBGC/Libraries/FWLIB/src\gd32f4xx_timer.c ****     TIMER_SWEVG(timer_periph) |= (uint32_t)timer_event;
 1880              		.loc 1 613 31
 1881 000c 7B68     		ldr	r3, [r7, #4]
 1882 000e 1433     		adds	r3, r3, #20
 1883 0010 1A68     		ldr	r2, [r3]
 1884              		.loc 1 613 34
 1885 0012 7B88     		ldrh	r3, [r7, #2]
 1886              		.loc 1 613 31
 1887 0014 7968     		ldr	r1, [r7, #4]
 1888 0016 1431     		adds	r1, r1, #20
 1889 0018 1343     		orrs	r3, r3, r2
 1890 001a 0B60     		str	r3, [r1]
 614:C:/Users/leonardo/Desktop/Code/Github/DawnBGC/Libraries/FWLIB/src\gd32f4xx_timer.c **** }
 1891              		.loc 1 614 1
 1892 001c 00BF     		nop
 1893 001e 0C37     		adds	r7, r7, #12
 1894              		.cfi_def_cfa_offset 4
 1895 0020 BD46     		mov	sp, r7
 1896              		.cfi_def_cfa_register 13
 1897              		@ sp needed
 1898 0022 80BC     		pop	{r7}
 1899              		.cfi_restore 7
 1900              		.cfi_def_cfa_offset 0
 1901 0024 7047     		bx	lr
 1902              		.cfi_endproc
 1903              	.LFE152:
 1905              		.section	.text.timer_break_config,"ax",%progbits
 1906              		.align	1
 1907              		.global	timer_break_config
 1908              		.syntax unified
 1909              		.thumb
 1910              		.thumb_func
 1911              		.fpu softvfp
 1913              	timer_break_config:
 1914              	.LFB153:
 615:C:/Users/leonardo/Desktop/Code/Github/DawnBGC/Libraries/FWLIB/src\gd32f4xx_timer.c **** 
 616:C:/Users/leonardo/Desktop/Code/Github/DawnBGC/Libraries/FWLIB/src\gd32f4xx_timer.c **** /*!
 617:C:/Users/leonardo/Desktop/Code/Github/DawnBGC/Libraries/FWLIB/src\gd32f4xx_timer.c ****     \brief      configure TIMER break function 
 618:C:/Users/leonardo/Desktop/Code/Github/DawnBGC/Libraries/FWLIB/src\gd32f4xx_timer.c ****     \param[in]  timer_periph: TIMERx(x=0,7)
 619:C:/Users/leonardo/Desktop/Code/Github/DawnBGC/Libraries/FWLIB/src\gd32f4xx_timer.c ****     \param[in]  timer_bkdtpara: TIMER break parameter struct
 620:C:/Users/leonardo/Desktop/Code/Github/DawnBGC/Libraries/FWLIB/src\gd32f4xx_timer.c ****                 runoffstate: TIMER_ROS_STATE_ENABLE,TIMER_ROS_STATE_DISABLE
 621:C:/Users/leonardo/Desktop/Code/Github/DawnBGC/Libraries/FWLIB/src\gd32f4xx_timer.c ****                 ideloffstate: TIMER_IOS_STATE_ENABLE,TIMER_IOS_STATE_DISABLE
 622:C:/Users/leonardo/Desktop/Code/Github/DawnBGC/Libraries/FWLIB/src\gd32f4xx_timer.c ****                 deadtime: 0~255
 623:C:/Users/leonardo/Desktop/Code/Github/DawnBGC/Libraries/FWLIB/src\gd32f4xx_timer.c ****                 breakpolarity: TIMER_BREAK_POLARITY_LOW,TIMER_BREAK_POLARITY_HIGH
 624:C:/Users/leonardo/Desktop/Code/Github/DawnBGC/Libraries/FWLIB/src\gd32f4xx_timer.c ****                 outputautostate: TIMER_OUTAUTO_ENABLE,TIMER_OUTAUTO_DISABLE
 625:C:/Users/leonardo/Desktop/Code/Github/DawnBGC/Libraries/FWLIB/src\gd32f4xx_timer.c ****                 protectmode: TIMER_CCHP_PROT_OFF,TIMER_CCHP_PROT_0,TIMER_CCHP_PROT_1,TIMER_CCHP_PRO
 626:C:/Users/leonardo/Desktop/Code/Github/DawnBGC/Libraries/FWLIB/src\gd32f4xx_timer.c ****                 breakstate: TIMER_BREAK_ENABLE,TIMER_BREAK_DISABLE
 627:C:/Users/leonardo/Desktop/Code/Github/DawnBGC/Libraries/FWLIB/src\gd32f4xx_timer.c ****     \param[out] none
 628:C:/Users/leonardo/Desktop/Code/Github/DawnBGC/Libraries/FWLIB/src\gd32f4xx_timer.c ****     \retval     none
 629:C:/Users/leonardo/Desktop/Code/Github/DawnBGC/Libraries/FWLIB/src\gd32f4xx_timer.c **** */
 630:C:/Users/leonardo/Desktop/Code/Github/DawnBGC/Libraries/FWLIB/src\gd32f4xx_timer.c **** void timer_break_config(uint32_t timer_periph,timer_break_parameter_struct* timer_bkdtpara)
 631:C:/Users/leonardo/Desktop/Code/Github/DawnBGC/Libraries/FWLIB/src\gd32f4xx_timer.c **** {
 1915              		.loc 1 631 1
 1916              		.cfi_startproc
 1917              		@ args = 0, pretend = 0, frame = 8
 1918              		@ frame_needed = 1, uses_anonymous_args = 0
 1919              		@ link register save eliminated.
 1920 0000 80B4     		push	{r7}
 1921              		.cfi_def_cfa_offset 4
 1922              		.cfi_offset 7, -4
 1923 0002 83B0     		sub	sp, sp, #12
 1924              		.cfi_def_cfa_offset 16
 1925 0004 00AF     		add	r7, sp, #0
 1926              		.cfi_def_cfa_register 7
 1927 0006 7860     		str	r0, [r7, #4]
 1928 0008 3960     		str	r1, [r7]
 632:C:/Users/leonardo/Desktop/Code/Github/DawnBGC/Libraries/FWLIB/src\gd32f4xx_timer.c ****     TIMER_CCHP(timer_periph) = (uint32_t)(((uint32_t)(timer_bkdtpara->runoffstate))|
 1929              		.loc 1 632 69
 1930 000a 3B68     		ldr	r3, [r7]
 1931 000c 1B88     		ldrh	r3, [r3]
 1932              		.loc 1 632 44
 1933 000e 1A46     		mov	r2, r3
 633:C:/Users/leonardo/Desktop/Code/Github/DawnBGC/Libraries/FWLIB/src\gd32f4xx_timer.c ****                                           ((uint32_t)(timer_bkdtpara->ideloffstate))|
 1934              		.loc 1 633 69
 1935 0010 3B68     		ldr	r3, [r7]
 1936 0012 5B68     		ldr	r3, [r3, #4]
 632:C:/Users/leonardo/Desktop/Code/Github/DawnBGC/Libraries/FWLIB/src\gd32f4xx_timer.c ****     TIMER_CCHP(timer_periph) = (uint32_t)(((uint32_t)(timer_bkdtpara->runoffstate))|
 1937              		.loc 1 632 84
 1938 0014 1343     		orrs	r3, r3, r2
 634:C:/Users/leonardo/Desktop/Code/Github/DawnBGC/Libraries/FWLIB/src\gd32f4xx_timer.c ****                                           ((uint32_t)(timer_bkdtpara->deadtime))|
 1939              		.loc 1 634 69
 1940 0016 3A68     		ldr	r2, [r7]
 1941 0018 1289     		ldrh	r2, [r2, #8]
 633:C:/Users/leonardo/Desktop/Code/Github/DawnBGC/Libraries/FWLIB/src\gd32f4xx_timer.c ****                                           ((uint32_t)(timer_bkdtpara->ideloffstate))|
 1942              		.loc 1 633 85
 1943 001a 1343     		orrs	r3, r3, r2
 635:C:/Users/leonardo/Desktop/Code/Github/DawnBGC/Libraries/FWLIB/src\gd32f4xx_timer.c ****                                           ((uint32_t)(timer_bkdtpara->breakpolarity))|
 1944              		.loc 1 635 69
 1945 001c 3A68     		ldr	r2, [r7]
 1946 001e 5289     		ldrh	r2, [r2, #10]
 634:C:/Users/leonardo/Desktop/Code/Github/DawnBGC/Libraries/FWLIB/src\gd32f4xx_timer.c ****                                           ((uint32_t)(timer_bkdtpara->deadtime))|
 1947              		.loc 1 634 81
 1948 0020 1343     		orrs	r3, r3, r2
 636:C:/Users/leonardo/Desktop/Code/Github/DawnBGC/Libraries/FWLIB/src\gd32f4xx_timer.c ****                                           ((uint32_t)(timer_bkdtpara->outputautostate)) |
 1949              		.loc 1 636 69
 1950 0022 3A68     		ldr	r2, [r7]
 1951 0024 9289     		ldrh	r2, [r2, #12]
 635:C:/Users/leonardo/Desktop/Code/Github/DawnBGC/Libraries/FWLIB/src\gd32f4xx_timer.c ****                                           ((uint32_t)(timer_bkdtpara->breakpolarity))|
 1952              		.loc 1 635 86
 1953 0026 1343     		orrs	r3, r3, r2
 637:C:/Users/leonardo/Desktop/Code/Github/DawnBGC/Libraries/FWLIB/src\gd32f4xx_timer.c ****                                           ((uint32_t)(timer_bkdtpara->protectmode))|
 1954              		.loc 1 637 69
 1955 0028 3A68     		ldr	r2, [r7]
 1956 002a D289     		ldrh	r2, [r2, #14]
 636:C:/Users/leonardo/Desktop/Code/Github/DawnBGC/Libraries/FWLIB/src\gd32f4xx_timer.c ****                                           ((uint32_t)(timer_bkdtpara->outputautostate)) |
 1957              		.loc 1 636 89
 1958 002c 1343     		orrs	r3, r3, r2
 638:C:/Users/leonardo/Desktop/Code/Github/DawnBGC/Libraries/FWLIB/src\gd32f4xx_timer.c ****                                           ((uint32_t)(timer_bkdtpara->breakstate))) ;
 1959              		.loc 1 638 69
 1960 002e 3A68     		ldr	r2, [r7]
 1961 0030 128A     		ldrh	r2, [r2, #16]
 1962              		.loc 1 638 44
 1963 0032 1146     		mov	r1, r2
 632:C:/Users/leonardo/Desktop/Code/Github/DawnBGC/Libraries/FWLIB/src\gd32f4xx_timer.c ****                                           ((uint32_t)(timer_bkdtpara->ideloffstate))|
 1964              		.loc 1 632 5
 1965 0034 7A68     		ldr	r2, [r7, #4]
 1966 0036 4432     		adds	r2, r2, #68
 632:C:/Users/leonardo/Desktop/Code/Github/DawnBGC/Libraries/FWLIB/src\gd32f4xx_timer.c ****                                           ((uint32_t)(timer_bkdtpara->ideloffstate))|
 1967              		.loc 1 632 32
 1968 0038 0B43     		orrs	r3, r3, r1
 632:C:/Users/leonardo/Desktop/Code/Github/DawnBGC/Libraries/FWLIB/src\gd32f4xx_timer.c ****                                           ((uint32_t)(timer_bkdtpara->ideloffstate))|
 1969              		.loc 1 632 30
 1970 003a 1360     		str	r3, [r2]
 639:C:/Users/leonardo/Desktop/Code/Github/DawnBGC/Libraries/FWLIB/src\gd32f4xx_timer.c **** }
 1971              		.loc 1 639 1
 1972 003c 00BF     		nop
 1973 003e 0C37     		adds	r7, r7, #12
 1974              		.cfi_def_cfa_offset 4
 1975 0040 BD46     		mov	sp, r7
 1976              		.cfi_def_cfa_register 13
 1977              		@ sp needed
 1978 0042 80BC     		pop	{r7}
 1979              		.cfi_restore 7
 1980              		.cfi_def_cfa_offset 0
 1981 0044 7047     		bx	lr
 1982              		.cfi_endproc
 1983              	.LFE153:
 1985              		.section	.text.timer_break_enable,"ax",%progbits
 1986              		.align	1
 1987              		.global	timer_break_enable
 1988              		.syntax unified
 1989              		.thumb
 1990              		.thumb_func
 1991              		.fpu softvfp
 1993              	timer_break_enable:
 1994              	.LFB154:
 640:C:/Users/leonardo/Desktop/Code/Github/DawnBGC/Libraries/FWLIB/src\gd32f4xx_timer.c **** 
 641:C:/Users/leonardo/Desktop/Code/Github/DawnBGC/Libraries/FWLIB/src\gd32f4xx_timer.c **** /*!
 642:C:/Users/leonardo/Desktop/Code/Github/DawnBGC/Libraries/FWLIB/src\gd32f4xx_timer.c ****     \brief      enable TIMER break function
 643:C:/Users/leonardo/Desktop/Code/Github/DawnBGC/Libraries/FWLIB/src\gd32f4xx_timer.c ****     \param[in]  timer_periph: TIMERx(x=0,7)
 644:C:/Users/leonardo/Desktop/Code/Github/DawnBGC/Libraries/FWLIB/src\gd32f4xx_timer.c ****     \param[out] none
 645:C:/Users/leonardo/Desktop/Code/Github/DawnBGC/Libraries/FWLIB/src\gd32f4xx_timer.c ****     \retval     none
 646:C:/Users/leonardo/Desktop/Code/Github/DawnBGC/Libraries/FWLIB/src\gd32f4xx_timer.c **** */
 647:C:/Users/leonardo/Desktop/Code/Github/DawnBGC/Libraries/FWLIB/src\gd32f4xx_timer.c **** void timer_break_enable(uint32_t timer_periph)
 648:C:/Users/leonardo/Desktop/Code/Github/DawnBGC/Libraries/FWLIB/src\gd32f4xx_timer.c **** {
 1995              		.loc 1 648 1
 1996              		.cfi_startproc
 1997              		@ args = 0, pretend = 0, frame = 8
 1998              		@ frame_needed = 1, uses_anonymous_args = 0
 1999              		@ link register save eliminated.
 2000 0000 80B4     		push	{r7}
 2001              		.cfi_def_cfa_offset 4
 2002              		.cfi_offset 7, -4
 2003 0002 83B0     		sub	sp, sp, #12
 2004              		.cfi_def_cfa_offset 16
 2005 0004 00AF     		add	r7, sp, #0
 2006              		.cfi_def_cfa_register 7
 2007 0006 7860     		str	r0, [r7, #4]
 649:C:/Users/leonardo/Desktop/Code/Github/DawnBGC/Libraries/FWLIB/src\gd32f4xx_timer.c ****     TIMER_CCHP(timer_periph) |= (uint32_t)TIMER_CCHP_BRKEN;
 2008              		.loc 1 649 30
 2009 0008 7B68     		ldr	r3, [r7, #4]
 2010 000a 4433     		adds	r3, r3, #68
 2011 000c 1B68     		ldr	r3, [r3]
 2012 000e 7A68     		ldr	r2, [r7, #4]
 2013 0010 4432     		adds	r2, r2, #68
 2014 0012 43F48053 		orr	r3, r3, #4096
 2015 0016 1360     		str	r3, [r2]
 650:C:/Users/leonardo/Desktop/Code/Github/DawnBGC/Libraries/FWLIB/src\gd32f4xx_timer.c **** }
 2016              		.loc 1 650 1
 2017 0018 00BF     		nop
 2018 001a 0C37     		adds	r7, r7, #12
 2019              		.cfi_def_cfa_offset 4
 2020 001c BD46     		mov	sp, r7
 2021              		.cfi_def_cfa_register 13
 2022              		@ sp needed
 2023 001e 80BC     		pop	{r7}
 2024              		.cfi_restore 7
 2025              		.cfi_def_cfa_offset 0
 2026 0020 7047     		bx	lr
 2027              		.cfi_endproc
 2028              	.LFE154:
 2030              		.section	.text.timer_break_disable,"ax",%progbits
 2031              		.align	1
 2032              		.global	timer_break_disable
 2033              		.syntax unified
 2034              		.thumb
 2035              		.thumb_func
 2036              		.fpu softvfp
 2038              	timer_break_disable:
 2039              	.LFB155:
 651:C:/Users/leonardo/Desktop/Code/Github/DawnBGC/Libraries/FWLIB/src\gd32f4xx_timer.c **** 
 652:C:/Users/leonardo/Desktop/Code/Github/DawnBGC/Libraries/FWLIB/src\gd32f4xx_timer.c **** /*!
 653:C:/Users/leonardo/Desktop/Code/Github/DawnBGC/Libraries/FWLIB/src\gd32f4xx_timer.c ****     \brief      disable TIMER break function
 654:C:/Users/leonardo/Desktop/Code/Github/DawnBGC/Libraries/FWLIB/src\gd32f4xx_timer.c ****     \param[in]  timer_periph: TIMERx(x=0,7)
 655:C:/Users/leonardo/Desktop/Code/Github/DawnBGC/Libraries/FWLIB/src\gd32f4xx_timer.c ****     \param[out] none
 656:C:/Users/leonardo/Desktop/Code/Github/DawnBGC/Libraries/FWLIB/src\gd32f4xx_timer.c ****     \retval     none
 657:C:/Users/leonardo/Desktop/Code/Github/DawnBGC/Libraries/FWLIB/src\gd32f4xx_timer.c **** */
 658:C:/Users/leonardo/Desktop/Code/Github/DawnBGC/Libraries/FWLIB/src\gd32f4xx_timer.c **** void timer_break_disable(uint32_t timer_periph)
 659:C:/Users/leonardo/Desktop/Code/Github/DawnBGC/Libraries/FWLIB/src\gd32f4xx_timer.c **** {
 2040              		.loc 1 659 1
 2041              		.cfi_startproc
 2042              		@ args = 0, pretend = 0, frame = 8
 2043              		@ frame_needed = 1, uses_anonymous_args = 0
 2044              		@ link register save eliminated.
 2045 0000 80B4     		push	{r7}
 2046              		.cfi_def_cfa_offset 4
 2047              		.cfi_offset 7, -4
 2048 0002 83B0     		sub	sp, sp, #12
 2049              		.cfi_def_cfa_offset 16
 2050 0004 00AF     		add	r7, sp, #0
 2051              		.cfi_def_cfa_register 7
 2052 0006 7860     		str	r0, [r7, #4]
 660:C:/Users/leonardo/Desktop/Code/Github/DawnBGC/Libraries/FWLIB/src\gd32f4xx_timer.c ****     TIMER_CCHP(timer_periph) &= ~(uint32_t)TIMER_CCHP_BRKEN;
 2053              		.loc 1 660 30
 2054 0008 7B68     		ldr	r3, [r7, #4]
 2055 000a 4433     		adds	r3, r3, #68
 2056 000c 1B68     		ldr	r3, [r3]
 2057 000e 7A68     		ldr	r2, [r7, #4]
 2058 0010 4432     		adds	r2, r2, #68
 2059 0012 23F48053 		bic	r3, r3, #4096
 2060 0016 1360     		str	r3, [r2]
 661:C:/Users/leonardo/Desktop/Code/Github/DawnBGC/Libraries/FWLIB/src\gd32f4xx_timer.c **** }
 2061              		.loc 1 661 1
 2062 0018 00BF     		nop
 2063 001a 0C37     		adds	r7, r7, #12
 2064              		.cfi_def_cfa_offset 4
 2065 001c BD46     		mov	sp, r7
 2066              		.cfi_def_cfa_register 13
 2067              		@ sp needed
 2068 001e 80BC     		pop	{r7}
 2069              		.cfi_restore 7
 2070              		.cfi_def_cfa_offset 0
 2071 0020 7047     		bx	lr
 2072              		.cfi_endproc
 2073              	.LFE155:
 2075              		.section	.text.timer_automatic_output_enable,"ax",%progbits
 2076              		.align	1
 2077              		.global	timer_automatic_output_enable
 2078              		.syntax unified
 2079              		.thumb
 2080              		.thumb_func
 2081              		.fpu softvfp
 2083              	timer_automatic_output_enable:
 2084              	.LFB156:
 662:C:/Users/leonardo/Desktop/Code/Github/DawnBGC/Libraries/FWLIB/src\gd32f4xx_timer.c **** 
 663:C:/Users/leonardo/Desktop/Code/Github/DawnBGC/Libraries/FWLIB/src\gd32f4xx_timer.c **** /*!
 664:C:/Users/leonardo/Desktop/Code/Github/DawnBGC/Libraries/FWLIB/src\gd32f4xx_timer.c ****     \brief      enable TIMER output automatic function
 665:C:/Users/leonardo/Desktop/Code/Github/DawnBGC/Libraries/FWLIB/src\gd32f4xx_timer.c ****     \param[in]  timer_periph: TIMERx(x=0,7)
 666:C:/Users/leonardo/Desktop/Code/Github/DawnBGC/Libraries/FWLIB/src\gd32f4xx_timer.c ****     \param[out] none
 667:C:/Users/leonardo/Desktop/Code/Github/DawnBGC/Libraries/FWLIB/src\gd32f4xx_timer.c ****     \retval     none
 668:C:/Users/leonardo/Desktop/Code/Github/DawnBGC/Libraries/FWLIB/src\gd32f4xx_timer.c **** */
 669:C:/Users/leonardo/Desktop/Code/Github/DawnBGC/Libraries/FWLIB/src\gd32f4xx_timer.c **** void timer_automatic_output_enable(uint32_t timer_periph)
 670:C:/Users/leonardo/Desktop/Code/Github/DawnBGC/Libraries/FWLIB/src\gd32f4xx_timer.c **** {
 2085              		.loc 1 670 1
 2086              		.cfi_startproc
 2087              		@ args = 0, pretend = 0, frame = 8
 2088              		@ frame_needed = 1, uses_anonymous_args = 0
 2089              		@ link register save eliminated.
 2090 0000 80B4     		push	{r7}
 2091              		.cfi_def_cfa_offset 4
 2092              		.cfi_offset 7, -4
 2093 0002 83B0     		sub	sp, sp, #12
 2094              		.cfi_def_cfa_offset 16
 2095 0004 00AF     		add	r7, sp, #0
 2096              		.cfi_def_cfa_register 7
 2097 0006 7860     		str	r0, [r7, #4]
 671:C:/Users/leonardo/Desktop/Code/Github/DawnBGC/Libraries/FWLIB/src\gd32f4xx_timer.c ****     TIMER_CCHP(timer_periph) |= (uint32_t)TIMER_CCHP_OAEN;
 2098              		.loc 1 671 30
 2099 0008 7B68     		ldr	r3, [r7, #4]
 2100 000a 4433     		adds	r3, r3, #68
 2101 000c 1B68     		ldr	r3, [r3]
 2102 000e 7A68     		ldr	r2, [r7, #4]
 2103 0010 4432     		adds	r2, r2, #68
 2104 0012 43F48043 		orr	r3, r3, #16384
 2105 0016 1360     		str	r3, [r2]
 672:C:/Users/leonardo/Desktop/Code/Github/DawnBGC/Libraries/FWLIB/src\gd32f4xx_timer.c **** }
 2106              		.loc 1 672 1
 2107 0018 00BF     		nop
 2108 001a 0C37     		adds	r7, r7, #12
 2109              		.cfi_def_cfa_offset 4
 2110 001c BD46     		mov	sp, r7
 2111              		.cfi_def_cfa_register 13
 2112              		@ sp needed
 2113 001e 80BC     		pop	{r7}
 2114              		.cfi_restore 7
 2115              		.cfi_def_cfa_offset 0
 2116 0020 7047     		bx	lr
 2117              		.cfi_endproc
 2118              	.LFE156:
 2120              		.section	.text.timer_automatic_output_disable,"ax",%progbits
 2121              		.align	1
 2122              		.global	timer_automatic_output_disable
 2123              		.syntax unified
 2124              		.thumb
 2125              		.thumb_func
 2126              		.fpu softvfp
 2128              	timer_automatic_output_disable:
 2129              	.LFB157:
 673:C:/Users/leonardo/Desktop/Code/Github/DawnBGC/Libraries/FWLIB/src\gd32f4xx_timer.c **** 
 674:C:/Users/leonardo/Desktop/Code/Github/DawnBGC/Libraries/FWLIB/src\gd32f4xx_timer.c **** /*!
 675:C:/Users/leonardo/Desktop/Code/Github/DawnBGC/Libraries/FWLIB/src\gd32f4xx_timer.c ****     \brief      disable TIMER output automatic function
 676:C:/Users/leonardo/Desktop/Code/Github/DawnBGC/Libraries/FWLIB/src\gd32f4xx_timer.c ****     \param[in]  timer_periph: TIMERx(x=0,7)
 677:C:/Users/leonardo/Desktop/Code/Github/DawnBGC/Libraries/FWLIB/src\gd32f4xx_timer.c ****     \param[out] none
 678:C:/Users/leonardo/Desktop/Code/Github/DawnBGC/Libraries/FWLIB/src\gd32f4xx_timer.c ****     \retval     none
 679:C:/Users/leonardo/Desktop/Code/Github/DawnBGC/Libraries/FWLIB/src\gd32f4xx_timer.c **** */
 680:C:/Users/leonardo/Desktop/Code/Github/DawnBGC/Libraries/FWLIB/src\gd32f4xx_timer.c **** void timer_automatic_output_disable(uint32_t timer_periph)
 681:C:/Users/leonardo/Desktop/Code/Github/DawnBGC/Libraries/FWLIB/src\gd32f4xx_timer.c **** {
 2130              		.loc 1 681 1
 2131              		.cfi_startproc
 2132              		@ args = 0, pretend = 0, frame = 8
 2133              		@ frame_needed = 1, uses_anonymous_args = 0
 2134              		@ link register save eliminated.
 2135 0000 80B4     		push	{r7}
 2136              		.cfi_def_cfa_offset 4
 2137              		.cfi_offset 7, -4
 2138 0002 83B0     		sub	sp, sp, #12
 2139              		.cfi_def_cfa_offset 16
 2140 0004 00AF     		add	r7, sp, #0
 2141              		.cfi_def_cfa_register 7
 2142 0006 7860     		str	r0, [r7, #4]
 682:C:/Users/leonardo/Desktop/Code/Github/DawnBGC/Libraries/FWLIB/src\gd32f4xx_timer.c ****     TIMER_CCHP(timer_periph) &= ~(uint32_t)TIMER_CCHP_OAEN;
 2143              		.loc 1 682 30
 2144 0008 7B68     		ldr	r3, [r7, #4]
 2145 000a 4433     		adds	r3, r3, #68
 2146 000c 1B68     		ldr	r3, [r3]
 2147 000e 7A68     		ldr	r2, [r7, #4]
 2148 0010 4432     		adds	r2, r2, #68
 2149 0012 23F48043 		bic	r3, r3, #16384
 2150 0016 1360     		str	r3, [r2]
 683:C:/Users/leonardo/Desktop/Code/Github/DawnBGC/Libraries/FWLIB/src\gd32f4xx_timer.c **** }
 2151              		.loc 1 683 1
 2152 0018 00BF     		nop
 2153 001a 0C37     		adds	r7, r7, #12
 2154              		.cfi_def_cfa_offset 4
 2155 001c BD46     		mov	sp, r7
 2156              		.cfi_def_cfa_register 13
 2157              		@ sp needed
 2158 001e 80BC     		pop	{r7}
 2159              		.cfi_restore 7
 2160              		.cfi_def_cfa_offset 0
 2161 0020 7047     		bx	lr
 2162              		.cfi_endproc
 2163              	.LFE157:
 2165              		.section	.text.timer_primary_output_config,"ax",%progbits
 2166              		.align	1
 2167              		.global	timer_primary_output_config
 2168              		.syntax unified
 2169              		.thumb
 2170              		.thumb_func
 2171              		.fpu softvfp
 2173              	timer_primary_output_config:
 2174              	.LFB158:
 684:C:/Users/leonardo/Desktop/Code/Github/DawnBGC/Libraries/FWLIB/src\gd32f4xx_timer.c **** 
 685:C:/Users/leonardo/Desktop/Code/Github/DawnBGC/Libraries/FWLIB/src\gd32f4xx_timer.c **** /*!
 686:C:/Users/leonardo/Desktop/Code/Github/DawnBGC/Libraries/FWLIB/src\gd32f4xx_timer.c ****     \brief      configure TIMER primary output function
 687:C:/Users/leonardo/Desktop/Code/Github/DawnBGC/Libraries/FWLIB/src\gd32f4xx_timer.c ****     \param[in]  timer_periph: TIMERx(x=0,7)
 688:C:/Users/leonardo/Desktop/Code/Github/DawnBGC/Libraries/FWLIB/src\gd32f4xx_timer.c ****     \param[in]  newvalue: ENABLE or DISABLE
 689:C:/Users/leonardo/Desktop/Code/Github/DawnBGC/Libraries/FWLIB/src\gd32f4xx_timer.c ****     \param[out] none
 690:C:/Users/leonardo/Desktop/Code/Github/DawnBGC/Libraries/FWLIB/src\gd32f4xx_timer.c ****     \retval     none
 691:C:/Users/leonardo/Desktop/Code/Github/DawnBGC/Libraries/FWLIB/src\gd32f4xx_timer.c **** */
 692:C:/Users/leonardo/Desktop/Code/Github/DawnBGC/Libraries/FWLIB/src\gd32f4xx_timer.c **** void timer_primary_output_config(uint32_t timer_periph,ControlStatus newvalue)
 693:C:/Users/leonardo/Desktop/Code/Github/DawnBGC/Libraries/FWLIB/src\gd32f4xx_timer.c **** {
 2175              		.loc 1 693 1
 2176              		.cfi_startproc
 2177              		@ args = 0, pretend = 0, frame = 8
 2178              		@ frame_needed = 1, uses_anonymous_args = 0
 2179              		@ link register save eliminated.
 2180 0000 80B4     		push	{r7}
 2181              		.cfi_def_cfa_offset 4
 2182              		.cfi_offset 7, -4
 2183 0002 83B0     		sub	sp, sp, #12
 2184              		.cfi_def_cfa_offset 16
 2185 0004 00AF     		add	r7, sp, #0
 2186              		.cfi_def_cfa_register 7
 2187 0006 7860     		str	r0, [r7, #4]
 2188 0008 0B46     		mov	r3, r1
 2189 000a FB70     		strb	r3, [r7, #3]
 694:C:/Users/leonardo/Desktop/Code/Github/DawnBGC/Libraries/FWLIB/src\gd32f4xx_timer.c ****     if(ENABLE == newvalue){
 2190              		.loc 1 694 7
 2191 000c FB78     		ldrb	r3, [r7, #3]	@ zero_extendqisi2
 2192 000e 012B     		cmp	r3, #1
 2193 0010 08D1     		bne	.L80
 695:C:/Users/leonardo/Desktop/Code/Github/DawnBGC/Libraries/FWLIB/src\gd32f4xx_timer.c ****         TIMER_CCHP(timer_periph) |= (uint32_t)TIMER_CCHP_POEN;
 2194              		.loc 1 695 34
 2195 0012 7B68     		ldr	r3, [r7, #4]
 2196 0014 4433     		adds	r3, r3, #68
 2197 0016 1B68     		ldr	r3, [r3]
 2198 0018 7A68     		ldr	r2, [r7, #4]
 2199 001a 4432     		adds	r2, r2, #68
 2200 001c 43F40043 		orr	r3, r3, #32768
 2201 0020 1360     		str	r3, [r2]
 696:C:/Users/leonardo/Desktop/Code/Github/DawnBGC/Libraries/FWLIB/src\gd32f4xx_timer.c ****     }else{
 697:C:/Users/leonardo/Desktop/Code/Github/DawnBGC/Libraries/FWLIB/src\gd32f4xx_timer.c ****         TIMER_CCHP(timer_periph) &= (~(uint32_t)TIMER_CCHP_POEN);
 698:C:/Users/leonardo/Desktop/Code/Github/DawnBGC/Libraries/FWLIB/src\gd32f4xx_timer.c ****     }
 699:C:/Users/leonardo/Desktop/Code/Github/DawnBGC/Libraries/FWLIB/src\gd32f4xx_timer.c **** }
 2202              		.loc 1 699 1
 2203 0022 07E0     		b	.L82
 2204              	.L80:
 697:C:/Users/leonardo/Desktop/Code/Github/DawnBGC/Libraries/FWLIB/src\gd32f4xx_timer.c ****     }
 2205              		.loc 1 697 34
 2206 0024 7B68     		ldr	r3, [r7, #4]
 2207 0026 4433     		adds	r3, r3, #68
 2208 0028 1B68     		ldr	r3, [r3]
 2209 002a 7A68     		ldr	r2, [r7, #4]
 2210 002c 4432     		adds	r2, r2, #68
 2211 002e 23F40043 		bic	r3, r3, #32768
 2212 0032 1360     		str	r3, [r2]
 2213              	.L82:
 2214              		.loc 1 699 1
 2215 0034 00BF     		nop
 2216 0036 0C37     		adds	r7, r7, #12
 2217              		.cfi_def_cfa_offset 4
 2218 0038 BD46     		mov	sp, r7
 2219              		.cfi_def_cfa_register 13
 2220              		@ sp needed
 2221 003a 80BC     		pop	{r7}
 2222              		.cfi_restore 7
 2223              		.cfi_def_cfa_offset 0
 2224 003c 7047     		bx	lr
 2225              		.cfi_endproc
 2226              	.LFE158:
 2228              		.section	.text.timer_channel_control_shadow_config,"ax",%progbits
 2229              		.align	1
 2230              		.global	timer_channel_control_shadow_config
 2231              		.syntax unified
 2232              		.thumb
 2233              		.thumb_func
 2234              		.fpu softvfp
 2236              	timer_channel_control_shadow_config:
 2237              	.LFB159:
 700:C:/Users/leonardo/Desktop/Code/Github/DawnBGC/Libraries/FWLIB/src\gd32f4xx_timer.c **** 
 701:C:/Users/leonardo/Desktop/Code/Github/DawnBGC/Libraries/FWLIB/src\gd32f4xx_timer.c **** /*!
 702:C:/Users/leonardo/Desktop/Code/Github/DawnBGC/Libraries/FWLIB/src\gd32f4xx_timer.c ****     \brief      channel capture/compare control shadow register enable
 703:C:/Users/leonardo/Desktop/Code/Github/DawnBGC/Libraries/FWLIB/src\gd32f4xx_timer.c ****     \param[in]  timer_periph: TIMERx(x=0,7)
 704:C:/Users/leonardo/Desktop/Code/Github/DawnBGC/Libraries/FWLIB/src\gd32f4xx_timer.c ****     \param[in]  newvalue: ENABLE or DISABLE 
 705:C:/Users/leonardo/Desktop/Code/Github/DawnBGC/Libraries/FWLIB/src\gd32f4xx_timer.c ****     \param[out] none
 706:C:/Users/leonardo/Desktop/Code/Github/DawnBGC/Libraries/FWLIB/src\gd32f4xx_timer.c ****     \retval     none
 707:C:/Users/leonardo/Desktop/Code/Github/DawnBGC/Libraries/FWLIB/src\gd32f4xx_timer.c **** */
 708:C:/Users/leonardo/Desktop/Code/Github/DawnBGC/Libraries/FWLIB/src\gd32f4xx_timer.c **** void timer_channel_control_shadow_config(uint32_t timer_periph,ControlStatus newvalue)
 709:C:/Users/leonardo/Desktop/Code/Github/DawnBGC/Libraries/FWLIB/src\gd32f4xx_timer.c **** {
 2238              		.loc 1 709 1
 2239              		.cfi_startproc
 2240              		@ args = 0, pretend = 0, frame = 8
 2241              		@ frame_needed = 1, uses_anonymous_args = 0
 2242              		@ link register save eliminated.
 2243 0000 80B4     		push	{r7}
 2244              		.cfi_def_cfa_offset 4
 2245              		.cfi_offset 7, -4
 2246 0002 83B0     		sub	sp, sp, #12
 2247              		.cfi_def_cfa_offset 16
 2248 0004 00AF     		add	r7, sp, #0
 2249              		.cfi_def_cfa_register 7
 2250 0006 7860     		str	r0, [r7, #4]
 2251 0008 0B46     		mov	r3, r1
 2252 000a FB70     		strb	r3, [r7, #3]
 710:C:/Users/leonardo/Desktop/Code/Github/DawnBGC/Libraries/FWLIB/src\gd32f4xx_timer.c ****      if(ENABLE == newvalue){
 2253              		.loc 1 710 8
 2254 000c FB78     		ldrb	r3, [r7, #3]	@ zero_extendqisi2
 2255 000e 012B     		cmp	r3, #1
 2256 0010 08D1     		bne	.L84
 711:C:/Users/leonardo/Desktop/Code/Github/DawnBGC/Libraries/FWLIB/src\gd32f4xx_timer.c ****         TIMER_CTL1(timer_periph) |= (uint32_t)TIMER_CTL1_CCSE;
 2257              		.loc 1 711 34
 2258 0012 7B68     		ldr	r3, [r7, #4]
 2259 0014 0433     		adds	r3, r3, #4
 2260 0016 1B68     		ldr	r3, [r3]
 2261 0018 7A68     		ldr	r2, [r7, #4]
 2262 001a 0432     		adds	r2, r2, #4
 2263 001c 43F00103 		orr	r3, r3, #1
 2264 0020 1360     		str	r3, [r2]
 712:C:/Users/leonardo/Desktop/Code/Github/DawnBGC/Libraries/FWLIB/src\gd32f4xx_timer.c ****     }else{
 713:C:/Users/leonardo/Desktop/Code/Github/DawnBGC/Libraries/FWLIB/src\gd32f4xx_timer.c ****         TIMER_CTL1(timer_periph) &= (~(uint32_t)TIMER_CTL1_CCSE);
 714:C:/Users/leonardo/Desktop/Code/Github/DawnBGC/Libraries/FWLIB/src\gd32f4xx_timer.c ****     }
 715:C:/Users/leonardo/Desktop/Code/Github/DawnBGC/Libraries/FWLIB/src\gd32f4xx_timer.c **** }
 2265              		.loc 1 715 1
 2266 0022 07E0     		b	.L86
 2267              	.L84:
 713:C:/Users/leonardo/Desktop/Code/Github/DawnBGC/Libraries/FWLIB/src\gd32f4xx_timer.c ****     }
 2268              		.loc 1 713 34
 2269 0024 7B68     		ldr	r3, [r7, #4]
 2270 0026 0433     		adds	r3, r3, #4
 2271 0028 1B68     		ldr	r3, [r3]
 2272 002a 7A68     		ldr	r2, [r7, #4]
 2273 002c 0432     		adds	r2, r2, #4
 2274 002e 23F00103 		bic	r3, r3, #1
 2275 0032 1360     		str	r3, [r2]
 2276              	.L86:
 2277              		.loc 1 715 1
 2278 0034 00BF     		nop
 2279 0036 0C37     		adds	r7, r7, #12
 2280              		.cfi_def_cfa_offset 4
 2281 0038 BD46     		mov	sp, r7
 2282              		.cfi_def_cfa_register 13
 2283              		@ sp needed
 2284 003a 80BC     		pop	{r7}
 2285              		.cfi_restore 7
 2286              		.cfi_def_cfa_offset 0
 2287 003c 7047     		bx	lr
 2288              		.cfi_endproc
 2289              	.LFE159:
 2291              		.section	.text.timer_channel_control_shadow_update_config,"ax",%progbits
 2292              		.align	1
 2293              		.global	timer_channel_control_shadow_update_config
 2294              		.syntax unified
 2295              		.thumb
 2296              		.thumb_func
 2297              		.fpu softvfp
 2299              	timer_channel_control_shadow_update_config:
 2300              	.LFB160:
 716:C:/Users/leonardo/Desktop/Code/Github/DawnBGC/Libraries/FWLIB/src\gd32f4xx_timer.c **** 
 717:C:/Users/leonardo/Desktop/Code/Github/DawnBGC/Libraries/FWLIB/src\gd32f4xx_timer.c **** /*!
 718:C:/Users/leonardo/Desktop/Code/Github/DawnBGC/Libraries/FWLIB/src\gd32f4xx_timer.c ****     \brief      configure TIMER channel control shadow register update control
 719:C:/Users/leonardo/Desktop/Code/Github/DawnBGC/Libraries/FWLIB/src\gd32f4xx_timer.c ****     \param[in]  timer_periph: TIMERx(x=0,7)
 720:C:/Users/leonardo/Desktop/Code/Github/DawnBGC/Libraries/FWLIB/src\gd32f4xx_timer.c ****     \param[in]  timer_ccuctl: channel control shadow register update control
 721:C:/Users/leonardo/Desktop/Code/Github/DawnBGC/Libraries/FWLIB/src\gd32f4xx_timer.c ****       \arg        TIMER_UPDATECTL_CCU: the shadow registers update by when CMTG bit is set
 722:C:/Users/leonardo/Desktop/Code/Github/DawnBGC/Libraries/FWLIB/src\gd32f4xx_timer.c ****       \arg        TIMER_UPDATECTL_CCUTRI: the shadow registers update by when CMTG bit is set or an
 723:C:/Users/leonardo/Desktop/Code/Github/DawnBGC/Libraries/FWLIB/src\gd32f4xx_timer.c ****     \param[out] none
 724:C:/Users/leonardo/Desktop/Code/Github/DawnBGC/Libraries/FWLIB/src\gd32f4xx_timer.c ****     \retval     none
 725:C:/Users/leonardo/Desktop/Code/Github/DawnBGC/Libraries/FWLIB/src\gd32f4xx_timer.c **** */              
 726:C:/Users/leonardo/Desktop/Code/Github/DawnBGC/Libraries/FWLIB/src\gd32f4xx_timer.c **** void timer_channel_control_shadow_update_config(uint32_t timer_periph,uint8_t timer_ccuctl)
 727:C:/Users/leonardo/Desktop/Code/Github/DawnBGC/Libraries/FWLIB/src\gd32f4xx_timer.c **** {
 2301              		.loc 1 727 1
 2302              		.cfi_startproc
 2303              		@ args = 0, pretend = 0, frame = 8
 2304              		@ frame_needed = 1, uses_anonymous_args = 0
 2305              		@ link register save eliminated.
 2306 0000 80B4     		push	{r7}
 2307              		.cfi_def_cfa_offset 4
 2308              		.cfi_offset 7, -4
 2309 0002 83B0     		sub	sp, sp, #12
 2310              		.cfi_def_cfa_offset 16
 2311 0004 00AF     		add	r7, sp, #0
 2312              		.cfi_def_cfa_register 7
 2313 0006 7860     		str	r0, [r7, #4]
 2314 0008 0B46     		mov	r3, r1
 2315 000a FB70     		strb	r3, [r7, #3]
 728:C:/Users/leonardo/Desktop/Code/Github/DawnBGC/Libraries/FWLIB/src\gd32f4xx_timer.c ****     if(TIMER_UPDATECTL_CCU == timer_ccuctl){
 2316              		.loc 1 728 7
 2317 000c FB78     		ldrb	r3, [r7, #3]	@ zero_extendqisi2
 2318 000e 002B     		cmp	r3, #0
 2319 0010 08D1     		bne	.L88
 729:C:/Users/leonardo/Desktop/Code/Github/DawnBGC/Libraries/FWLIB/src\gd32f4xx_timer.c ****         TIMER_CTL1(timer_periph) &= (~(uint32_t)TIMER_CTL1_CCUC);
 2320              		.loc 1 729 34
 2321 0012 7B68     		ldr	r3, [r7, #4]
 2322 0014 0433     		adds	r3, r3, #4
 2323 0016 1B68     		ldr	r3, [r3]
 2324 0018 7A68     		ldr	r2, [r7, #4]
 2325 001a 0432     		adds	r2, r2, #4
 2326 001c 23F00403 		bic	r3, r3, #4
 2327 0020 1360     		str	r3, [r2]
 730:C:/Users/leonardo/Desktop/Code/Github/DawnBGC/Libraries/FWLIB/src\gd32f4xx_timer.c ****     }else if(TIMER_UPDATECTL_CCUTRI == timer_ccuctl){
 731:C:/Users/leonardo/Desktop/Code/Github/DawnBGC/Libraries/FWLIB/src\gd32f4xx_timer.c ****         TIMER_CTL1(timer_periph) |= (uint32_t)TIMER_CTL1_CCUC;
 732:C:/Users/leonardo/Desktop/Code/Github/DawnBGC/Libraries/FWLIB/src\gd32f4xx_timer.c ****     }else{
 733:C:/Users/leonardo/Desktop/Code/Github/DawnBGC/Libraries/FWLIB/src\gd32f4xx_timer.c ****     }
 734:C:/Users/leonardo/Desktop/Code/Github/DawnBGC/Libraries/FWLIB/src\gd32f4xx_timer.c **** }
 2328              		.loc 1 734 1
 2329 0022 0AE0     		b	.L90
 2330              	.L88:
 730:C:/Users/leonardo/Desktop/Code/Github/DawnBGC/Libraries/FWLIB/src\gd32f4xx_timer.c ****     }else if(TIMER_UPDATECTL_CCUTRI == timer_ccuctl){
 2331              		.loc 1 730 13
 2332 0024 FB78     		ldrb	r3, [r7, #3]	@ zero_extendqisi2
 2333 0026 012B     		cmp	r3, #1
 2334 0028 07D1     		bne	.L90
 731:C:/Users/leonardo/Desktop/Code/Github/DawnBGC/Libraries/FWLIB/src\gd32f4xx_timer.c ****     }else{
 2335              		.loc 1 731 34
 2336 002a 7B68     		ldr	r3, [r7, #4]
 2337 002c 0433     		adds	r3, r3, #4
 2338 002e 1B68     		ldr	r3, [r3]
 2339 0030 7A68     		ldr	r2, [r7, #4]
 2340 0032 0432     		adds	r2, r2, #4
 2341 0034 43F00403 		orr	r3, r3, #4
 2342 0038 1360     		str	r3, [r2]
 2343              	.L90:
 2344              		.loc 1 734 1
 2345 003a 00BF     		nop
 2346 003c 0C37     		adds	r7, r7, #12
 2347              		.cfi_def_cfa_offset 4
 2348 003e BD46     		mov	sp, r7
 2349              		.cfi_def_cfa_register 13
 2350              		@ sp needed
 2351 0040 80BC     		pop	{r7}
 2352              		.cfi_restore 7
 2353              		.cfi_def_cfa_offset 0
 2354 0042 7047     		bx	lr
 2355              		.cfi_endproc
 2356              	.LFE160:
 2358              		.section	.text.timer_channel_output_config,"ax",%progbits
 2359              		.align	1
 2360              		.global	timer_channel_output_config
 2361              		.syntax unified
 2362              		.thumb
 2363              		.thumb_func
 2364              		.fpu softvfp
 2366              	timer_channel_output_config:
 2367              	.LFB161:
 735:C:/Users/leonardo/Desktop/Code/Github/DawnBGC/Libraries/FWLIB/src\gd32f4xx_timer.c **** 
 736:C:/Users/leonardo/Desktop/Code/Github/DawnBGC/Libraries/FWLIB/src\gd32f4xx_timer.c **** /*!
 737:C:/Users/leonardo/Desktop/Code/Github/DawnBGC/Libraries/FWLIB/src\gd32f4xx_timer.c ****     \brief      configure TIMER channel output function
 738:C:/Users/leonardo/Desktop/Code/Github/DawnBGC/Libraries/FWLIB/src\gd32f4xx_timer.c ****     \param[in]  timer_periph: please refer to the following parameters
 739:C:/Users/leonardo/Desktop/Code/Github/DawnBGC/Libraries/FWLIB/src\gd32f4xx_timer.c ****     \param[in]  timer_channel: 
 740:C:/Users/leonardo/Desktop/Code/Github/DawnBGC/Libraries/FWLIB/src\gd32f4xx_timer.c ****       \arg        TIMER_CH_0: TIMER channel 0(TIMERx(x=0..4,7..13))
 741:C:/Users/leonardo/Desktop/Code/Github/DawnBGC/Libraries/FWLIB/src\gd32f4xx_timer.c ****       \arg        TIMER_CH_1: TIMER channel 1(TIMERx(x=0..4,7,8,11))
 742:C:/Users/leonardo/Desktop/Code/Github/DawnBGC/Libraries/FWLIB/src\gd32f4xx_timer.c ****       \arg        TIMER_CH_2: TIMER channel 2(TIMERx(x=0..4,7))
 743:C:/Users/leonardo/Desktop/Code/Github/DawnBGC/Libraries/FWLIB/src\gd32f4xx_timer.c ****       \arg        TIMER_CH_3: TIMER channel 3(TIMERx(x=0..4,7))
 744:C:/Users/leonardo/Desktop/Code/Github/DawnBGC/Libraries/FWLIB/src\gd32f4xx_timer.c ****     \param[in]  timer_ocpara: TIMER channeln output parameter struct
 745:C:/Users/leonardo/Desktop/Code/Github/DawnBGC/Libraries/FWLIB/src\gd32f4xx_timer.c ****                 outputstate: TIMER_CCX_ENABLE,TIMER_CCX_DISABLE
 746:C:/Users/leonardo/Desktop/Code/Github/DawnBGC/Libraries/FWLIB/src\gd32f4xx_timer.c ****                 outputnstate: TIMER_CCXN_ENABLE,TIMER_CCXN_DISABLE
 747:C:/Users/leonardo/Desktop/Code/Github/DawnBGC/Libraries/FWLIB/src\gd32f4xx_timer.c ****                 ocpolarity: TIMER_OC_POLARITY_HIGH,TIMER_OC_POLARITY_LOW
 748:C:/Users/leonardo/Desktop/Code/Github/DawnBGC/Libraries/FWLIB/src\gd32f4xx_timer.c ****                 ocnpolarity: TIMER_OCN_POLARITY_HIGH,TIMER_OCN_POLARITY_LOW
 749:C:/Users/leonardo/Desktop/Code/Github/DawnBGC/Libraries/FWLIB/src\gd32f4xx_timer.c ****                 ocidlestate: TIMER_OC_IDLE_STATE_LOW,TIMER_OC_IDLE_STATE_HIGH
 750:C:/Users/leonardo/Desktop/Code/Github/DawnBGC/Libraries/FWLIB/src\gd32f4xx_timer.c ****                 ocnidlestate: TIMER_OCN_IDLE_STATE_LOW,TIMER_OCN_IDLE_STATE_HIGH
 751:C:/Users/leonardo/Desktop/Code/Github/DawnBGC/Libraries/FWLIB/src\gd32f4xx_timer.c ****     \param[out] none
 752:C:/Users/leonardo/Desktop/Code/Github/DawnBGC/Libraries/FWLIB/src\gd32f4xx_timer.c ****     \retval     none
 753:C:/Users/leonardo/Desktop/Code/Github/DawnBGC/Libraries/FWLIB/src\gd32f4xx_timer.c **** */
 754:C:/Users/leonardo/Desktop/Code/Github/DawnBGC/Libraries/FWLIB/src\gd32f4xx_timer.c **** void timer_channel_output_config(uint32_t timer_periph,uint16_t timer_channel,timer_oc_parameter_st
 755:C:/Users/leonardo/Desktop/Code/Github/DawnBGC/Libraries/FWLIB/src\gd32f4xx_timer.c **** {
 2368              		.loc 1 755 1
 2369              		.cfi_startproc
 2370              		@ args = 0, pretend = 0, frame = 16
 2371              		@ frame_needed = 1, uses_anonymous_args = 0
 2372              		@ link register save eliminated.
 2373 0000 80B4     		push	{r7}
 2374              		.cfi_def_cfa_offset 4
 2375              		.cfi_offset 7, -4
 2376 0002 85B0     		sub	sp, sp, #20
 2377              		.cfi_def_cfa_offset 24
 2378 0004 00AF     		add	r7, sp, #0
 2379              		.cfi_def_cfa_register 7
 2380 0006 F860     		str	r0, [r7, #12]
 2381 0008 0B46     		mov	r3, r1
 2382 000a 7A60     		str	r2, [r7, #4]
 2383 000c 7B81     		strh	r3, [r7, #10]	@ movhi
 756:C:/Users/leonardo/Desktop/Code/Github/DawnBGC/Libraries/FWLIB/src\gd32f4xx_timer.c ****     switch(timer_channel){
 2384              		.loc 1 756 5
 2385 000e 7B89     		ldrh	r3, [r7, #10]
 2386 0010 032B     		cmp	r3, #3
 2387 0012 00F2CD81 		bhi	.L107
 2388 0016 01A2     		adr	r2, .L94
 2389 0018 52F823F0 		ldr	pc, [r2, r3, lsl #2]
 2390              		.p2align 2
 2391              	.L94:
 2392 001c 2D000000 		.word	.L97+1
 2393 0020 25010000 		.word	.L96+1
 2394 0024 29020000 		.word	.L95+1
 2395 0028 23030000 		.word	.L93+1
 2396              		.p2align 1
 2397              	.L97:
 757:C:/Users/leonardo/Desktop/Code/Github/DawnBGC/Libraries/FWLIB/src\gd32f4xx_timer.c ****     /* configure TIMER_CH_0 */
 758:C:/Users/leonardo/Desktop/Code/Github/DawnBGC/Libraries/FWLIB/src\gd32f4xx_timer.c ****     case TIMER_CH_0:
 759:C:/Users/leonardo/Desktop/Code/Github/DawnBGC/Libraries/FWLIB/src\gd32f4xx_timer.c ****         /* reset the CH0EN bit */
 760:C:/Users/leonardo/Desktop/Code/Github/DawnBGC/Libraries/FWLIB/src\gd32f4xx_timer.c ****         TIMER_CHCTL2(timer_periph) &= (~(uint32_t)TIMER_CHCTL2_CH0EN);
 2398              		.loc 1 760 36
 2399 002c FB68     		ldr	r3, [r7, #12]
 2400 002e 2033     		adds	r3, r3, #32
 2401 0030 1B68     		ldr	r3, [r3]
 2402 0032 FA68     		ldr	r2, [r7, #12]
 2403 0034 2032     		adds	r2, r2, #32
 2404 0036 23F00103 		bic	r3, r3, #1
 2405 003a 1360     		str	r3, [r2]
 761:C:/Users/leonardo/Desktop/Code/Github/DawnBGC/Libraries/FWLIB/src\gd32f4xx_timer.c ****         /* set the CH0EN bit */
 762:C:/Users/leonardo/Desktop/Code/Github/DawnBGC/Libraries/FWLIB/src\gd32f4xx_timer.c ****         TIMER_CHCTL2(timer_periph) |= (uint32_t)timer_ocpara->outputstate;
 2406              		.loc 1 762 36
 2407 003c FB68     		ldr	r3, [r7, #12]
 2408 003e 2033     		adds	r3, r3, #32
 2409 0040 1A68     		ldr	r2, [r3]
 2410              		.loc 1 762 61
 2411 0042 7B68     		ldr	r3, [r7, #4]
 2412 0044 1B68     		ldr	r3, [r3]
 2413              		.loc 1 762 36
 2414 0046 F968     		ldr	r1, [r7, #12]
 2415 0048 2031     		adds	r1, r1, #32
 2416 004a 1343     		orrs	r3, r3, r2
 2417 004c 0B60     		str	r3, [r1]
 763:C:/Users/leonardo/Desktop/Code/Github/DawnBGC/Libraries/FWLIB/src\gd32f4xx_timer.c ****         /* reset the CH0P bit */
 764:C:/Users/leonardo/Desktop/Code/Github/DawnBGC/Libraries/FWLIB/src\gd32f4xx_timer.c ****         TIMER_CHCTL2(timer_periph) &= (~(uint32_t)TIMER_CHCTL2_CH0P);
 2418              		.loc 1 764 36
 2419 004e FB68     		ldr	r3, [r7, #12]
 2420 0050 2033     		adds	r3, r3, #32
 2421 0052 1B68     		ldr	r3, [r3]
 2422 0054 FA68     		ldr	r2, [r7, #12]
 2423 0056 2032     		adds	r2, r2, #32
 2424 0058 23F00203 		bic	r3, r3, #2
 2425 005c 1360     		str	r3, [r2]
 765:C:/Users/leonardo/Desktop/Code/Github/DawnBGC/Libraries/FWLIB/src\gd32f4xx_timer.c ****         /* set the CH0P bit */
 766:C:/Users/leonardo/Desktop/Code/Github/DawnBGC/Libraries/FWLIB/src\gd32f4xx_timer.c ****         TIMER_CHCTL2(timer_periph) |= (uint32_t)timer_ocpara->ocpolarity;
 2426              		.loc 1 766 36
 2427 005e FB68     		ldr	r3, [r7, #12]
 2428 0060 2033     		adds	r3, r3, #32
 2429 0062 1B68     		ldr	r3, [r3]
 2430              		.loc 1 766 61
 2431 0064 7A68     		ldr	r2, [r7, #4]
 2432 0066 D288     		ldrh	r2, [r2, #6]
 2433              		.loc 1 766 39
 2434 0068 1146     		mov	r1, r2
 2435              		.loc 1 766 36
 2436 006a FA68     		ldr	r2, [r7, #12]
 2437 006c 2032     		adds	r2, r2, #32
 2438 006e 0B43     		orrs	r3, r3, r1
 2439 0070 1360     		str	r3, [r2]
 767:C:/Users/leonardo/Desktop/Code/Github/DawnBGC/Libraries/FWLIB/src\gd32f4xx_timer.c **** 
 768:C:/Users/leonardo/Desktop/Code/Github/DawnBGC/Libraries/FWLIB/src\gd32f4xx_timer.c ****         if((TIMER0 == timer_periph) || (TIMER7 == timer_periph)){
 2440              		.loc 1 768 11
 2441 0072 FB68     		ldr	r3, [r7, #12]
 2442 0074 6A4A     		ldr	r2, .L108
 2443 0076 9342     		cmp	r3, r2
 2444 0078 03D0     		beq	.L98
 2445              		.loc 1 768 37 discriminator 1
 2446 007a FB68     		ldr	r3, [r7, #12]
 2447 007c 694A     		ldr	r2, .L108+4
 2448 007e 9342     		cmp	r3, r2
 2449 0080 47D1     		bne	.L99
 2450              	.L98:
 769:C:/Users/leonardo/Desktop/Code/Github/DawnBGC/Libraries/FWLIB/src\gd32f4xx_timer.c ****             /* reset the CH0NEN bit */
 770:C:/Users/leonardo/Desktop/Code/Github/DawnBGC/Libraries/FWLIB/src\gd32f4xx_timer.c ****             TIMER_CHCTL2(timer_periph) &= (~(uint32_t)TIMER_CHCTL2_CH0NEN);
 2451              		.loc 1 770 40
 2452 0082 FB68     		ldr	r3, [r7, #12]
 2453 0084 2033     		adds	r3, r3, #32
 2454 0086 1B68     		ldr	r3, [r3]
 2455 0088 FA68     		ldr	r2, [r7, #12]
 2456 008a 2032     		adds	r2, r2, #32
 2457 008c 23F00403 		bic	r3, r3, #4
 2458 0090 1360     		str	r3, [r2]
 771:C:/Users/leonardo/Desktop/Code/Github/DawnBGC/Libraries/FWLIB/src\gd32f4xx_timer.c ****             /* set the CH0NEN bit */
 772:C:/Users/leonardo/Desktop/Code/Github/DawnBGC/Libraries/FWLIB/src\gd32f4xx_timer.c ****             TIMER_CHCTL2(timer_periph) |= (uint32_t)timer_ocpara->outputnstate;
 2459              		.loc 1 772 40
 2460 0092 FB68     		ldr	r3, [r7, #12]
 2461 0094 2033     		adds	r3, r3, #32
 2462 0096 1B68     		ldr	r3, [r3]
 2463              		.loc 1 772 65
 2464 0098 7A68     		ldr	r2, [r7, #4]
 2465 009a 9288     		ldrh	r2, [r2, #4]
 2466              		.loc 1 772 43
 2467 009c 1146     		mov	r1, r2
 2468              		.loc 1 772 40
 2469 009e FA68     		ldr	r2, [r7, #12]
 2470 00a0 2032     		adds	r2, r2, #32
 2471 00a2 0B43     		orrs	r3, r3, r1
 2472 00a4 1360     		str	r3, [r2]
 773:C:/Users/leonardo/Desktop/Code/Github/DawnBGC/Libraries/FWLIB/src\gd32f4xx_timer.c ****             /* reset the CH0NP bit */
 774:C:/Users/leonardo/Desktop/Code/Github/DawnBGC/Libraries/FWLIB/src\gd32f4xx_timer.c ****             TIMER_CHCTL2(timer_periph) &= (~(uint32_t)TIMER_CHCTL2_CH0NP);
 2473              		.loc 1 774 40
 2474 00a6 FB68     		ldr	r3, [r7, #12]
 2475 00a8 2033     		adds	r3, r3, #32
 2476 00aa 1B68     		ldr	r3, [r3]
 2477 00ac FA68     		ldr	r2, [r7, #12]
 2478 00ae 2032     		adds	r2, r2, #32
 2479 00b0 23F00803 		bic	r3, r3, #8
 2480 00b4 1360     		str	r3, [r2]
 775:C:/Users/leonardo/Desktop/Code/Github/DawnBGC/Libraries/FWLIB/src\gd32f4xx_timer.c ****             /* set the CH0NP bit */
 776:C:/Users/leonardo/Desktop/Code/Github/DawnBGC/Libraries/FWLIB/src\gd32f4xx_timer.c ****             TIMER_CHCTL2(timer_periph) |= (uint32_t)timer_ocpara->ocnpolarity;
 2481              		.loc 1 776 40
 2482 00b6 FB68     		ldr	r3, [r7, #12]
 2483 00b8 2033     		adds	r3, r3, #32
 2484 00ba 1B68     		ldr	r3, [r3]
 2485              		.loc 1 776 65
 2486 00bc 7A68     		ldr	r2, [r7, #4]
 2487 00be 1289     		ldrh	r2, [r2, #8]
 2488              		.loc 1 776 43
 2489 00c0 1146     		mov	r1, r2
 2490              		.loc 1 776 40
 2491 00c2 FA68     		ldr	r2, [r7, #12]
 2492 00c4 2032     		adds	r2, r2, #32
 2493 00c6 0B43     		orrs	r3, r3, r1
 2494 00c8 1360     		str	r3, [r2]
 777:C:/Users/leonardo/Desktop/Code/Github/DawnBGC/Libraries/FWLIB/src\gd32f4xx_timer.c ****             /* reset the ISO0 bit */
 778:C:/Users/leonardo/Desktop/Code/Github/DawnBGC/Libraries/FWLIB/src\gd32f4xx_timer.c ****             TIMER_CTL1(timer_periph) &= (~(uint32_t)TIMER_CTL1_ISO0);
 2495              		.loc 1 778 38
 2496 00ca FB68     		ldr	r3, [r7, #12]
 2497 00cc 0433     		adds	r3, r3, #4
 2498 00ce 1B68     		ldr	r3, [r3]
 2499 00d0 FA68     		ldr	r2, [r7, #12]
 2500 00d2 0432     		adds	r2, r2, #4
 2501 00d4 23F48073 		bic	r3, r3, #256
 2502 00d8 1360     		str	r3, [r2]
 779:C:/Users/leonardo/Desktop/Code/Github/DawnBGC/Libraries/FWLIB/src\gd32f4xx_timer.c ****             /* set the ISO0 bit */
 780:C:/Users/leonardo/Desktop/Code/Github/DawnBGC/Libraries/FWLIB/src\gd32f4xx_timer.c ****             TIMER_CTL1(timer_periph) |= (uint32_t)timer_ocpara->ocidlestate;
 2503              		.loc 1 780 38
 2504 00da FB68     		ldr	r3, [r7, #12]
 2505 00dc 0433     		adds	r3, r3, #4
 2506 00de 1B68     		ldr	r3, [r3]
 2507              		.loc 1 780 63
 2508 00e0 7A68     		ldr	r2, [r7, #4]
 2509 00e2 5289     		ldrh	r2, [r2, #10]
 2510              		.loc 1 780 41
 2511 00e4 1146     		mov	r1, r2
 2512              		.loc 1 780 38
 2513 00e6 FA68     		ldr	r2, [r7, #12]
 2514 00e8 0432     		adds	r2, r2, #4
 2515 00ea 0B43     		orrs	r3, r3, r1
 2516 00ec 1360     		str	r3, [r2]
 781:C:/Users/leonardo/Desktop/Code/Github/DawnBGC/Libraries/FWLIB/src\gd32f4xx_timer.c ****             /* reset the ISO0N bit */
 782:C:/Users/leonardo/Desktop/Code/Github/DawnBGC/Libraries/FWLIB/src\gd32f4xx_timer.c ****             TIMER_CTL1(timer_periph) &= (~(uint32_t)TIMER_CTL1_ISO0N);
 2517              		.loc 1 782 38
 2518 00ee FB68     		ldr	r3, [r7, #12]
 2519 00f0 0433     		adds	r3, r3, #4
 2520 00f2 1B68     		ldr	r3, [r3]
 2521 00f4 FA68     		ldr	r2, [r7, #12]
 2522 00f6 0432     		adds	r2, r2, #4
 2523 00f8 23F40073 		bic	r3, r3, #512
 2524 00fc 1360     		str	r3, [r2]
 783:C:/Users/leonardo/Desktop/Code/Github/DawnBGC/Libraries/FWLIB/src\gd32f4xx_timer.c ****             /* set the ISO0N bit */
 784:C:/Users/leonardo/Desktop/Code/Github/DawnBGC/Libraries/FWLIB/src\gd32f4xx_timer.c ****             TIMER_CTL1(timer_periph) |= (uint32_t)timer_ocpara->ocnidlestate;
 2525              		.loc 1 784 38
 2526 00fe FB68     		ldr	r3, [r7, #12]
 2527 0100 0433     		adds	r3, r3, #4
 2528 0102 1B68     		ldr	r3, [r3]
 2529              		.loc 1 784 63
 2530 0104 7A68     		ldr	r2, [r7, #4]
 2531 0106 9289     		ldrh	r2, [r2, #12]
 2532              		.loc 1 784 41
 2533 0108 1146     		mov	r1, r2
 2534              		.loc 1 784 38
 2535 010a FA68     		ldr	r2, [r7, #12]
 2536 010c 0432     		adds	r2, r2, #4
 2537 010e 0B43     		orrs	r3, r3, r1
 2538 0110 1360     		str	r3, [r2]
 2539              	.L99:
 785:C:/Users/leonardo/Desktop/Code/Github/DawnBGC/Libraries/FWLIB/src\gd32f4xx_timer.c ****         }
 786:C:/Users/leonardo/Desktop/Code/Github/DawnBGC/Libraries/FWLIB/src\gd32f4xx_timer.c ****         TIMER_CHCTL0(timer_periph) &= ~(uint32_t)TIMER_CHCTL0_CH0MS;
 2540              		.loc 1 786 36
 2541 0112 FB68     		ldr	r3, [r7, #12]
 2542 0114 1833     		adds	r3, r3, #24
 2543 0116 1B68     		ldr	r3, [r3]
 2544 0118 FA68     		ldr	r2, [r7, #12]
 2545 011a 1832     		adds	r2, r2, #24
 2546 011c 23F00303 		bic	r3, r3, #3
 2547 0120 1360     		str	r3, [r2]
 787:C:/Users/leonardo/Desktop/Code/Github/DawnBGC/Libraries/FWLIB/src\gd32f4xx_timer.c ****         break;
 2548              		.loc 1 787 9
 2549 0122 46E1     		b	.L100
 2550              	.L96:
 788:C:/Users/leonardo/Desktop/Code/Github/DawnBGC/Libraries/FWLIB/src\gd32f4xx_timer.c ****     /* configure TIMER_CH_1 */
 789:C:/Users/leonardo/Desktop/Code/Github/DawnBGC/Libraries/FWLIB/src\gd32f4xx_timer.c ****     case TIMER_CH_1:
 790:C:/Users/leonardo/Desktop/Code/Github/DawnBGC/Libraries/FWLIB/src\gd32f4xx_timer.c ****         /* reset the CH1EN bit */
 791:C:/Users/leonardo/Desktop/Code/Github/DawnBGC/Libraries/FWLIB/src\gd32f4xx_timer.c ****         TIMER_CHCTL2(timer_periph) &= (~(uint32_t)TIMER_CHCTL2_CH1EN);
 2551              		.loc 1 791 36
 2552 0124 FB68     		ldr	r3, [r7, #12]
 2553 0126 2033     		adds	r3, r3, #32
 2554 0128 1B68     		ldr	r3, [r3]
 2555 012a FA68     		ldr	r2, [r7, #12]
 2556 012c 2032     		adds	r2, r2, #32
 2557 012e 23F01003 		bic	r3, r3, #16
 2558 0132 1360     		str	r3, [r2]
 792:C:/Users/leonardo/Desktop/Code/Github/DawnBGC/Libraries/FWLIB/src\gd32f4xx_timer.c ****         /* set the CH1EN bit */
 793:C:/Users/leonardo/Desktop/Code/Github/DawnBGC/Libraries/FWLIB/src\gd32f4xx_timer.c ****         TIMER_CHCTL2(timer_periph) |= (uint32_t)(timer_ocpara->outputstate<< 4U);
 2559              		.loc 1 793 36
 2560 0134 FB68     		ldr	r3, [r7, #12]
 2561 0136 2033     		adds	r3, r3, #32
 2562 0138 1A68     		ldr	r2, [r3]
 2563              		.loc 1 793 62
 2564 013a 7B68     		ldr	r3, [r7, #4]
 2565 013c 1B68     		ldr	r3, [r3]
 2566              		.loc 1 793 75
 2567 013e 1B01     		lsls	r3, r3, #4
 2568              		.loc 1 793 36
 2569 0140 F968     		ldr	r1, [r7, #12]
 2570 0142 2031     		adds	r1, r1, #32
 2571 0144 1343     		orrs	r3, r3, r2
 2572 0146 0B60     		str	r3, [r1]
 794:C:/Users/leonardo/Desktop/Code/Github/DawnBGC/Libraries/FWLIB/src\gd32f4xx_timer.c ****         /* reset the CH1P bit */
 795:C:/Users/leonardo/Desktop/Code/Github/DawnBGC/Libraries/FWLIB/src\gd32f4xx_timer.c ****         TIMER_CHCTL2(timer_periph) &= (~(uint32_t)TIMER_CHCTL2_CH1P);
 2573              		.loc 1 795 36
 2574 0148 FB68     		ldr	r3, [r7, #12]
 2575 014a 2033     		adds	r3, r3, #32
 2576 014c 1B68     		ldr	r3, [r3]
 2577 014e FA68     		ldr	r2, [r7, #12]
 2578 0150 2032     		adds	r2, r2, #32
 2579 0152 23F02003 		bic	r3, r3, #32
 2580 0156 1360     		str	r3, [r2]
 796:C:/Users/leonardo/Desktop/Code/Github/DawnBGC/Libraries/FWLIB/src\gd32f4xx_timer.c ****         /* set the CH1P bit */
 797:C:/Users/leonardo/Desktop/Code/Github/DawnBGC/Libraries/FWLIB/src\gd32f4xx_timer.c ****         TIMER_CHCTL2(timer_periph) |= (uint32_t)((uint32_t)(timer_ocpara->ocpolarity)<< 4U);
 2581              		.loc 1 797 36
 2582 0158 FB68     		ldr	r3, [r7, #12]
 2583 015a 2033     		adds	r3, r3, #32
 2584 015c 1A68     		ldr	r2, [r3]
 2585              		.loc 1 797 73
 2586 015e 7B68     		ldr	r3, [r7, #4]
 2587 0160 DB88     		ldrh	r3, [r3, #6]
 2588              		.loc 1 797 39
 2589 0162 1B01     		lsls	r3, r3, #4
 2590              		.loc 1 797 36
 2591 0164 F968     		ldr	r1, [r7, #12]
 2592 0166 2031     		adds	r1, r1, #32
 2593 0168 1343     		orrs	r3, r3, r2
 2594 016a 0B60     		str	r3, [r1]
 798:C:/Users/leonardo/Desktop/Code/Github/DawnBGC/Libraries/FWLIB/src\gd32f4xx_timer.c **** 
 799:C:/Users/leonardo/Desktop/Code/Github/DawnBGC/Libraries/FWLIB/src\gd32f4xx_timer.c ****         if((TIMER0 == timer_periph) || (TIMER7 == timer_periph)){
 2595              		.loc 1 799 11
 2596 016c FB68     		ldr	r3, [r7, #12]
 2597 016e 2C4A     		ldr	r2, .L108
 2598 0170 9342     		cmp	r3, r2
 2599 0172 03D0     		beq	.L101
 2600              		.loc 1 799 37 discriminator 1
 2601 0174 FB68     		ldr	r3, [r7, #12]
 2602 0176 2B4A     		ldr	r2, .L108+4
 2603 0178 9342     		cmp	r3, r2
 2604 017a 47D1     		bne	.L102
 2605              	.L101:
 800:C:/Users/leonardo/Desktop/Code/Github/DawnBGC/Libraries/FWLIB/src\gd32f4xx_timer.c ****             /* reset the CH1NEN bit */
 801:C:/Users/leonardo/Desktop/Code/Github/DawnBGC/Libraries/FWLIB/src\gd32f4xx_timer.c ****             TIMER_CHCTL2(timer_periph) &= (~(uint32_t)TIMER_CHCTL2_CH1NEN);
 2606              		.loc 1 801 40
 2607 017c FB68     		ldr	r3, [r7, #12]
 2608 017e 2033     		adds	r3, r3, #32
 2609 0180 1B68     		ldr	r3, [r3]
 2610 0182 FA68     		ldr	r2, [r7, #12]
 2611 0184 2032     		adds	r2, r2, #32
 2612 0186 23F04003 		bic	r3, r3, #64
 2613 018a 1360     		str	r3, [r2]
 802:C:/Users/leonardo/Desktop/Code/Github/DawnBGC/Libraries/FWLIB/src\gd32f4xx_timer.c ****             /* set the CH1NEN bit */
 803:C:/Users/leonardo/Desktop/Code/Github/DawnBGC/Libraries/FWLIB/src\gd32f4xx_timer.c ****             TIMER_CHCTL2(timer_periph) |= (uint32_t)((uint32_t)(timer_ocpara->outputnstate)<< 4U);
 2614              		.loc 1 803 40
 2615 018c FB68     		ldr	r3, [r7, #12]
 2616 018e 2033     		adds	r3, r3, #32
 2617 0190 1A68     		ldr	r2, [r3]
 2618              		.loc 1 803 77
 2619 0192 7B68     		ldr	r3, [r7, #4]
 2620 0194 9B88     		ldrh	r3, [r3, #4]
 2621              		.loc 1 803 43
 2622 0196 1B01     		lsls	r3, r3, #4
 2623              		.loc 1 803 40
 2624 0198 F968     		ldr	r1, [r7, #12]
 2625 019a 2031     		adds	r1, r1, #32
 2626 019c 1343     		orrs	r3, r3, r2
 2627 019e 0B60     		str	r3, [r1]
 804:C:/Users/leonardo/Desktop/Code/Github/DawnBGC/Libraries/FWLIB/src\gd32f4xx_timer.c ****             /* reset the CH1NP bit */
 805:C:/Users/leonardo/Desktop/Code/Github/DawnBGC/Libraries/FWLIB/src\gd32f4xx_timer.c ****             TIMER_CHCTL2(timer_periph) &= (~(uint32_t)TIMER_CHCTL2_CH1NP);
 2628              		.loc 1 805 40
 2629 01a0 FB68     		ldr	r3, [r7, #12]
 2630 01a2 2033     		adds	r3, r3, #32
 2631 01a4 1B68     		ldr	r3, [r3]
 2632 01a6 FA68     		ldr	r2, [r7, #12]
 2633 01a8 2032     		adds	r2, r2, #32
 2634 01aa 23F08003 		bic	r3, r3, #128
 2635 01ae 1360     		str	r3, [r2]
 806:C:/Users/leonardo/Desktop/Code/Github/DawnBGC/Libraries/FWLIB/src\gd32f4xx_timer.c ****             /* set the CH1NP bit */
 807:C:/Users/leonardo/Desktop/Code/Github/DawnBGC/Libraries/FWLIB/src\gd32f4xx_timer.c ****             TIMER_CHCTL2(timer_periph) |= (uint32_t)((uint32_t)(timer_ocpara->ocnpolarity)<< 4U);
 2636              		.loc 1 807 40
 2637 01b0 FB68     		ldr	r3, [r7, #12]
 2638 01b2 2033     		adds	r3, r3, #32
 2639 01b4 1A68     		ldr	r2, [r3]
 2640              		.loc 1 807 77
 2641 01b6 7B68     		ldr	r3, [r7, #4]
 2642 01b8 1B89     		ldrh	r3, [r3, #8]
 2643              		.loc 1 807 43
 2644 01ba 1B01     		lsls	r3, r3, #4
 2645              		.loc 1 807 40
 2646 01bc F968     		ldr	r1, [r7, #12]
 2647 01be 2031     		adds	r1, r1, #32
 2648 01c0 1343     		orrs	r3, r3, r2
 2649 01c2 0B60     		str	r3, [r1]
 808:C:/Users/leonardo/Desktop/Code/Github/DawnBGC/Libraries/FWLIB/src\gd32f4xx_timer.c ****             /* reset the ISO1 bit */
 809:C:/Users/leonardo/Desktop/Code/Github/DawnBGC/Libraries/FWLIB/src\gd32f4xx_timer.c ****             TIMER_CTL1(timer_periph) &= (~(uint32_t)TIMER_CTL1_ISO1);
 2650              		.loc 1 809 38
 2651 01c4 FB68     		ldr	r3, [r7, #12]
 2652 01c6 0433     		adds	r3, r3, #4
 2653 01c8 1B68     		ldr	r3, [r3]
 2654 01ca FA68     		ldr	r2, [r7, #12]
 2655 01cc 0432     		adds	r2, r2, #4
 2656 01ce 23F48063 		bic	r3, r3, #1024
 2657 01d2 1360     		str	r3, [r2]
 810:C:/Users/leonardo/Desktop/Code/Github/DawnBGC/Libraries/FWLIB/src\gd32f4xx_timer.c ****             /* set the ISO1 bit */
 811:C:/Users/leonardo/Desktop/Code/Github/DawnBGC/Libraries/FWLIB/src\gd32f4xx_timer.c ****             TIMER_CTL1(timer_periph) |= (uint32_t)((uint32_t)(timer_ocpara->ocidlestate)<< 2U);
 2658              		.loc 1 811 38
 2659 01d4 FB68     		ldr	r3, [r7, #12]
 2660 01d6 0433     		adds	r3, r3, #4
 2661 01d8 1A68     		ldr	r2, [r3]
 2662              		.loc 1 811 75
 2663 01da 7B68     		ldr	r3, [r7, #4]
 2664 01dc 5B89     		ldrh	r3, [r3, #10]
 2665              		.loc 1 811 41
 2666 01de 9B00     		lsls	r3, r3, #2
 2667              		.loc 1 811 38
 2668 01e0 F968     		ldr	r1, [r7, #12]
 2669 01e2 0431     		adds	r1, r1, #4
 2670 01e4 1343     		orrs	r3, r3, r2
 2671 01e6 0B60     		str	r3, [r1]
 812:C:/Users/leonardo/Desktop/Code/Github/DawnBGC/Libraries/FWLIB/src\gd32f4xx_timer.c ****             /* reset the ISO1N bit */
 813:C:/Users/leonardo/Desktop/Code/Github/DawnBGC/Libraries/FWLIB/src\gd32f4xx_timer.c ****             TIMER_CTL1(timer_periph) &= (~(uint32_t)TIMER_CTL1_ISO1N);
 2672              		.loc 1 813 38
 2673 01e8 FB68     		ldr	r3, [r7, #12]
 2674 01ea 0433     		adds	r3, r3, #4
 2675 01ec 1B68     		ldr	r3, [r3]
 2676 01ee FA68     		ldr	r2, [r7, #12]
 2677 01f0 0432     		adds	r2, r2, #4
 2678 01f2 23F40063 		bic	r3, r3, #2048
 2679 01f6 1360     		str	r3, [r2]
 814:C:/Users/leonardo/Desktop/Code/Github/DawnBGC/Libraries/FWLIB/src\gd32f4xx_timer.c ****             /* set the ISO1N bit */
 815:C:/Users/leonardo/Desktop/Code/Github/DawnBGC/Libraries/FWLIB/src\gd32f4xx_timer.c ****             TIMER_CTL1(timer_periph) |= (uint32_t)((uint32_t)(timer_ocpara->ocnidlestate)<< 2U);
 2680              		.loc 1 815 38
 2681 01f8 FB68     		ldr	r3, [r7, #12]
 2682 01fa 0433     		adds	r3, r3, #4
 2683 01fc 1A68     		ldr	r2, [r3]
 2684              		.loc 1 815 75
 2685 01fe 7B68     		ldr	r3, [r7, #4]
 2686 0200 9B89     		ldrh	r3, [r3, #12]
 2687              		.loc 1 815 41
 2688 0202 9B00     		lsls	r3, r3, #2
 2689              		.loc 1 815 38
 2690 0204 F968     		ldr	r1, [r7, #12]
 2691 0206 0431     		adds	r1, r1, #4
 2692 0208 1343     		orrs	r3, r3, r2
 2693 020a 0B60     		str	r3, [r1]
 2694              	.L102:
 816:C:/Users/leonardo/Desktop/Code/Github/DawnBGC/Libraries/FWLIB/src\gd32f4xx_timer.c ****         }
 817:C:/Users/leonardo/Desktop/Code/Github/DawnBGC/Libraries/FWLIB/src\gd32f4xx_timer.c ****         TIMER_CHCTL0(timer_periph) &= ~(uint32_t)TIMER_CHCTL0_CH1MS;
 2695              		.loc 1 817 36
 2696 020c FB68     		ldr	r3, [r7, #12]
 2697 020e 1833     		adds	r3, r3, #24
 2698 0210 1B68     		ldr	r3, [r3]
 2699 0212 FA68     		ldr	r2, [r7, #12]
 2700 0214 1832     		adds	r2, r2, #24
 2701 0216 23F44073 		bic	r3, r3, #768
 2702 021a 1360     		str	r3, [r2]
 818:C:/Users/leonardo/Desktop/Code/Github/DawnBGC/Libraries/FWLIB/src\gd32f4xx_timer.c ****         break;
 2703              		.loc 1 818 9
 2704 021c C9E0     		b	.L100
 2705              	.L109:
 2706 021e 00BF     		.align	2
 2707              	.L108:
 2708 0220 00000140 		.word	1073807360
 2709 0224 00040140 		.word	1073808384
 2710              	.L95:
 819:C:/Users/leonardo/Desktop/Code/Github/DawnBGC/Libraries/FWLIB/src\gd32f4xx_timer.c ****     /* configure TIMER_CH_2 */
 820:C:/Users/leonardo/Desktop/Code/Github/DawnBGC/Libraries/FWLIB/src\gd32f4xx_timer.c ****     case TIMER_CH_2:
 821:C:/Users/leonardo/Desktop/Code/Github/DawnBGC/Libraries/FWLIB/src\gd32f4xx_timer.c ****         /* reset the CH2EN bit */
 822:C:/Users/leonardo/Desktop/Code/Github/DawnBGC/Libraries/FWLIB/src\gd32f4xx_timer.c ****         TIMER_CHCTL2(timer_periph) &= (~(uint32_t)TIMER_CHCTL2_CH2EN);
 2711              		.loc 1 822 36
 2712 0228 FB68     		ldr	r3, [r7, #12]
 2713 022a 2033     		adds	r3, r3, #32
 2714 022c 1B68     		ldr	r3, [r3]
 2715 022e FA68     		ldr	r2, [r7, #12]
 2716 0230 2032     		adds	r2, r2, #32
 2717 0232 23F48073 		bic	r3, r3, #256
 2718 0236 1360     		str	r3, [r2]
 823:C:/Users/leonardo/Desktop/Code/Github/DawnBGC/Libraries/FWLIB/src\gd32f4xx_timer.c ****         /* set the CH2EN bit */
 824:C:/Users/leonardo/Desktop/Code/Github/DawnBGC/Libraries/FWLIB/src\gd32f4xx_timer.c ****         TIMER_CHCTL2(timer_periph) |= (uint32_t)(timer_ocpara->outputstate<< 8U);
 2719              		.loc 1 824 36
 2720 0238 FB68     		ldr	r3, [r7, #12]
 2721 023a 2033     		adds	r3, r3, #32
 2722 023c 1A68     		ldr	r2, [r3]
 2723              		.loc 1 824 62
 2724 023e 7B68     		ldr	r3, [r7, #4]
 2725 0240 1B68     		ldr	r3, [r3]
 2726              		.loc 1 824 75
 2727 0242 1B02     		lsls	r3, r3, #8
 2728              		.loc 1 824 36
 2729 0244 F968     		ldr	r1, [r7, #12]
 2730 0246 2031     		adds	r1, r1, #32
 2731 0248 1343     		orrs	r3, r3, r2
 2732 024a 0B60     		str	r3, [r1]
 825:C:/Users/leonardo/Desktop/Code/Github/DawnBGC/Libraries/FWLIB/src\gd32f4xx_timer.c ****         /* reset the CH2P bit */
 826:C:/Users/leonardo/Desktop/Code/Github/DawnBGC/Libraries/FWLIB/src\gd32f4xx_timer.c ****         TIMER_CHCTL2(timer_periph) &= (~(uint32_t)TIMER_CHCTL2_CH2P);
 2733              		.loc 1 826 36
 2734 024c FB68     		ldr	r3, [r7, #12]
 2735 024e 2033     		adds	r3, r3, #32
 2736 0250 1B68     		ldr	r3, [r3]
 2737 0252 FA68     		ldr	r2, [r7, #12]
 2738 0254 2032     		adds	r2, r2, #32
 2739 0256 23F40073 		bic	r3, r3, #512
 2740 025a 1360     		str	r3, [r2]
 827:C:/Users/leonardo/Desktop/Code/Github/DawnBGC/Libraries/FWLIB/src\gd32f4xx_timer.c ****         /* set the CH2P bit */
 828:C:/Users/leonardo/Desktop/Code/Github/DawnBGC/Libraries/FWLIB/src\gd32f4xx_timer.c ****         TIMER_CHCTL2(timer_periph) |= (uint32_t)((uint32_t)(timer_ocpara->ocpolarity)<< 8U);
 2741              		.loc 1 828 36
 2742 025c FB68     		ldr	r3, [r7, #12]
 2743 025e 2033     		adds	r3, r3, #32
 2744 0260 1A68     		ldr	r2, [r3]
 2745              		.loc 1 828 73
 2746 0262 7B68     		ldr	r3, [r7, #4]
 2747 0264 DB88     		ldrh	r3, [r3, #6]
 2748              		.loc 1 828 39
 2749 0266 1B02     		lsls	r3, r3, #8
 2750              		.loc 1 828 36
 2751 0268 F968     		ldr	r1, [r7, #12]
 2752 026a 2031     		adds	r1, r1, #32
 2753 026c 1343     		orrs	r3, r3, r2
 2754 026e 0B60     		str	r3, [r1]
 829:C:/Users/leonardo/Desktop/Code/Github/DawnBGC/Libraries/FWLIB/src\gd32f4xx_timer.c **** 
 830:C:/Users/leonardo/Desktop/Code/Github/DawnBGC/Libraries/FWLIB/src\gd32f4xx_timer.c ****         if((TIMER0 == timer_periph) || (TIMER7 == timer_periph)){
 2755              		.loc 1 830 11
 2756 0270 FB68     		ldr	r3, [r7, #12]
 2757 0272 524A     		ldr	r2, .L110
 2758 0274 9342     		cmp	r3, r2
 2759 0276 03D0     		beq	.L103
 2760              		.loc 1 830 37 discriminator 1
 2761 0278 FB68     		ldr	r3, [r7, #12]
 2762 027a 514A     		ldr	r2, .L110+4
 2763 027c 9342     		cmp	r3, r2
 2764 027e 47D1     		bne	.L104
 2765              	.L103:
 831:C:/Users/leonardo/Desktop/Code/Github/DawnBGC/Libraries/FWLIB/src\gd32f4xx_timer.c ****             /* reset the CH2NEN bit */
 832:C:/Users/leonardo/Desktop/Code/Github/DawnBGC/Libraries/FWLIB/src\gd32f4xx_timer.c ****             TIMER_CHCTL2(timer_periph) &= (~(uint32_t)TIMER_CHCTL2_CH2NEN);
 2766              		.loc 1 832 40
 2767 0280 FB68     		ldr	r3, [r7, #12]
 2768 0282 2033     		adds	r3, r3, #32
 2769 0284 1B68     		ldr	r3, [r3]
 2770 0286 FA68     		ldr	r2, [r7, #12]
 2771 0288 2032     		adds	r2, r2, #32
 2772 028a 23F48063 		bic	r3, r3, #1024
 2773 028e 1360     		str	r3, [r2]
 833:C:/Users/leonardo/Desktop/Code/Github/DawnBGC/Libraries/FWLIB/src\gd32f4xx_timer.c ****             /* set the CH2NEN bit */
 834:C:/Users/leonardo/Desktop/Code/Github/DawnBGC/Libraries/FWLIB/src\gd32f4xx_timer.c ****             TIMER_CHCTL2(timer_periph) |= (uint32_t)((uint32_t)(timer_ocpara->outputnstate)<< 8U);
 2774              		.loc 1 834 40
 2775 0290 FB68     		ldr	r3, [r7, #12]
 2776 0292 2033     		adds	r3, r3, #32
 2777 0294 1A68     		ldr	r2, [r3]
 2778              		.loc 1 834 77
 2779 0296 7B68     		ldr	r3, [r7, #4]
 2780 0298 9B88     		ldrh	r3, [r3, #4]
 2781              		.loc 1 834 43
 2782 029a 1B02     		lsls	r3, r3, #8
 2783              		.loc 1 834 40
 2784 029c F968     		ldr	r1, [r7, #12]
 2785 029e 2031     		adds	r1, r1, #32
 2786 02a0 1343     		orrs	r3, r3, r2
 2787 02a2 0B60     		str	r3, [r1]
 835:C:/Users/leonardo/Desktop/Code/Github/DawnBGC/Libraries/FWLIB/src\gd32f4xx_timer.c ****             /* reset the CH2NP bit */
 836:C:/Users/leonardo/Desktop/Code/Github/DawnBGC/Libraries/FWLIB/src\gd32f4xx_timer.c ****             TIMER_CHCTL2(timer_periph) &= (~(uint32_t)TIMER_CHCTL2_CH2NP);
 2788              		.loc 1 836 40
 2789 02a4 FB68     		ldr	r3, [r7, #12]
 2790 02a6 2033     		adds	r3, r3, #32
 2791 02a8 1B68     		ldr	r3, [r3]
 2792 02aa FA68     		ldr	r2, [r7, #12]
 2793 02ac 2032     		adds	r2, r2, #32
 2794 02ae 23F40063 		bic	r3, r3, #2048
 2795 02b2 1360     		str	r3, [r2]
 837:C:/Users/leonardo/Desktop/Code/Github/DawnBGC/Libraries/FWLIB/src\gd32f4xx_timer.c ****             /* set the CH2NP bit */
 838:C:/Users/leonardo/Desktop/Code/Github/DawnBGC/Libraries/FWLIB/src\gd32f4xx_timer.c ****             TIMER_CHCTL2(timer_periph) |= (uint32_t)((uint32_t)(timer_ocpara->ocnpolarity)<< 8U);
 2796              		.loc 1 838 40
 2797 02b4 FB68     		ldr	r3, [r7, #12]
 2798 02b6 2033     		adds	r3, r3, #32
 2799 02b8 1A68     		ldr	r2, [r3]
 2800              		.loc 1 838 77
 2801 02ba 7B68     		ldr	r3, [r7, #4]
 2802 02bc 1B89     		ldrh	r3, [r3, #8]
 2803              		.loc 1 838 43
 2804 02be 1B02     		lsls	r3, r3, #8
 2805              		.loc 1 838 40
 2806 02c0 F968     		ldr	r1, [r7, #12]
 2807 02c2 2031     		adds	r1, r1, #32
 2808 02c4 1343     		orrs	r3, r3, r2
 2809 02c6 0B60     		str	r3, [r1]
 839:C:/Users/leonardo/Desktop/Code/Github/DawnBGC/Libraries/FWLIB/src\gd32f4xx_timer.c ****             /* reset the ISO2 bit */
 840:C:/Users/leonardo/Desktop/Code/Github/DawnBGC/Libraries/FWLIB/src\gd32f4xx_timer.c ****             TIMER_CTL1(timer_periph) &= (~(uint32_t)TIMER_CTL1_ISO2);
 2810              		.loc 1 840 38
 2811 02c8 FB68     		ldr	r3, [r7, #12]
 2812 02ca 0433     		adds	r3, r3, #4
 2813 02cc 1B68     		ldr	r3, [r3]
 2814 02ce FA68     		ldr	r2, [r7, #12]
 2815 02d0 0432     		adds	r2, r2, #4
 2816 02d2 23F48053 		bic	r3, r3, #4096
 2817 02d6 1360     		str	r3, [r2]
 841:C:/Users/leonardo/Desktop/Code/Github/DawnBGC/Libraries/FWLIB/src\gd32f4xx_timer.c ****             /* set the ISO2 bit */
 842:C:/Users/leonardo/Desktop/Code/Github/DawnBGC/Libraries/FWLIB/src\gd32f4xx_timer.c ****             TIMER_CTL1(timer_periph) |= (uint32_t)((uint32_t)(timer_ocpara->ocidlestate)<< 4U);
 2818              		.loc 1 842 38
 2819 02d8 FB68     		ldr	r3, [r7, #12]
 2820 02da 0433     		adds	r3, r3, #4
 2821 02dc 1A68     		ldr	r2, [r3]
 2822              		.loc 1 842 75
 2823 02de 7B68     		ldr	r3, [r7, #4]
 2824 02e0 5B89     		ldrh	r3, [r3, #10]
 2825              		.loc 1 842 41
 2826 02e2 1B01     		lsls	r3, r3, #4
 2827              		.loc 1 842 38
 2828 02e4 F968     		ldr	r1, [r7, #12]
 2829 02e6 0431     		adds	r1, r1, #4
 2830 02e8 1343     		orrs	r3, r3, r2
 2831 02ea 0B60     		str	r3, [r1]
 843:C:/Users/leonardo/Desktop/Code/Github/DawnBGC/Libraries/FWLIB/src\gd32f4xx_timer.c ****             /* reset the ISO2N bit */
 844:C:/Users/leonardo/Desktop/Code/Github/DawnBGC/Libraries/FWLIB/src\gd32f4xx_timer.c ****             TIMER_CTL1(timer_periph) &= (~(uint32_t)TIMER_CTL1_ISO2N);
 2832              		.loc 1 844 38
 2833 02ec FB68     		ldr	r3, [r7, #12]
 2834 02ee 0433     		adds	r3, r3, #4
 2835 02f0 1B68     		ldr	r3, [r3]
 2836 02f2 FA68     		ldr	r2, [r7, #12]
 2837 02f4 0432     		adds	r2, r2, #4
 2838 02f6 23F40053 		bic	r3, r3, #8192
 2839 02fa 1360     		str	r3, [r2]
 845:C:/Users/leonardo/Desktop/Code/Github/DawnBGC/Libraries/FWLIB/src\gd32f4xx_timer.c ****             /* set the ISO2N bit */
 846:C:/Users/leonardo/Desktop/Code/Github/DawnBGC/Libraries/FWLIB/src\gd32f4xx_timer.c ****             TIMER_CTL1(timer_periph) |= (uint32_t)((uint32_t)(timer_ocpara->ocnidlestate)<< 4U);
 2840              		.loc 1 846 38
 2841 02fc FB68     		ldr	r3, [r7, #12]
 2842 02fe 0433     		adds	r3, r3, #4
 2843 0300 1A68     		ldr	r2, [r3]
 2844              		.loc 1 846 75
 2845 0302 7B68     		ldr	r3, [r7, #4]
 2846 0304 9B89     		ldrh	r3, [r3, #12]
 2847              		.loc 1 846 41
 2848 0306 1B01     		lsls	r3, r3, #4
 2849              		.loc 1 846 38
 2850 0308 F968     		ldr	r1, [r7, #12]
 2851 030a 0431     		adds	r1, r1, #4
 2852 030c 1343     		orrs	r3, r3, r2
 2853 030e 0B60     		str	r3, [r1]
 2854              	.L104:
 847:C:/Users/leonardo/Desktop/Code/Github/DawnBGC/Libraries/FWLIB/src\gd32f4xx_timer.c ****         }
 848:C:/Users/leonardo/Desktop/Code/Github/DawnBGC/Libraries/FWLIB/src\gd32f4xx_timer.c ****         TIMER_CHCTL1(timer_periph) &= ~(uint32_t)TIMER_CHCTL1_CH2MS;
 2855              		.loc 1 848 36
 2856 0310 FB68     		ldr	r3, [r7, #12]
 2857 0312 1C33     		adds	r3, r3, #28
 2858 0314 1B68     		ldr	r3, [r3]
 2859 0316 FA68     		ldr	r2, [r7, #12]
 2860 0318 1C32     		adds	r2, r2, #28
 2861 031a 23F00303 		bic	r3, r3, #3
 2862 031e 1360     		str	r3, [r2]
 849:C:/Users/leonardo/Desktop/Code/Github/DawnBGC/Libraries/FWLIB/src\gd32f4xx_timer.c ****         break;
 2863              		.loc 1 849 9
 2864 0320 47E0     		b	.L100
 2865              	.L93:
 850:C:/Users/leonardo/Desktop/Code/Github/DawnBGC/Libraries/FWLIB/src\gd32f4xx_timer.c ****     /* configure TIMER_CH_3 */
 851:C:/Users/leonardo/Desktop/Code/Github/DawnBGC/Libraries/FWLIB/src\gd32f4xx_timer.c ****     case TIMER_CH_3:
 852:C:/Users/leonardo/Desktop/Code/Github/DawnBGC/Libraries/FWLIB/src\gd32f4xx_timer.c ****         /* reset the CH3EN bit */
 853:C:/Users/leonardo/Desktop/Code/Github/DawnBGC/Libraries/FWLIB/src\gd32f4xx_timer.c ****         TIMER_CHCTL2(timer_periph) &=(~(uint32_t)TIMER_CHCTL2_CH3EN);
 2866              		.loc 1 853 36
 2867 0322 FB68     		ldr	r3, [r7, #12]
 2868 0324 2033     		adds	r3, r3, #32
 2869 0326 1B68     		ldr	r3, [r3]
 2870 0328 FA68     		ldr	r2, [r7, #12]
 2871 032a 2032     		adds	r2, r2, #32
 2872 032c 23F48053 		bic	r3, r3, #4096
 2873 0330 1360     		str	r3, [r2]
 854:C:/Users/leonardo/Desktop/Code/Github/DawnBGC/Libraries/FWLIB/src\gd32f4xx_timer.c ****         /* set the CH3EN bit */
 855:C:/Users/leonardo/Desktop/Code/Github/DawnBGC/Libraries/FWLIB/src\gd32f4xx_timer.c ****         TIMER_CHCTL2(timer_periph) |= (uint32_t)(timer_ocpara->outputstate<< 12U);
 2874              		.loc 1 855 36
 2875 0332 FB68     		ldr	r3, [r7, #12]
 2876 0334 2033     		adds	r3, r3, #32
 2877 0336 1A68     		ldr	r2, [r3]
 2878              		.loc 1 855 62
 2879 0338 7B68     		ldr	r3, [r7, #4]
 2880 033a 1B68     		ldr	r3, [r3]
 2881              		.loc 1 855 75
 2882 033c 1B03     		lsls	r3, r3, #12
 2883              		.loc 1 855 36
 2884 033e F968     		ldr	r1, [r7, #12]
 2885 0340 2031     		adds	r1, r1, #32
 2886 0342 1343     		orrs	r3, r3, r2
 2887 0344 0B60     		str	r3, [r1]
 856:C:/Users/leonardo/Desktop/Code/Github/DawnBGC/Libraries/FWLIB/src\gd32f4xx_timer.c ****         /* reset the CH3P bit */
 857:C:/Users/leonardo/Desktop/Code/Github/DawnBGC/Libraries/FWLIB/src\gd32f4xx_timer.c ****         TIMER_CHCTL2(timer_periph) &= (~(uint32_t)TIMER_CHCTL2_CH3P);
 2888              		.loc 1 857 36
 2889 0346 FB68     		ldr	r3, [r7, #12]
 2890 0348 2033     		adds	r3, r3, #32
 2891 034a 1B68     		ldr	r3, [r3]
 2892 034c FA68     		ldr	r2, [r7, #12]
 2893 034e 2032     		adds	r2, r2, #32
 2894 0350 23F40053 		bic	r3, r3, #8192
 2895 0354 1360     		str	r3, [r2]
 858:C:/Users/leonardo/Desktop/Code/Github/DawnBGC/Libraries/FWLIB/src\gd32f4xx_timer.c ****         /* set the CH3P bit */
 859:C:/Users/leonardo/Desktop/Code/Github/DawnBGC/Libraries/FWLIB/src\gd32f4xx_timer.c ****         TIMER_CHCTL2(timer_periph) |= (uint32_t)((uint32_t)(timer_ocpara->ocpolarity)<< 12U);
 2896              		.loc 1 859 36
 2897 0356 FB68     		ldr	r3, [r7, #12]
 2898 0358 2033     		adds	r3, r3, #32
 2899 035a 1A68     		ldr	r2, [r3]
 2900              		.loc 1 859 73
 2901 035c 7B68     		ldr	r3, [r7, #4]
 2902 035e DB88     		ldrh	r3, [r3, #6]
 2903              		.loc 1 859 39
 2904 0360 1B03     		lsls	r3, r3, #12
 2905              		.loc 1 859 36
 2906 0362 F968     		ldr	r1, [r7, #12]
 2907 0364 2031     		adds	r1, r1, #32
 2908 0366 1343     		orrs	r3, r3, r2
 2909 0368 0B60     		str	r3, [r1]
 860:C:/Users/leonardo/Desktop/Code/Github/DawnBGC/Libraries/FWLIB/src\gd32f4xx_timer.c **** 
 861:C:/Users/leonardo/Desktop/Code/Github/DawnBGC/Libraries/FWLIB/src\gd32f4xx_timer.c ****         if((TIMER0 == timer_periph) || (TIMER7 == timer_periph)){
 2910              		.loc 1 861 11
 2911 036a FB68     		ldr	r3, [r7, #12]
 2912 036c 134A     		ldr	r2, .L110
 2913 036e 9342     		cmp	r3, r2
 2914 0370 03D0     		beq	.L105
 2915              		.loc 1 861 37 discriminator 1
 2916 0372 FB68     		ldr	r3, [r7, #12]
 2917 0374 124A     		ldr	r2, .L110+4
 2918 0376 9342     		cmp	r3, r2
 2919 0378 11D1     		bne	.L106
 2920              	.L105:
 862:C:/Users/leonardo/Desktop/Code/Github/DawnBGC/Libraries/FWLIB/src\gd32f4xx_timer.c ****             /* reset the ISO3 bit */
 863:C:/Users/leonardo/Desktop/Code/Github/DawnBGC/Libraries/FWLIB/src\gd32f4xx_timer.c ****             TIMER_CTL1(timer_periph) &= (~(uint32_t)TIMER_CTL1_ISO3);
 2921              		.loc 1 863 38
 2922 037a FB68     		ldr	r3, [r7, #12]
 2923 037c 0433     		adds	r3, r3, #4
 2924 037e 1B68     		ldr	r3, [r3]
 2925 0380 FA68     		ldr	r2, [r7, #12]
 2926 0382 0432     		adds	r2, r2, #4
 2927 0384 23F48043 		bic	r3, r3, #16384
 2928 0388 1360     		str	r3, [r2]
 864:C:/Users/leonardo/Desktop/Code/Github/DawnBGC/Libraries/FWLIB/src\gd32f4xx_timer.c ****             /* set the ISO3 bit */
 865:C:/Users/leonardo/Desktop/Code/Github/DawnBGC/Libraries/FWLIB/src\gd32f4xx_timer.c ****             TIMER_CTL1(timer_periph) |= (uint32_t)((uint32_t)(timer_ocpara->ocidlestate)<< 6U);
 2929              		.loc 1 865 38
 2930 038a FB68     		ldr	r3, [r7, #12]
 2931 038c 0433     		adds	r3, r3, #4
 2932 038e 1A68     		ldr	r2, [r3]
 2933              		.loc 1 865 75
 2934 0390 7B68     		ldr	r3, [r7, #4]
 2935 0392 5B89     		ldrh	r3, [r3, #10]
 2936              		.loc 1 865 41
 2937 0394 9B01     		lsls	r3, r3, #6
 2938              		.loc 1 865 38
 2939 0396 F968     		ldr	r1, [r7, #12]
 2940 0398 0431     		adds	r1, r1, #4
 2941 039a 1343     		orrs	r3, r3, r2
 2942 039c 0B60     		str	r3, [r1]
 2943              	.L106:
 866:C:/Users/leonardo/Desktop/Code/Github/DawnBGC/Libraries/FWLIB/src\gd32f4xx_timer.c ****         }
 867:C:/Users/leonardo/Desktop/Code/Github/DawnBGC/Libraries/FWLIB/src\gd32f4xx_timer.c ****         TIMER_CHCTL1(timer_periph) &= ~(uint32_t)TIMER_CHCTL1_CH3MS;
 2944              		.loc 1 867 36
 2945 039e FB68     		ldr	r3, [r7, #12]
 2946 03a0 1C33     		adds	r3, r3, #28
 2947 03a2 1B68     		ldr	r3, [r3]
 2948 03a4 FA68     		ldr	r2, [r7, #12]
 2949 03a6 1C32     		adds	r2, r2, #28
 2950 03a8 23F44073 		bic	r3, r3, #768
 2951 03ac 1360     		str	r3, [r2]
 868:C:/Users/leonardo/Desktop/Code/Github/DawnBGC/Libraries/FWLIB/src\gd32f4xx_timer.c ****         break;
 2952              		.loc 1 868 9
 2953 03ae 00E0     		b	.L100
 2954              	.L107:
 869:C:/Users/leonardo/Desktop/Code/Github/DawnBGC/Libraries/FWLIB/src\gd32f4xx_timer.c ****     default:
 870:C:/Users/leonardo/Desktop/Code/Github/DawnBGC/Libraries/FWLIB/src\gd32f4xx_timer.c ****         break;
 2955              		.loc 1 870 9
 2956 03b0 00BF     		nop
 2957              	.L100:
 871:C:/Users/leonardo/Desktop/Code/Github/DawnBGC/Libraries/FWLIB/src\gd32f4xx_timer.c ****     }
 872:C:/Users/leonardo/Desktop/Code/Github/DawnBGC/Libraries/FWLIB/src\gd32f4xx_timer.c **** }
 2958              		.loc 1 872 1
 2959 03b2 00BF     		nop
 2960 03b4 1437     		adds	r7, r7, #20
 2961              		.cfi_def_cfa_offset 4
 2962 03b6 BD46     		mov	sp, r7
 2963              		.cfi_def_cfa_register 13
 2964              		@ sp needed
 2965 03b8 80BC     		pop	{r7}
 2966              		.cfi_restore 7
 2967              		.cfi_def_cfa_offset 0
 2968 03ba 7047     		bx	lr
 2969              	.L111:
 2970              		.align	2
 2971              	.L110:
 2972 03bc 00000140 		.word	1073807360
 2973 03c0 00040140 		.word	1073808384
 2974              		.cfi_endproc
 2975              	.LFE161:
 2977              		.section	.text.timer_channel_output_mode_config,"ax",%progbits
 2978              		.align	1
 2979              		.global	timer_channel_output_mode_config
 2980              		.syntax unified
 2981              		.thumb
 2982              		.thumb_func
 2983              		.fpu softvfp
 2985              	timer_channel_output_mode_config:
 2986              	.LFB162:
 873:C:/Users/leonardo/Desktop/Code/Github/DawnBGC/Libraries/FWLIB/src\gd32f4xx_timer.c **** 
 874:C:/Users/leonardo/Desktop/Code/Github/DawnBGC/Libraries/FWLIB/src\gd32f4xx_timer.c **** /*!
 875:C:/Users/leonardo/Desktop/Code/Github/DawnBGC/Libraries/FWLIB/src\gd32f4xx_timer.c ****     \brief      configure TIMER channel output compare mode
 876:C:/Users/leonardo/Desktop/Code/Github/DawnBGC/Libraries/FWLIB/src\gd32f4xx_timer.c ****     \param[in]  timer_periph: please refer to the following parameters
 877:C:/Users/leonardo/Desktop/Code/Github/DawnBGC/Libraries/FWLIB/src\gd32f4xx_timer.c ****     \param[in]  timer_channel: 
 878:C:/Users/leonardo/Desktop/Code/Github/DawnBGC/Libraries/FWLIB/src\gd32f4xx_timer.c ****       \arg        TIMER_CH_0: TIMER channel0(TIMERx(x=0..4,7..13))
 879:C:/Users/leonardo/Desktop/Code/Github/DawnBGC/Libraries/FWLIB/src\gd32f4xx_timer.c ****       \arg        TIMER_CH_1: TIMER channel1(TIMERx(x=0..4,7,8,11))
 880:C:/Users/leonardo/Desktop/Code/Github/DawnBGC/Libraries/FWLIB/src\gd32f4xx_timer.c ****       \arg        TIMER_CH_2: TIMER channel2(TIMERx(x=0..4,7))
 881:C:/Users/leonardo/Desktop/Code/Github/DawnBGC/Libraries/FWLIB/src\gd32f4xx_timer.c ****       \arg        TIMER_CH_3: TIMER channel3(TIMERx(x=0..4,7))
 882:C:/Users/leonardo/Desktop/Code/Github/DawnBGC/Libraries/FWLIB/src\gd32f4xx_timer.c ****     \param[in]  timer_ocmode: channel output compare mode
 883:C:/Users/leonardo/Desktop/Code/Github/DawnBGC/Libraries/FWLIB/src\gd32f4xx_timer.c ****       \arg        TIMER_OC_MODE_TIMING: timing mode
 884:C:/Users/leonardo/Desktop/Code/Github/DawnBGC/Libraries/FWLIB/src\gd32f4xx_timer.c ****       \arg        TIMER_OC_MODE_ACTIVE: active mode
 885:C:/Users/leonardo/Desktop/Code/Github/DawnBGC/Libraries/FWLIB/src\gd32f4xx_timer.c ****       \arg        TIMER_OC_MODE_INACTIVE: inactive mode
 886:C:/Users/leonardo/Desktop/Code/Github/DawnBGC/Libraries/FWLIB/src\gd32f4xx_timer.c ****       \arg        TIMER_OC_MODE_TOGGLE: toggle mode
 887:C:/Users/leonardo/Desktop/Code/Github/DawnBGC/Libraries/FWLIB/src\gd32f4xx_timer.c ****       \arg        TIMER_OC_MODE_LOW: force low mode
 888:C:/Users/leonardo/Desktop/Code/Github/DawnBGC/Libraries/FWLIB/src\gd32f4xx_timer.c ****       \arg        TIMER_OC_MODE_HIGH: force high mode
 889:C:/Users/leonardo/Desktop/Code/Github/DawnBGC/Libraries/FWLIB/src\gd32f4xx_timer.c ****       \arg        TIMER_OC_MODE_PWM0: PWM0 mode
 890:C:/Users/leonardo/Desktop/Code/Github/DawnBGC/Libraries/FWLIB/src\gd32f4xx_timer.c ****       \arg        TIMER_OC_MODE_PWM1: PWM1 mode
 891:C:/Users/leonardo/Desktop/Code/Github/DawnBGC/Libraries/FWLIB/src\gd32f4xx_timer.c ****     \param[out] none
 892:C:/Users/leonardo/Desktop/Code/Github/DawnBGC/Libraries/FWLIB/src\gd32f4xx_timer.c ****     \retval     none
 893:C:/Users/leonardo/Desktop/Code/Github/DawnBGC/Libraries/FWLIB/src\gd32f4xx_timer.c **** */
 894:C:/Users/leonardo/Desktop/Code/Github/DawnBGC/Libraries/FWLIB/src\gd32f4xx_timer.c **** void timer_channel_output_mode_config(uint32_t timer_periph,uint16_t timer_channel,uint16_t timer_o
 895:C:/Users/leonardo/Desktop/Code/Github/DawnBGC/Libraries/FWLIB/src\gd32f4xx_timer.c **** {
 2987              		.loc 1 895 1
 2988              		.cfi_startproc
 2989              		@ args = 0, pretend = 0, frame = 8
 2990              		@ frame_needed = 1, uses_anonymous_args = 0
 2991              		@ link register save eliminated.
 2992 0000 80B4     		push	{r7}
 2993              		.cfi_def_cfa_offset 4
 2994              		.cfi_offset 7, -4
 2995 0002 83B0     		sub	sp, sp, #12
 2996              		.cfi_def_cfa_offset 16
 2997 0004 00AF     		add	r7, sp, #0
 2998              		.cfi_def_cfa_register 7
 2999 0006 7860     		str	r0, [r7, #4]
 3000 0008 0B46     		mov	r3, r1
 3001 000a 7B80     		strh	r3, [r7, #2]	@ movhi
 3002 000c 1346     		mov	r3, r2	@ movhi
 3003 000e 3B80     		strh	r3, [r7]	@ movhi
 896:C:/Users/leonardo/Desktop/Code/Github/DawnBGC/Libraries/FWLIB/src\gd32f4xx_timer.c ****     switch(timer_channel){
 3004              		.loc 1 896 5
 3005 0010 7B88     		ldrh	r3, [r7, #2]
 3006 0012 032B     		cmp	r3, #3
 3007 0014 50D8     		bhi	.L120
 3008 0016 01A2     		adr	r2, .L115
 3009 0018 52F823F0 		ldr	pc, [r2, r3, lsl #2]
 3010              		.p2align 2
 3011              	.L115:
 3012 001c 2D000000 		.word	.L118+1
 3013 0020 4F000000 		.word	.L117+1
 3014 0024 73000000 		.word	.L116+1
 3015 0028 95000000 		.word	.L114+1
 3016              		.p2align 1
 3017              	.L118:
 897:C:/Users/leonardo/Desktop/Code/Github/DawnBGC/Libraries/FWLIB/src\gd32f4xx_timer.c ****     /* configure TIMER_CH_0 */
 898:C:/Users/leonardo/Desktop/Code/Github/DawnBGC/Libraries/FWLIB/src\gd32f4xx_timer.c ****     case TIMER_CH_0:
 899:C:/Users/leonardo/Desktop/Code/Github/DawnBGC/Libraries/FWLIB/src\gd32f4xx_timer.c ****         TIMER_CHCTL0(timer_periph) &= (~(uint32_t)TIMER_CHCTL0_CH0COMCTL);
 3018              		.loc 1 899 36
 3019 002c 7B68     		ldr	r3, [r7, #4]
 3020 002e 1833     		adds	r3, r3, #24
 3021 0030 1B68     		ldr	r3, [r3]
 3022 0032 7A68     		ldr	r2, [r7, #4]
 3023 0034 1832     		adds	r2, r2, #24
 3024 0036 23F07003 		bic	r3, r3, #112
 3025 003a 1360     		str	r3, [r2]
 900:C:/Users/leonardo/Desktop/Code/Github/DawnBGC/Libraries/FWLIB/src\gd32f4xx_timer.c ****         TIMER_CHCTL0(timer_periph) |= (uint32_t)timer_ocmode;
 3026              		.loc 1 900 36
 3027 003c 7B68     		ldr	r3, [r7, #4]
 3028 003e 1833     		adds	r3, r3, #24
 3029 0040 1A68     		ldr	r2, [r3]
 3030              		.loc 1 900 39
 3031 0042 3B88     		ldrh	r3, [r7]
 3032              		.loc 1 900 36
 3033 0044 7968     		ldr	r1, [r7, #4]
 3034 0046 1831     		adds	r1, r1, #24
 3035 0048 1343     		orrs	r3, r3, r2
 3036 004a 0B60     		str	r3, [r1]
 901:C:/Users/leonardo/Desktop/Code/Github/DawnBGC/Libraries/FWLIB/src\gd32f4xx_timer.c ****         break;
 3037              		.loc 1 901 9
 3038 004c 35E0     		b	.L119
 3039              	.L117:
 902:C:/Users/leonardo/Desktop/Code/Github/DawnBGC/Libraries/FWLIB/src\gd32f4xx_timer.c ****     /* configure TIMER_CH_1 */
 903:C:/Users/leonardo/Desktop/Code/Github/DawnBGC/Libraries/FWLIB/src\gd32f4xx_timer.c ****     case TIMER_CH_1:
 904:C:/Users/leonardo/Desktop/Code/Github/DawnBGC/Libraries/FWLIB/src\gd32f4xx_timer.c ****         TIMER_CHCTL0(timer_periph) &= (~(uint32_t)TIMER_CHCTL0_CH1COMCTL);
 3040              		.loc 1 904 36
 3041 004e 7B68     		ldr	r3, [r7, #4]
 3042 0050 1833     		adds	r3, r3, #24
 3043 0052 1B68     		ldr	r3, [r3]
 3044 0054 7A68     		ldr	r2, [r7, #4]
 3045 0056 1832     		adds	r2, r2, #24
 3046 0058 23F4E043 		bic	r3, r3, #28672
 3047 005c 1360     		str	r3, [r2]
 905:C:/Users/leonardo/Desktop/Code/Github/DawnBGC/Libraries/FWLIB/src\gd32f4xx_timer.c ****         TIMER_CHCTL0(timer_periph) |= (uint32_t)((uint32_t)(timer_ocmode)<< 8U);
 3048              		.loc 1 905 36
 3049 005e 7B68     		ldr	r3, [r7, #4]
 3050 0060 1833     		adds	r3, r3, #24
 3051 0062 1A68     		ldr	r2, [r3]
 3052              		.loc 1 905 50
 3053 0064 3B88     		ldrh	r3, [r7]
 3054              		.loc 1 905 39
 3055 0066 1B02     		lsls	r3, r3, #8
 3056              		.loc 1 905 36
 3057 0068 7968     		ldr	r1, [r7, #4]
 3058 006a 1831     		adds	r1, r1, #24
 3059 006c 1343     		orrs	r3, r3, r2
 3060 006e 0B60     		str	r3, [r1]
 906:C:/Users/leonardo/Desktop/Code/Github/DawnBGC/Libraries/FWLIB/src\gd32f4xx_timer.c ****         break;
 3061              		.loc 1 906 9
 3062 0070 23E0     		b	.L119
 3063              	.L116:
 907:C:/Users/leonardo/Desktop/Code/Github/DawnBGC/Libraries/FWLIB/src\gd32f4xx_timer.c ****     /* configure TIMER_CH_2 */
 908:C:/Users/leonardo/Desktop/Code/Github/DawnBGC/Libraries/FWLIB/src\gd32f4xx_timer.c ****     case TIMER_CH_2:
 909:C:/Users/leonardo/Desktop/Code/Github/DawnBGC/Libraries/FWLIB/src\gd32f4xx_timer.c ****         TIMER_CHCTL1(timer_periph) &= (~(uint32_t)TIMER_CHCTL1_CH2COMCTL);
 3064              		.loc 1 909 36
 3065 0072 7B68     		ldr	r3, [r7, #4]
 3066 0074 1C33     		adds	r3, r3, #28
 3067 0076 1B68     		ldr	r3, [r3]
 3068 0078 7A68     		ldr	r2, [r7, #4]
 3069 007a 1C32     		adds	r2, r2, #28
 3070 007c 23F07003 		bic	r3, r3, #112
 3071 0080 1360     		str	r3, [r2]
 910:C:/Users/leonardo/Desktop/Code/Github/DawnBGC/Libraries/FWLIB/src\gd32f4xx_timer.c ****         TIMER_CHCTL1(timer_periph) |= (uint32_t)timer_ocmode;
 3072              		.loc 1 910 36
 3073 0082 7B68     		ldr	r3, [r7, #4]
 3074 0084 1C33     		adds	r3, r3, #28
 3075 0086 1A68     		ldr	r2, [r3]
 3076              		.loc 1 910 39
 3077 0088 3B88     		ldrh	r3, [r7]
 3078              		.loc 1 910 36
 3079 008a 7968     		ldr	r1, [r7, #4]
 3080 008c 1C31     		adds	r1, r1, #28
 3081 008e 1343     		orrs	r3, r3, r2
 3082 0090 0B60     		str	r3, [r1]
 911:C:/Users/leonardo/Desktop/Code/Github/DawnBGC/Libraries/FWLIB/src\gd32f4xx_timer.c ****         break;
 3083              		.loc 1 911 9
 3084 0092 12E0     		b	.L119
 3085              	.L114:
 912:C:/Users/leonardo/Desktop/Code/Github/DawnBGC/Libraries/FWLIB/src\gd32f4xx_timer.c ****     /* configure TIMER_CH_3 */
 913:C:/Users/leonardo/Desktop/Code/Github/DawnBGC/Libraries/FWLIB/src\gd32f4xx_timer.c ****     case TIMER_CH_3:
 914:C:/Users/leonardo/Desktop/Code/Github/DawnBGC/Libraries/FWLIB/src\gd32f4xx_timer.c ****         TIMER_CHCTL1(timer_periph) &= (~(uint32_t)TIMER_CHCTL1_CH3COMCTL);
 3086              		.loc 1 914 36
 3087 0094 7B68     		ldr	r3, [r7, #4]
 3088 0096 1C33     		adds	r3, r3, #28
 3089 0098 1B68     		ldr	r3, [r3]
 3090 009a 7A68     		ldr	r2, [r7, #4]
 3091 009c 1C32     		adds	r2, r2, #28
 3092 009e 23F4E043 		bic	r3, r3, #28672
 3093 00a2 1360     		str	r3, [r2]
 915:C:/Users/leonardo/Desktop/Code/Github/DawnBGC/Libraries/FWLIB/src\gd32f4xx_timer.c ****         TIMER_CHCTL1(timer_periph) |= (uint32_t)((uint32_t)(timer_ocmode)<< 8U);
 3094              		.loc 1 915 36
 3095 00a4 7B68     		ldr	r3, [r7, #4]
 3096 00a6 1C33     		adds	r3, r3, #28
 3097 00a8 1A68     		ldr	r2, [r3]
 3098              		.loc 1 915 50
 3099 00aa 3B88     		ldrh	r3, [r7]
 3100              		.loc 1 915 39
 3101 00ac 1B02     		lsls	r3, r3, #8
 3102              		.loc 1 915 36
 3103 00ae 7968     		ldr	r1, [r7, #4]
 3104 00b0 1C31     		adds	r1, r1, #28
 3105 00b2 1343     		orrs	r3, r3, r2
 3106 00b4 0B60     		str	r3, [r1]
 916:C:/Users/leonardo/Desktop/Code/Github/DawnBGC/Libraries/FWLIB/src\gd32f4xx_timer.c ****         break;
 3107              		.loc 1 916 9
 3108 00b6 00E0     		b	.L119
 3109              	.L120:
 917:C:/Users/leonardo/Desktop/Code/Github/DawnBGC/Libraries/FWLIB/src\gd32f4xx_timer.c ****     default:
 918:C:/Users/leonardo/Desktop/Code/Github/DawnBGC/Libraries/FWLIB/src\gd32f4xx_timer.c ****         break;
 3110              		.loc 1 918 9
 3111 00b8 00BF     		nop
 3112              	.L119:
 919:C:/Users/leonardo/Desktop/Code/Github/DawnBGC/Libraries/FWLIB/src\gd32f4xx_timer.c ****     }
 920:C:/Users/leonardo/Desktop/Code/Github/DawnBGC/Libraries/FWLIB/src\gd32f4xx_timer.c **** }
 3113              		.loc 1 920 1
 3114 00ba 00BF     		nop
 3115 00bc 0C37     		adds	r7, r7, #12
 3116              		.cfi_def_cfa_offset 4
 3117 00be BD46     		mov	sp, r7
 3118              		.cfi_def_cfa_register 13
 3119              		@ sp needed
 3120 00c0 80BC     		pop	{r7}
 3121              		.cfi_restore 7
 3122              		.cfi_def_cfa_offset 0
 3123 00c2 7047     		bx	lr
 3124              		.cfi_endproc
 3125              	.LFE162:
 3127              		.section	.text.timer_channel_output_pulse_value_config,"ax",%progbits
 3128              		.align	1
 3129              		.global	timer_channel_output_pulse_value_config
 3130              		.syntax unified
 3131              		.thumb
 3132              		.thumb_func
 3133              		.fpu softvfp
 3135              	timer_channel_output_pulse_value_config:
 3136              	.LFB163:
 921:C:/Users/leonardo/Desktop/Code/Github/DawnBGC/Libraries/FWLIB/src\gd32f4xx_timer.c **** 
 922:C:/Users/leonardo/Desktop/Code/Github/DawnBGC/Libraries/FWLIB/src\gd32f4xx_timer.c **** /*!
 923:C:/Users/leonardo/Desktop/Code/Github/DawnBGC/Libraries/FWLIB/src\gd32f4xx_timer.c ****     \brief      configure TIMER channel output pulse value
 924:C:/Users/leonardo/Desktop/Code/Github/DawnBGC/Libraries/FWLIB/src\gd32f4xx_timer.c ****     \param[in]  timer_periph: please refer to the following parameters
 925:C:/Users/leonardo/Desktop/Code/Github/DawnBGC/Libraries/FWLIB/src\gd32f4xx_timer.c ****     \param[in]  timer_channel: 
 926:C:/Users/leonardo/Desktop/Code/Github/DawnBGC/Libraries/FWLIB/src\gd32f4xx_timer.c ****       \arg        TIMER_CH_0: TIMER channel0(TIMERx(x=0..4,7..13))
 927:C:/Users/leonardo/Desktop/Code/Github/DawnBGC/Libraries/FWLIB/src\gd32f4xx_timer.c ****       \arg        TIMER_CH_1: TIMER channel1(TIMERx(x=0..4,7,8,11))
 928:C:/Users/leonardo/Desktop/Code/Github/DawnBGC/Libraries/FWLIB/src\gd32f4xx_timer.c ****       \arg        TIMER_CH_2: TIMER channel2(TIMERx(x=0..4,7))
 929:C:/Users/leonardo/Desktop/Code/Github/DawnBGC/Libraries/FWLIB/src\gd32f4xx_timer.c ****       \arg        TIMER_CH_3: TIMER channel3(TIMERx(x=0..4,7))
 930:C:/Users/leonardo/Desktop/Code/Github/DawnBGC/Libraries/FWLIB/src\gd32f4xx_timer.c ****     \param[in]  timer_pluse: channel output pulse value
 931:C:/Users/leonardo/Desktop/Code/Github/DawnBGC/Libraries/FWLIB/src\gd32f4xx_timer.c ****     \param[out] none
 932:C:/Users/leonardo/Desktop/Code/Github/DawnBGC/Libraries/FWLIB/src\gd32f4xx_timer.c ****     \retval     none
 933:C:/Users/leonardo/Desktop/Code/Github/DawnBGC/Libraries/FWLIB/src\gd32f4xx_timer.c **** */
 934:C:/Users/leonardo/Desktop/Code/Github/DawnBGC/Libraries/FWLIB/src\gd32f4xx_timer.c **** void timer_channel_output_pulse_value_config(uint32_t timer_periph,uint16_t timer_channel,uint32_t 
 935:C:/Users/leonardo/Desktop/Code/Github/DawnBGC/Libraries/FWLIB/src\gd32f4xx_timer.c **** {
 3137              		.loc 1 935 1
 3138              		.cfi_startproc
 3139              		@ args = 0, pretend = 0, frame = 16
 3140              		@ frame_needed = 1, uses_anonymous_args = 0
 3141              		@ link register save eliminated.
 3142 0000 80B4     		push	{r7}
 3143              		.cfi_def_cfa_offset 4
 3144              		.cfi_offset 7, -4
 3145 0002 85B0     		sub	sp, sp, #20
 3146              		.cfi_def_cfa_offset 24
 3147 0004 00AF     		add	r7, sp, #0
 3148              		.cfi_def_cfa_register 7
 3149 0006 F860     		str	r0, [r7, #12]
 3150 0008 0B46     		mov	r3, r1
 3151 000a 7A60     		str	r2, [r7, #4]
 3152 000c 7B81     		strh	r3, [r7, #10]	@ movhi
 936:C:/Users/leonardo/Desktop/Code/Github/DawnBGC/Libraries/FWLIB/src\gd32f4xx_timer.c ****     switch(timer_channel){
 3153              		.loc 1 936 5
 3154 000e 7B89     		ldrh	r3, [r7, #10]
 3155 0010 032B     		cmp	r3, #3
 3156 0012 23D8     		bhi	.L129
 3157 0014 01A2     		adr	r2, .L124
 3158 0016 52F823F0 		ldr	pc, [r2, r3, lsl #2]
 3159 001a 00BF     		.p2align 2
 3160              	.L124:
 3161 001c 2D000000 		.word	.L127+1
 3162 0020 39000000 		.word	.L126+1
 3163 0024 45000000 		.word	.L125+1
 3164 0028 51000000 		.word	.L123+1
 3165              		.p2align 1
 3166              	.L127:
 937:C:/Users/leonardo/Desktop/Code/Github/DawnBGC/Libraries/FWLIB/src\gd32f4xx_timer.c ****     case TIMER_CH_0:
 938:C:/Users/leonardo/Desktop/Code/Github/DawnBGC/Libraries/FWLIB/src\gd32f4xx_timer.c ****         TIMER_CH0CV(timer_periph) = (uint32_t)timer_pluse;
 3167              		.loc 1 938 9
 3168 002c FB68     		ldr	r3, [r7, #12]
 3169 002e 3433     		adds	r3, r3, #52
 3170 0030 1A46     		mov	r2, r3
 3171              		.loc 1 938 35
 3172 0032 7B68     		ldr	r3, [r7, #4]
 3173 0034 1360     		str	r3, [r2]
 939:C:/Users/leonardo/Desktop/Code/Github/DawnBGC/Libraries/FWLIB/src\gd32f4xx_timer.c ****         break;
 3174              		.loc 1 939 9
 3175 0036 12E0     		b	.L128
 3176              	.L126:
 940:C:/Users/leonardo/Desktop/Code/Github/DawnBGC/Libraries/FWLIB/src\gd32f4xx_timer.c ****     case TIMER_CH_1:
 941:C:/Users/leonardo/Desktop/Code/Github/DawnBGC/Libraries/FWLIB/src\gd32f4xx_timer.c ****         TIMER_CH1CV(timer_periph) = (uint32_t)timer_pluse;
 3177              		.loc 1 941 9
 3178 0038 FB68     		ldr	r3, [r7, #12]
 3179 003a 3833     		adds	r3, r3, #56
 3180 003c 1A46     		mov	r2, r3
 3181              		.loc 1 941 35
 3182 003e 7B68     		ldr	r3, [r7, #4]
 3183 0040 1360     		str	r3, [r2]
 942:C:/Users/leonardo/Desktop/Code/Github/DawnBGC/Libraries/FWLIB/src\gd32f4xx_timer.c ****         break;
 3184              		.loc 1 942 9
 3185 0042 0CE0     		b	.L128
 3186              	.L125:
 943:C:/Users/leonardo/Desktop/Code/Github/DawnBGC/Libraries/FWLIB/src\gd32f4xx_timer.c ****     case TIMER_CH_2:
