   1              		.cpu cortex-m4
   2              		.eabi_attribute 20, 1
   3              		.eabi_attribute 21, 1
   4              		.eabi_attribute 23, 3
   5              		.eabi_attribute 24, 1
   6              		.eabi_attribute 25, 1
   7              		.eabi_attribute 26, 1
   8              		.eabi_attribute 30, 6
   9              		.eabi_attribute 34, 1
  10              		.eabi_attribute 18, 4
  11              		.file	"gd32f4xx_rtc.c"
  12              		.text
  13              	.Ltext0:
  14              		.cfi_sections	.debug_frame
  15              		.section	.text.rtc_deinit,"ax",%progbits
  16              		.align	1
  17              		.global	rtc_deinit
  18              		.arch armv7e-m
  19              		.syntax unified
  20              		.thumb
  21              		.thumb_func
  22              		.fpu softvfp
  24              	rtc_deinit:
  25              	.LFB123:
  26              		.file 1 "C:/Users/leonardo/Desktop/Code/Github/DawnGBC/Libraries/FWLIB/src/gd32f4xx_rtc.c"
   1:C:/Users/leonardo/Desktop/Code/Github/DawnGBC/Libraries/FWLIB/src\gd32f4xx_rtc.c **** /*!
   2:C:/Users/leonardo/Desktop/Code/Github/DawnGBC/Libraries/FWLIB/src\gd32f4xx_rtc.c ****     \file  gd32f4xx_rtc.c
   3:C:/Users/leonardo/Desktop/Code/Github/DawnGBC/Libraries/FWLIB/src\gd32f4xx_rtc.c ****     \brief RTC driver
   4:C:/Users/leonardo/Desktop/Code/Github/DawnGBC/Libraries/FWLIB/src\gd32f4xx_rtc.c **** */
   5:C:/Users/leonardo/Desktop/Code/Github/DawnGBC/Libraries/FWLIB/src\gd32f4xx_rtc.c **** 
   6:C:/Users/leonardo/Desktop/Code/Github/DawnGBC/Libraries/FWLIB/src\gd32f4xx_rtc.c **** /*
   7:C:/Users/leonardo/Desktop/Code/Github/DawnGBC/Libraries/FWLIB/src\gd32f4xx_rtc.c ****     Copyright (C) 2016 GigaDevice
   8:C:/Users/leonardo/Desktop/Code/Github/DawnGBC/Libraries/FWLIB/src\gd32f4xx_rtc.c **** 
   9:C:/Users/leonardo/Desktop/Code/Github/DawnGBC/Libraries/FWLIB/src\gd32f4xx_rtc.c ****     2016-08-15, V1.0.0, firmware for GD32F4xx
  10:C:/Users/leonardo/Desktop/Code/Github/DawnGBC/Libraries/FWLIB/src\gd32f4xx_rtc.c **** */
  11:C:/Users/leonardo/Desktop/Code/Github/DawnGBC/Libraries/FWLIB/src\gd32f4xx_rtc.c **** 
  12:C:/Users/leonardo/Desktop/Code/Github/DawnGBC/Libraries/FWLIB/src\gd32f4xx_rtc.c **** #include "gd32f4xx_rtc.h"
  13:C:/Users/leonardo/Desktop/Code/Github/DawnGBC/Libraries/FWLIB/src\gd32f4xx_rtc.c **** 
  14:C:/Users/leonardo/Desktop/Code/Github/DawnGBC/Libraries/FWLIB/src\gd32f4xx_rtc.c **** /* RTC timeout value */
  15:C:/Users/leonardo/Desktop/Code/Github/DawnGBC/Libraries/FWLIB/src\gd32f4xx_rtc.c **** #define RTC_WTWF_TIMEOUT                   ((uint32_t)0x00004000U)                    /*!< wakeup t
  16:C:/Users/leonardo/Desktop/Code/Github/DawnGBC/Libraries/FWLIB/src\gd32f4xx_rtc.c **** #define RTC_INITM_TIMEOUT                  ((uint32_t)0x00004000U)                    /*!< initiali
  17:C:/Users/leonardo/Desktop/Code/Github/DawnGBC/Libraries/FWLIB/src\gd32f4xx_rtc.c **** #define RTC_RSYNF_TIMEOUT                  ((uint32_t)0x00008000U)                    /*!< register
  18:C:/Users/leonardo/Desktop/Code/Github/DawnGBC/Libraries/FWLIB/src\gd32f4xx_rtc.c **** #define RTC_HRFC_TIMEOUT                   ((uint32_t)0x20000000U)                    /*!< recalibr
  19:C:/Users/leonardo/Desktop/Code/Github/DawnGBC/Libraries/FWLIB/src\gd32f4xx_rtc.c **** #define RTC_SHIFTCTL_TIMEOUT               ((uint32_t)0x00001000U)                    /*!< shift fu
  20:C:/Users/leonardo/Desktop/Code/Github/DawnGBC/Libraries/FWLIB/src\gd32f4xx_rtc.c **** #define RTC_ALRMXWF_TIMEOUT                ((uint32_t)0x00008000U)                    /*!< alarm co
  21:C:/Users/leonardo/Desktop/Code/Github/DawnGBC/Libraries/FWLIB/src\gd32f4xx_rtc.c **** 
  22:C:/Users/leonardo/Desktop/Code/Github/DawnGBC/Libraries/FWLIB/src\gd32f4xx_rtc.c **** 
  23:C:/Users/leonardo/Desktop/Code/Github/DawnGBC/Libraries/FWLIB/src\gd32f4xx_rtc.c **** /*!
  24:C:/Users/leonardo/Desktop/Code/Github/DawnGBC/Libraries/FWLIB/src\gd32f4xx_rtc.c ****     \brief      reset most of the RTC registers
  25:C:/Users/leonardo/Desktop/Code/Github/DawnGBC/Libraries/FWLIB/src\gd32f4xx_rtc.c ****     \param[in]  none
  26:C:/Users/leonardo/Desktop/Code/Github/DawnGBC/Libraries/FWLIB/src\gd32f4xx_rtc.c ****     \param[out] none
  27:C:/Users/leonardo/Desktop/Code/Github/DawnGBC/Libraries/FWLIB/src\gd32f4xx_rtc.c ****     \retval     ErrStatus: ERROR or SUCCESS
  28:C:/Users/leonardo/Desktop/Code/Github/DawnGBC/Libraries/FWLIB/src\gd32f4xx_rtc.c **** */
  29:C:/Users/leonardo/Desktop/Code/Github/DawnGBC/Libraries/FWLIB/src\gd32f4xx_rtc.c **** ErrStatus rtc_deinit(void)
  30:C:/Users/leonardo/Desktop/Code/Github/DawnGBC/Libraries/FWLIB/src\gd32f4xx_rtc.c **** {
  27              		.loc 1 30 1
  28              		.cfi_startproc
  29              		@ args = 0, pretend = 0, frame = 16
  30              		@ frame_needed = 1, uses_anonymous_args = 0
  31 0000 80B5     		push	{r7, lr}
  32              		.cfi_def_cfa_offset 8
  33              		.cfi_offset 7, -8
  34              		.cfi_offset 14, -4
  35 0002 84B0     		sub	sp, sp, #16
  36              		.cfi_def_cfa_offset 24
  37 0004 00AF     		add	r7, sp, #0
  38              		.cfi_def_cfa_register 7
  31:C:/Users/leonardo/Desktop/Code/Github/DawnGBC/Libraries/FWLIB/src\gd32f4xx_rtc.c ****     ErrStatus error_status = ERROR;
  39              		.loc 1 31 15
  40 0006 0023     		movs	r3, #0
  41 0008 FB73     		strb	r3, [r7, #15]
  32:C:/Users/leonardo/Desktop/Code/Github/DawnGBC/Libraries/FWLIB/src\gd32f4xx_rtc.c ****     volatile uint32_t time_index = RTC_WTWF_TIMEOUT;
  42              		.loc 1 32 23
  43 000a 4FF48043 		mov	r3, #16384
  44 000e 7B60     		str	r3, [r7, #4]
  33:C:/Users/leonardo/Desktop/Code/Github/DawnGBC/Libraries/FWLIB/src\gd32f4xx_rtc.c ****     uint32_t flag_status = RESET;
  45              		.loc 1 33 14
  46 0010 0023     		movs	r3, #0
  47 0012 BB60     		str	r3, [r7, #8]
  34:C:/Users/leonardo/Desktop/Code/Github/DawnGBC/Libraries/FWLIB/src\gd32f4xx_rtc.c ****     /* RTC_TAMP register is not under write protection */
  35:C:/Users/leonardo/Desktop/Code/Github/DawnGBC/Libraries/FWLIB/src\gd32f4xx_rtc.c ****     RTC_TAMP = RTC_REGISTER_RESET;
  48              		.loc 1 35 5
  49 0014 2F4B     		ldr	r3, .L7
  50              		.loc 1 35 14
  51 0016 0022     		movs	r2, #0
  52 0018 1A60     		str	r2, [r3]
  36:C:/Users/leonardo/Desktop/Code/Github/DawnGBC/Libraries/FWLIB/src\gd32f4xx_rtc.c **** 
  37:C:/Users/leonardo/Desktop/Code/Github/DawnGBC/Libraries/FWLIB/src\gd32f4xx_rtc.c ****     /* disable the write protection */
  38:C:/Users/leonardo/Desktop/Code/Github/DawnGBC/Libraries/FWLIB/src\gd32f4xx_rtc.c ****     RTC_WPK = RTC_UNLOCK_KEY1;
  53              		.loc 1 38 5
  54 001a 2F4B     		ldr	r3, .L7+4
  55              		.loc 1 38 13
  56 001c CA22     		movs	r2, #202
  57 001e 1A60     		str	r2, [r3]
  39:C:/Users/leonardo/Desktop/Code/Github/DawnGBC/Libraries/FWLIB/src\gd32f4xx_rtc.c ****     RTC_WPK = RTC_UNLOCK_KEY2;
  58              		.loc 1 39 5
  59 0020 2D4B     		ldr	r3, .L7+4
  60              		.loc 1 39 13
  61 0022 5322     		movs	r2, #83
  62 0024 1A60     		str	r2, [r3]
  40:C:/Users/leonardo/Desktop/Code/Github/DawnGBC/Libraries/FWLIB/src\gd32f4xx_rtc.c **** 
  41:C:/Users/leonardo/Desktop/Code/Github/DawnGBC/Libraries/FWLIB/src\gd32f4xx_rtc.c ****     /* enter init mode */
  42:C:/Users/leonardo/Desktop/Code/Github/DawnGBC/Libraries/FWLIB/src\gd32f4xx_rtc.c ****     error_status = rtc_init_mode_enter();
  63              		.loc 1 42 20
  64 0026 FFF7FEFF 		bl	rtc_init_mode_enter
  65 002a 0346     		mov	r3, r0
  66 002c FB73     		strb	r3, [r7, #15]
  43:C:/Users/leonardo/Desktop/Code/Github/DawnGBC/Libraries/FWLIB/src\gd32f4xx_rtc.c **** 
  44:C:/Users/leonardo/Desktop/Code/Github/DawnGBC/Libraries/FWLIB/src\gd32f4xx_rtc.c ****     if(ERROR != error_status){
  67              		.loc 1 44 7
  68 002e FB7B     		ldrb	r3, [r7, #15]	@ zero_extendqisi2
  69 0030 002B     		cmp	r3, #0
  70 0032 47D0     		beq	.L2
  45:C:/Users/leonardo/Desktop/Code/Github/DawnGBC/Libraries/FWLIB/src\gd32f4xx_rtc.c ****         /* reset RTC_CTL register, but RTC_CTL[2£º0] */
  46:C:/Users/leonardo/Desktop/Code/Github/DawnGBC/Libraries/FWLIB/src\gd32f4xx_rtc.c ****         RTC_CTL &= (RTC_REGISTER_RESET | RTC_CTL_WTCS);
  71              		.loc 1 46 17
  72 0034 294B     		ldr	r3, .L7+8
  73 0036 1B68     		ldr	r3, [r3]
  74 0038 284A     		ldr	r2, .L7+8
  75 003a 03F00703 		and	r3, r3, #7
  76 003e 1360     		str	r3, [r2]
  47:C:/Users/leonardo/Desktop/Code/Github/DawnGBC/Libraries/FWLIB/src\gd32f4xx_rtc.c ****         /* before reset RTC_TIME and RTC_DATE, BPSHAD bit in RTC_CTL should be reset as the conditi
  48:C:/Users/leonardo/Desktop/Code/Github/DawnGBC/Libraries/FWLIB/src\gd32f4xx_rtc.c ****            in order to read calendar from shadow register, not the real registers being reset */
  49:C:/Users/leonardo/Desktop/Code/Github/DawnGBC/Libraries/FWLIB/src\gd32f4xx_rtc.c ****         RTC_TIME = RTC_REGISTER_RESET;
  77              		.loc 1 49 9
  78 0040 274B     		ldr	r3, .L7+12
  79              		.loc 1 49 18
  80 0042 0022     		movs	r2, #0
  81 0044 1A60     		str	r2, [r3]
  50:C:/Users/leonardo/Desktop/Code/Github/DawnGBC/Libraries/FWLIB/src\gd32f4xx_rtc.c ****         RTC_DATE = RTC_DATE_RESET;
  82              		.loc 1 50 9
  83 0046 274B     		ldr	r3, .L7+16
  84              		.loc 1 50 18
  85 0048 42F20112 		movw	r2, #8449
  86 004c 1A60     		str	r2, [r3]
  51:C:/Users/leonardo/Desktop/Code/Github/DawnGBC/Libraries/FWLIB/src\gd32f4xx_rtc.c **** 
  52:C:/Users/leonardo/Desktop/Code/Github/DawnGBC/Libraries/FWLIB/src\gd32f4xx_rtc.c ****         RTC_PSC = RTC_PSC_RESET;
  87              		.loc 1 52 9
  88 004e 264B     		ldr	r3, .L7+20
  89              		.loc 1 52 17
  90 0050 264A     		ldr	r2, .L7+24
  91 0052 1A60     		str	r2, [r3]
  92              	.L4:
  53:C:/Users/leonardo/Desktop/Code/Github/DawnGBC/Libraries/FWLIB/src\gd32f4xx_rtc.c ****         /* only when RTC_CTL_WTEN=0 and RTC_STAT_WTWF=1 can write RTC_CTL[2£º0] */
  54:C:/Users/leonardo/Desktop/Code/Github/DawnGBC/Libraries/FWLIB/src\gd32f4xx_rtc.c ****         /* wait until the WTWF flag to be set */
  55:C:/Users/leonardo/Desktop/Code/Github/DawnGBC/Libraries/FWLIB/src\gd32f4xx_rtc.c ****         do{
  56:C:/Users/leonardo/Desktop/Code/Github/DawnGBC/Libraries/FWLIB/src\gd32f4xx_rtc.c ****            flag_status = RTC_STAT & RTC_STAT_WTWF;
  93              		.loc 1 56 26 discriminator 2
  94 0054 264B     		ldr	r3, .L7+28
  95 0056 1B68     		ldr	r3, [r3]
  96              		.loc 1 56 24 discriminator 2
  97 0058 03F00403 		and	r3, r3, #4
  98 005c BB60     		str	r3, [r7, #8]
  57:C:/Users/leonardo/Desktop/Code/Github/DawnGBC/Libraries/FWLIB/src\gd32f4xx_rtc.c ****         }while((--time_index > 0U) && ((uint32_t)RESET == flag_status));
  99              		.loc 1 57 17 discriminator 2
 100 005e 7B68     		ldr	r3, [r7, #4]
 101 0060 013B     		subs	r3, r3, #1
 102              		.loc 1 57 9 discriminator 2
 103 0062 7B60     		str	r3, [r7, #4]
 104 0064 002B     		cmp	r3, #0
 105 0066 02D0     		beq	.L3
 106              		.loc 1 57 36 discriminator 1
 107 0068 BB68     		ldr	r3, [r7, #8]
 108 006a 002B     		cmp	r3, #0
 109 006c F2D0     		beq	.L4
 110              	.L3:
  58:C:/Users/leonardo/Desktop/Code/Github/DawnGBC/Libraries/FWLIB/src\gd32f4xx_rtc.c **** 
  59:C:/Users/leonardo/Desktop/Code/Github/DawnGBC/Libraries/FWLIB/src\gd32f4xx_rtc.c ****         if ((uint32_t)RESET == flag_status){
 111              		.loc 1 59 12
 112 006e BB68     		ldr	r3, [r7, #8]
 113 0070 002B     		cmp	r3, #0
 114 0072 02D1     		bne	.L5
  60:C:/Users/leonardo/Desktop/Code/Github/DawnGBC/Libraries/FWLIB/src\gd32f4xx_rtc.c ****             error_status = ERROR;
 115              		.loc 1 60 26
 116 0074 0023     		movs	r3, #0
 117 0076 FB73     		strb	r3, [r7, #15]
 118 0078 24E0     		b	.L2
 119              	.L5:
  61:C:/Users/leonardo/Desktop/Code/Github/DawnGBC/Libraries/FWLIB/src\gd32f4xx_rtc.c ****         }else{
  62:C:/Users/leonardo/Desktop/Code/Github/DawnGBC/Libraries/FWLIB/src\gd32f4xx_rtc.c ****             RTC_CTL &= RTC_REGISTER_RESET;
 120              		.loc 1 62 21
 121 007a 184B     		ldr	r3, .L7+8
 122 007c 1B68     		ldr	r3, [r3]
 123 007e 174B     		ldr	r3, .L7+8
 124 0080 0022     		movs	r2, #0
 125 0082 1A60     		str	r2, [r3]
  63:C:/Users/leonardo/Desktop/Code/Github/DawnGBC/Libraries/FWLIB/src\gd32f4xx_rtc.c ****             RTC_WUT = RTC_WUT_RESET;
 126              		.loc 1 63 13
 127 0084 1B4B     		ldr	r3, .L7+32
 128              		.loc 1 63 21
 129 0086 4FF6FF72 		movw	r2, #65535
 130 008a 1A60     		str	r2, [r3]
  64:C:/Users/leonardo/Desktop/Code/Github/DawnGBC/Libraries/FWLIB/src\gd32f4xx_rtc.c ****             RTC_COSC = RTC_REGISTER_RESET;
 131              		.loc 1 64 13
 132 008c 1A4B     		ldr	r3, .L7+36
 133              		.loc 1 64 22
 134 008e 0022     		movs	r2, #0
 135 0090 1A60     		str	r2, [r3]
  65:C:/Users/leonardo/Desktop/Code/Github/DawnGBC/Libraries/FWLIB/src\gd32f4xx_rtc.c ****             /* to write RTC_ALRMxSS register, ALRMxEN bit in RTC_CTL register should be reset as th
  66:C:/Users/leonardo/Desktop/Code/Github/DawnGBC/Libraries/FWLIB/src\gd32f4xx_rtc.c ****             RTC_ALRM0TD = RTC_REGISTER_RESET;        
 136              		.loc 1 66 13
 137 0092 1A4B     		ldr	r3, .L7+40
 138              		.loc 1 66 25
 139 0094 0022     		movs	r2, #0
 140 0096 1A60     		str	r2, [r3]
  67:C:/Users/leonardo/Desktop/Code/Github/DawnGBC/Libraries/FWLIB/src\gd32f4xx_rtc.c ****             RTC_ALRM1TD = RTC_REGISTER_RESET;
 141              		.loc 1 67 13
 142 0098 194B     		ldr	r3, .L7+44
 143              		.loc 1 67 25
 144 009a 0022     		movs	r2, #0
 145 009c 1A60     		str	r2, [r3]
  68:C:/Users/leonardo/Desktop/Code/Github/DawnGBC/Libraries/FWLIB/src\gd32f4xx_rtc.c ****             RTC_ALRM0SS = RTC_REGISTER_RESET;
 146              		.loc 1 68 13
 147 009e 194B     		ldr	r3, .L7+48
 148              		.loc 1 68 25
 149 00a0 0022     		movs	r2, #0
 150 00a2 1A60     		str	r2, [r3]
  69:C:/Users/leonardo/Desktop/Code/Github/DawnGBC/Libraries/FWLIB/src\gd32f4xx_rtc.c ****             RTC_ALRM1SS = RTC_REGISTER_RESET;
 151              		.loc 1 69 13
 152 00a4 184B     		ldr	r3, .L7+52
 153              		.loc 1 69 25
 154 00a6 0022     		movs	r2, #0
 155 00a8 1A60     		str	r2, [r3]
  70:C:/Users/leonardo/Desktop/Code/Github/DawnGBC/Libraries/FWLIB/src\gd32f4xx_rtc.c ****             /* reset RTC_STAT register, also exit init mode.
  71:C:/Users/leonardo/Desktop/Code/Github/DawnGBC/Libraries/FWLIB/src\gd32f4xx_rtc.c ****                at the same time, RTC_STAT_SOPF bit is reset, as the condition to reset RTC_SHIFTCTL
  72:C:/Users/leonardo/Desktop/Code/Github/DawnGBC/Libraries/FWLIB/src\gd32f4xx_rtc.c ****             RTC_STAT = RTC_STAT_RESET;
 156              		.loc 1 72 13
 157 00aa 114B     		ldr	r3, .L7+28
 158              		.loc 1 72 22
 159 00ac 0022     		movs	r2, #0
 160 00ae 1A60     		str	r2, [r3]
  73:C:/Users/leonardo/Desktop/Code/Github/DawnGBC/Libraries/FWLIB/src\gd32f4xx_rtc.c ****             /* reset RTC_SHIFTCTL and RTC_HRFC register, this can be done without the init mode */
  74:C:/Users/leonardo/Desktop/Code/Github/DawnGBC/Libraries/FWLIB/src\gd32f4xx_rtc.c ****             RTC_SHIFTCTL   = RTC_REGISTER_RESET;       
 161              		.loc 1 74 13
 162 00b0 164B     		ldr	r3, .L7+56
 163              		.loc 1 74 28
 164 00b2 0022     		movs	r2, #0
 165 00b4 1A60     		str	r2, [r3]
  75:C:/Users/leonardo/Desktop/Code/Github/DawnGBC/Libraries/FWLIB/src\gd32f4xx_rtc.c ****             RTC_HRFC       = RTC_REGISTER_RESET;
 166              		.loc 1 75 13
 167 00b6 164B     		ldr	r3, .L7+60
 168              		.loc 1 75 28
 169 00b8 0022     		movs	r2, #0
 170 00ba 1A60     		str	r2, [r3]
  76:C:/Users/leonardo/Desktop/Code/Github/DawnGBC/Libraries/FWLIB/src\gd32f4xx_rtc.c ****             error_status = rtc_register_sync_wait(); 
 171              		.loc 1 76 28
 172 00bc FFF7FEFF 		bl	rtc_register_sync_wait
 173 00c0 0346     		mov	r3, r0
 174 00c2 FB73     		strb	r3, [r7, #15]
 175              	.L2:
  77:C:/Users/leonardo/Desktop/Code/Github/DawnGBC/Libraries/FWLIB/src\gd32f4xx_rtc.c ****         }
  78:C:/Users/leonardo/Desktop/Code/Github/DawnGBC/Libraries/FWLIB/src\gd32f4xx_rtc.c ****     }
  79:C:/Users/leonardo/Desktop/Code/Github/DawnGBC/Libraries/FWLIB/src\gd32f4xx_rtc.c **** 
  80:C:/Users/leonardo/Desktop/Code/Github/DawnGBC/Libraries/FWLIB/src\gd32f4xx_rtc.c ****     /* enable the write protection */
  81:C:/Users/leonardo/Desktop/Code/Github/DawnGBC/Libraries/FWLIB/src\gd32f4xx_rtc.c ****     RTC_WPK = RTC_LOCK_KEY;
 176              		.loc 1 81 5
 177 00c4 044B     		ldr	r3, .L7+4
 178              		.loc 1 81 13
 179 00c6 FF22     		movs	r2, #255
 180 00c8 1A60     		str	r2, [r3]
  82:C:/Users/leonardo/Desktop/Code/Github/DawnGBC/Libraries/FWLIB/src\gd32f4xx_rtc.c **** 
  83:C:/Users/leonardo/Desktop/Code/Github/DawnGBC/Libraries/FWLIB/src\gd32f4xx_rtc.c ****     return error_status;
 181              		.loc 1 83 12
 182 00ca FB7B     		ldrb	r3, [r7, #15]	@ zero_extendqisi2
  84:C:/Users/leonardo/Desktop/Code/Github/DawnGBC/Libraries/FWLIB/src\gd32f4xx_rtc.c **** }
 183              		.loc 1 84 1
 184 00cc 1846     		mov	r0, r3
 185 00ce 1037     		adds	r7, r7, #16
 186              		.cfi_def_cfa_offset 8
 187 00d0 BD46     		mov	sp, r7
 188              		.cfi_def_cfa_register 13
 189              		@ sp needed
 190 00d2 80BD     		pop	{r7, pc}
 191              	.L8:
 192              		.align	2
 193              	.L7:
 194 00d4 40280040 		.word	1073752128
 195 00d8 24280040 		.word	1073752100
 196 00dc 08280040 		.word	1073752072
 197 00e0 00280040 		.word	1073752064
 198 00e4 04280040 		.word	1073752068
 199 00e8 10280040 		.word	1073752080
 200 00ec FF007F00 		.word	8323327
 201 00f0 0C280040 		.word	1073752076
 202 00f4 14280040 		.word	1073752084
 203 00f8 18280040 		.word	1073752088
 204 00fc 1C280040 		.word	1073752092
 205 0100 20280040 		.word	1073752096
 206 0104 44280040 		.word	1073752132
 207 0108 48280040 		.word	1073752136
 208 010c 2C280040 		.word	1073752108
 209 0110 3C280040 		.word	1073752124
 210              		.cfi_endproc
 211              	.LFE123:
 213              		.section	.text.rtc_init,"ax",%progbits
 214              		.align	1
 215              		.global	rtc_init
 216              		.syntax unified
 217              		.thumb
 218              		.thumb_func
 219              		.fpu softvfp
 221              	rtc_init:
 222              	.LFB124:
  85:C:/Users/leonardo/Desktop/Code/Github/DawnGBC/Libraries/FWLIB/src\gd32f4xx_rtc.c **** 
  86:C:/Users/leonardo/Desktop/Code/Github/DawnGBC/Libraries/FWLIB/src\gd32f4xx_rtc.c **** /*!
  87:C:/Users/leonardo/Desktop/Code/Github/DawnGBC/Libraries/FWLIB/src\gd32f4xx_rtc.c ****     \brief      initialize RTC registers
  88:C:/Users/leonardo/Desktop/Code/Github/DawnGBC/Libraries/FWLIB/src\gd32f4xx_rtc.c ****     \param[in]  rtc_initpara_struct: pointer to a rtc_parameter_struct structure which contains 
  89:C:/Users/leonardo/Desktop/Code/Github/DawnGBC/Libraries/FWLIB/src\gd32f4xx_rtc.c ****                 parameters for initialization of the rtc peripheral
  90:C:/Users/leonardo/Desktop/Code/Github/DawnGBC/Libraries/FWLIB/src\gd32f4xx_rtc.c ****                 members of the structure and the member values are shown as below:
  91:C:/Users/leonardo/Desktop/Code/Github/DawnGBC/Libraries/FWLIB/src\gd32f4xx_rtc.c ****                   year: 0x0 - 0x99(BCD format)
  92:C:/Users/leonardo/Desktop/Code/Github/DawnGBC/Libraries/FWLIB/src\gd32f4xx_rtc.c ****                   month: RTC_JAN, RTC_FEB, RTC_MAR, RTC_APR, RTC_MAY, RTC_JUN,
  93:C:/Users/leonardo/Desktop/Code/Github/DawnGBC/Libraries/FWLIB/src\gd32f4xx_rtc.c ****                              RTC_JUL, RTC_AUG, RTC_SEP, RTC_OCT, RTC_NOV, RTC_DEC
  94:C:/Users/leonardo/Desktop/Code/Github/DawnGBC/Libraries/FWLIB/src\gd32f4xx_rtc.c ****                   date: 0x1 - 0x31(BCD format)
  95:C:/Users/leonardo/Desktop/Code/Github/DawnGBC/Libraries/FWLIB/src\gd32f4xx_rtc.c ****                   day_of_week: RTC_MONDAY, RTC_TUESDAY, RTC_WEDSDAY, RTC_THURSDAY
  96:C:/Users/leonardo/Desktop/Code/Github/DawnGBC/Libraries/FWLIB/src\gd32f4xx_rtc.c ****                                    RTC_FRIDAY, RTC_SATURDAY, RTC_SUNDAY
  97:C:/Users/leonardo/Desktop/Code/Github/DawnGBC/Libraries/FWLIB/src\gd32f4xx_rtc.c ****                   hour: 0x0 - 0x12(BCD format) or 0x0 - 0x23(BCD format) depending on the rtc_displ
  98:C:/Users/leonardo/Desktop/Code/Github/DawnGBC/Libraries/FWLIB/src\gd32f4xx_rtc.c ****                   minute: 0x0 - 0x59(BCD format)
  99:C:/Users/leonardo/Desktop/Code/Github/DawnGBC/Libraries/FWLIB/src\gd32f4xx_rtc.c ****                   second: 0x0 - 0x59(BCD format)
 100:C:/Users/leonardo/Desktop/Code/Github/DawnGBC/Libraries/FWLIB/src\gd32f4xx_rtc.c ****                   factor_asyn: 0x0 - 0x7F
 101:C:/Users/leonardo/Desktop/Code/Github/DawnGBC/Libraries/FWLIB/src\gd32f4xx_rtc.c ****                   factor_syn: 0x0 - 0x7FFF
 102:C:/Users/leonardo/Desktop/Code/Github/DawnGBC/Libraries/FWLIB/src\gd32f4xx_rtc.c ****                   am_pm: RTC_AM, RTC_PM
 103:C:/Users/leonardo/Desktop/Code/Github/DawnGBC/Libraries/FWLIB/src\gd32f4xx_rtc.c ****                   display_format: RTC_24HOUR, RTC_12HOUR
 104:C:/Users/leonardo/Desktop/Code/Github/DawnGBC/Libraries/FWLIB/src\gd32f4xx_rtc.c ****     \param[out] none
 105:C:/Users/leonardo/Desktop/Code/Github/DawnGBC/Libraries/FWLIB/src\gd32f4xx_rtc.c ****     \retval     ErrStatus: ERROR or SUCCESS
 106:C:/Users/leonardo/Desktop/Code/Github/DawnGBC/Libraries/FWLIB/src\gd32f4xx_rtc.c **** */
 107:C:/Users/leonardo/Desktop/Code/Github/DawnGBC/Libraries/FWLIB/src\gd32f4xx_rtc.c **** ErrStatus rtc_init(rtc_parameter_struct* rtc_initpara_struct)
 108:C:/Users/leonardo/Desktop/Code/Github/DawnGBC/Libraries/FWLIB/src\gd32f4xx_rtc.c **** {
 223              		.loc 1 108 1
 224              		.cfi_startproc
 225              		@ args = 0, pretend = 0, frame = 24
 226              		@ frame_needed = 1, uses_anonymous_args = 0
 227 0000 80B5     		push	{r7, lr}
 228              		.cfi_def_cfa_offset 8
 229              		.cfi_offset 7, -8
 230              		.cfi_offset 14, -4
 231 0002 86B0     		sub	sp, sp, #24
 232              		.cfi_def_cfa_offset 32
 233 0004 00AF     		add	r7, sp, #0
 234              		.cfi_def_cfa_register 7
 235 0006 7860     		str	r0, [r7, #4]
 109:C:/Users/leonardo/Desktop/Code/Github/DawnGBC/Libraries/FWLIB/src\gd32f4xx_rtc.c ****     ErrStatus error_status = ERROR;
 236              		.loc 1 109 15
 237 0008 0023     		movs	r3, #0
 238 000a FB75     		strb	r3, [r7, #23]
 110:C:/Users/leonardo/Desktop/Code/Github/DawnGBC/Libraries/FWLIB/src\gd32f4xx_rtc.c ****     uint32_t reg_time = 0U, reg_date = 0U;
 239              		.loc 1 110 14
 240 000c 0023     		movs	r3, #0
 241 000e 3B61     		str	r3, [r7, #16]
 242              		.loc 1 110 29
 243 0010 0023     		movs	r3, #0
 244 0012 FB60     		str	r3, [r7, #12]
 111:C:/Users/leonardo/Desktop/Code/Github/DawnGBC/Libraries/FWLIB/src\gd32f4xx_rtc.c **** 
 112:C:/Users/leonardo/Desktop/Code/Github/DawnGBC/Libraries/FWLIB/src\gd32f4xx_rtc.c ****     reg_date = (DATE_YR(rtc_initpara_struct->year) | \
 245              		.loc 1 112 17
 246 0014 7B68     		ldr	r3, [r7, #4]
 247 0016 1B78     		ldrb	r3, [r3]	@ zero_extendqisi2
 248 0018 1B04     		lsls	r3, r3, #16
 249 001a 03F47F02 		and	r2, r3, #16711680
 113:C:/Users/leonardo/Desktop/Code/Github/DawnGBC/Libraries/FWLIB/src\gd32f4xx_rtc.c ****                 DATE_DOW(rtc_initpara_struct->day_of_week) | \
 250              		.loc 1 113 17
 251 001e 7B68     		ldr	r3, [r7, #4]
 252 0020 DB78     		ldrb	r3, [r3, #3]	@ zero_extendqisi2
 253 0022 5B03     		lsls	r3, r3, #13
 254 0024 9BB2     		uxth	r3, r3
 112:C:/Users/leonardo/Desktop/Code/Github/DawnGBC/Libraries/FWLIB/src\gd32f4xx_rtc.c ****                 DATE_DOW(rtc_initpara_struct->day_of_week) | \
 255              		.loc 1 112 52
 256 0026 1A43     		orrs	r2, r2, r3
 114:C:/Users/leonardo/Desktop/Code/Github/DawnGBC/Libraries/FWLIB/src\gd32f4xx_rtc.c ****                 DATE_MON(rtc_initpara_struct->month) | \
 257              		.loc 1 114 17
 258 0028 7B68     		ldr	r3, [r7, #4]
 259 002a 5B78     		ldrb	r3, [r3, #1]	@ zero_extendqisi2
 260 002c 1B02     		lsls	r3, r3, #8
 261 002e 03F4F853 		and	r3, r3, #7936
 113:C:/Users/leonardo/Desktop/Code/Github/DawnGBC/Libraries/FWLIB/src\gd32f4xx_rtc.c ****                 DATE_DOW(rtc_initpara_struct->day_of_week) | \
 262              		.loc 1 113 60
 263 0032 1A43     		orrs	r2, r2, r3
 115:C:/Users/leonardo/Desktop/Code/Github/DawnGBC/Libraries/FWLIB/src\gd32f4xx_rtc.c ****                 DATE_DAY(rtc_initpara_struct->date)); 
 264              		.loc 1 115 17
 265 0034 7B68     		ldr	r3, [r7, #4]
 266 0036 9B78     		ldrb	r3, [r3, #2]	@ zero_extendqisi2
 267 0038 03F03F03 		and	r3, r3, #63
 112:C:/Users/leonardo/Desktop/Code/Github/DawnGBC/Libraries/FWLIB/src\gd32f4xx_rtc.c ****                 DATE_DOW(rtc_initpara_struct->day_of_week) | \
 268              		.loc 1 112 14
 269 003c 1343     		orrs	r3, r3, r2
 270 003e FB60     		str	r3, [r7, #12]
 116:C:/Users/leonardo/Desktop/Code/Github/DawnGBC/Libraries/FWLIB/src\gd32f4xx_rtc.c ****     
 117:C:/Users/leonardo/Desktop/Code/Github/DawnGBC/Libraries/FWLIB/src\gd32f4xx_rtc.c ****     reg_time = (rtc_initpara_struct->am_pm| \
 271              		.loc 1 117 36
 272 0040 7B68     		ldr	r3, [r7, #4]
 273 0042 DA68     		ldr	r2, [r3, #12]
 118:C:/Users/leonardo/Desktop/Code/Github/DawnGBC/Libraries/FWLIB/src\gd32f4xx_rtc.c ****                 TIME_HR(rtc_initpara_struct->hour)  | \
 274              		.loc 1 118 17
 275 0044 7B68     		ldr	r3, [r7, #4]
 276 0046 1B79     		ldrb	r3, [r3, #4]	@ zero_extendqisi2
 277 0048 1B04     		lsls	r3, r3, #16
 278 004a 03F47C13 		and	r3, r3, #4128768
 117:C:/Users/leonardo/Desktop/Code/Github/DawnGBC/Libraries/FWLIB/src\gd32f4xx_rtc.c ****                 TIME_HR(rtc_initpara_struct->hour)  | \
 279              		.loc 1 117 43
 280 004e 1A43     		orrs	r2, r2, r3
 119:C:/Users/leonardo/Desktop/Code/Github/DawnGBC/Libraries/FWLIB/src\gd32f4xx_rtc.c ****                 TIME_MN(rtc_initpara_struct->minute) | \
 281              		.loc 1 119 17
 282 0050 7B68     		ldr	r3, [r7, #4]
 283 0052 5B79     		ldrb	r3, [r3, #5]	@ zero_extendqisi2
 284 0054 1B02     		lsls	r3, r3, #8
 285 0056 03F4FE43 		and	r3, r3, #32512
 118:C:/Users/leonardo/Desktop/Code/Github/DawnGBC/Libraries/FWLIB/src\gd32f4xx_rtc.c ****                 TIME_HR(rtc_initpara_struct->hour)  | \
 286              		.loc 1 118 53
 287 005a 1A43     		orrs	r2, r2, r3
 120:C:/Users/leonardo/Desktop/Code/Github/DawnGBC/Libraries/FWLIB/src\gd32f4xx_rtc.c ****                 TIME_SC(rtc_initpara_struct->second)); 
 288              		.loc 1 120 17
 289 005c 7B68     		ldr	r3, [r7, #4]
 290 005e 9B79     		ldrb	r3, [r3, #6]	@ zero_extendqisi2
 291 0060 03F07F03 		and	r3, r3, #127
 117:C:/Users/leonardo/Desktop/Code/Github/DawnGBC/Libraries/FWLIB/src\gd32f4xx_rtc.c ****                 TIME_HR(rtc_initpara_struct->hour)  | \
 292              		.loc 1 117 14
 293 0064 1343     		orrs	r3, r3, r2
 294 0066 3B61     		str	r3, [r7, #16]
 121:C:/Users/leonardo/Desktop/Code/Github/DawnGBC/Libraries/FWLIB/src\gd32f4xx_rtc.c ****               
 122:C:/Users/leonardo/Desktop/Code/Github/DawnGBC/Libraries/FWLIB/src\gd32f4xx_rtc.c ****     /* 1st: disable the write protection */
 123:C:/Users/leonardo/Desktop/Code/Github/DawnGBC/Libraries/FWLIB/src\gd32f4xx_rtc.c ****     RTC_WPK = RTC_UNLOCK_KEY1;
 295              		.loc 1 123 5
 296 0068 1C4B     		ldr	r3, .L12
 297              		.loc 1 123 13
 298 006a CA22     		movs	r2, #202
 299 006c 1A60     		str	r2, [r3]
 124:C:/Users/leonardo/Desktop/Code/Github/DawnGBC/Libraries/FWLIB/src\gd32f4xx_rtc.c ****     RTC_WPK = RTC_UNLOCK_KEY2;
 300              		.loc 1 124 5
 301 006e 1B4B     		ldr	r3, .L12
 302              		.loc 1 124 13
 303 0070 5322     		movs	r2, #83
 304 0072 1A60     		str	r2, [r3]
 125:C:/Users/leonardo/Desktop/Code/Github/DawnGBC/Libraries/FWLIB/src\gd32f4xx_rtc.c **** 
 126:C:/Users/leonardo/Desktop/Code/Github/DawnGBC/Libraries/FWLIB/src\gd32f4xx_rtc.c ****     /* 2nd: enter init mode */
 127:C:/Users/leonardo/Desktop/Code/Github/DawnGBC/Libraries/FWLIB/src\gd32f4xx_rtc.c ****     error_status = rtc_init_mode_enter();
 305              		.loc 1 127 20
 306 0074 FFF7FEFF 		bl	rtc_init_mode_enter
 307 0078 0346     		mov	r3, r0
 308 007a FB75     		strb	r3, [r7, #23]
 128:C:/Users/leonardo/Desktop/Code/Github/DawnGBC/Libraries/FWLIB/src\gd32f4xx_rtc.c **** 
 129:C:/Users/leonardo/Desktop/Code/Github/DawnGBC/Libraries/FWLIB/src\gd32f4xx_rtc.c ****     if(ERROR != error_status){    
 309              		.loc 1 129 7
 310 007c FB7D     		ldrb	r3, [r7, #23]	@ zero_extendqisi2
 311 007e 002B     		cmp	r3, #0
 312 0080 24D0     		beq	.L10
 130:C:/Users/leonardo/Desktop/Code/Github/DawnGBC/Libraries/FWLIB/src\gd32f4xx_rtc.c ****         RTC_PSC = (uint32_t)(PSC_FACTOR_A(rtc_initpara_struct->factor_asyn)| \
 313              		.loc 1 130 30
 314 0082 7B68     		ldr	r3, [r7, #4]
 315 0084 1B89     		ldrh	r3, [r3, #8]
 316 0086 1B04     		lsls	r3, r3, #16
 317 0088 03F4FE02 		and	r2, r3, #8323072
 131:C:/Users/leonardo/Desktop/Code/Github/DawnGBC/Libraries/FWLIB/src\gd32f4xx_rtc.c ****                              PSC_FACTOR_S(rtc_initpara_struct->factor_syn));
 318              		.loc 1 131 30
 319 008c 7B68     		ldr	r3, [r7, #4]
 320 008e 5B89     		ldrh	r3, [r3, #10]
 321 0090 C3F30E03 		ubfx	r3, r3, #0, #15
 130:C:/Users/leonardo/Desktop/Code/Github/DawnGBC/Libraries/FWLIB/src\gd32f4xx_rtc.c ****         RTC_PSC = (uint32_t)(PSC_FACTOR_A(rtc_initpara_struct->factor_asyn)| \
 322              		.loc 1 130 9
 323 0094 1249     		ldr	r1, .L12+4
 130:C:/Users/leonardo/Desktop/Code/Github/DawnGBC/Libraries/FWLIB/src\gd32f4xx_rtc.c ****         RTC_PSC = (uint32_t)(PSC_FACTOR_A(rtc_initpara_struct->factor_asyn)| \
 324              		.loc 1 130 19
 325 0096 1343     		orrs	r3, r3, r2
 130:C:/Users/leonardo/Desktop/Code/Github/DawnGBC/Libraries/FWLIB/src\gd32f4xx_rtc.c ****         RTC_PSC = (uint32_t)(PSC_FACTOR_A(rtc_initpara_struct->factor_asyn)| \
 326              		.loc 1 130 17
 327 0098 0B60     		str	r3, [r1]
 132:C:/Users/leonardo/Desktop/Code/Github/DawnGBC/Libraries/FWLIB/src\gd32f4xx_rtc.c **** 
 133:C:/Users/leonardo/Desktop/Code/Github/DawnGBC/Libraries/FWLIB/src\gd32f4xx_rtc.c ****         RTC_TIME = (uint32_t)reg_time;
 328              		.loc 1 133 9
 329 009a 124A     		ldr	r2, .L12+8
 330              		.loc 1 133 18
 331 009c 3B69     		ldr	r3, [r7, #16]
 332 009e 1360     		str	r3, [r2]
 134:C:/Users/leonardo/Desktop/Code/Github/DawnGBC/Libraries/FWLIB/src\gd32f4xx_rtc.c ****         RTC_DATE = (uint32_t)reg_date;
 333              		.loc 1 134 9
 334 00a0 114A     		ldr	r2, .L12+12
 335              		.loc 1 134 18
 336 00a2 FB68     		ldr	r3, [r7, #12]
 337 00a4 1360     		str	r3, [r2]
 135:C:/Users/leonardo/Desktop/Code/Github/DawnGBC/Libraries/FWLIB/src\gd32f4xx_rtc.c **** 
 136:C:/Users/leonardo/Desktop/Code/Github/DawnGBC/Libraries/FWLIB/src\gd32f4xx_rtc.c ****         RTC_CTL &= (uint32_t)(~RTC_CTL_CS);
 338              		.loc 1 136 17
 339 00a6 114B     		ldr	r3, .L12+16
 340 00a8 1B68     		ldr	r3, [r3]
 341 00aa 104A     		ldr	r2, .L12+16
 342 00ac 23F04003 		bic	r3, r3, #64
 343 00b0 1360     		str	r3, [r2]
 137:C:/Users/leonardo/Desktop/Code/Github/DawnGBC/Libraries/FWLIB/src\gd32f4xx_rtc.c ****         RTC_CTL |=  rtc_initpara_struct->display_format;
 344              		.loc 1 137 17
 345 00b2 0E4B     		ldr	r3, .L12+16
 346 00b4 1A68     		ldr	r2, [r3]
 347              		.loc 1 137 40
 348 00b6 7B68     		ldr	r3, [r7, #4]
 349 00b8 1B69     		ldr	r3, [r3, #16]
 350              		.loc 1 137 17
 351 00ba 0C49     		ldr	r1, .L12+16
 352 00bc 1343     		orrs	r3, r3, r2
 353 00be 0B60     		str	r3, [r1]
 138:C:/Users/leonardo/Desktop/Code/Github/DawnGBC/Libraries/FWLIB/src\gd32f4xx_rtc.c ****         
 139:C:/Users/leonardo/Desktop/Code/Github/DawnGBC/Libraries/FWLIB/src\gd32f4xx_rtc.c ****         /* 3rd: exit init mode */  
 140:C:/Users/leonardo/Desktop/Code/Github/DawnGBC/Libraries/FWLIB/src\gd32f4xx_rtc.c ****         rtc_init_mode_exit();
 354              		.loc 1 140 9
 355 00c0 FFF7FEFF 		bl	rtc_init_mode_exit
 141:C:/Users/leonardo/Desktop/Code/Github/DawnGBC/Libraries/FWLIB/src\gd32f4xx_rtc.c ****         
 142:C:/Users/leonardo/Desktop/Code/Github/DawnGBC/Libraries/FWLIB/src\gd32f4xx_rtc.c ****         /* 4th: wait the RSYNF flag to set */          
 143:C:/Users/leonardo/Desktop/Code/Github/DawnGBC/Libraries/FWLIB/src\gd32f4xx_rtc.c ****         error_status = rtc_register_sync_wait();
 356              		.loc 1 143 24
 357 00c4 FFF7FEFF 		bl	rtc_register_sync_wait
 358 00c8 0346     		mov	r3, r0
 359 00ca FB75     		strb	r3, [r7, #23]
 360              	.L10:
 144:C:/Users/leonardo/Desktop/Code/Github/DawnGBC/Libraries/FWLIB/src\gd32f4xx_rtc.c ****     }
 145:C:/Users/leonardo/Desktop/Code/Github/DawnGBC/Libraries/FWLIB/src\gd32f4xx_rtc.c **** 
 146:C:/Users/leonardo/Desktop/Code/Github/DawnGBC/Libraries/FWLIB/src\gd32f4xx_rtc.c ****     /* 5th:  enable the write protection */
 147:C:/Users/leonardo/Desktop/Code/Github/DawnGBC/Libraries/FWLIB/src\gd32f4xx_rtc.c ****     RTC_WPK = RTC_LOCK_KEY;
 361              		.loc 1 147 5
 362 00cc 034B     		ldr	r3, .L12
 363              		.loc 1 147 13
 364 00ce FF22     		movs	r2, #255
 365 00d0 1A60     		str	r2, [r3]
 148:C:/Users/leonardo/Desktop/Code/Github/DawnGBC/Libraries/FWLIB/src\gd32f4xx_rtc.c **** 
 149:C:/Users/leonardo/Desktop/Code/Github/DawnGBC/Libraries/FWLIB/src\gd32f4xx_rtc.c ****     return error_status;
 366              		.loc 1 149 12
 367 00d2 FB7D     		ldrb	r3, [r7, #23]	@ zero_extendqisi2
 150:C:/Users/leonardo/Desktop/Code/Github/DawnGBC/Libraries/FWLIB/src\gd32f4xx_rtc.c **** }
 368              		.loc 1 150 1
 369 00d4 1846     		mov	r0, r3
 370 00d6 1837     		adds	r7, r7, #24
 371              		.cfi_def_cfa_offset 8
 372 00d8 BD46     		mov	sp, r7
 373              		.cfi_def_cfa_register 13
 374              		@ sp needed
 375 00da 80BD     		pop	{r7, pc}
 376              	.L13:
 377              		.align	2
 378              	.L12:
 379 00dc 24280040 		.word	1073752100
 380 00e0 10280040 		.word	1073752080
 381 00e4 00280040 		.word	1073752064
 382 00e8 04280040 		.word	1073752068
 383 00ec 08280040 		.word	1073752072
 384              		.cfi_endproc
 385              	.LFE124:
 387              		.section	.text.rtc_init_mode_enter,"ax",%progbits
 388              		.align	1
 389              		.global	rtc_init_mode_enter
 390              		.syntax unified
 391              		.thumb
 392              		.thumb_func
 393              		.fpu softvfp
 395              	rtc_init_mode_enter:
 396              	.LFB125:
 151:C:/Users/leonardo/Desktop/Code/Github/DawnGBC/Libraries/FWLIB/src\gd32f4xx_rtc.c **** 
 152:C:/Users/leonardo/Desktop/Code/Github/DawnGBC/Libraries/FWLIB/src\gd32f4xx_rtc.c **** /*!
 153:C:/Users/leonardo/Desktop/Code/Github/DawnGBC/Libraries/FWLIB/src\gd32f4xx_rtc.c ****     \brief      enter RTC init mode
 154:C:/Users/leonardo/Desktop/Code/Github/DawnGBC/Libraries/FWLIB/src\gd32f4xx_rtc.c ****     \param[in]  none
 155:C:/Users/leonardo/Desktop/Code/Github/DawnGBC/Libraries/FWLIB/src\gd32f4xx_rtc.c ****     \param[out] none
 156:C:/Users/leonardo/Desktop/Code/Github/DawnGBC/Libraries/FWLIB/src\gd32f4xx_rtc.c ****     \retval     ErrStatus: ERROR or SUCCESS
 157:C:/Users/leonardo/Desktop/Code/Github/DawnGBC/Libraries/FWLIB/src\gd32f4xx_rtc.c **** */
 158:C:/Users/leonardo/Desktop/Code/Github/DawnGBC/Libraries/FWLIB/src\gd32f4xx_rtc.c **** ErrStatus rtc_init_mode_enter(void)
 159:C:/Users/leonardo/Desktop/Code/Github/DawnGBC/Libraries/FWLIB/src\gd32f4xx_rtc.c **** {
 397              		.loc 1 159 1
 398              		.cfi_startproc
 399              		@ args = 0, pretend = 0, frame = 16
 400              		@ frame_needed = 1, uses_anonymous_args = 0
 401              		@ link register save eliminated.
 402 0000 80B4     		push	{r7}
 403              		.cfi_def_cfa_offset 4
 404              		.cfi_offset 7, -4
 405 0002 85B0     		sub	sp, sp, #20
 406              		.cfi_def_cfa_offset 24
 407 0004 00AF     		add	r7, sp, #0
 408              		.cfi_def_cfa_register 7
 160:C:/Users/leonardo/Desktop/Code/Github/DawnGBC/Libraries/FWLIB/src\gd32f4xx_rtc.c ****     volatile uint32_t time_index = RTC_INITM_TIMEOUT;
 409              		.loc 1 160 23
 410 0006 4FF48043 		mov	r3, #16384
 411 000a 7B60     		str	r3, [r7, #4]
 161:C:/Users/leonardo/Desktop/Code/Github/DawnGBC/Libraries/FWLIB/src\gd32f4xx_rtc.c ****     uint32_t flag_status = RESET;
 412              		.loc 1 161 14
 413 000c 0023     		movs	r3, #0
 414 000e BB60     		str	r3, [r7, #8]
 162:C:/Users/leonardo/Desktop/Code/Github/DawnGBC/Libraries/FWLIB/src\gd32f4xx_rtc.c ****     ErrStatus error_status = ERROR;
 415              		.loc 1 162 15
 416 0010 0023     		movs	r3, #0
 417 0012 FB73     		strb	r3, [r7, #15]
 163:C:/Users/leonardo/Desktop/Code/Github/DawnGBC/Libraries/FWLIB/src\gd32f4xx_rtc.c **** 
 164:C:/Users/leonardo/Desktop/Code/Github/DawnGBC/Libraries/FWLIB/src\gd32f4xx_rtc.c ****     /* check whether it has been in init mode */
 165:C:/Users/leonardo/Desktop/Code/Github/DawnGBC/Libraries/FWLIB/src\gd32f4xx_rtc.c ****     if ((uint32_t)RESET == (RTC_STAT & RTC_STAT_INITF)){   
 418              		.loc 1 165 29
 419 0014 134B     		ldr	r3, .L20
 420 0016 1B68     		ldr	r3, [r3]
 421              		.loc 1 165 38
 422 0018 03F04003 		and	r3, r3, #64
 423              		.loc 1 165 8
 424 001c 002B     		cmp	r3, #0
 425 001e 18D1     		bne	.L15
 166:C:/Users/leonardo/Desktop/Code/Github/DawnGBC/Libraries/FWLIB/src\gd32f4xx_rtc.c ****         RTC_STAT |= RTC_STAT_INITM;
 426              		.loc 1 166 18
 427 0020 104B     		ldr	r3, .L20
 428 0022 1B68     		ldr	r3, [r3]
 429 0024 0F4A     		ldr	r2, .L20
 430 0026 43F08003 		orr	r3, r3, #128
 431 002a 1360     		str	r3, [r2]
 432              	.L17:
 167:C:/Users/leonardo/Desktop/Code/Github/DawnGBC/Libraries/FWLIB/src\gd32f4xx_rtc.c ****         
 168:C:/Users/leonardo/Desktop/Code/Github/DawnGBC/Libraries/FWLIB/src\gd32f4xx_rtc.c ****         /* wait until the INITF flag to be set */
 169:C:/Users/leonardo/Desktop/Code/Github/DawnGBC/Libraries/FWLIB/src\gd32f4xx_rtc.c ****         do{
 170:C:/Users/leonardo/Desktop/Code/Github/DawnGBC/Libraries/FWLIB/src\gd32f4xx_rtc.c ****            flag_status = RTC_STAT & RTC_STAT_INITF;
 433              		.loc 1 170 26 discriminator 2
 434 002c 0D4B     		ldr	r3, .L20
 435 002e 1B68     		ldr	r3, [r3]
 436              		.loc 1 170 24 discriminator 2
 437 0030 03F04003 		and	r3, r3, #64
 438 0034 BB60     		str	r3, [r7, #8]
 171:C:/Users/leonardo/Desktop/Code/Github/DawnGBC/Libraries/FWLIB/src\gd32f4xx_rtc.c ****         }while((--time_index > 0U) && ((uint32_t)RESET == flag_status));
 439              		.loc 1 171 17 discriminator 2
 440 0036 7B68     		ldr	r3, [r7, #4]
 441 0038 013B     		subs	r3, r3, #1
 442              		.loc 1 171 9 discriminator 2
 443 003a 7B60     		str	r3, [r7, #4]
 444 003c 002B     		cmp	r3, #0
 445 003e 02D0     		beq	.L16
 446              		.loc 1 171 36 discriminator 1
 447 0040 BB68     		ldr	r3, [r7, #8]
 448 0042 002B     		cmp	r3, #0
 449 0044 F2D0     		beq	.L17
 450              	.L16:
 172:C:/Users/leonardo/Desktop/Code/Github/DawnGBC/Libraries/FWLIB/src\gd32f4xx_rtc.c **** 
 173:C:/Users/leonardo/Desktop/Code/Github/DawnGBC/Libraries/FWLIB/src\gd32f4xx_rtc.c ****         if ((uint32_t)RESET != flag_status){        
 451              		.loc 1 173 12
 452 0046 BB68     		ldr	r3, [r7, #8]
 453 0048 002B     		cmp	r3, #0
 454 004a 04D0     		beq	.L18
 174:C:/Users/leonardo/Desktop/Code/Github/DawnGBC/Libraries/FWLIB/src\gd32f4xx_rtc.c ****             error_status = SUCCESS;
 455              		.loc 1 174 26
 456 004c 0123     		movs	r3, #1
 457 004e FB73     		strb	r3, [r7, #15]
 458 0050 01E0     		b	.L18
 459              	.L15:
 175:C:/Users/leonardo/Desktop/Code/Github/DawnGBC/Libraries/FWLIB/src\gd32f4xx_rtc.c ****         }
 176:C:/Users/leonardo/Desktop/Code/Github/DawnGBC/Libraries/FWLIB/src\gd32f4xx_rtc.c ****     }else{
 177:C:/Users/leonardo/Desktop/Code/Github/DawnGBC/Libraries/FWLIB/src\gd32f4xx_rtc.c ****         error_status = SUCCESS;
 460              		.loc 1 177 22
 461 0052 0123     		movs	r3, #1
 462 0054 FB73     		strb	r3, [r7, #15]
 463              	.L18:
 178:C:/Users/leonardo/Desktop/Code/Github/DawnGBC/Libraries/FWLIB/src\gd32f4xx_rtc.c ****     }
 179:C:/Users/leonardo/Desktop/Code/Github/DawnGBC/Libraries/FWLIB/src\gd32f4xx_rtc.c ****     return error_status;
 464              		.loc 1 179 12
 465 0056 FB7B     		ldrb	r3, [r7, #15]	@ zero_extendqisi2
 180:C:/Users/leonardo/Desktop/Code/Github/DawnGBC/Libraries/FWLIB/src\gd32f4xx_rtc.c **** }
 466              		.loc 1 180 1
 467 0058 1846     		mov	r0, r3
 468 005a 1437     		adds	r7, r7, #20
 469              		.cfi_def_cfa_offset 4
 470 005c BD46     		mov	sp, r7
 471              		.cfi_def_cfa_register 13
 472              		@ sp needed
 473 005e 80BC     		pop	{r7}
 474              		.cfi_restore 7
 475              		.cfi_def_cfa_offset 0
 476 0060 7047     		bx	lr
 477              	.L21:
 478 0062 00BF     		.align	2
 479              	.L20:
 480 0064 0C280040 		.word	1073752076
 481              		.cfi_endproc
 482              	.LFE125:
 484              		.section	.text.rtc_init_mode_exit,"ax",%progbits
 485              		.align	1
 486              		.global	rtc_init_mode_exit
 487              		.syntax unified
 488              		.thumb
 489              		.thumb_func
 490              		.fpu softvfp
 492              	rtc_init_mode_exit:
 493              	.LFB126:
 181:C:/Users/leonardo/Desktop/Code/Github/DawnGBC/Libraries/FWLIB/src\gd32f4xx_rtc.c **** 
 182:C:/Users/leonardo/Desktop/Code/Github/DawnGBC/Libraries/FWLIB/src\gd32f4xx_rtc.c **** /*!
 183:C:/Users/leonardo/Desktop/Code/Github/DawnGBC/Libraries/FWLIB/src\gd32f4xx_rtc.c ****     \brief      exit RTC init mode
 184:C:/Users/leonardo/Desktop/Code/Github/DawnGBC/Libraries/FWLIB/src\gd32f4xx_rtc.c ****     \param[in]  none
 185:C:/Users/leonardo/Desktop/Code/Github/DawnGBC/Libraries/FWLIB/src\gd32f4xx_rtc.c ****     \param[out] none
 186:C:/Users/leonardo/Desktop/Code/Github/DawnGBC/Libraries/FWLIB/src\gd32f4xx_rtc.c ****     \retval     none
 187:C:/Users/leonardo/Desktop/Code/Github/DawnGBC/Libraries/FWLIB/src\gd32f4xx_rtc.c **** */
 188:C:/Users/leonardo/Desktop/Code/Github/DawnGBC/Libraries/FWLIB/src\gd32f4xx_rtc.c **** void rtc_init_mode_exit(void)
 189:C:/Users/leonardo/Desktop/Code/Github/DawnGBC/Libraries/FWLIB/src\gd32f4xx_rtc.c **** {
 494              		.loc 1 189 1
 495              		.cfi_startproc
 496              		@ args = 0, pretend = 0, frame = 0
 497              		@ frame_needed = 1, uses_anonymous_args = 0
 498              		@ link register save eliminated.
 499 0000 80B4     		push	{r7}
 500              		.cfi_def_cfa_offset 4
 501              		.cfi_offset 7, -4
 502 0002 00AF     		add	r7, sp, #0
 503              		.cfi_def_cfa_register 7
 190:C:/Users/leonardo/Desktop/Code/Github/DawnGBC/Libraries/FWLIB/src\gd32f4xx_rtc.c ****     RTC_STAT &= (uint32_t)(~RTC_STAT_INITM);
 504              		.loc 1 190 14
 505 0004 044B     		ldr	r3, .L23
 506 0006 1B68     		ldr	r3, [r3]
 507 0008 034A     		ldr	r2, .L23
 508 000a 23F08003 		bic	r3, r3, #128
 509 000e 1360     		str	r3, [r2]
 191:C:/Users/leonardo/Desktop/Code/Github/DawnGBC/Libraries/FWLIB/src\gd32f4xx_rtc.c **** }
 510              		.loc 1 191 1
 511 0010 00BF     		nop
 512 0012 BD46     		mov	sp, r7
 513              		.cfi_def_cfa_register 13
 514              		@ sp needed
 515 0014 80BC     		pop	{r7}
 516              		.cfi_restore 7
 517              		.cfi_def_cfa_offset 0
 518 0016 7047     		bx	lr
 519              	.L24:
 520              		.align	2
 521              	.L23:
 522 0018 0C280040 		.word	1073752076
 523              		.cfi_endproc
 524              	.LFE126:
 526              		.section	.text.rtc_register_sync_wait,"ax",%progbits
 527              		.align	1
 528              		.global	rtc_register_sync_wait
 529              		.syntax unified
 530              		.thumb
 531              		.thumb_func
 532              		.fpu softvfp
 534              	rtc_register_sync_wait:
 535              	.LFB127:
 192:C:/Users/leonardo/Desktop/Code/Github/DawnGBC/Libraries/FWLIB/src\gd32f4xx_rtc.c **** 
 193:C:/Users/leonardo/Desktop/Code/Github/DawnGBC/Libraries/FWLIB/src\gd32f4xx_rtc.c **** /*!
 194:C:/Users/leonardo/Desktop/Code/Github/DawnGBC/Libraries/FWLIB/src\gd32f4xx_rtc.c ****     \brief      wait until RTC_TIME and RTC_DATE registers are synchronized with APB clock, and the
 195:C:/Users/leonardo/Desktop/Code/Github/DawnGBC/Libraries/FWLIB/src\gd32f4xx_rtc.c ****                 registers are updated
 196:C:/Users/leonardo/Desktop/Code/Github/DawnGBC/Libraries/FWLIB/src\gd32f4xx_rtc.c ****     \param[in]  none
 197:C:/Users/leonardo/Desktop/Code/Github/DawnGBC/Libraries/FWLIB/src\gd32f4xx_rtc.c ****     \param[out] none
 198:C:/Users/leonardo/Desktop/Code/Github/DawnGBC/Libraries/FWLIB/src\gd32f4xx_rtc.c ****     \retval     ErrStatus: ERROR or SUCCESS
 199:C:/Users/leonardo/Desktop/Code/Github/DawnGBC/Libraries/FWLIB/src\gd32f4xx_rtc.c **** */
 200:C:/Users/leonardo/Desktop/Code/Github/DawnGBC/Libraries/FWLIB/src\gd32f4xx_rtc.c **** ErrStatus rtc_register_sync_wait(void)
 201:C:/Users/leonardo/Desktop/Code/Github/DawnGBC/Libraries/FWLIB/src\gd32f4xx_rtc.c **** {
 536              		.loc 1 201 1
 537              		.cfi_startproc
 538              		@ args = 0, pretend = 0, frame = 16
 539              		@ frame_needed = 1, uses_anonymous_args = 0
 540              		@ link register save eliminated.
 541 0000 80B4     		push	{r7}
 542              		.cfi_def_cfa_offset 4
 543              		.cfi_offset 7, -4
 544 0002 85B0     		sub	sp, sp, #20
 545              		.cfi_def_cfa_offset 24
 546 0004 00AF     		add	r7, sp, #0
 547              		.cfi_def_cfa_register 7
 202:C:/Users/leonardo/Desktop/Code/Github/DawnGBC/Libraries/FWLIB/src\gd32f4xx_rtc.c ****     volatile uint32_t time_index = RTC_RSYNF_TIMEOUT;
 548              		.loc 1 202 23
 549 0006 4FF40043 		mov	r3, #32768
 550 000a 7B60     		str	r3, [r7, #4]
 203:C:/Users/leonardo/Desktop/Code/Github/DawnGBC/Libraries/FWLIB/src\gd32f4xx_rtc.c ****     uint32_t flag_status = RESET;
 551              		.loc 1 203 14
 552 000c 0023     		movs	r3, #0
 553 000e BB60     		str	r3, [r7, #8]
 204:C:/Users/leonardo/Desktop/Code/Github/DawnGBC/Libraries/FWLIB/src\gd32f4xx_rtc.c ****     ErrStatus error_status = ERROR;
 554              		.loc 1 204 15
 555 0010 0023     		movs	r3, #0
 556 0012 FB73     		strb	r3, [r7, #15]
 205:C:/Users/leonardo/Desktop/Code/Github/DawnGBC/Libraries/FWLIB/src\gd32f4xx_rtc.c **** 
 206:C:/Users/leonardo/Desktop/Code/Github/DawnGBC/Libraries/FWLIB/src\gd32f4xx_rtc.c ****     if ((uint32_t)RESET == (RTC_CTL & RTC_CTL_BPSHAD)){
 557              		.loc 1 206 29
 558 0014 174B     		ldr	r3, .L32
 559 0016 1B68     		ldr	r3, [r3]
 560              		.loc 1 206 37
 561 0018 03F02003 		and	r3, r3, #32
 562              		.loc 1 206 8
 563 001c 002B     		cmp	r3, #0
 564 001e 21D1     		bne	.L26
 207:C:/Users/leonardo/Desktop/Code/Github/DawnGBC/Libraries/FWLIB/src\gd32f4xx_rtc.c ****         /* disable the write protection */
 208:C:/Users/leonardo/Desktop/Code/Github/DawnGBC/Libraries/FWLIB/src\gd32f4xx_rtc.c ****         RTC_WPK = RTC_UNLOCK_KEY1;
 565              		.loc 1 208 9
 566 0020 154B     		ldr	r3, .L32+4
 567              		.loc 1 208 17
 568 0022 CA22     		movs	r2, #202
 569 0024 1A60     		str	r2, [r3]
 209:C:/Users/leonardo/Desktop/Code/Github/DawnGBC/Libraries/FWLIB/src\gd32f4xx_rtc.c ****         RTC_WPK = RTC_UNLOCK_KEY2;
 570              		.loc 1 209 9
 571 0026 144B     		ldr	r3, .L32+4
 572              		.loc 1 209 17
 573 0028 5322     		movs	r2, #83
 574 002a 1A60     		str	r2, [r3]
 210:C:/Users/leonardo/Desktop/Code/Github/DawnGBC/Libraries/FWLIB/src\gd32f4xx_rtc.c **** 
 211:C:/Users/leonardo/Desktop/Code/Github/DawnGBC/Libraries/FWLIB/src\gd32f4xx_rtc.c ****         /* firstly clear RSYNF flag */
 212:C:/Users/leonardo/Desktop/Code/Github/DawnGBC/Libraries/FWLIB/src\gd32f4xx_rtc.c ****         RTC_STAT &= (uint32_t)(~RTC_STAT_RSYNF);
 575              		.loc 1 212 18
 576 002c 134B     		ldr	r3, .L32+8
 577 002e 1B68     		ldr	r3, [r3]
 578 0030 124A     		ldr	r2, .L32+8
 579 0032 23F02003 		bic	r3, r3, #32
 580 0036 1360     		str	r3, [r2]
 581              	.L28:
 213:C:/Users/leonardo/Desktop/Code/Github/DawnGBC/Libraries/FWLIB/src\gd32f4xx_rtc.c **** 
 214:C:/Users/leonardo/Desktop/Code/Github/DawnGBC/Libraries/FWLIB/src\gd32f4xx_rtc.c ****         /* wait until RSYNF flag to be set */
 215:C:/Users/leonardo/Desktop/Code/Github/DawnGBC/Libraries/FWLIB/src\gd32f4xx_rtc.c ****         do{
 216:C:/Users/leonardo/Desktop/Code/Github/DawnGBC/Libraries/FWLIB/src\gd32f4xx_rtc.c ****             flag_status = RTC_STAT & RTC_STAT_RSYNF;
 582              		.loc 1 216 27 discriminator 2
 583 0038 104B     		ldr	r3, .L32+8
 584 003a 1B68     		ldr	r3, [r3]
 585              		.loc 1 216 25 discriminator 2
 586 003c 03F02003 		and	r3, r3, #32
 587 0040 BB60     		str	r3, [r7, #8]
 217:C:/Users/leonardo/Desktop/Code/Github/DawnGBC/Libraries/FWLIB/src\gd32f4xx_rtc.c ****         }while((--time_index > 0U) && ((uint32_t)RESET == flag_status));
 588              		.loc 1 217 17 discriminator 2
 589 0042 7B68     		ldr	r3, [r7, #4]
 590 0044 013B     		subs	r3, r3, #1
 591              		.loc 1 217 9 discriminator 2
 592 0046 7B60     		str	r3, [r7, #4]
 593 0048 002B     		cmp	r3, #0
 594 004a 02D0     		beq	.L27
 595              		.loc 1 217 36 discriminator 1
 596 004c BB68     		ldr	r3, [r7, #8]
 597 004e 002B     		cmp	r3, #0
 598 0050 F2D0     		beq	.L28
 599              	.L27:
 218:C:/Users/leonardo/Desktop/Code/Github/DawnGBC/Libraries/FWLIB/src\gd32f4xx_rtc.c **** 
 219:C:/Users/leonardo/Desktop/Code/Github/DawnGBC/Libraries/FWLIB/src\gd32f4xx_rtc.c ****         if ((uint32_t)RESET != flag_status){  
 600              		.loc 1 219 12
 601 0052 BB68     		ldr	r3, [r7, #8]
 602 0054 002B     		cmp	r3, #0
 603 0056 01D0     		beq	.L29
 220:C:/Users/leonardo/Desktop/Code/Github/DawnGBC/Libraries/FWLIB/src\gd32f4xx_rtc.c ****             error_status = SUCCESS;
 604              		.loc 1 220 26
 605 0058 0123     		movs	r3, #1
 606 005a FB73     		strb	r3, [r7, #15]
 607              	.L29:
 221:C:/Users/leonardo/Desktop/Code/Github/DawnGBC/Libraries/FWLIB/src\gd32f4xx_rtc.c ****         }
 222:C:/Users/leonardo/Desktop/Code/Github/DawnGBC/Libraries/FWLIB/src\gd32f4xx_rtc.c ****         
 223:C:/Users/leonardo/Desktop/Code/Github/DawnGBC/Libraries/FWLIB/src\gd32f4xx_rtc.c ****         /* enable the write protection */
 224:C:/Users/leonardo/Desktop/Code/Github/DawnGBC/Libraries/FWLIB/src\gd32f4xx_rtc.c ****         RTC_WPK = RTC_LOCK_KEY;
 608              		.loc 1 224 9
 609 005c 064B     		ldr	r3, .L32+4
 610              		.loc 1 224 17
 611 005e FF22     		movs	r2, #255
 612 0060 1A60     		str	r2, [r3]
 613 0062 01E0     		b	.L30
 614              	.L26:
 225:C:/Users/leonardo/Desktop/Code/Github/DawnGBC/Libraries/FWLIB/src\gd32f4xx_rtc.c ****     }else{ 
 226:C:/Users/leonardo/Desktop/Code/Github/DawnGBC/Libraries/FWLIB/src\gd32f4xx_rtc.c ****         error_status = SUCCESS;
 615              		.loc 1 226 22
 616 0064 0123     		movs	r3, #1
 617 0066 FB73     		strb	r3, [r7, #15]
 618              	.L30:
 227:C:/Users/leonardo/Desktop/Code/Github/DawnGBC/Libraries/FWLIB/src\gd32f4xx_rtc.c ****     }
 228:C:/Users/leonardo/Desktop/Code/Github/DawnGBC/Libraries/FWLIB/src\gd32f4xx_rtc.c **** 
 229:C:/Users/leonardo/Desktop/Code/Github/DawnGBC/Libraries/FWLIB/src\gd32f4xx_rtc.c ****     return error_status;
 619              		.loc 1 229 12
 620 0068 FB7B     		ldrb	r3, [r7, #15]	@ zero_extendqisi2
 230:C:/Users/leonardo/Desktop/Code/Github/DawnGBC/Libraries/FWLIB/src\gd32f4xx_rtc.c **** }
 621              		.loc 1 230 1
 622 006a 1846     		mov	r0, r3
 623 006c 1437     		adds	r7, r7, #20
 624              		.cfi_def_cfa_offset 4
 625 006e BD46     		mov	sp, r7
 626              		.cfi_def_cfa_register 13
 627              		@ sp needed
 628 0070 80BC     		pop	{r7}
 629              		.cfi_restore 7
 630              		.cfi_def_cfa_offset 0
 631 0072 7047     		bx	lr
 632              	.L33:
 633              		.align	2
 634              	.L32:
 635 0074 08280040 		.word	1073752072
 636 0078 24280040 		.word	1073752100
 637 007c 0C280040 		.word	1073752076
 638              		.cfi_endproc
 639              	.LFE127:
 641              		.section	.text.rtc_current_time_get,"ax",%progbits
 642              		.align	1
 643              		.global	rtc_current_time_get
 644              		.syntax unified
 645              		.thumb
 646              		.thumb_func
 647              		.fpu softvfp
 649              	rtc_current_time_get:
 650              	.LFB128:
 231:C:/Users/leonardo/Desktop/Code/Github/DawnGBC/Libraries/FWLIB/src\gd32f4xx_rtc.c **** 
 232:C:/Users/leonardo/Desktop/Code/Github/DawnGBC/Libraries/FWLIB/src\gd32f4xx_rtc.c **** /*!
 233:C:/Users/leonardo/Desktop/Code/Github/DawnGBC/Libraries/FWLIB/src\gd32f4xx_rtc.c ****     \brief      get current time and date
 234:C:/Users/leonardo/Desktop/Code/Github/DawnGBC/Libraries/FWLIB/src\gd32f4xx_rtc.c ****     \param[in]  none
 235:C:/Users/leonardo/Desktop/Code/Github/DawnGBC/Libraries/FWLIB/src\gd32f4xx_rtc.c ****     \param[out] rtc_initpara_struct: pointer to a rtc_parameter_struct structure which contains 
 236:C:/Users/leonardo/Desktop/Code/Github/DawnGBC/Libraries/FWLIB/src\gd32f4xx_rtc.c ****                 parameters for initialization of the rtc peripheral
 237:C:/Users/leonardo/Desktop/Code/Github/DawnGBC/Libraries/FWLIB/src\gd32f4xx_rtc.c ****                 members of the structure and the member values are shown as below:
 238:C:/Users/leonardo/Desktop/Code/Github/DawnGBC/Libraries/FWLIB/src\gd32f4xx_rtc.c ****                   year: 0x0 - 0x99(BCD format)
 239:C:/Users/leonardo/Desktop/Code/Github/DawnGBC/Libraries/FWLIB/src\gd32f4xx_rtc.c ****                   month: RTC_JAN, RTC_FEB, RTC_MAR, RTC_APR, RTC_MAY, RTC_JUN,
 240:C:/Users/leonardo/Desktop/Code/Github/DawnGBC/Libraries/FWLIB/src\gd32f4xx_rtc.c ****                              RTC_JUL, RTC_AUG, RTC_SEP, RTC_OCT, RTC_NOV, RTC_DEC
 241:C:/Users/leonardo/Desktop/Code/Github/DawnGBC/Libraries/FWLIB/src\gd32f4xx_rtc.c ****                   date: 0x1 - 0x31(BCD format)
 242:C:/Users/leonardo/Desktop/Code/Github/DawnGBC/Libraries/FWLIB/src\gd32f4xx_rtc.c ****                   day_of_week: RTC_MONDAY, RTC_TUESDAY, RTC_WEDSDAY, RTC_THURSDAY
 243:C:/Users/leonardo/Desktop/Code/Github/DawnGBC/Libraries/FWLIB/src\gd32f4xx_rtc.c ****                                    RTC_FRIDAY, RTC_SATURDAY, RTC_SUNDAY
 244:C:/Users/leonardo/Desktop/Code/Github/DawnGBC/Libraries/FWLIB/src\gd32f4xx_rtc.c ****                   hour: 0x0 - 0x12(BCD format) or 0x0 - 0x23(BCD format) depending on the rtc_displ
 245:C:/Users/leonardo/Desktop/Code/Github/DawnGBC/Libraries/FWLIB/src\gd32f4xx_rtc.c ****                   minute: 0x0 - 0x59(BCD format)
 246:C:/Users/leonardo/Desktop/Code/Github/DawnGBC/Libraries/FWLIB/src\gd32f4xx_rtc.c ****                   second: 0x0 - 0x59(BCD format)
 247:C:/Users/leonardo/Desktop/Code/Github/DawnGBC/Libraries/FWLIB/src\gd32f4xx_rtc.c ****                   factor_asyn: 0x0 - 0x7F
 248:C:/Users/leonardo/Desktop/Code/Github/DawnGBC/Libraries/FWLIB/src\gd32f4xx_rtc.c ****                   factor_syn: 0x0 - 0x7FFF
 249:C:/Users/leonardo/Desktop/Code/Github/DawnGBC/Libraries/FWLIB/src\gd32f4xx_rtc.c ****                   am_pm: RTC_AM, RTC_PM
 250:C:/Users/leonardo/Desktop/Code/Github/DawnGBC/Libraries/FWLIB/src\gd32f4xx_rtc.c ****                   display_format: RTC_24HOUR, RTC_12HOUR
 251:C:/Users/leonardo/Desktop/Code/Github/DawnGBC/Libraries/FWLIB/src\gd32f4xx_rtc.c ****     \retval     none
 252:C:/Users/leonardo/Desktop/Code/Github/DawnGBC/Libraries/FWLIB/src\gd32f4xx_rtc.c **** */
 253:C:/Users/leonardo/Desktop/Code/Github/DawnGBC/Libraries/FWLIB/src\gd32f4xx_rtc.c **** void rtc_current_time_get(rtc_parameter_struct* rtc_initpara_struct)
 254:C:/Users/leonardo/Desktop/Code/Github/DawnGBC/Libraries/FWLIB/src\gd32f4xx_rtc.c **** {
 651              		.loc 1 254 1
 652              		.cfi_startproc
 653              		@ args = 0, pretend = 0, frame = 24
 654              		@ frame_needed = 1, uses_anonymous_args = 0
 655              		@ link register save eliminated.
 656 0000 80B4     		push	{r7}
 657              		.cfi_def_cfa_offset 4
 658              		.cfi_offset 7, -4
 659 0002 87B0     		sub	sp, sp, #28
 660              		.cfi_def_cfa_offset 32
 661 0004 00AF     		add	r7, sp, #0
 662              		.cfi_def_cfa_register 7
 663 0006 7860     		str	r0, [r7, #4]
 255:C:/Users/leonardo/Desktop/Code/Github/DawnGBC/Libraries/FWLIB/src\gd32f4xx_rtc.c ****     uint32_t temp_tr = 0U, temp_dr = 0U, temp_pscr = 0U, temp_ctlr = 0U;
 664              		.loc 1 255 14
 665 0008 0023     		movs	r3, #0
 666 000a 7B61     		str	r3, [r7, #20]
 667              		.loc 1 255 28
 668 000c 0023     		movs	r3, #0
 669 000e 3B61     		str	r3, [r7, #16]
 670              		.loc 1 255 42
 671 0010 0023     		movs	r3, #0
 672 0012 FB60     		str	r3, [r7, #12]
 673              		.loc 1 255 58
 674 0014 0023     		movs	r3, #0
 675 0016 BB60     		str	r3, [r7, #8]
 256:C:/Users/leonardo/Desktop/Code/Github/DawnGBC/Libraries/FWLIB/src\gd32f4xx_rtc.c **** 
 257:C:/Users/leonardo/Desktop/Code/Github/DawnGBC/Libraries/FWLIB/src\gd32f4xx_rtc.c ****     temp_tr = (uint32_t)RTC_TIME;   
 676              		.loc 1 257 15
 677 0018 2E4B     		ldr	r3, .L35
 678              		.loc 1 257 13
 679 001a 1B68     		ldr	r3, [r3]
 680 001c 7B61     		str	r3, [r7, #20]
 258:C:/Users/leonardo/Desktop/Code/Github/DawnGBC/Libraries/FWLIB/src\gd32f4xx_rtc.c ****     temp_dr = (uint32_t)RTC_DATE;
 681              		.loc 1 258 15
 682 001e 2E4B     		ldr	r3, .L35+4
 683              		.loc 1 258 13
 684 0020 1B68     		ldr	r3, [r3]
 685 0022 3B61     		str	r3, [r7, #16]
 259:C:/Users/leonardo/Desktop/Code/Github/DawnGBC/Libraries/FWLIB/src\gd32f4xx_rtc.c ****     temp_pscr = (uint32_t)RTC_PSC;
 686              		.loc 1 259 17
 687 0024 2D4B     		ldr	r3, .L35+8
 688              		.loc 1 259 15
 689 0026 1B68     		ldr	r3, [r3]
 690 0028 FB60     		str	r3, [r7, #12]
 260:C:/Users/leonardo/Desktop/Code/Github/DawnGBC/Libraries/FWLIB/src\gd32f4xx_rtc.c ****     temp_ctlr = (uint32_t)RTC_CTL;
 691              		.loc 1 260 17
 692 002a 2D4B     		ldr	r3, .L35+12
 693              		.loc 1 260 15
 694 002c 1B68     		ldr	r3, [r3]
 695 002e BB60     		str	r3, [r7, #8]
 261:C:/Users/leonardo/Desktop/Code/Github/DawnGBC/Libraries/FWLIB/src\gd32f4xx_rtc.c ****   
 262:C:/Users/leonardo/Desktop/Code/Github/DawnGBC/Libraries/FWLIB/src\gd32f4xx_rtc.c ****     /* get current time and construct rtc_parameter_struct structure */
 263:C:/Users/leonardo/Desktop/Code/Github/DawnGBC/Libraries/FWLIB/src\gd32f4xx_rtc.c ****     rtc_initpara_struct->year = (uint8_t)GET_DATE_YR(temp_dr);
 696              		.loc 1 263 42
 697 0030 3B69     		ldr	r3, [r7, #16]
 698 0032 1B0C     		lsrs	r3, r3, #16
 699              		.loc 1 263 33
 700 0034 DAB2     		uxtb	r2, r3
 701              		.loc 1 263 31
 702 0036 7B68     		ldr	r3, [r7, #4]
 703 0038 1A70     		strb	r2, [r3]
 264:C:/Users/leonardo/Desktop/Code/Github/DawnGBC/Libraries/FWLIB/src\gd32f4xx_rtc.c ****     rtc_initpara_struct->month = (uint8_t)GET_DATE_MON(temp_dr);
 704              		.loc 1 264 43
 705 003a 3B69     		ldr	r3, [r7, #16]
 706 003c 1B0A     		lsrs	r3, r3, #8
 707              		.loc 1 264 34
 708 003e DBB2     		uxtb	r3, r3
 709 0040 03F01F03 		and	r3, r3, #31
 710 0044 DAB2     		uxtb	r2, r3
 711              		.loc 1 264 32
 712 0046 7B68     		ldr	r3, [r7, #4]
 713 0048 5A70     		strb	r2, [r3, #1]
 265:C:/Users/leonardo/Desktop/Code/Github/DawnGBC/Libraries/FWLIB/src\gd32f4xx_rtc.c ****     rtc_initpara_struct->date = (uint8_t)GET_DATE_DAY(temp_dr);
 714              		.loc 1 265 33
 715 004a 3B69     		ldr	r3, [r7, #16]
 716 004c DBB2     		uxtb	r3, r3
 717 004e 03F03F03 		and	r3, r3, #63
 718 0052 DAB2     		uxtb	r2, r3
 719              		.loc 1 265 31
 720 0054 7B68     		ldr	r3, [r7, #4]
 721 0056 9A70     		strb	r2, [r3, #2]
 266:C:/Users/leonardo/Desktop/Code/Github/DawnGBC/Libraries/FWLIB/src\gd32f4xx_rtc.c ****     rtc_initpara_struct->day_of_week = (uint8_t)GET_DATE_DOW(temp_dr);  
 722              		.loc 1 266 49
 723 0058 3B69     		ldr	r3, [r7, #16]
 724 005a 5B0B     		lsrs	r3, r3, #13
 725              		.loc 1 266 40
 726 005c DBB2     		uxtb	r3, r3
 727 005e 03F00703 		and	r3, r3, #7
 728 0062 DAB2     		uxtb	r2, r3
 729              		.loc 1 266 38
 730 0064 7B68     		ldr	r3, [r7, #4]
 731 0066 DA70     		strb	r2, [r3, #3]
 267:C:/Users/leonardo/Desktop/Code/Github/DawnGBC/Libraries/FWLIB/src\gd32f4xx_rtc.c ****     rtc_initpara_struct->hour = (uint8_t)GET_TIME_HR(temp_tr);
 732              		.loc 1 267 42
 733 0068 7B69     		ldr	r3, [r7, #20]
 734 006a 1B0C     		lsrs	r3, r3, #16
 735              		.loc 1 267 33
 736 006c DBB2     		uxtb	r3, r3
 737 006e 03F03F03 		and	r3, r3, #63
 738 0072 DAB2     		uxtb	r2, r3
 739              		.loc 1 267 31
 740 0074 7B68     		ldr	r3, [r7, #4]
 741 0076 1A71     		strb	r2, [r3, #4]
 268:C:/Users/leonardo/Desktop/Code/Github/DawnGBC/Libraries/FWLIB/src\gd32f4xx_rtc.c ****     rtc_initpara_struct->minute = (uint8_t)GET_TIME_MN(temp_tr);
 742              		.loc 1 268 44
 743 0078 7B69     		ldr	r3, [r7, #20]
 744 007a 1B0A     		lsrs	r3, r3, #8
 745              		.loc 1 268 35
 746 007c DBB2     		uxtb	r3, r3
 747 007e 03F07F03 		and	r3, r3, #127
 748 0082 DAB2     		uxtb	r2, r3
 749              		.loc 1 268 33
 750 0084 7B68     		ldr	r3, [r7, #4]
 751 0086 5A71     		strb	r2, [r3, #5]
 269:C:/Users/leonardo/Desktop/Code/Github/DawnGBC/Libraries/FWLIB/src\gd32f4xx_rtc.c ****     rtc_initpara_struct->second = (uint8_t)GET_TIME_SC(temp_tr);
 752              		.loc 1 269 35
 753 0088 7B69     		ldr	r3, [r7, #20]
 754 008a DBB2     		uxtb	r3, r3
 755 008c 03F07F03 		and	r3, r3, #127
 756 0090 DAB2     		uxtb	r2, r3
 757              		.loc 1 269 33
 758 0092 7B68     		ldr	r3, [r7, #4]
 759 0094 9A71     		strb	r2, [r3, #6]
 270:C:/Users/leonardo/Desktop/Code/Github/DawnGBC/Libraries/FWLIB/src\gd32f4xx_rtc.c ****     rtc_initpara_struct->factor_asyn = (uint16_t)GET_PSC_FACTOR_A(temp_pscr);
 760              		.loc 1 270 50
 761 0096 FB68     		ldr	r3, [r7, #12]
 762 0098 1B0C     		lsrs	r3, r3, #16
 763              		.loc 1 270 40
 764 009a 9BB2     		uxth	r3, r3
 765 009c 03F07F03 		and	r3, r3, #127
 766 00a0 9AB2     		uxth	r2, r3
 767              		.loc 1 270 38
 768 00a2 7B68     		ldr	r3, [r7, #4]
 769 00a4 1A81     		strh	r2, [r3, #8]	@ movhi
 271:C:/Users/leonardo/Desktop/Code/Github/DawnGBC/Libraries/FWLIB/src\gd32f4xx_rtc.c ****     rtc_initpara_struct->factor_syn = (uint16_t)GET_PSC_FACTOR_S(temp_pscr);
 770              		.loc 1 271 39
 771 00a6 FB68     		ldr	r3, [r7, #12]
 772 00a8 9BB2     		uxth	r3, r3
 773 00aa C3F30E03 		ubfx	r3, r3, #0, #15
 774 00ae 9AB2     		uxth	r2, r3
 775              		.loc 1 271 37
 776 00b0 7B68     		ldr	r3, [r7, #4]
 777 00b2 5A81     		strh	r2, [r3, #10]	@ movhi
 272:C:/Users/leonardo/Desktop/Code/Github/DawnGBC/Libraries/FWLIB/src\gd32f4xx_rtc.c ****     rtc_initpara_struct->am_pm = (uint32_t)(temp_pscr & RTC_TIME_PM); 
 778              		.loc 1 272 34
 779 00b4 FB68     		ldr	r3, [r7, #12]
 780 00b6 03F48002 		and	r2, r3, #4194304
 781              		.loc 1 272 32
 782 00ba 7B68     		ldr	r3, [r7, #4]
 783 00bc DA60     		str	r2, [r3, #12]
 273:C:/Users/leonardo/Desktop/Code/Github/DawnGBC/Libraries/FWLIB/src\gd32f4xx_rtc.c ****     rtc_initpara_struct->display_format = (uint32_t)(temp_ctlr & RTC_CTL_CS);
 784              		.loc 1 273 43
 785 00be BB68     		ldr	r3, [r7, #8]
 786 00c0 03F04002 		and	r2, r3, #64
 787              		.loc 1 273 41
 788 00c4 7B68     		ldr	r3, [r7, #4]
 789 00c6 1A61     		str	r2, [r3, #16]
 274:C:/Users/leonardo/Desktop/Code/Github/DawnGBC/Libraries/FWLIB/src\gd32f4xx_rtc.c **** }
 790              		.loc 1 274 1
 791 00c8 00BF     		nop
 792 00ca 1C37     		adds	r7, r7, #28
 793              		.cfi_def_cfa_offset 4
 794 00cc BD46     		mov	sp, r7
 795              		.cfi_def_cfa_register 13
 796              		@ sp needed
 797 00ce 80BC     		pop	{r7}
 798              		.cfi_restore 7
 799              		.cfi_def_cfa_offset 0
 800 00d0 7047     		bx	lr
 801              	.L36:
 802 00d2 00BF     		.align	2
 803              	.L35:
 804 00d4 00280040 		.word	1073752064
 805 00d8 04280040 		.word	1073752068
 806 00dc 10280040 		.word	1073752080
 807 00e0 08280040 		.word	1073752072
 808              		.cfi_endproc
 809              	.LFE128:
 811              		.section	.text.rtc_subsecond_get,"ax",%progbits
 812              		.align	1
 813              		.global	rtc_subsecond_get
 814              		.syntax unified
 815              		.thumb
 816              		.thumb_func
 817              		.fpu softvfp
 819              	rtc_subsecond_get:
 820              	.LFB129:
 275:C:/Users/leonardo/Desktop/Code/Github/DawnGBC/Libraries/FWLIB/src\gd32f4xx_rtc.c **** 
 276:C:/Users/leonardo/Desktop/Code/Github/DawnGBC/Libraries/FWLIB/src\gd32f4xx_rtc.c **** /*!
 277:C:/Users/leonardo/Desktop/Code/Github/DawnGBC/Libraries/FWLIB/src\gd32f4xx_rtc.c ****     \brief      get current subsecond value
 278:C:/Users/leonardo/Desktop/Code/Github/DawnGBC/Libraries/FWLIB/src\gd32f4xx_rtc.c ****     \param[in]  none
 279:C:/Users/leonardo/Desktop/Code/Github/DawnGBC/Libraries/FWLIB/src\gd32f4xx_rtc.c ****     \param[out] none
 280:C:/Users/leonardo/Desktop/Code/Github/DawnGBC/Libraries/FWLIB/src\gd32f4xx_rtc.c ****     \retval     current subsecond value
 281:C:/Users/leonardo/Desktop/Code/Github/DawnGBC/Libraries/FWLIB/src\gd32f4xx_rtc.c **** */
 282:C:/Users/leonardo/Desktop/Code/Github/DawnGBC/Libraries/FWLIB/src\gd32f4xx_rtc.c **** uint32_t rtc_subsecond_get(void)
 283:C:/Users/leonardo/Desktop/Code/Github/DawnGBC/Libraries/FWLIB/src\gd32f4xx_rtc.c **** {
 821              		.loc 1 283 1
 822              		.cfi_startproc
 823              		@ args = 0, pretend = 0, frame = 8
 824              		@ frame_needed = 1, uses_anonymous_args = 0
 825              		@ link register save eliminated.
 826 0000 80B4     		push	{r7}
 827              		.cfi_def_cfa_offset 4
 828              		.cfi_offset 7, -4
 829 0002 83B0     		sub	sp, sp, #12
 830              		.cfi_def_cfa_offset 16
 831 0004 00AF     		add	r7, sp, #0
 832              		.cfi_def_cfa_register 7
 284:C:/Users/leonardo/Desktop/Code/Github/DawnGBC/Libraries/FWLIB/src\gd32f4xx_rtc.c ****     uint32_t reg = 0U;
 833              		.loc 1 284 14
 834 0006 0023     		movs	r3, #0
 835 0008 7B60     		str	r3, [r7, #4]
 285:C:/Users/leonardo/Desktop/Code/Github/DawnGBC/Libraries/FWLIB/src\gd32f4xx_rtc.c ****     /* if BPSHAD bit is reset, reading RTC_SS will lock RTC_TIME and RTC_DATE automatically */
 286:C:/Users/leonardo/Desktop/Code/Github/DawnGBC/Libraries/FWLIB/src\gd32f4xx_rtc.c ****     reg = (uint32_t)RTC_SS;
 836              		.loc 1 286 11
 837 000a 054B     		ldr	r3, .L39
 838              		.loc 1 286 9
 839 000c 1B68     		ldr	r3, [r3]
 840 000e 7B60     		str	r3, [r7, #4]
 287:C:/Users/leonardo/Desktop/Code/Github/DawnGBC/Libraries/FWLIB/src\gd32f4xx_rtc.c ****     /* read RTC_DATE to unlock the 3 shadow registers */
 288:C:/Users/leonardo/Desktop/Code/Github/DawnGBC/Libraries/FWLIB/src\gd32f4xx_rtc.c ****     (void) (RTC_DATE);
 841              		.loc 1 288 5
 842 0010 044B     		ldr	r3, .L39+4
 843 0012 1B68     		ldr	r3, [r3]
 289:C:/Users/leonardo/Desktop/Code/Github/DawnGBC/Libraries/FWLIB/src\gd32f4xx_rtc.c **** 
 290:C:/Users/leonardo/Desktop/Code/Github/DawnGBC/Libraries/FWLIB/src\gd32f4xx_rtc.c ****     return reg;
 844              		.loc 1 290 12
 845 0014 7B68     		ldr	r3, [r7, #4]
 291:C:/Users/leonardo/Desktop/Code/Github/DawnGBC/Libraries/FWLIB/src\gd32f4xx_rtc.c **** }
 846              		.loc 1 291 1
 847 0016 1846     		mov	r0, r3
 848 0018 0C37     		adds	r7, r7, #12
 849              		.cfi_def_cfa_offset 4
 850 001a BD46     		mov	sp, r7
 851              		.cfi_def_cfa_register 13
 852              		@ sp needed
 853 001c 80BC     		pop	{r7}
 854              		.cfi_restore 7
 855              		.cfi_def_cfa_offset 0
 856 001e 7047     		bx	lr
 857              	.L40:
 858              		.align	2
 859              	.L39:
 860 0020 28280040 		.word	1073752104
 861 0024 04280040 		.word	1073752068
 862              		.cfi_endproc
 863              	.LFE129:
 865              		.section	.text.rtc_alarm_config,"ax",%progbits
 866              		.align	1
 867              		.global	rtc_alarm_config
 868              		.syntax unified
 869              		.thumb
 870              		.thumb_func
 871              		.fpu softvfp
 873              	rtc_alarm_config:
 874              	.LFB130:
 292:C:/Users/leonardo/Desktop/Code/Github/DawnGBC/Libraries/FWLIB/src\gd32f4xx_rtc.c **** 
 293:C:/Users/leonardo/Desktop/Code/Github/DawnGBC/Libraries/FWLIB/src\gd32f4xx_rtc.c **** /*!
 294:C:/Users/leonardo/Desktop/Code/Github/DawnGBC/Libraries/FWLIB/src\gd32f4xx_rtc.c ****     \brief      configure RTC alarm
 295:C:/Users/leonardo/Desktop/Code/Github/DawnGBC/Libraries/FWLIB/src\gd32f4xx_rtc.c ****     \param[in]  rtc_alarm: RTC_ALARM0 or RTC_ALARM1
 296:C:/Users/leonardo/Desktop/Code/Github/DawnGBC/Libraries/FWLIB/src\gd32f4xx_rtc.c ****     \param[in]  rtc_alarm_time: pointer to a rtc_alarm_struct structure which contains 
 297:C:/Users/leonardo/Desktop/Code/Github/DawnGBC/Libraries/FWLIB/src\gd32f4xx_rtc.c ****                 parameters for RTC alarm configuration
 298:C:/Users/leonardo/Desktop/Code/Github/DawnGBC/Libraries/FWLIB/src\gd32f4xx_rtc.c ****                 members of the structure and the member values are shown as below:
 299:C:/Users/leonardo/Desktop/Code/Github/DawnGBC/Libraries/FWLIB/src\gd32f4xx_rtc.c ****                   alarm_mask: RTC_ALARM_NONE_MASK, RTC_ALARM_DATE_MASK, RTC_ALARM_HOUR_MASK
 300:C:/Users/leonardo/Desktop/Code/Github/DawnGBC/Libraries/FWLIB/src\gd32f4xx_rtc.c ****                                   RTC_ALARM_MINUTE_MASK, RTC_ALARM_SECOND_MASK, RTC_ALARM_ALL_MASK
 301:C:/Users/leonardo/Desktop/Code/Github/DawnGBC/Libraries/FWLIB/src\gd32f4xx_rtc.c ****                   weekday_or_date: RTC_ALARM_DATE_SELECTED, RTC_ALARM_WEEKDAY_SELECTED
 302:C:/Users/leonardo/Desktop/Code/Github/DawnGBC/Libraries/FWLIB/src\gd32f4xx_rtc.c ****                   alarm_day: 1) 0x1 - 0x31(BCD format) if RTC_ALARM_DATE_SELECTED is set
 303:C:/Users/leonardo/Desktop/Code/Github/DawnGBC/Libraries/FWLIB/src\gd32f4xx_rtc.c ****                                  2) RTC_MONDAY, RTC_TUESDAY, RTC_WEDSDAY, RTC_THURSDAY, RTC_FRIDAY,
 304:C:/Users/leonardo/Desktop/Code/Github/DawnGBC/Libraries/FWLIB/src\gd32f4xx_rtc.c ****                                     RTC_SATURDAY, RTC_SUNDAY if RTC_ALARM_WEEKDAY_SELECTED is set
 305:C:/Users/leonardo/Desktop/Code/Github/DawnGBC/Libraries/FWLIB/src\gd32f4xx_rtc.c ****                   alarm_hour: 0x0 - 0x12(BCD format) or 0x0 - 0x23(BCD format) depending on the rtc
 306:C:/Users/leonardo/Desktop/Code/Github/DawnGBC/Libraries/FWLIB/src\gd32f4xx_rtc.c ****                   alarm_minute: 0x0 - 0x59(BCD format)
 307:C:/Users/leonardo/Desktop/Code/Github/DawnGBC/Libraries/FWLIB/src\gd32f4xx_rtc.c ****                   alarm_second: 0x0 - 0x59(BCD format)
 308:C:/Users/leonardo/Desktop/Code/Github/DawnGBC/Libraries/FWLIB/src\gd32f4xx_rtc.c ****                   am_pm: RTC_AM, RTC_PM
 309:C:/Users/leonardo/Desktop/Code/Github/DawnGBC/Libraries/FWLIB/src\gd32f4xx_rtc.c ****     \param[out] none
 310:C:/Users/leonardo/Desktop/Code/Github/DawnGBC/Libraries/FWLIB/src\gd32f4xx_rtc.c ****     \retval     none
 311:C:/Users/leonardo/Desktop/Code/Github/DawnGBC/Libraries/FWLIB/src\gd32f4xx_rtc.c **** */
 312:C:/Users/leonardo/Desktop/Code/Github/DawnGBC/Libraries/FWLIB/src\gd32f4xx_rtc.c **** void rtc_alarm_config(uint8_t rtc_alarm, rtc_alarm_struct* rtc_alarm_time)
 313:C:/Users/leonardo/Desktop/Code/Github/DawnGBC/Libraries/FWLIB/src\gd32f4xx_rtc.c **** {
 875              		.loc 1 313 1
 876              		.cfi_startproc
 877              		@ args = 0, pretend = 0, frame = 16
 878              		@ frame_needed = 1, uses_anonymous_args = 0
 879              		@ link register save eliminated.
 880 0000 80B4     		push	{r7}
 881              		.cfi_def_cfa_offset 4
 882              		.cfi_offset 7, -4
 883 0002 85B0     		sub	sp, sp, #20
 884              		.cfi_def_cfa_offset 24
 885 0004 00AF     		add	r7, sp, #0
 886              		.cfi_def_cfa_register 7
 887 0006 0346     		mov	r3, r0
 888 0008 3960     		str	r1, [r7]
 889 000a FB71     		strb	r3, [r7, #7]
 314:C:/Users/leonardo/Desktop/Code/Github/DawnGBC/Libraries/FWLIB/src\gd32f4xx_rtc.c ****     uint32_t reg_alrmtd = 0U;
 890              		.loc 1 314 14
 891 000c 0023     		movs	r3, #0
 892 000e FB60     		str	r3, [r7, #12]
 315:C:/Users/leonardo/Desktop/Code/Github/DawnGBC/Libraries/FWLIB/src\gd32f4xx_rtc.c **** 
 316:C:/Users/leonardo/Desktop/Code/Github/DawnGBC/Libraries/FWLIB/src\gd32f4xx_rtc.c ****     reg_alrmtd =(rtc_alarm_time->alarm_mask | \
 893              		.loc 1 316 32
 894 0010 3B68     		ldr	r3, [r7]
 895 0012 1A68     		ldr	r2, [r3]
 317:C:/Users/leonardo/Desktop/Code/Github/DawnGBC/Libraries/FWLIB/src\gd32f4xx_rtc.c ****                  rtc_alarm_time->weekday_or_date | \
 896              		.loc 1 317 32
 897 0014 3B68     		ldr	r3, [r7]
 898 0016 5B68     		ldr	r3, [r3, #4]
 316:C:/Users/leonardo/Desktop/Code/Github/DawnGBC/Libraries/FWLIB/src\gd32f4xx_rtc.c ****                  rtc_alarm_time->weekday_or_date | \
 899              		.loc 1 316 45
 900 0018 1A43     		orrs	r2, r2, r3
 318:C:/Users/leonardo/Desktop/Code/Github/DawnGBC/Libraries/FWLIB/src\gd32f4xx_rtc.c ****                  rtc_alarm_time->am_pm | \
 901              		.loc 1 318 32
 902 001a 3B68     		ldr	r3, [r7]
 903 001c DB68     		ldr	r3, [r3, #12]
 317:C:/Users/leonardo/Desktop/Code/Github/DawnGBC/Libraries/FWLIB/src\gd32f4xx_rtc.c ****                  rtc_alarm_time->weekday_or_date | \
 904              		.loc 1 317 50
 905 001e 1A43     		orrs	r2, r2, r3
 319:C:/Users/leonardo/Desktop/Code/Github/DawnGBC/Libraries/FWLIB/src\gd32f4xx_rtc.c ****                  ALRMTD_DAY(rtc_alarm_time->alarm_day) | \
 906              		.loc 1 319 18
 907 0020 3B68     		ldr	r3, [r7]
 908 0022 1B7A     		ldrb	r3, [r3, #8]	@ zero_extendqisi2
 909 0024 1B06     		lsls	r3, r3, #24
 910 0026 03F07C53 		and	r3, r3, #1056964608
 318:C:/Users/leonardo/Desktop/Code/Github/DawnGBC/Libraries/FWLIB/src\gd32f4xx_rtc.c ****                  rtc_alarm_time->am_pm | \
 911              		.loc 1 318 40
 912 002a 1A43     		orrs	r2, r2, r3
 320:C:/Users/leonardo/Desktop/Code/Github/DawnGBC/Libraries/FWLIB/src\gd32f4xx_rtc.c ****                  ALRMTD_HR(rtc_alarm_time->alarm_hour) | \
 913              		.loc 1 320 18
 914 002c 3B68     		ldr	r3, [r7]
 915 002e 5B7A     		ldrb	r3, [r3, #9]	@ zero_extendqisi2
 916 0030 1B04     		lsls	r3, r3, #16
 917 0032 03F47C13 		and	r3, r3, #4128768
 319:C:/Users/leonardo/Desktop/Code/Github/DawnGBC/Libraries/FWLIB/src\gd32f4xx_rtc.c ****                  ALRMTD_DAY(rtc_alarm_time->alarm_day) | \
 918              		.loc 1 319 56
 919 0036 1A43     		orrs	r2, r2, r3
 321:C:/Users/leonardo/Desktop/Code/Github/DawnGBC/Libraries/FWLIB/src\gd32f4xx_rtc.c ****                  ALRMTD_MN(rtc_alarm_time->alarm_minute) | \
 920              		.loc 1 321 18
 921 0038 3B68     		ldr	r3, [r7]
 922 003a 9B7A     		ldrb	r3, [r3, #10]	@ zero_extendqisi2
 923 003c 1B02     		lsls	r3, r3, #8
 924 003e 03F4FE43 		and	r3, r3, #32512
 320:C:/Users/leonardo/Desktop/Code/Github/DawnGBC/Libraries/FWLIB/src\gd32f4xx_rtc.c ****                  ALRMTD_HR(rtc_alarm_time->alarm_hour) | \
 925              		.loc 1 320 56
 926 0042 1A43     		orrs	r2, r2, r3
 322:C:/Users/leonardo/Desktop/Code/Github/DawnGBC/Libraries/FWLIB/src\gd32f4xx_rtc.c ****                  ALRMTD_SC(rtc_alarm_time->alarm_second));
 927              		.loc 1 322 18
 928 0044 3B68     		ldr	r3, [r7]
 929 0046 DB7A     		ldrb	r3, [r3, #11]	@ zero_extendqisi2
 930 0048 03F07F03 		and	r3, r3, #127
 316:C:/Users/leonardo/Desktop/Code/Github/DawnGBC/Libraries/FWLIB/src\gd32f4xx_rtc.c ****                  rtc_alarm_time->weekday_or_date | \
 931              		.loc 1 316 16
 932 004c 1343     		orrs	r3, r3, r2
 933 004e FB60     		str	r3, [r7, #12]
 323:C:/Users/leonardo/Desktop/Code/Github/DawnGBC/Libraries/FWLIB/src\gd32f4xx_rtc.c **** 
 324:C:/Users/leonardo/Desktop/Code/Github/DawnGBC/Libraries/FWLIB/src\gd32f4xx_rtc.c ****     /* disable the write protection */
 325:C:/Users/leonardo/Desktop/Code/Github/DawnGBC/Libraries/FWLIB/src\gd32f4xx_rtc.c ****     RTC_WPK = RTC_UNLOCK_KEY1;
 934              		.loc 1 325 5
 935 0050 0B4B     		ldr	r3, .L44
 936              		.loc 1 325 13
 937 0052 CA22     		movs	r2, #202
 938 0054 1A60     		str	r2, [r3]
 326:C:/Users/leonardo/Desktop/Code/Github/DawnGBC/Libraries/FWLIB/src\gd32f4xx_rtc.c ****     RTC_WPK = RTC_UNLOCK_KEY2;
 939              		.loc 1 326 5
 940 0056 0A4B     		ldr	r3, .L44
 941              		.loc 1 326 13
 942 0058 5322     		movs	r2, #83
 943 005a 1A60     		str	r2, [r3]
 327:C:/Users/leonardo/Desktop/Code/Github/DawnGBC/Libraries/FWLIB/src\gd32f4xx_rtc.c **** 
 328:C:/Users/leonardo/Desktop/Code/Github/DawnGBC/Libraries/FWLIB/src\gd32f4xx_rtc.c ****     if(RTC_ALARM0 == rtc_alarm){
 944              		.loc 1 328 7
 945 005c FB79     		ldrb	r3, [r7, #7]	@ zero_extendqisi2
 946 005e 012B     		cmp	r3, #1
 947 0060 03D1     		bne	.L42
 329:C:/Users/leonardo/Desktop/Code/Github/DawnGBC/Libraries/FWLIB/src\gd32f4xx_rtc.c ****         RTC_ALRM0TD = (uint32_t)reg_alrmtd;
 948              		.loc 1 329 9
 949 0062 084A     		ldr	r2, .L44+4
 950              		.loc 1 329 21
 951 0064 FB68     		ldr	r3, [r7, #12]
 952 0066 1360     		str	r3, [r2]
 953 0068 02E0     		b	.L43
 954              	.L42:
 330:C:/Users/leonardo/Desktop/Code/Github/DawnGBC/Libraries/FWLIB/src\gd32f4xx_rtc.c ****     
 331:C:/Users/leonardo/Desktop/Code/Github/DawnGBC/Libraries/FWLIB/src\gd32f4xx_rtc.c ****     }else{
 332:C:/Users/leonardo/Desktop/Code/Github/DawnGBC/Libraries/FWLIB/src\gd32f4xx_rtc.c ****         RTC_ALRM1TD = (uint32_t)reg_alrmtd;
 955              		.loc 1 332 9
 956 006a 074A     		ldr	r2, .L44+8
 957              		.loc 1 332 21
 958 006c FB68     		ldr	r3, [r7, #12]
 959 006e 1360     		str	r3, [r2]
 960              	.L43:
 333:C:/Users/leonardo/Desktop/Code/Github/DawnGBC/Libraries/FWLIB/src\gd32f4xx_rtc.c ****     }
 334:C:/Users/leonardo/Desktop/Code/Github/DawnGBC/Libraries/FWLIB/src\gd32f4xx_rtc.c ****     /* enable the write protection */
 335:C:/Users/leonardo/Desktop/Code/Github/DawnGBC/Libraries/FWLIB/src\gd32f4xx_rtc.c ****     RTC_WPK = RTC_LOCK_KEY;
 961              		.loc 1 335 5
 962 0070 034B     		ldr	r3, .L44
 963              		.loc 1 335 13
 964 0072 FF22     		movs	r2, #255
 965 0074 1A60     		str	r2, [r3]
 336:C:/Users/leonardo/Desktop/Code/Github/DawnGBC/Libraries/FWLIB/src\gd32f4xx_rtc.c **** }
 966              		.loc 1 336 1
 967 0076 00BF     		nop
 968 0078 1437     		adds	r7, r7, #20
 969              		.cfi_def_cfa_offset 4
 970 007a BD46     		mov	sp, r7
 971              		.cfi_def_cfa_register 13
 972              		@ sp needed
 973 007c 80BC     		pop	{r7}
 974              		.cfi_restore 7
 975              		.cfi_def_cfa_offset 0
 976 007e 7047     		bx	lr
 977              	.L45:
 978              		.align	2
 979              	.L44:
 980 0080 24280040 		.word	1073752100
 981 0084 1C280040 		.word	1073752092
 982 0088 20280040 		.word	1073752096
 983              		.cfi_endproc
 984              	.LFE130:
 986              		.section	.text.rtc_alarm_subsecond_config,"ax",%progbits
 987              		.align	1
 988              		.global	rtc_alarm_subsecond_config
 989              		.syntax unified
 990              		.thumb
 991              		.thumb_func
 992              		.fpu softvfp
 994              	rtc_alarm_subsecond_config:
 995              	.LFB131:
 337:C:/Users/leonardo/Desktop/Code/Github/DawnGBC/Libraries/FWLIB/src\gd32f4xx_rtc.c **** 
 338:C:/Users/leonardo/Desktop/Code/Github/DawnGBC/Libraries/FWLIB/src\gd32f4xx_rtc.c **** /*!
 339:C:/Users/leonardo/Desktop/Code/Github/DawnGBC/Libraries/FWLIB/src\gd32f4xx_rtc.c ****     \brief      configure subsecond of RTC alarm
 340:C:/Users/leonardo/Desktop/Code/Github/DawnGBC/Libraries/FWLIB/src\gd32f4xx_rtc.c ****     \param[in]  rtc_alarm: RTC_ALARM0 or RTC_ALARM1
 341:C:/Users/leonardo/Desktop/Code/Github/DawnGBC/Libraries/FWLIB/src\gd32f4xx_rtc.c ****     \param[in]  mask_subsecond: alarm subsecond mask
 342:C:/Users/leonardo/Desktop/Code/Github/DawnGBC/Libraries/FWLIB/src\gd32f4xx_rtc.c ****       \arg        RTC_MASKSSC_0_14: mask alarm subsecond configuration
 343:C:/Users/leonardo/Desktop/Code/Github/DawnGBC/Libraries/FWLIB/src\gd32f4xx_rtc.c ****       \arg        RTC_MASKSSC_1_14: mask RTC_ALRMXSS_SSC[14:1], and RTC_ALRMXSS_SSC[0] is to be com
 344:C:/Users/leonardo/Desktop/Code/Github/DawnGBC/Libraries/FWLIB/src\gd32f4xx_rtc.c ****       \arg        RTC_MASKSSC_2_14: mask RTC_ALRMXSS_SSC[14:2], and RTC_ALRMXSS_SSC[1:0] is to be c
 345:C:/Users/leonardo/Desktop/Code/Github/DawnGBC/Libraries/FWLIB/src\gd32f4xx_rtc.c ****       \arg        RTC_MASKSSC_3_14: mask RTC_ALRMXSS_SSC[14:3], and RTC_ALRMXSS_SSC[2:0] is to be c
 346:C:/Users/leonardo/Desktop/Code/Github/DawnGBC/Libraries/FWLIB/src\gd32f4xx_rtc.c ****       \arg        RTC_MASKSSC_4_14: mask RTC_ALRMXSS_SSC[14:4]], and RTC_ALRMXSS_SSC[3:0] is to be 
 347:C:/Users/leonardo/Desktop/Code/Github/DawnGBC/Libraries/FWLIB/src\gd32f4xx_rtc.c ****       \arg        RTC_MASKSSC_5_14: mask RTC_ALRMXSS_SSC[14:5], and RTC_ALRMXSS_SSC[4:0] is to be c
 348:C:/Users/leonardo/Desktop/Code/Github/DawnGBC/Libraries/FWLIB/src\gd32f4xx_rtc.c ****       \arg        RTC_MASKSSC_6_14: mask RTC_ALRMXSS_SSC[14:6], and RTC_ALRMXSS_SSC[5:0] is to be c
 349:C:/Users/leonardo/Desktop/Code/Github/DawnGBC/Libraries/FWLIB/src\gd32f4xx_rtc.c ****       \arg        RTC_MASKSSC_7_14: mask RTC_ALRMXSS_SSC[14:7], and RTC_ALRMXSS_SSC[6:0] is to be c
 350:C:/Users/leonardo/Desktop/Code/Github/DawnGBC/Libraries/FWLIB/src\gd32f4xx_rtc.c ****       \arg        RTC_MASKSSC_8_14: mask RTC_ALRMXSS_SSC[14:8], and RTC_ALRMXSS_SSC[7:0] is to be c
 351:C:/Users/leonardo/Desktop/Code/Github/DawnGBC/Libraries/FWLIB/src\gd32f4xx_rtc.c ****       \arg        RTC_MASKSSC_9_14: mask RTC_ALRMXSS_SSC[14:9], and RTC_ALRMXSS_SSC[8:0] is to be c
 352:C:/Users/leonardo/Desktop/Code/Github/DawnGBC/Libraries/FWLIB/src\gd32f4xx_rtc.c ****       \arg        RTC_MASKSSC_10_14: mask RTC_ALRMXSS_SSC[14:10], and RTC_ALRMXSS_SSC[9:0] is to be
 353:C:/Users/leonardo/Desktop/Code/Github/DawnGBC/Libraries/FWLIB/src\gd32f4xx_rtc.c ****       \arg        RTC_MASKSSC_11_14: mask RTC_ALRMXSS_SSC[14:11], and RTC_ALRMXSS_SSC[10:0] is to b
 354:C:/Users/leonardo/Desktop/Code/Github/DawnGBC/Libraries/FWLIB/src\gd32f4xx_rtc.c ****       \arg        RTC_MASKSSC_12_14: mask RTC_ALRMXSS_SSC[14:12], and RTC_ALRMXSS_SSC[11:0] is to b
 355:C:/Users/leonardo/Desktop/Code/Github/DawnGBC/Libraries/FWLIB/src\gd32f4xx_rtc.c ****       \arg        RTC_MASKSSC_13_14: mask RTC_ALRMXSS_SSC[14:13], and RTC_ALRMXSS_SSC[12:0] is to b
 356:C:/Users/leonardo/Desktop/Code/Github/DawnGBC/Libraries/FWLIB/src\gd32f4xx_rtc.c ****       \arg        RTC_MASKSSC_14: mask RTC_ALRMXSS_SSC[14], and RTC_ALRMXSS_SSC[13:0] is to be comp
 357:C:/Users/leonardo/Desktop/Code/Github/DawnGBC/Libraries/FWLIB/src\gd32f4xx_rtc.c ****       \arg        RTC_MASKSSC_NONE: mask none, and RTC_ALRMXSS_SSC[14:0] is to be compared
 358:C:/Users/leonardo/Desktop/Code/Github/DawnGBC/Libraries/FWLIB/src\gd32f4xx_rtc.c ****     \param[in]  subsecond: alarm subsecond value(0x000 - 0x7FFF)
 359:C:/Users/leonardo/Desktop/Code/Github/DawnGBC/Libraries/FWLIB/src\gd32f4xx_rtc.c ****     \param[out] none
 360:C:/Users/leonardo/Desktop/Code/Github/DawnGBC/Libraries/FWLIB/src\gd32f4xx_rtc.c ****     \retval     none
 361:C:/Users/leonardo/Desktop/Code/Github/DawnGBC/Libraries/FWLIB/src\gd32f4xx_rtc.c **** */
 362:C:/Users/leonardo/Desktop/Code/Github/DawnGBC/Libraries/FWLIB/src\gd32f4xx_rtc.c **** void rtc_alarm_subsecond_config(uint8_t rtc_alarm, uint32_t mask_subsecond, uint32_t subsecond)
 363:C:/Users/leonardo/Desktop/Code/Github/DawnGBC/Libraries/FWLIB/src\gd32f4xx_rtc.c **** {
 996              		.loc 1 363 1
 997              		.cfi_startproc
 998              		@ args = 0, pretend = 0, frame = 16
 999              		@ frame_needed = 1, uses_anonymous_args = 0
 1000              		@ link register save eliminated.
 1001 0000 80B4     		push	{r7}
 1002              		.cfi_def_cfa_offset 4
 1003              		.cfi_offset 7, -4
 1004 0002 85B0     		sub	sp, sp, #20
 1005              		.cfi_def_cfa_offset 24
 1006 0004 00AF     		add	r7, sp, #0
 1007              		.cfi_def_cfa_register 7
 1008 0006 0346     		mov	r3, r0
 1009 0008 B960     		str	r1, [r7, #8]
 1010 000a 7A60     		str	r2, [r7, #4]
 1011 000c FB73     		strb	r3, [r7, #15]
 364:C:/Users/leonardo/Desktop/Code/Github/DawnGBC/Libraries/FWLIB/src\gd32f4xx_rtc.c ****     /* disable the write protection */
 365:C:/Users/leonardo/Desktop/Code/Github/DawnGBC/Libraries/FWLIB/src\gd32f4xx_rtc.c ****     RTC_WPK = RTC_UNLOCK_KEY1;
 1012              		.loc 1 365 5
 1013 000e 0E4B     		ldr	r3, .L49
 1014              		.loc 1 365 13
 1015 0010 CA22     		movs	r2, #202
 1016 0012 1A60     		str	r2, [r3]
 366:C:/Users/leonardo/Desktop/Code/Github/DawnGBC/Libraries/FWLIB/src\gd32f4xx_rtc.c ****     RTC_WPK = RTC_UNLOCK_KEY2;  
 1017              		.loc 1 366 5
 1018 0014 0C4B     		ldr	r3, .L49
 1019              		.loc 1 366 13
 1020 0016 5322     		movs	r2, #83
 1021 0018 1A60     		str	r2, [r3]
 367:C:/Users/leonardo/Desktop/Code/Github/DawnGBC/Libraries/FWLIB/src\gd32f4xx_rtc.c **** 
 368:C:/Users/leonardo/Desktop/Code/Github/DawnGBC/Libraries/FWLIB/src\gd32f4xx_rtc.c ****     if(RTC_ALARM0 == rtc_alarm){
 1022              		.loc 1 368 7
 1023 001a FB7B     		ldrb	r3, [r7, #15]	@ zero_extendqisi2
 1024 001c 012B     		cmp	r3, #1
 1025 001e 05D1     		bne	.L47
 369:C:/Users/leonardo/Desktop/Code/Github/DawnGBC/Libraries/FWLIB/src\gd32f4xx_rtc.c ****         RTC_ALRM0SS = mask_subsecond | subsecond;  
 1026              		.loc 1 369 9
 1027 0020 0A49     		ldr	r1, .L49+4
 1028              		.loc 1 369 38
 1029 0022 BA68     		ldr	r2, [r7, #8]
 1030 0024 7B68     		ldr	r3, [r7, #4]
 1031 0026 1343     		orrs	r3, r3, r2
 1032              		.loc 1 369 21
 1033 0028 0B60     		str	r3, [r1]
 1034 002a 04E0     		b	.L48
 1035              	.L47:
 370:C:/Users/leonardo/Desktop/Code/Github/DawnGBC/Libraries/FWLIB/src\gd32f4xx_rtc.c ****     }else{
 371:C:/Users/leonardo/Desktop/Code/Github/DawnGBC/Libraries/FWLIB/src\gd32f4xx_rtc.c ****         RTC_ALRM1SS = mask_subsecond | subsecond; 
 1036              		.loc 1 371 9
 1037 002c 0849     		ldr	r1, .L49+8
 1038              		.loc 1 371 38
 1039 002e BA68     		ldr	r2, [r7, #8]
 1040 0030 7B68     		ldr	r3, [r7, #4]
 1041 0032 1343     		orrs	r3, r3, r2
 1042              		.loc 1 371 21
 1043 0034 0B60     		str	r3, [r1]
 1044              	.L48:
 372:C:/Users/leonardo/Desktop/Code/Github/DawnGBC/Libraries/FWLIB/src\gd32f4xx_rtc.c ****     }
 373:C:/Users/leonardo/Desktop/Code/Github/DawnGBC/Libraries/FWLIB/src\gd32f4xx_rtc.c ****     /* enable the write protection */
 374:C:/Users/leonardo/Desktop/Code/Github/DawnGBC/Libraries/FWLIB/src\gd32f4xx_rtc.c ****     RTC_WPK = RTC_LOCK_KEY;
 1045              		.loc 1 374 5
 1046 0036 044B     		ldr	r3, .L49
 1047              		.loc 1 374 13
 1048 0038 FF22     		movs	r2, #255
 1049 003a 1A60     		str	r2, [r3]
 375:C:/Users/leonardo/Desktop/Code/Github/DawnGBC/Libraries/FWLIB/src\gd32f4xx_rtc.c **** }
 1050              		.loc 1 375 1
 1051 003c 00BF     		nop
 1052 003e 1437     		adds	r7, r7, #20
 1053              		.cfi_def_cfa_offset 4
 1054 0040 BD46     		mov	sp, r7
 1055              		.cfi_def_cfa_register 13
 1056              		@ sp needed
 1057 0042 80BC     		pop	{r7}
 1058              		.cfi_restore 7
 1059              		.cfi_def_cfa_offset 0
 1060 0044 7047     		bx	lr
 1061              	.L50:
 1062 0046 00BF     		.align	2
 1063              	.L49:
 1064 0048 24280040 		.word	1073752100
 1065 004c 44280040 		.word	1073752132
 1066 0050 48280040 		.word	1073752136
 1067              		.cfi_endproc
 1068              	.LFE131:
 1070              		.section	.text.rtc_alarm_get,"ax",%progbits
 1071              		.align	1
 1072              		.global	rtc_alarm_get
 1073              		.syntax unified
 1074              		.thumb
 1075              		.thumb_func
 1076              		.fpu softvfp
 1078              	rtc_alarm_get:
 1079              	.LFB132:
 376:C:/Users/leonardo/Desktop/Code/Github/DawnGBC/Libraries/FWLIB/src\gd32f4xx_rtc.c **** 
 377:C:/Users/leonardo/Desktop/Code/Github/DawnGBC/Libraries/FWLIB/src\gd32f4xx_rtc.c **** /*!
 378:C:/Users/leonardo/Desktop/Code/Github/DawnGBC/Libraries/FWLIB/src\gd32f4xx_rtc.c ****     \brief      get RTC alarm
 379:C:/Users/leonardo/Desktop/Code/Github/DawnGBC/Libraries/FWLIB/src\gd32f4xx_rtc.c ****     \param[in]  rtc_alarm: RTC_ALARM0 or RTC_ALARM1
 380:C:/Users/leonardo/Desktop/Code/Github/DawnGBC/Libraries/FWLIB/src\gd32f4xx_rtc.c ****     \param[out] rtc_alarm_time: pointer to a rtc_alarm_struct structure which contains 
 381:C:/Users/leonardo/Desktop/Code/Github/DawnGBC/Libraries/FWLIB/src\gd32f4xx_rtc.c ****                 parameters for RTC alarm configuration
 382:C:/Users/leonardo/Desktop/Code/Github/DawnGBC/Libraries/FWLIB/src\gd32f4xx_rtc.c ****                 members of the structure and the member values are shown as below:
 383:C:/Users/leonardo/Desktop/Code/Github/DawnGBC/Libraries/FWLIB/src\gd32f4xx_rtc.c ****                   alarm_mask: RTC_ALARM_NONE_MASK, RTC_ALARM_DATE_MASK, RTC_ALARM_HOUR_MASK
 384:C:/Users/leonardo/Desktop/Code/Github/DawnGBC/Libraries/FWLIB/src\gd32f4xx_rtc.c ****                                   RTC_ALARM_MINUTE_MASK, RTC_ALARM_SECOND_MASK, RTC_ALARM_ALL_MASK
 385:C:/Users/leonardo/Desktop/Code/Github/DawnGBC/Libraries/FWLIB/src\gd32f4xx_rtc.c ****                   weekday_or_date: RTC_ALARM_DATE_SELECTED, RTC_ALARM_WEEKDAY_SELECTED
 386:C:/Users/leonardo/Desktop/Code/Github/DawnGBC/Libraries/FWLIB/src\gd32f4xx_rtc.c ****                   alarm_day: 1) 0x1 - 0x31(BCD format) if RTC_ALARM_DATE_SELECTED is set
 387:C:/Users/leonardo/Desktop/Code/Github/DawnGBC/Libraries/FWLIB/src\gd32f4xx_rtc.c ****                                  2) RTC_MONDAY, RTC_TUESDAY, RTC_WEDSDAY, RTC_THURSDAY, RTC_FRIDAY,
 388:C:/Users/leonardo/Desktop/Code/Github/DawnGBC/Libraries/FWLIB/src\gd32f4xx_rtc.c ****                                     RTC_SATURDAY, RTC_SUNDAY if RTC_ALARM_WEEKDAY_SELECTED is set
 389:C:/Users/leonardo/Desktop/Code/Github/DawnGBC/Libraries/FWLIB/src\gd32f4xx_rtc.c ****                   alarm_hour: 0x0 - 0x12(BCD format) or 0x0 - 0x23(BCD format) depending on the rtc
 390:C:/Users/leonardo/Desktop/Code/Github/DawnGBC/Libraries/FWLIB/src\gd32f4xx_rtc.c ****                   alarm_minute: 0x0 - 0x59(BCD format)
 391:C:/Users/leonardo/Desktop/Code/Github/DawnGBC/Libraries/FWLIB/src\gd32f4xx_rtc.c ****                   alarm_second: 0x0 - 0x59(BCD format)
 392:C:/Users/leonardo/Desktop/Code/Github/DawnGBC/Libraries/FWLIB/src\gd32f4xx_rtc.c ****                   am_pm: RTC_AM, RTC_PM
 393:C:/Users/leonardo/Desktop/Code/Github/DawnGBC/Libraries/FWLIB/src\gd32f4xx_rtc.c ****     \retval     none
 394:C:/Users/leonardo/Desktop/Code/Github/DawnGBC/Libraries/FWLIB/src\gd32f4xx_rtc.c **** */
 395:C:/Users/leonardo/Desktop/Code/Github/DawnGBC/Libraries/FWLIB/src\gd32f4xx_rtc.c **** void rtc_alarm_get(uint8_t rtc_alarm, rtc_alarm_struct* rtc_alarm_time)
 396:C:/Users/leonardo/Desktop/Code/Github/DawnGBC/Libraries/FWLIB/src\gd32f4xx_rtc.c **** {
 1080              		.loc 1 396 1
 1081              		.cfi_startproc
 1082              		@ args = 0, pretend = 0, frame = 16
 1083              		@ frame_needed = 1, uses_anonymous_args = 0
 1084              		@ link register save eliminated.
 1085 0000 80B4     		push	{r7}
 1086              		.cfi_def_cfa_offset 4
 1087              		.cfi_offset 7, -4
 1088 0002 85B0     		sub	sp, sp, #20
 1089              		.cfi_def_cfa_offset 24
 1090 0004 00AF     		add	r7, sp, #0
 1091              		.cfi_def_cfa_register 7
 1092 0006 0346     		mov	r3, r0
 1093 0008 3960     		str	r1, [r7]
 1094 000a FB71     		strb	r3, [r7, #7]
 397:C:/Users/leonardo/Desktop/Code/Github/DawnGBC/Libraries/FWLIB/src\gd32f4xx_rtc.c ****     uint32_t reg_alrmtd = 0U;
 1095              		.loc 1 397 14
 1096 000c 0023     		movs	r3, #0
 1097 000e FB60     		str	r3, [r7, #12]
 398:C:/Users/leonardo/Desktop/Code/Github/DawnGBC/Libraries/FWLIB/src\gd32f4xx_rtc.c **** 
 399:C:/Users/leonardo/Desktop/Code/Github/DawnGBC/Libraries/FWLIB/src\gd32f4xx_rtc.c ****     /* get the value of RTC_ALRM0TD register */
 400:C:/Users/leonardo/Desktop/Code/Github/DawnGBC/Libraries/FWLIB/src\gd32f4xx_rtc.c ****     if(RTC_ALARM0 == rtc_alarm){
 1098              		.loc 1 400 7
 1099 0010 FB79     		ldrb	r3, [r7, #7]	@ zero_extendqisi2
 1100 0012 012B     		cmp	r3, #1
 1101 0014 03D1     		bne	.L52
 401:C:/Users/leonardo/Desktop/Code/Github/DawnGBC/Libraries/FWLIB/src\gd32f4xx_rtc.c ****         reg_alrmtd = RTC_ALRM0TD;
 1102              		.loc 1 401 22
 1103 0016 1D4B     		ldr	r3, .L54
 1104              		.loc 1 401 20
 1105 0018 1B68     		ldr	r3, [r3]
 1106 001a FB60     		str	r3, [r7, #12]
 1107 001c 02E0     		b	.L53
 1108              	.L52:
 402:C:/Users/leonardo/Desktop/Code/Github/DawnGBC/Libraries/FWLIB/src\gd32f4xx_rtc.c ****     }else{
 403:C:/Users/leonardo/Desktop/Code/Github/DawnGBC/Libraries/FWLIB/src\gd32f4xx_rtc.c ****         reg_alrmtd = RTC_ALRM1TD;
 1109              		.loc 1 403 22
 1110 001e 1C4B     		ldr	r3, .L54+4
 1111              		.loc 1 403 20
 1112 0020 1B68     		ldr	r3, [r3]
 1113 0022 FB60     		str	r3, [r7, #12]
 1114              	.L53:
 404:C:/Users/leonardo/Desktop/Code/Github/DawnGBC/Libraries/FWLIB/src\gd32f4xx_rtc.c ****     }
 405:C:/Users/leonardo/Desktop/Code/Github/DawnGBC/Libraries/FWLIB/src\gd32f4xx_rtc.c ****     /* get alarm parameters and construct the rtc_alarm_struct structure */
 406:C:/Users/leonardo/Desktop/Code/Github/DawnGBC/Libraries/FWLIB/src\gd32f4xx_rtc.c ****     rtc_alarm_time->alarm_mask = reg_alrmtd & RTC_ALARM_ALL_MASK; 
 1115              		.loc 1 406 45
 1116 0024 FB68     		ldr	r3, [r7, #12]
 1117 0026 03F08032 		and	r2, r3, #-2139062144
 1118              		.loc 1 406 32
 1119 002a 3B68     		ldr	r3, [r7]
 1120 002c 1A60     		str	r2, [r3]
 407:C:/Users/leonardo/Desktop/Code/Github/DawnGBC/Libraries/FWLIB/src\gd32f4xx_rtc.c ****     rtc_alarm_time->am_pm = (uint32_t)(reg_alrmtd & RTC_ALRMXTD_PM);
 1121              		.loc 1 407 29
 1122 002e FB68     		ldr	r3, [r7, #12]
 1123 0030 03F48002 		and	r2, r3, #4194304
 1124              		.loc 1 407 27
 1125 0034 3B68     		ldr	r3, [r7]
 1126 0036 DA60     		str	r2, [r3, #12]
 408:C:/Users/leonardo/Desktop/Code/Github/DawnGBC/Libraries/FWLIB/src\gd32f4xx_rtc.c ****     rtc_alarm_time->weekday_or_date = (uint32_t)(reg_alrmtd & RTC_ALRMXTD_DOWS);
 1127              		.loc 1 408 39
 1128 0038 FB68     		ldr	r3, [r7, #12]
 1129 003a 03F08042 		and	r2, r3, #1073741824
 1130              		.loc 1 408 37
 1131 003e 3B68     		ldr	r3, [r7]
 1132 0040 5A60     		str	r2, [r3, #4]
 409:C:/Users/leonardo/Desktop/Code/Github/DawnGBC/Libraries/FWLIB/src\gd32f4xx_rtc.c ****     rtc_alarm_time->alarm_day = (uint8_t)GET_ALRMTD_DAY(reg_alrmtd);
 1133              		.loc 1 409 42
 1134 0042 FB68     		ldr	r3, [r7, #12]
 1135 0044 1B0E     		lsrs	r3, r3, #24
 1136              		.loc 1 409 33
 1137 0046 DBB2     		uxtb	r3, r3
 1138 0048 03F03F03 		and	r3, r3, #63
 1139 004c DAB2     		uxtb	r2, r3
 1140              		.loc 1 409 31
 1141 004e 3B68     		ldr	r3, [r7]
 1142 0050 1A72     		strb	r2, [r3, #8]
 410:C:/Users/leonardo/Desktop/Code/Github/DawnGBC/Libraries/FWLIB/src\gd32f4xx_rtc.c ****     rtc_alarm_time->alarm_hour = (uint8_t)GET_ALRMTD_HR(reg_alrmtd);
 1143              		.loc 1 410 43
 1144 0052 FB68     		ldr	r3, [r7, #12]
 1145 0054 1B0C     		lsrs	r3, r3, #16
 1146              		.loc 1 410 34
 1147 0056 DBB2     		uxtb	r3, r3
 1148 0058 03F03F03 		and	r3, r3, #63
 1149 005c DAB2     		uxtb	r2, r3
 1150              		.loc 1 410 32
 1151 005e 3B68     		ldr	r3, [r7]
 1152 0060 5A72     		strb	r2, [r3, #9]
 411:C:/Users/leonardo/Desktop/Code/Github/DawnGBC/Libraries/FWLIB/src\gd32f4xx_rtc.c ****     rtc_alarm_time->alarm_minute = (uint8_t)GET_ALRMTD_MN(reg_alrmtd);
 1153              		.loc 1 411 45
 1154 0062 FB68     		ldr	r3, [r7, #12]
 1155 0064 1B0A     		lsrs	r3, r3, #8
 1156              		.loc 1 411 36
 1157 0066 DBB2     		uxtb	r3, r3
 1158 0068 03F07F03 		and	r3, r3, #127
 1159 006c DAB2     		uxtb	r2, r3
 1160              		.loc 1 411 34
 1161 006e 3B68     		ldr	r3, [r7]
 1162 0070 9A72     		strb	r2, [r3, #10]
 412:C:/Users/leonardo/Desktop/Code/Github/DawnGBC/Libraries/FWLIB/src\gd32f4xx_rtc.c ****     rtc_alarm_time->alarm_second = (uint8_t)GET_ALRMTD_SC(reg_alrmtd);  
 1163              		.loc 1 412 36
 1164 0072 FB68     		ldr	r3, [r7, #12]
 1165 0074 DBB2     		uxtb	r3, r3
 1166 0076 03F07F03 		and	r3, r3, #127
 1167 007a DAB2     		uxtb	r2, r3
 1168              		.loc 1 412 34
 1169 007c 3B68     		ldr	r3, [r7]
 1170 007e DA72     		strb	r2, [r3, #11]
 413:C:/Users/leonardo/Desktop/Code/Github/DawnGBC/Libraries/FWLIB/src\gd32f4xx_rtc.c **** }
 1171              		.loc 1 413 1
 1172 0080 00BF     		nop
 1173 0082 1437     		adds	r7, r7, #20
 1174              		.cfi_def_cfa_offset 4
 1175 0084 BD46     		mov	sp, r7
 1176              		.cfi_def_cfa_register 13
 1177              		@ sp needed
 1178 0086 80BC     		pop	{r7}
 1179              		.cfi_restore 7
 1180              		.cfi_def_cfa_offset 0
 1181 0088 7047     		bx	lr
 1182              	.L55:
 1183 008a 00BF     		.align	2
 1184              	.L54:
 1185 008c 1C280040 		.word	1073752092
 1186 0090 20280040 		.word	1073752096
 1187              		.cfi_endproc
 1188              	.LFE132:
 1190              		.section	.text.rtc_alarm_subsecond_get,"ax",%progbits
 1191              		.align	1
 1192              		.global	rtc_alarm_subsecond_get
 1193              		.syntax unified
 1194              		.thumb
 1195              		.thumb_func
 1196              		.fpu softvfp
 1198              	rtc_alarm_subsecond_get:
 1199              	.LFB133:
 414:C:/Users/leonardo/Desktop/Code/Github/DawnGBC/Libraries/FWLIB/src\gd32f4xx_rtc.c **** 
 415:C:/Users/leonardo/Desktop/Code/Github/DawnGBC/Libraries/FWLIB/src\gd32f4xx_rtc.c **** /*!
 416:C:/Users/leonardo/Desktop/Code/Github/DawnGBC/Libraries/FWLIB/src\gd32f4xx_rtc.c ****     \brief      get RTC alarm subsecond
 417:C:/Users/leonardo/Desktop/Code/Github/DawnGBC/Libraries/FWLIB/src\gd32f4xx_rtc.c ****     \param[in]  rtc_alarm: RTC_ALARM0 or RTC_ALARM1
 418:C:/Users/leonardo/Desktop/Code/Github/DawnGBC/Libraries/FWLIB/src\gd32f4xx_rtc.c ****     \param[out] none
 419:C:/Users/leonardo/Desktop/Code/Github/DawnGBC/Libraries/FWLIB/src\gd32f4xx_rtc.c ****     \retval     RTC alarm subsecond value
 420:C:/Users/leonardo/Desktop/Code/Github/DawnGBC/Libraries/FWLIB/src\gd32f4xx_rtc.c **** */
 421:C:/Users/leonardo/Desktop/Code/Github/DawnGBC/Libraries/FWLIB/src\gd32f4xx_rtc.c **** uint32_t rtc_alarm_subsecond_get(uint8_t rtc_alarm)
 422:C:/Users/leonardo/Desktop/Code/Github/DawnGBC/Libraries/FWLIB/src\gd32f4xx_rtc.c **** {
 1200              		.loc 1 422 1
 1201              		.cfi_startproc
 1202              		@ args = 0, pretend = 0, frame = 8
 1203              		@ frame_needed = 1, uses_anonymous_args = 0
 1204              		@ link register save eliminated.
 1205 0000 80B4     		push	{r7}
 1206              		.cfi_def_cfa_offset 4
 1207              		.cfi_offset 7, -4
 1208 0002 83B0     		sub	sp, sp, #12
 1209              		.cfi_def_cfa_offset 16
 1210 0004 00AF     		add	r7, sp, #0
 1211              		.cfi_def_cfa_register 7
 1212 0006 0346     		mov	r3, r0
 1213 0008 FB71     		strb	r3, [r7, #7]
 423:C:/Users/leonardo/Desktop/Code/Github/DawnGBC/Libraries/FWLIB/src\gd32f4xx_rtc.c ****     if(RTC_ALARM0 == rtc_alarm){
 1214              		.loc 1 423 7
 1215 000a FB79     		ldrb	r3, [r7, #7]	@ zero_extendqisi2
 1216 000c 012B     		cmp	r3, #1
 1217 000e 04D1     		bne	.L57
 424:C:/Users/leonardo/Desktop/Code/Github/DawnGBC/Libraries/FWLIB/src\gd32f4xx_rtc.c ****         return ((uint32_t)(RTC_ALRM0SS & RTC_ALRM0SS_SSC));
 1218              		.loc 1 424 17
 1219 0010 064B     		ldr	r3, .L59
 1220 0012 1B68     		ldr	r3, [r3]
 1221 0014 C3F30E03 		ubfx	r3, r3, #0, #15
 1222 0018 03E0     		b	.L58
 1223              	.L57:
 425:C:/Users/leonardo/Desktop/Code/Github/DawnGBC/Libraries/FWLIB/src\gd32f4xx_rtc.c ****     }else{
 426:C:/Users/leonardo/Desktop/Code/Github/DawnGBC/Libraries/FWLIB/src\gd32f4xx_rtc.c ****         return ((uint32_t)(RTC_ALRM1SS & RTC_ALRM1SS_SSC));
 1224              		.loc 1 426 17
 1225 001a 054B     		ldr	r3, .L59+4
 1226 001c 1B68     		ldr	r3, [r3]
 1227 001e C3F30E03 		ubfx	r3, r3, #0, #15
 1228              	.L58:
 427:C:/Users/leonardo/Desktop/Code/Github/DawnGBC/Libraries/FWLIB/src\gd32f4xx_rtc.c ****     }
 428:C:/Users/leonardo/Desktop/Code/Github/DawnGBC/Libraries/FWLIB/src\gd32f4xx_rtc.c **** }
 1229              		.loc 1 428 1
 1230 0022 1846     		mov	r0, r3
 1231 0024 0C37     		adds	r7, r7, #12
 1232              		.cfi_def_cfa_offset 4
 1233 0026 BD46     		mov	sp, r7
 1234              		.cfi_def_cfa_register 13
 1235              		@ sp needed
 1236 0028 80BC     		pop	{r7}
 1237              		.cfi_restore 7
 1238              		.cfi_def_cfa_offset 0
 1239 002a 7047     		bx	lr
 1240              	.L60:
 1241              		.align	2
 1242              	.L59:
 1243 002c 44280040 		.word	1073752132
 1244 0030 48280040 		.word	1073752136
 1245              		.cfi_endproc
 1246              	.LFE133:
 1248              		.section	.text.rtc_alarm_enable,"ax",%progbits
 1249              		.align	1
 1250              		.global	rtc_alarm_enable
 1251              		.syntax unified
 1252              		.thumb
 1253              		.thumb_func
 1254              		.fpu softvfp
 1256              	rtc_alarm_enable:
 1257              	.LFB134:
 429:C:/Users/leonardo/Desktop/Code/Github/DawnGBC/Libraries/FWLIB/src\gd32f4xx_rtc.c **** 
 430:C:/Users/leonardo/Desktop/Code/Github/DawnGBC/Libraries/FWLIB/src\gd32f4xx_rtc.c **** /*!
 431:C:/Users/leonardo/Desktop/Code/Github/DawnGBC/Libraries/FWLIB/src\gd32f4xx_rtc.c ****     \brief      enable RTC alarm
 432:C:/Users/leonardo/Desktop/Code/Github/DawnGBC/Libraries/FWLIB/src\gd32f4xx_rtc.c ****     \param[in]  rtc_alarm: RTC_ALARM0 or RTC_ALARM1
 433:C:/Users/leonardo/Desktop/Code/Github/DawnGBC/Libraries/FWLIB/src\gd32f4xx_rtc.c ****     \param[out] none
 434:C:/Users/leonardo/Desktop/Code/Github/DawnGBC/Libraries/FWLIB/src\gd32f4xx_rtc.c ****     \retval     none
 435:C:/Users/leonardo/Desktop/Code/Github/DawnGBC/Libraries/FWLIB/src\gd32f4xx_rtc.c **** */
 436:C:/Users/leonardo/Desktop/Code/Github/DawnGBC/Libraries/FWLIB/src\gd32f4xx_rtc.c **** void rtc_alarm_enable(uint8_t rtc_alarm)
 437:C:/Users/leonardo/Desktop/Code/Github/DawnGBC/Libraries/FWLIB/src\gd32f4xx_rtc.c **** {
 1258              		.loc 1 437 1
 1259              		.cfi_startproc
 1260              		@ args = 0, pretend = 0, frame = 8
 1261              		@ frame_needed = 1, uses_anonymous_args = 0
 1262              		@ link register save eliminated.
 1263 0000 80B4     		push	{r7}
 1264              		.cfi_def_cfa_offset 4
 1265              		.cfi_offset 7, -4
 1266 0002 83B0     		sub	sp, sp, #12
 1267              		.cfi_def_cfa_offset 16
 1268 0004 00AF     		add	r7, sp, #0
 1269              		.cfi_def_cfa_register 7
 1270 0006 0346     		mov	r3, r0
 1271 0008 FB71     		strb	r3, [r7, #7]
 438:C:/Users/leonardo/Desktop/Code/Github/DawnGBC/Libraries/FWLIB/src\gd32f4xx_rtc.c ****     /* disable the write protection */
 439:C:/Users/leonardo/Desktop/Code/Github/DawnGBC/Libraries/FWLIB/src\gd32f4xx_rtc.c ****     RTC_WPK = RTC_UNLOCK_KEY1;
 1272              		.loc 1 439 5
 1273 000a 0F4B     		ldr	r3, .L64
 1274              		.loc 1 439 13
 1275 000c CA22     		movs	r2, #202
 1276 000e 1A60     		str	r2, [r3]
 440:C:/Users/leonardo/Desktop/Code/Github/DawnGBC/Libraries/FWLIB/src\gd32f4xx_rtc.c ****     RTC_WPK = RTC_UNLOCK_KEY2;
 1277              		.loc 1 440 5
 1278 0010 0D4B     		ldr	r3, .L64
 1279              		.loc 1 440 13
 1280 0012 5322     		movs	r2, #83
 1281 0014 1A60     		str	r2, [r3]
 441:C:/Users/leonardo/Desktop/Code/Github/DawnGBC/Libraries/FWLIB/src\gd32f4xx_rtc.c **** 
 442:C:/Users/leonardo/Desktop/Code/Github/DawnGBC/Libraries/FWLIB/src\gd32f4xx_rtc.c ****     if(RTC_ALARM0 == rtc_alarm){
 1282              		.loc 1 442 7
 1283 0016 FB79     		ldrb	r3, [r7, #7]	@ zero_extendqisi2
 1284 0018 012B     		cmp	r3, #1
 1285 001a 06D1     		bne	.L62
 443:C:/Users/leonardo/Desktop/Code/Github/DawnGBC/Libraries/FWLIB/src\gd32f4xx_rtc.c ****         RTC_CTL |= RTC_CTL_ALRM0EN;
 1286              		.loc 1 443 17
 1287 001c 0B4B     		ldr	r3, .L64+4
 1288 001e 1B68     		ldr	r3, [r3]
 1289 0020 0A4A     		ldr	r2, .L64+4
 1290 0022 43F48073 		orr	r3, r3, #256
 1291 0026 1360     		str	r3, [r2]
 1292 0028 05E0     		b	.L63
 1293              	.L62:
 444:C:/Users/leonardo/Desktop/Code/Github/DawnGBC/Libraries/FWLIB/src\gd32f4xx_rtc.c ****     }else{
 445:C:/Users/leonardo/Desktop/Code/Github/DawnGBC/Libraries/FWLIB/src\gd32f4xx_rtc.c ****         RTC_CTL |= RTC_CTL_ALRM1EN;
 1294              		.loc 1 445 17
 1295 002a 084B     		ldr	r3, .L64+4
 1296 002c 1B68     		ldr	r3, [r3]
 1297 002e 074A     		ldr	r2, .L64+4
 1298 0030 43F40073 		orr	r3, r3, #512
 1299 0034 1360     		str	r3, [r2]
 1300              	.L63:
 446:C:/Users/leonardo/Desktop/Code/Github/DawnGBC/Libraries/FWLIB/src\gd32f4xx_rtc.c ****     }
 447:C:/Users/leonardo/Desktop/Code/Github/DawnGBC/Libraries/FWLIB/src\gd32f4xx_rtc.c ****     /* enable the write protection */
 448:C:/Users/leonardo/Desktop/Code/Github/DawnGBC/Libraries/FWLIB/src\gd32f4xx_rtc.c ****     RTC_WPK = RTC_LOCK_KEY;
 1301              		.loc 1 448 5
 1302 0036 044B     		ldr	r3, .L64
 1303              		.loc 1 448 13
 1304 0038 FF22     		movs	r2, #255
 1305 003a 1A60     		str	r2, [r3]
 449:C:/Users/leonardo/Desktop/Code/Github/DawnGBC/Libraries/FWLIB/src\gd32f4xx_rtc.c **** }
 1306              		.loc 1 449 1
 1307 003c 00BF     		nop
 1308 003e 0C37     		adds	r7, r7, #12
 1309              		.cfi_def_cfa_offset 4
 1310 0040 BD46     		mov	sp, r7
 1311              		.cfi_def_cfa_register 13
 1312              		@ sp needed
 1313 0042 80BC     		pop	{r7}
 1314              		.cfi_restore 7
 1315              		.cfi_def_cfa_offset 0
 1316 0044 7047     		bx	lr
 1317              	.L65:
 1318 0046 00BF     		.align	2
 1319              	.L64:
 1320 0048 24280040 		.word	1073752100
 1321 004c 08280040 		.word	1073752072
 1322              		.cfi_endproc
 1323              	.LFE134:
 1325              		.section	.text.rtc_alarm_disable,"ax",%progbits
 1326              		.align	1
 1327              		.global	rtc_alarm_disable
 1328              		.syntax unified
 1329              		.thumb
 1330              		.thumb_func
 1331              		.fpu softvfp
 1333              	rtc_alarm_disable:
 1334              	.LFB135:
 450:C:/Users/leonardo/Desktop/Code/Github/DawnGBC/Libraries/FWLIB/src\gd32f4xx_rtc.c **** 
 451:C:/Users/leonardo/Desktop/Code/Github/DawnGBC/Libraries/FWLIB/src\gd32f4xx_rtc.c **** /*!
 452:C:/Users/leonardo/Desktop/Code/Github/DawnGBC/Libraries/FWLIB/src\gd32f4xx_rtc.c ****     \brief      disable RTC alarm
 453:C:/Users/leonardo/Desktop/Code/Github/DawnGBC/Libraries/FWLIB/src\gd32f4xx_rtc.c ****     \param[in]  rtc_alarm: RTC_ALARM0 or RTC_ALARM1
 454:C:/Users/leonardo/Desktop/Code/Github/DawnGBC/Libraries/FWLIB/src\gd32f4xx_rtc.c ****     \param[out] none
 455:C:/Users/leonardo/Desktop/Code/Github/DawnGBC/Libraries/FWLIB/src\gd32f4xx_rtc.c ****     \retval     ErrStatus: ERROR or SUCCESS
 456:C:/Users/leonardo/Desktop/Code/Github/DawnGBC/Libraries/FWLIB/src\gd32f4xx_rtc.c **** */
 457:C:/Users/leonardo/Desktop/Code/Github/DawnGBC/Libraries/FWLIB/src\gd32f4xx_rtc.c **** ErrStatus rtc_alarm_disable(uint8_t rtc_alarm)
 458:C:/Users/leonardo/Desktop/Code/Github/DawnGBC/Libraries/FWLIB/src\gd32f4xx_rtc.c **** {
 1335              		.loc 1 458 1
 1336              		.cfi_startproc
 1337              		@ args = 0, pretend = 0, frame = 24
 1338              		@ frame_needed = 1, uses_anonymous_args = 0
 1339              		@ link register save eliminated.
 1340 0000 80B4     		push	{r7}
 1341              		.cfi_def_cfa_offset 4
 1342              		.cfi_offset 7, -4
 1343 0002 87B0     		sub	sp, sp, #28
 1344              		.cfi_def_cfa_offset 32
 1345 0004 00AF     		add	r7, sp, #0
 1346              		.cfi_def_cfa_register 7
 1347 0006 0346     		mov	r3, r0
 1348 0008 FB71     		strb	r3, [r7, #7]
 459:C:/Users/leonardo/Desktop/Code/Github/DawnGBC/Libraries/FWLIB/src\gd32f4xx_rtc.c ****     volatile uint32_t time_index = RTC_ALRMXWF_TIMEOUT;
 1349              		.loc 1 459 23
 1350 000a 4FF40043 		mov	r3, #32768
 1351 000e FB60     		str	r3, [r7, #12]
 460:C:/Users/leonardo/Desktop/Code/Github/DawnGBC/Libraries/FWLIB/src\gd32f4xx_rtc.c ****     ErrStatus error_status = ERROR;
 1352              		.loc 1 460 15
 1353 0010 0023     		movs	r3, #0
 1354 0012 FB75     		strb	r3, [r7, #23]
 461:C:/Users/leonardo/Desktop/Code/Github/DawnGBC/Libraries/FWLIB/src\gd32f4xx_rtc.c ****     uint32_t flag_status = RESET;
 1355              		.loc 1 461 14
 1356 0014 0023     		movs	r3, #0
 1357 0016 3B61     		str	r3, [r7, #16]
 462:C:/Users/leonardo/Desktop/Code/Github/DawnGBC/Libraries/FWLIB/src\gd32f4xx_rtc.c **** 
 463:C:/Users/leonardo/Desktop/Code/Github/DawnGBC/Libraries/FWLIB/src\gd32f4xx_rtc.c ****     /* disable the write protection */
 464:C:/Users/leonardo/Desktop/Code/Github/DawnGBC/Libraries/FWLIB/src\gd32f4xx_rtc.c ****     RTC_WPK = RTC_UNLOCK_KEY1;
 1358              		.loc 1 464 5
 1359 0018 1E4B     		ldr	r3, .L73
 1360              		.loc 1 464 13
 1361 001a CA22     		movs	r2, #202
 1362 001c 1A60     		str	r2, [r3]
 465:C:/Users/leonardo/Desktop/Code/Github/DawnGBC/Libraries/FWLIB/src\gd32f4xx_rtc.c ****     RTC_WPK = RTC_UNLOCK_KEY2;
 1363              		.loc 1 465 5
 1364 001e 1D4B     		ldr	r3, .L73
 1365              		.loc 1 465 13
 1366 0020 5322     		movs	r2, #83
 1367 0022 1A60     		str	r2, [r3]
 466:C:/Users/leonardo/Desktop/Code/Github/DawnGBC/Libraries/FWLIB/src\gd32f4xx_rtc.c ****     
 467:C:/Users/leonardo/Desktop/Code/Github/DawnGBC/Libraries/FWLIB/src\gd32f4xx_rtc.c ****     /* clear the state of alarm */
 468:C:/Users/leonardo/Desktop/Code/Github/DawnGBC/Libraries/FWLIB/src\gd32f4xx_rtc.c ****     if(RTC_ALARM0 == rtc_alarm){
 1368              		.loc 1 468 7
 1369 0024 FB79     		ldrb	r3, [r7, #7]	@ zero_extendqisi2
 1370 0026 012B     		cmp	r3, #1
 1371 0028 13D1     		bne	.L67
 469:C:/Users/leonardo/Desktop/Code/Github/DawnGBC/Libraries/FWLIB/src\gd32f4xx_rtc.c ****         RTC_CTL &= (uint32_t)(~RTC_CTL_ALRM0EN); 
 1372              		.loc 1 469 17
 1373 002a 1B4B     		ldr	r3, .L73+4
 1374 002c 1B68     		ldr	r3, [r3]
 1375 002e 1A4A     		ldr	r2, .L73+4
 1376 0030 23F48073 		bic	r3, r3, #256
 1377 0034 1360     		str	r3, [r2]
 1378              	.L69:
 470:C:/Users/leonardo/Desktop/Code/Github/DawnGBC/Libraries/FWLIB/src\gd32f4xx_rtc.c ****         /* wait until ALRM0WF flag to be set after the alarm is disabled */
 471:C:/Users/leonardo/Desktop/Code/Github/DawnGBC/Libraries/FWLIB/src\gd32f4xx_rtc.c ****         do{
 472:C:/Users/leonardo/Desktop/Code/Github/DawnGBC/Libraries/FWLIB/src\gd32f4xx_rtc.c ****             flag_status = RTC_STAT & RTC_STAT_ALRM0WF;
 1379              		.loc 1 472 27 discriminator 2
 1380 0036 194B     		ldr	r3, .L73+8
 1381 0038 1B68     		ldr	r3, [r3]
 1382              		.loc 1 472 25 discriminator 2
 1383 003a 03F00103 		and	r3, r3, #1
 1384 003e 3B61     		str	r3, [r7, #16]
 473:C:/Users/leonardo/Desktop/Code/Github/DawnGBC/Libraries/FWLIB/src\gd32f4xx_rtc.c ****         }while((--time_index > 0U) && ((uint32_t)RESET == flag_status)); 
 1385              		.loc 1 473 17 discriminator 2
 1386 0040 FB68     		ldr	r3, [r7, #12]
 1387 0042 013B     		subs	r3, r3, #1
 1388              		.loc 1 473 9 discriminator 2
 1389 0044 FB60     		str	r3, [r7, #12]
 1390 0046 002B     		cmp	r3, #0
 1391 0048 16D0     		beq	.L68
 1392              		.loc 1 473 36 discriminator 1
 1393 004a 3B69     		ldr	r3, [r7, #16]
 1394 004c 002B     		cmp	r3, #0
 1395 004e F2D0     		beq	.L69
 1396 0050 12E0     		b	.L68
 1397              	.L67:
 474:C:/Users/leonardo/Desktop/Code/Github/DawnGBC/Libraries/FWLIB/src\gd32f4xx_rtc.c ****     }else{
 475:C:/Users/leonardo/Desktop/Code/Github/DawnGBC/Libraries/FWLIB/src\gd32f4xx_rtc.c ****         RTC_CTL &= (uint32_t)(~RTC_CTL_ALRM1EN);  
 1398              		.loc 1 475 17
 1399 0052 114B     		ldr	r3, .L73+4
 1400 0054 1B68     		ldr	r3, [r3]
 1401 0056 104A     		ldr	r2, .L73+4
 1402 0058 23F40073 		bic	r3, r3, #512
 1403 005c 1360     		str	r3, [r2]
 1404              	.L70:
 476:C:/Users/leonardo/Desktop/Code/Github/DawnGBC/Libraries/FWLIB/src\gd32f4xx_rtc.c ****         /* wait until ALRM1WF flag to be set after the alarm is disabled */
 477:C:/Users/leonardo/Desktop/Code/Github/DawnGBC/Libraries/FWLIB/src\gd32f4xx_rtc.c ****         do{
 478:C:/Users/leonardo/Desktop/Code/Github/DawnGBC/Libraries/FWLIB/src\gd32f4xx_rtc.c ****             flag_status = RTC_STAT & RTC_STAT_ALRM1WF;
 1405              		.loc 1 478 27 discriminator 2
 1406 005e 0F4B     		ldr	r3, .L73+8
 1407 0060 1B68     		ldr	r3, [r3]
 1408              		.loc 1 478 25 discriminator 2
 1409 0062 03F00203 		and	r3, r3, #2
 1410 0066 3B61     		str	r3, [r7, #16]
 479:C:/Users/leonardo/Desktop/Code/Github/DawnGBC/Libraries/FWLIB/src\gd32f4xx_rtc.c ****         }while((--time_index > 0U) && ((uint32_t)RESET == flag_status));
 1411              		.loc 1 479 17 discriminator 2
 1412 0068 FB68     		ldr	r3, [r7, #12]
 1413 006a 013B     		subs	r3, r3, #1
 1414              		.loc 1 479 9 discriminator 2
 1415 006c FB60     		str	r3, [r7, #12]
 1416 006e 002B     		cmp	r3, #0
 1417 0070 02D0     		beq	.L68
 1418              		.loc 1 479 36 discriminator 1
 1419 0072 3B69     		ldr	r3, [r7, #16]
 1420 0074 002B     		cmp	r3, #0
 1421 0076 F2D0     		beq	.L70
 1422              	.L68:
 480:C:/Users/leonardo/Desktop/Code/Github/DawnGBC/Libraries/FWLIB/src\gd32f4xx_rtc.c ****     }
 481:C:/Users/leonardo/Desktop/Code/Github/DawnGBC/Libraries/FWLIB/src\gd32f4xx_rtc.c ****   
 482:C:/Users/leonardo/Desktop/Code/Github/DawnGBC/Libraries/FWLIB/src\gd32f4xx_rtc.c ****     if ((uint32_t)RESET != flag_status){     
 1423              		.loc 1 482 8
 1424 0078 3B69     		ldr	r3, [r7, #16]
 1425 007a 002B     		cmp	r3, #0
 1426 007c 01D0     		beq	.L71
 483:C:/Users/leonardo/Desktop/Code/Github/DawnGBC/Libraries/FWLIB/src\gd32f4xx_rtc.c ****         error_status = SUCCESS;
 1427              		.loc 1 483 22
 1428 007e 0123     		movs	r3, #1
 1429 0080 FB75     		strb	r3, [r7, #23]
 1430              	.L71:
 484:C:/Users/leonardo/Desktop/Code/Github/DawnGBC/Libraries/FWLIB/src\gd32f4xx_rtc.c ****     }
 485:C:/Users/leonardo/Desktop/Code/Github/DawnGBC/Libraries/FWLIB/src\gd32f4xx_rtc.c **** 
 486:C:/Users/leonardo/Desktop/Code/Github/DawnGBC/Libraries/FWLIB/src\gd32f4xx_rtc.c ****     /* enable the write protection */
 487:C:/Users/leonardo/Desktop/Code/Github/DawnGBC/Libraries/FWLIB/src\gd32f4xx_rtc.c ****     RTC_WPK = RTC_LOCK_KEY;
 1431              		.loc 1 487 5
 1432 0082 044B     		ldr	r3, .L73
 1433              		.loc 1 487 13
 1434 0084 FF22     		movs	r2, #255
 1435 0086 1A60     		str	r2, [r3]
 488:C:/Users/leonardo/Desktop/Code/Github/DawnGBC/Libraries/FWLIB/src\gd32f4xx_rtc.c **** 
 489:C:/Users/leonardo/Desktop/Code/Github/DawnGBC/Libraries/FWLIB/src\gd32f4xx_rtc.c ****     return error_status;
 1436              		.loc 1 489 12
 1437 0088 FB7D     		ldrb	r3, [r7, #23]	@ zero_extendqisi2
 490:C:/Users/leonardo/Desktop/Code/Github/DawnGBC/Libraries/FWLIB/src\gd32f4xx_rtc.c **** }
 1438              		.loc 1 490 1
 1439 008a 1846     		mov	r0, r3
 1440 008c 1C37     		adds	r7, r7, #28
 1441              		.cfi_def_cfa_offset 4
 1442 008e BD46     		mov	sp, r7
 1443              		.cfi_def_cfa_register 13
 1444              		@ sp needed
 1445 0090 80BC     		pop	{r7}
 1446              		.cfi_restore 7
 1447              		.cfi_def_cfa_offset 0
 1448 0092 7047     		bx	lr
 1449              	.L74:
 1450              		.align	2
 1451              	.L73:
 1452 0094 24280040 		.word	1073752100
 1453 0098 08280040 		.word	1073752072
 1454 009c 0C280040 		.word	1073752076
 1455              		.cfi_endproc
 1456              	.LFE135:
 1458              		.section	.text.rtc_timestamp_enable,"ax",%progbits
 1459              		.align	1
 1460              		.global	rtc_timestamp_enable
 1461              		.syntax unified
 1462              		.thumb
 1463              		.thumb_func
 1464              		.fpu softvfp
 1466              	rtc_timestamp_enable:
 1467              	.LFB136:
 491:C:/Users/leonardo/Desktop/Code/Github/DawnGBC/Libraries/FWLIB/src\gd32f4xx_rtc.c **** 
 492:C:/Users/leonardo/Desktop/Code/Github/DawnGBC/Libraries/FWLIB/src\gd32f4xx_rtc.c **** /*!
 493:C:/Users/leonardo/Desktop/Code/Github/DawnGBC/Libraries/FWLIB/src\gd32f4xx_rtc.c ****     \brief      enable RTC time-stamp
 494:C:/Users/leonardo/Desktop/Code/Github/DawnGBC/Libraries/FWLIB/src\gd32f4xx_rtc.c ****     \param[in]  edge: specify which edge to detect of time-stamp
 495:C:/Users/leonardo/Desktop/Code/Github/DawnGBC/Libraries/FWLIB/src\gd32f4xx_rtc.c ****       \arg        RTC_TIMESTAMP_RISING_EDGE: rising edge is valid event edge for timestamp event
 496:C:/Users/leonardo/Desktop/Code/Github/DawnGBC/Libraries/FWLIB/src\gd32f4xx_rtc.c ****       \arg        RTC_TIMESTAMP_FALLING_EDGE: falling edge is valid event edge for timestamp event
 497:C:/Users/leonardo/Desktop/Code/Github/DawnGBC/Libraries/FWLIB/src\gd32f4xx_rtc.c ****     \param[out] none
 498:C:/Users/leonardo/Desktop/Code/Github/DawnGBC/Libraries/FWLIB/src\gd32f4xx_rtc.c ****     \retval     none
 499:C:/Users/leonardo/Desktop/Code/Github/DawnGBC/Libraries/FWLIB/src\gd32f4xx_rtc.c **** */
 500:C:/Users/leonardo/Desktop/Code/Github/DawnGBC/Libraries/FWLIB/src\gd32f4xx_rtc.c **** void rtc_timestamp_enable(uint32_t edge)
 501:C:/Users/leonardo/Desktop/Code/Github/DawnGBC/Libraries/FWLIB/src\gd32f4xx_rtc.c **** {
 1468              		.loc 1 501 1
 1469              		.cfi_startproc
 1470              		@ args = 0, pretend = 0, frame = 16
 1471              		@ frame_needed = 1, uses_anonymous_args = 0
 1472              		@ link register save eliminated.
 1473 0000 80B4     		push	{r7}
 1474              		.cfi_def_cfa_offset 4
 1475              		.cfi_offset 7, -4
 1476 0002 85B0     		sub	sp, sp, #20
 1477              		.cfi_def_cfa_offset 24
 1478 0004 00AF     		add	r7, sp, #0
 1479              		.cfi_def_cfa_register 7
 1480 0006 7860     		str	r0, [r7, #4]
 502:C:/Users/leonardo/Desktop/Code/Github/DawnGBC/Libraries/FWLIB/src\gd32f4xx_rtc.c ****     uint32_t reg_ctl = 0U;
 1481              		.loc 1 502 14
 1482 0008 0023     		movs	r3, #0
 1483 000a FB60     		str	r3, [r7, #12]
 503:C:/Users/leonardo/Desktop/Code/Github/DawnGBC/Libraries/FWLIB/src\gd32f4xx_rtc.c **** 
 504:C:/Users/leonardo/Desktop/Code/Github/DawnGBC/Libraries/FWLIB/src\gd32f4xx_rtc.c ****     /* clear the bits to be configured in RTC_CTL */
 505:C:/Users/leonardo/Desktop/Code/Github/DawnGBC/Libraries/FWLIB/src\gd32f4xx_rtc.c ****     reg_ctl = (uint32_t)(RTC_CTL & (uint32_t)(~(RTC_CTL_TSEG | RTC_CTL_TSEN)));
 1484              		.loc 1 505 26
 1485 000c 0E4B     		ldr	r3, .L76
 1486 000e 1B68     		ldr	r3, [r3]
 1487              		.loc 1 505 13
 1488 0010 23F40063 		bic	r3, r3, #2048
 1489 0014 23F00803 		bic	r3, r3, #8
 1490 0018 FB60     		str	r3, [r7, #12]
 506:C:/Users/leonardo/Desktop/Code/Github/DawnGBC/Libraries/FWLIB/src\gd32f4xx_rtc.c **** 
 507:C:/Users/leonardo/Desktop/Code/Github/DawnGBC/Libraries/FWLIB/src\gd32f4xx_rtc.c ****     /* new configuration */
 508:C:/Users/leonardo/Desktop/Code/Github/DawnGBC/Libraries/FWLIB/src\gd32f4xx_rtc.c ****     reg_ctl |= (uint32_t)(edge | RTC_CTL_TSEN);
 1491              		.loc 1 508 13
 1492 001a 7A68     		ldr	r2, [r7, #4]
 1493 001c FB68     		ldr	r3, [r7, #12]
 1494 001e 1343     		orrs	r3, r3, r2
 1495 0020 43F40063 		orr	r3, r3, #2048
 1496 0024 FB60     		str	r3, [r7, #12]
 509:C:/Users/leonardo/Desktop/Code/Github/DawnGBC/Libraries/FWLIB/src\gd32f4xx_rtc.c ****    
 510:C:/Users/leonardo/Desktop/Code/Github/DawnGBC/Libraries/FWLIB/src\gd32f4xx_rtc.c ****     /* disable the write protection */
 511:C:/Users/leonardo/Desktop/Code/Github/DawnGBC/Libraries/FWLIB/src\gd32f4xx_rtc.c ****     RTC_WPK = RTC_UNLOCK_KEY1;
 1497              		.loc 1 511 5
 1498 0026 094B     		ldr	r3, .L76+4
 1499              		.loc 1 511 13
 1500 0028 CA22     		movs	r2, #202
 1501 002a 1A60     		str	r2, [r3]
 512:C:/Users/leonardo/Desktop/Code/Github/DawnGBC/Libraries/FWLIB/src\gd32f4xx_rtc.c ****     RTC_WPK = RTC_UNLOCK_KEY2;
 1502              		.loc 1 512 5
 1503 002c 074B     		ldr	r3, .L76+4
 1504              		.loc 1 512 13
 1505 002e 5322     		movs	r2, #83
 1506 0030 1A60     		str	r2, [r3]
 513:C:/Users/leonardo/Desktop/Code/Github/DawnGBC/Libraries/FWLIB/src\gd32f4xx_rtc.c **** 
 514:C:/Users/leonardo/Desktop/Code/Github/DawnGBC/Libraries/FWLIB/src\gd32f4xx_rtc.c ****     RTC_CTL = (uint32_t)reg_ctl;
 1507              		.loc 1 514 5
 1508 0032 054A     		ldr	r2, .L76
 1509              		.loc 1 514 13
 1510 0034 FB68     		ldr	r3, [r7, #12]
 1511 0036 1360     		str	r3, [r2]
 515:C:/Users/leonardo/Desktop/Code/Github/DawnGBC/Libraries/FWLIB/src\gd32f4xx_rtc.c **** 
 516:C:/Users/leonardo/Desktop/Code/Github/DawnGBC/Libraries/FWLIB/src\gd32f4xx_rtc.c ****     /* enable the write protection */
 517:C:/Users/leonardo/Desktop/Code/Github/DawnGBC/Libraries/FWLIB/src\gd32f4xx_rtc.c ****     RTC_WPK = RTC_LOCK_KEY;
 1512              		.loc 1 517 5
 1513 0038 044B     		ldr	r3, .L76+4
 1514              		.loc 1 517 13
 1515 003a FF22     		movs	r2, #255
 1516 003c 1A60     		str	r2, [r3]
 518:C:/Users/leonardo/Desktop/Code/Github/DawnGBC/Libraries/FWLIB/src\gd32f4xx_rtc.c **** }
 1517              		.loc 1 518 1
 1518 003e 00BF     		nop
 1519 0040 1437     		adds	r7, r7, #20
 1520              		.cfi_def_cfa_offset 4
 1521 0042 BD46     		mov	sp, r7
 1522              		.cfi_def_cfa_register 13
 1523              		@ sp needed
 1524 0044 80BC     		pop	{r7}
 1525              		.cfi_restore 7
 1526              		.cfi_def_cfa_offset 0
 1527 0046 7047     		bx	lr
 1528              	.L77:
 1529              		.align	2
 1530              	.L76:
 1531 0048 08280040 		.word	1073752072
 1532 004c 24280040 		.word	1073752100
 1533              		.cfi_endproc
 1534              	.LFE136:
 1536              		.section	.text.rtc_timestamp_disable,"ax",%progbits
 1537              		.align	1
 1538              		.global	rtc_timestamp_disable
 1539              		.syntax unified
 1540              		.thumb
 1541              		.thumb_func
 1542              		.fpu softvfp
 1544              	rtc_timestamp_disable:
 1545              	.LFB137:
 519:C:/Users/leonardo/Desktop/Code/Github/DawnGBC/Libraries/FWLIB/src\gd32f4xx_rtc.c **** 
 520:C:/Users/leonardo/Desktop/Code/Github/DawnGBC/Libraries/FWLIB/src\gd32f4xx_rtc.c **** /*!
 521:C:/Users/leonardo/Desktop/Code/Github/DawnGBC/Libraries/FWLIB/src\gd32f4xx_rtc.c ****     \brief      disable RTC time-stamp
 522:C:/Users/leonardo/Desktop/Code/Github/DawnGBC/Libraries/FWLIB/src\gd32f4xx_rtc.c ****     \param[in]  none
 523:C:/Users/leonardo/Desktop/Code/Github/DawnGBC/Libraries/FWLIB/src\gd32f4xx_rtc.c ****     \param[out] none
 524:C:/Users/leonardo/Desktop/Code/Github/DawnGBC/Libraries/FWLIB/src\gd32f4xx_rtc.c ****     \retval     none
 525:C:/Users/leonardo/Desktop/Code/Github/DawnGBC/Libraries/FWLIB/src\gd32f4xx_rtc.c **** */
 526:C:/Users/leonardo/Desktop/Code/Github/DawnGBC/Libraries/FWLIB/src\gd32f4xx_rtc.c **** void rtc_timestamp_disable(void)
 527:C:/Users/leonardo/Desktop/Code/Github/DawnGBC/Libraries/FWLIB/src\gd32f4xx_rtc.c **** {
 1546              		.loc 1 527 1
 1547              		.cfi_startproc
 1548              		@ args = 0, pretend = 0, frame = 0
 1549              		@ frame_needed = 1, uses_anonymous_args = 0
 1550              		@ link register save eliminated.
 1551 0000 80B4     		push	{r7}
 1552              		.cfi_def_cfa_offset 4
 1553              		.cfi_offset 7, -4
 1554 0002 00AF     		add	r7, sp, #0
 1555              		.cfi_def_cfa_register 7
 528:C:/Users/leonardo/Desktop/Code/Github/DawnGBC/Libraries/FWLIB/src\gd32f4xx_rtc.c ****     /* disable the write protection */
 529:C:/Users/leonardo/Desktop/Code/Github/DawnGBC/Libraries/FWLIB/src\gd32f4xx_rtc.c ****     RTC_WPK = RTC_UNLOCK_KEY1;
 1556              		.loc 1 529 5
 1557 0004 094B     		ldr	r3, .L79
 1558              		.loc 1 529 13
 1559 0006 CA22     		movs	r2, #202
 1560 0008 1A60     		str	r2, [r3]
 530:C:/Users/leonardo/Desktop/Code/Github/DawnGBC/Libraries/FWLIB/src\gd32f4xx_rtc.c ****     RTC_WPK = RTC_UNLOCK_KEY2;
 1561              		.loc 1 530 5
 1562 000a 084B     		ldr	r3, .L79
 1563              		.loc 1 530 13
 1564 000c 5322     		movs	r2, #83
 1565 000e 1A60     		str	r2, [r3]
 531:C:/Users/leonardo/Desktop/Code/Github/DawnGBC/Libraries/FWLIB/src\gd32f4xx_rtc.c ****     
 532:C:/Users/leonardo/Desktop/Code/Github/DawnGBC/Libraries/FWLIB/src\gd32f4xx_rtc.c ****     /* clear the TSEN bit */
 533:C:/Users/leonardo/Desktop/Code/Github/DawnGBC/Libraries/FWLIB/src\gd32f4xx_rtc.c ****     RTC_CTL &= (uint32_t)(~ RTC_CTL_TSEN);
 1566              		.loc 1 533 13
 1567 0010 074B     		ldr	r3, .L79+4
 1568 0012 1B68     		ldr	r3, [r3]
 1569 0014 064A     		ldr	r2, .L79+4
 1570 0016 23F40063 		bic	r3, r3, #2048
 1571 001a 1360     		str	r3, [r2]
 534:C:/Users/leonardo/Desktop/Code/Github/DawnGBC/Libraries/FWLIB/src\gd32f4xx_rtc.c **** 
 535:C:/Users/leonardo/Desktop/Code/Github/DawnGBC/Libraries/FWLIB/src\gd32f4xx_rtc.c ****     /* enable the write protection */
 536:C:/Users/leonardo/Desktop/Code/Github/DawnGBC/Libraries/FWLIB/src\gd32f4xx_rtc.c ****     RTC_WPK = RTC_LOCK_KEY;
 1572              		.loc 1 536 5
 1573 001c 034B     		ldr	r3, .L79
 1574              		.loc 1 536 13
 1575 001e FF22     		movs	r2, #255
 1576 0020 1A60     		str	r2, [r3]
 537:C:/Users/leonardo/Desktop/Code/Github/DawnGBC/Libraries/FWLIB/src\gd32f4xx_rtc.c **** }
 1577              		.loc 1 537 1
 1578 0022 00BF     		nop
 1579 0024 BD46     		mov	sp, r7
 1580              		.cfi_def_cfa_register 13
 1581              		@ sp needed
 1582 0026 80BC     		pop	{r7}
 1583              		.cfi_restore 7
 1584              		.cfi_def_cfa_offset 0
 1585 0028 7047     		bx	lr
 1586              	.L80:
 1587 002a 00BF     		.align	2
 1588              	.L79:
 1589 002c 24280040 		.word	1073752100
 1590 0030 08280040 		.word	1073752072
 1591              		.cfi_endproc
 1592              	.LFE137:
 1594              		.section	.text.rtc_timestamp_get,"ax",%progbits
 1595              		.align	1
 1596              		.global	rtc_timestamp_get
 1597              		.syntax unified
 1598              		.thumb
 1599              		.thumb_func
 1600              		.fpu softvfp
 1602              	rtc_timestamp_get:
 1603              	.LFB138:
 538:C:/Users/leonardo/Desktop/Code/Github/DawnGBC/Libraries/FWLIB/src\gd32f4xx_rtc.c **** 
 539:C:/Users/leonardo/Desktop/Code/Github/DawnGBC/Libraries/FWLIB/src\gd32f4xx_rtc.c **** /*!
 540:C:/Users/leonardo/Desktop/Code/Github/DawnGBC/Libraries/FWLIB/src\gd32f4xx_rtc.c ****     \brief      get RTC timestamp time and date
 541:C:/Users/leonardo/Desktop/Code/Github/DawnGBC/Libraries/FWLIB/src\gd32f4xx_rtc.c ****     \param[in]  none
 542:C:/Users/leonardo/Desktop/Code/Github/DawnGBC/Libraries/FWLIB/src\gd32f4xx_rtc.c ****     \param[out] rtc_timestamp: pointer to a rtc_timestamp_struct structure which contains 
 543:C:/Users/leonardo/Desktop/Code/Github/DawnGBC/Libraries/FWLIB/src\gd32f4xx_rtc.c ****                 parameters for RTC time-stamp configuration
 544:C:/Users/leonardo/Desktop/Code/Github/DawnGBC/Libraries/FWLIB/src\gd32f4xx_rtc.c ****                 members of the structure and the member values are shown as below:
 545:C:/Users/leonardo/Desktop/Code/Github/DawnGBC/Libraries/FWLIB/src\gd32f4xx_rtc.c ****                   timestamp_month: RTC_JAN, RTC_FEB, RTC_MAR, RTC_APR, RTC_MAY, RTC_JUN,
 546:C:/Users/leonardo/Desktop/Code/Github/DawnGBC/Libraries/FWLIB/src\gd32f4xx_rtc.c ****                                        RTC_JUL, RTC_AUG, RTC_SEP, RTC_OCT, RTC_NOV, RTC_DEC
 547:C:/Users/leonardo/Desktop/Code/Github/DawnGBC/Libraries/FWLIB/src\gd32f4xx_rtc.c ****                   timestamp_date: 0x1 - 0x31(BCD format)
 548:C:/Users/leonardo/Desktop/Code/Github/DawnGBC/Libraries/FWLIB/src\gd32f4xx_rtc.c ****                   timestamp_day: RTC_MONDAY, RTC_TUESDAY, RTC_WEDSDAY, RTC_THURSDAY, RTC_FRIDAY,
 549:C:/Users/leonardo/Desktop/Code/Github/DawnGBC/Libraries/FWLIB/src\gd32f4xx_rtc.c ****                                      RTC_SATURDAY, RTC_SUNDAY if RTC_ALARM_WEEKDAY_SELECTED is set
 550:C:/Users/leonardo/Desktop/Code/Github/DawnGBC/Libraries/FWLIB/src\gd32f4xx_rtc.c ****                   timestamp_hour: 0x0 - 0x12(BCD format) or 0x0 - 0x23(BCD format) depending on the
 551:C:/Users/leonardo/Desktop/Code/Github/DawnGBC/Libraries/FWLIB/src\gd32f4xx_rtc.c ****                   timestamp_minute: 0x0 - 0x59(BCD format)
 552:C:/Users/leonardo/Desktop/Code/Github/DawnGBC/Libraries/FWLIB/src\gd32f4xx_rtc.c ****                   timestamp_second: 0x0 - 0x59(BCD format)
 553:C:/Users/leonardo/Desktop/Code/Github/DawnGBC/Libraries/FWLIB/src\gd32f4xx_rtc.c ****                   am_pm: RTC_AM, RTC_PM
 554:C:/Users/leonardo/Desktop/Code/Github/DawnGBC/Libraries/FWLIB/src\gd32f4xx_rtc.c ****     \retval     none
 555:C:/Users/leonardo/Desktop/Code/Github/DawnGBC/Libraries/FWLIB/src\gd32f4xx_rtc.c **** */
 556:C:/Users/leonardo/Desktop/Code/Github/DawnGBC/Libraries/FWLIB/src\gd32f4xx_rtc.c **** void rtc_timestamp_get(rtc_timestamp_struct* rtc_timestamp)
 557:C:/Users/leonardo/Desktop/Code/Github/DawnGBC/Libraries/FWLIB/src\gd32f4xx_rtc.c **** {
 1604              		.loc 1 557 1
 1605              		.cfi_startproc
 1606              		@ args = 0, pretend = 0, frame = 16
 1607              		@ frame_needed = 1, uses_anonymous_args = 0
 1608              		@ link register save eliminated.
 1609 0000 80B4     		push	{r7}
 1610              		.cfi_def_cfa_offset 4
 1611              		.cfi_offset 7, -4
 1612 0002 85B0     		sub	sp, sp, #20
 1613              		.cfi_def_cfa_offset 24
 1614 0004 00AF     		add	r7, sp, #0
 1615              		.cfi_def_cfa_register 7
 1616 0006 7860     		str	r0, [r7, #4]
 558:C:/Users/leonardo/Desktop/Code/Github/DawnGBC/Libraries/FWLIB/src\gd32f4xx_rtc.c ****     uint32_t temp_tts = 0U, temp_dts = 0U;
 1617              		.loc 1 558 14
 1618 0008 0023     		movs	r3, #0
 1619 000a FB60     		str	r3, [r7, #12]
 1620              		.loc 1 558 29
 1621 000c 0023     		movs	r3, #0
 1622 000e BB60     		str	r3, [r7, #8]
 559:C:/Users/leonardo/Desktop/Code/Github/DawnGBC/Libraries/FWLIB/src\gd32f4xx_rtc.c **** 
 560:C:/Users/leonardo/Desktop/Code/Github/DawnGBC/Libraries/FWLIB/src\gd32f4xx_rtc.c ****     /* get the value of time_stamp registers */
 561:C:/Users/leonardo/Desktop/Code/Github/DawnGBC/Libraries/FWLIB/src\gd32f4xx_rtc.c ****     temp_tts = (uint32_t)RTC_TTS;
 1623              		.loc 1 561 16
 1624 0010 1E4B     		ldr	r3, .L82
 1625              		.loc 1 561 14
 1626 0012 1B68     		ldr	r3, [r3]
 1627 0014 FB60     		str	r3, [r7, #12]
 562:C:/Users/leonardo/Desktop/Code/Github/DawnGBC/Libraries/FWLIB/src\gd32f4xx_rtc.c ****     temp_dts = (uint32_t)RTC_DTS;
 1628              		.loc 1 562 16
 1629 0016 1E4B     		ldr	r3, .L82+4
 1630              		.loc 1 562 14
 1631 0018 1B68     		ldr	r3, [r3]
 1632 001a BB60     		str	r3, [r7, #8]
 563:C:/Users/leonardo/Desktop/Code/Github/DawnGBC/Libraries/FWLIB/src\gd32f4xx_rtc.c ****   
 564:C:/Users/leonardo/Desktop/Code/Github/DawnGBC/Libraries/FWLIB/src\gd32f4xx_rtc.c ****     /* get timestamp time and construct the rtc_timestamp_struct structure */
 565:C:/Users/leonardo/Desktop/Code/Github/DawnGBC/Libraries/FWLIB/src\gd32f4xx_rtc.c ****     rtc_timestamp->am_pm = (uint32_t)(temp_tts & RTC_TTS_PM);
 1633              		.loc 1 565 28
 1634 001c FB68     		ldr	r3, [r7, #12]
 1635 001e 03F48002 		and	r2, r3, #4194304
 1636              		.loc 1 565 26
 1637 0022 7B68     		ldr	r3, [r7, #4]
 1638 0024 9A60     		str	r2, [r3, #8]
 566:C:/Users/leonardo/Desktop/Code/Github/DawnGBC/Libraries/FWLIB/src\gd32f4xx_rtc.c ****     rtc_timestamp->timestamp_month = (uint8_t)GET_DTS_MON(temp_dts);
 1639              		.loc 1 566 47
 1640 0026 BB68     		ldr	r3, [r7, #8]
 1641 0028 1B0A     		lsrs	r3, r3, #8
 1642              		.loc 1 566 38
 1643 002a DBB2     		uxtb	r3, r3
 1644 002c 03F00F03 		and	r3, r3, #15
 1645 0030 DAB2     		uxtb	r2, r3
 1646              		.loc 1 566 36
 1647 0032 7B68     		ldr	r3, [r7, #4]
 1648 0034 1A70     		strb	r2, [r3]
 567:C:/Users/leonardo/Desktop/Code/Github/DawnGBC/Libraries/FWLIB/src\gd32f4xx_rtc.c ****     rtc_timestamp->timestamp_date = (uint8_t)GET_DTS_DAY(temp_dts);
 1649              		.loc 1 567 37
 1650 0036 BB68     		ldr	r3, [r7, #8]
 1651 0038 DBB2     		uxtb	r3, r3
 1652 003a 03F03F03 		and	r3, r3, #63
 1653 003e DAB2     		uxtb	r2, r3
 1654              		.loc 1 567 35
 1655 0040 7B68     		ldr	r3, [r7, #4]
 1656 0042 5A70     		strb	r2, [r3, #1]
 568:C:/Users/leonardo/Desktop/Code/Github/DawnGBC/Libraries/FWLIB/src\gd32f4xx_rtc.c ****     rtc_timestamp->timestamp_day = (uint8_t)GET_DTS_DOW(temp_dts);
 1657              		.loc 1 568 45
 1658 0044 BB68     		ldr	r3, [r7, #8]
 1659 0046 5B0B     		lsrs	r3, r3, #13
 1660              		.loc 1 568 36
 1661 0048 DBB2     		uxtb	r3, r3
 1662 004a 03F00703 		and	r3, r3, #7
 1663 004e DAB2     		uxtb	r2, r3
 1664              		.loc 1 568 34
 1665 0050 7B68     		ldr	r3, [r7, #4]
 1666 0052 9A70     		strb	r2, [r3, #2]
 569:C:/Users/leonardo/Desktop/Code/Github/DawnGBC/Libraries/FWLIB/src\gd32f4xx_rtc.c ****     rtc_timestamp->timestamp_hour = (uint8_t)GET_TTS_HR(temp_tts);
 1667              		.loc 1 569 46
 1668 0054 FB68     		ldr	r3, [r7, #12]
 1669 0056 1B0C     		lsrs	r3, r3, #16
 1670              		.loc 1 569 37
 1671 0058 DBB2     		uxtb	r3, r3
 1672 005a 03F03F03 		and	r3, r3, #63
 1673 005e DAB2     		uxtb	r2, r3
 1674              		.loc 1 569 35
 1675 0060 7B68     		ldr	r3, [r7, #4]
 1676 0062 DA70     		strb	r2, [r3, #3]
 570:C:/Users/leonardo/Desktop/Code/Github/DawnGBC/Libraries/FWLIB/src\gd32f4xx_rtc.c ****     rtc_timestamp->timestamp_minute = (uint8_t)GET_TTS_MN(temp_tts);
 1677              		.loc 1 570 48
 1678 0064 FB68     		ldr	r3, [r7, #12]
 1679 0066 1B0A     		lsrs	r3, r3, #8
 1680              		.loc 1 570 39
 1681 0068 DBB2     		uxtb	r3, r3
 1682 006a 03F07F03 		and	r3, r3, #127
 1683 006e DAB2     		uxtb	r2, r3
 1684              		.loc 1 570 37
 1685 0070 7B68     		ldr	r3, [r7, #4]
 1686 0072 1A71     		strb	r2, [r3, #4]
 571:C:/Users/leonardo/Desktop/Code/Github/DawnGBC/Libraries/FWLIB/src\gd32f4xx_rtc.c ****     rtc_timestamp->timestamp_second = (uint8_t)GET_TTS_SC(temp_tts);
 1687              		.loc 1 571 39
 1688 0074 FB68     		ldr	r3, [r7, #12]
 1689 0076 DBB2     		uxtb	r3, r3
 1690 0078 03F07F03 		and	r3, r3, #127
 1691 007c DAB2     		uxtb	r2, r3
 1692              		.loc 1 571 37
 1693 007e 7B68     		ldr	r3, [r7, #4]
 1694 0080 5A71     		strb	r2, [r3, #5]
 572:C:/Users/leonardo/Desktop/Code/Github/DawnGBC/Libraries/FWLIB/src\gd32f4xx_rtc.c **** }
 1695              		.loc 1 572 1
 1696 0082 00BF     		nop
 1697 0084 1437     		adds	r7, r7, #20
 1698              		.cfi_def_cfa_offset 4
 1699 0086 BD46     		mov	sp, r7
 1700              		.cfi_def_cfa_register 13
 1701              		@ sp needed
 1702 0088 80BC     		pop	{r7}
 1703              		.cfi_restore 7
 1704              		.cfi_def_cfa_offset 0
 1705 008a 7047     		bx	lr
 1706              	.L83:
 1707              		.align	2
 1708              	.L82:
 1709 008c 30280040 		.word	1073752112
 1710 0090 34280040 		.word	1073752116
 1711              		.cfi_endproc
 1712              	.LFE138:
 1714              		.section	.text.rtc_timestamp_subsecond_get,"ax",%progbits
 1715              		.align	1
 1716              		.global	rtc_timestamp_subsecond_get
 1717              		.syntax unified
 1718              		.thumb
 1719              		.thumb_func
 1720              		.fpu softvfp
 1722              	rtc_timestamp_subsecond_get:
 1723              	.LFB139:
 573:C:/Users/leonardo/Desktop/Code/Github/DawnGBC/Libraries/FWLIB/src\gd32f4xx_rtc.c **** 
 574:C:/Users/leonardo/Desktop/Code/Github/DawnGBC/Libraries/FWLIB/src\gd32f4xx_rtc.c **** /*!
 575:C:/Users/leonardo/Desktop/Code/Github/DawnGBC/Libraries/FWLIB/src\gd32f4xx_rtc.c ****     \brief      get RTC time-stamp subsecond
 576:C:/Users/leonardo/Desktop/Code/Github/DawnGBC/Libraries/FWLIB/src\gd32f4xx_rtc.c ****     \param[in]  none
 577:C:/Users/leonardo/Desktop/Code/Github/DawnGBC/Libraries/FWLIB/src\gd32f4xx_rtc.c ****     \param[out] none
 578:C:/Users/leonardo/Desktop/Code/Github/DawnGBC/Libraries/FWLIB/src\gd32f4xx_rtc.c ****     \retval     RTC time-stamp subsecond value
 579:C:/Users/leonardo/Desktop/Code/Github/DawnGBC/Libraries/FWLIB/src\gd32f4xx_rtc.c **** */
 580:C:/Users/leonardo/Desktop/Code/Github/DawnGBC/Libraries/FWLIB/src\gd32f4xx_rtc.c **** uint32_t rtc_timestamp_subsecond_get(void)
 581:C:/Users/leonardo/Desktop/Code/Github/DawnGBC/Libraries/FWLIB/src\gd32f4xx_rtc.c **** {
 1724              		.loc 1 581 1
 1725              		.cfi_startproc
 1726              		@ args = 0, pretend = 0, frame = 0
 1727              		@ frame_needed = 1, uses_anonymous_args = 0
 1728              		@ link register save eliminated.
 1729 0000 80B4     		push	{r7}
 1730              		.cfi_def_cfa_offset 4
 1731              		.cfi_offset 7, -4
 1732 0002 00AF     		add	r7, sp, #0
 1733              		.cfi_def_cfa_register 7
 582:C:/Users/leonardo/Desktop/Code/Github/DawnGBC/Libraries/FWLIB/src\gd32f4xx_rtc.c ****     return ((uint32_t)RTC_SSTS);
 1734              		.loc 1 582 13
 1735 0004 024B     		ldr	r3, .L86
 1736 0006 1B68     		ldr	r3, [r3]
 583:C:/Users/leonardo/Desktop/Code/Github/DawnGBC/Libraries/FWLIB/src\gd32f4xx_rtc.c **** }
 1737              		.loc 1 583 1
 1738 0008 1846     		mov	r0, r3
 1739 000a BD46     		mov	sp, r7
 1740              		.cfi_def_cfa_register 13
 1741              		@ sp needed
 1742 000c 80BC     		pop	{r7}
 1743              		.cfi_restore 7
 1744              		.cfi_def_cfa_offset 0
 1745 000e 7047     		bx	lr
 1746              	.L87:
 1747              		.align	2
 1748              	.L86:
 1749 0010 38280040 		.word	1073752120
 1750              		.cfi_endproc
 1751              	.LFE139:
 1753              		.section	.text.rtc_timestamp_pin_map,"ax",%progbits
 1754              		.align	1
 1755              		.global	rtc_timestamp_pin_map
 1756              		.syntax unified
 1757              		.thumb
 1758              		.thumb_func
 1759              		.fpu softvfp
 1761              	rtc_timestamp_pin_map:
 1762              	.LFB140:
 584:C:/Users/leonardo/Desktop/Code/Github/DawnGBC/Libraries/FWLIB/src\gd32f4xx_rtc.c **** 
 585:C:/Users/leonardo/Desktop/Code/Github/DawnGBC/Libraries/FWLIB/src\gd32f4xx_rtc.c **** /*!
 586:C:/Users/leonardo/Desktop/Code/Github/DawnGBC/Libraries/FWLIB/src\gd32f4xx_rtc.c ****     \brief      RTC time-stamp mapping 
 587:C:/Users/leonardo/Desktop/Code/Github/DawnGBC/Libraries/FWLIB/src\gd32f4xx_rtc.c ****     \param[in]  rtc_af:
 588:C:/Users/leonardo/Desktop/Code/Github/DawnGBC/Libraries/FWLIB/src\gd32f4xx_rtc.c ****       \arg        RTC_AF0_TIMESTAMP: RTC_AF0 use for timestamp
 589:C:/Users/leonardo/Desktop/Code/Github/DawnGBC/Libraries/FWLIB/src\gd32f4xx_rtc.c ****       \arg        RTC_AF1_TIMESTAMP: RTC_AF1 use for timestamp
 590:C:/Users/leonardo/Desktop/Code/Github/DawnGBC/Libraries/FWLIB/src\gd32f4xx_rtc.c ****     \param[out] none
 591:C:/Users/leonardo/Desktop/Code/Github/DawnGBC/Libraries/FWLIB/src\gd32f4xx_rtc.c ****     \retval     none
 592:C:/Users/leonardo/Desktop/Code/Github/DawnGBC/Libraries/FWLIB/src\gd32f4xx_rtc.c **** */
 593:C:/Users/leonardo/Desktop/Code/Github/DawnGBC/Libraries/FWLIB/src\gd32f4xx_rtc.c **** void rtc_timestamp_pin_map(uint32_t rtc_af)
 594:C:/Users/leonardo/Desktop/Code/Github/DawnGBC/Libraries/FWLIB/src\gd32f4xx_rtc.c **** {
 1763              		.loc 1 594 1
 1764              		.cfi_startproc
 1765              		@ args = 0, pretend = 0, frame = 8
 1766              		@ frame_needed = 1, uses_anonymous_args = 0
 1767              		@ link register save eliminated.
 1768 0000 80B4     		push	{r7}
 1769              		.cfi_def_cfa_offset 4
 1770              		.cfi_offset 7, -4
 1771 0002 83B0     		sub	sp, sp, #12
 1772              		.cfi_def_cfa_offset 16
 1773 0004 00AF     		add	r7, sp, #0
 1774              		.cfi_def_cfa_register 7
 1775 0006 7860     		str	r0, [r7, #4]
 595:C:/Users/leonardo/Desktop/Code/Github/DawnGBC/Libraries/FWLIB/src\gd32f4xx_rtc.c ****     RTC_TAMP &= ~RTC_TAMP_TSSEL;
 1776              		.loc 1 595 14
 1777 0008 084B     		ldr	r3, .L89
 1778 000a 1B68     		ldr	r3, [r3]
 1779 000c 074A     		ldr	r2, .L89
 1780 000e 23F40033 		bic	r3, r3, #131072
 1781 0012 1360     		str	r3, [r2]
 596:C:/Users/leonardo/Desktop/Code/Github/DawnGBC/Libraries/FWLIB/src\gd32f4xx_rtc.c ****     RTC_TAMP |= rtc_af;
 1782              		.loc 1 596 14
 1783 0014 054B     		ldr	r3, .L89
 1784 0016 1A68     		ldr	r2, [r3]
 1785 0018 0449     		ldr	r1, .L89
 1786 001a 7B68     		ldr	r3, [r7, #4]
 1787 001c 1343     		orrs	r3, r3, r2
 1788 001e 0B60     		str	r3, [r1]
 597:C:/Users/leonardo/Desktop/Code/Github/DawnGBC/Libraries/FWLIB/src\gd32f4xx_rtc.c **** }
 1789              		.loc 1 597 1
 1790 0020 00BF     		nop
 1791 0022 0C37     		adds	r7, r7, #12
 1792              		.cfi_def_cfa_offset 4
 1793 0024 BD46     		mov	sp, r7
 1794              		.cfi_def_cfa_register 13
 1795              		@ sp needed
 1796 0026 80BC     		pop	{r7}
 1797              		.cfi_restore 7
 1798              		.cfi_def_cfa_offset 0
 1799 0028 7047     		bx	lr
 1800              	.L90:
 1801 002a 00BF     		.align	2
 1802              	.L89:
 1803 002c 40280040 		.word	1073752128
 1804              		.cfi_endproc
 1805              	.LFE140:
 1807              		.section	.text.rtc_tamper_enable,"ax",%progbits
 1808              		.align	1
 1809              		.global	rtc_tamper_enable
 1810              		.syntax unified
 1811              		.thumb
 1812              		.thumb_func
 1813              		.fpu softvfp
 1815              	rtc_tamper_enable:
 1816              	.LFB141:
 598:C:/Users/leonardo/Desktop/Code/Github/DawnGBC/Libraries/FWLIB/src\gd32f4xx_rtc.c **** 
 599:C:/Users/leonardo/Desktop/Code/Github/DawnGBC/Libraries/FWLIB/src\gd32f4xx_rtc.c **** /*!
 600:C:/Users/leonardo/Desktop/Code/Github/DawnGBC/Libraries/FWLIB/src\gd32f4xx_rtc.c ****     \brief      enable RTC tamper
 601:C:/Users/leonardo/Desktop/Code/Github/DawnGBC/Libraries/FWLIB/src\gd32f4xx_rtc.c ****     \param[in]  rtc_tamper: pointer to a rtc_tamper_struct structure which contains 
 602:C:/Users/leonardo/Desktop/Code/Github/DawnGBC/Libraries/FWLIB/src\gd32f4xx_rtc.c ****                 parameters for RTC tamper configuration
 603:C:/Users/leonardo/Desktop/Code/Github/DawnGBC/Libraries/FWLIB/src\gd32f4xx_rtc.c ****                 members of the structure and the member values are shown as below:
 604:C:/Users/leonardo/Desktop/Code/Github/DawnGBC/Libraries/FWLIB/src\gd32f4xx_rtc.c ****                   tamper_source: RTC_TAMPER0, RTC_TAMPER1
 605:C:/Users/leonardo/Desktop/Code/Github/DawnGBC/Libraries/FWLIB/src\gd32f4xx_rtc.c ****                   tamper_trigger: RTC_TAMPER_TRIGGER_EDGE_RISING, RTC_TAMPER_TRIGGER_EDGE_FALLING
 606:C:/Users/leonardo/Desktop/Code/Github/DawnGBC/Libraries/FWLIB/src\gd32f4xx_rtc.c ****                                       RTC_TAMPER_TRIGGER_LEVEL_LOW, RTC_TAMPER_TRIGGER_LEVEL_HIGH
 607:C:/Users/leonardo/Desktop/Code/Github/DawnGBC/Libraries/FWLIB/src\gd32f4xx_rtc.c ****                   tamper_filter: RTC_FLT_EDGE, RTC_FLT_2S, RTC_FLT_4S, RTC_FLT_8S
 608:C:/Users/leonardo/Desktop/Code/Github/DawnGBC/Libraries/FWLIB/src\gd32f4xx_rtc.c ****                   tamper_sample_frequency: RTC_FREQ_DIV32768, RTC_FREQ_DIV16384, RTC_FREQ_DIV8192,
 609:C:/Users/leonardo/Desktop/Code/Github/DawnGBC/Libraries/FWLIB/src\gd32f4xx_rtc.c ****                                                RTC_FREQ_DIV4096, RTC_FREQ_DIV2048, RTC_FREQ_DIV1024
 610:C:/Users/leonardo/Desktop/Code/Github/DawnGBC/Libraries/FWLIB/src\gd32f4xx_rtc.c ****                                                RTC_FREQ_DIV512, RTC_FREQ_DIV256
 611:C:/Users/leonardo/Desktop/Code/Github/DawnGBC/Libraries/FWLIB/src\gd32f4xx_rtc.c ****                   tamper_precharge_enable: DISABLE, ENABLE
 612:C:/Users/leonardo/Desktop/Code/Github/DawnGBC/Libraries/FWLIB/src\gd32f4xx_rtc.c ****                   tamper_precharge_time: RTC_PRCH_1C, RTC_PRCH_2C, RTC_PRCH_4C, RTC_PRCH_8C
 613:C:/Users/leonardo/Desktop/Code/Github/DawnGBC/Libraries/FWLIB/src\gd32f4xx_rtc.c ****                   tamper_with_timestamp: DISABLE, ENABLE
 614:C:/Users/leonardo/Desktop/Code/Github/DawnGBC/Libraries/FWLIB/src\gd32f4xx_rtc.c ****     \param[out] none
 615:C:/Users/leonardo/Desktop/Code/Github/DawnGBC/Libraries/FWLIB/src\gd32f4xx_rtc.c ****     \retval     none
 616:C:/Users/leonardo/Desktop/Code/Github/DawnGBC/Libraries/FWLIB/src\gd32f4xx_rtc.c **** */
 617:C:/Users/leonardo/Desktop/Code/Github/DawnGBC/Libraries/FWLIB/src\gd32f4xx_rtc.c **** void rtc_tamper_enable(rtc_tamper_struct* rtc_tamper)
 618:C:/Users/leonardo/Desktop/Code/Github/DawnGBC/Libraries/FWLIB/src\gd32f4xx_rtc.c **** {
 1817              		.loc 1 618 1
 1818              		.cfi_startproc
 1819              		@ args = 0, pretend = 0, frame = 8
 1820              		@ frame_needed = 1, uses_anonymous_args = 0
 1821              		@ link register save eliminated.
 1822 0000 80B4     		push	{r7}
 1823              		.cfi_def_cfa_offset 4
 1824              		.cfi_offset 7, -4
 1825 0002 83B0     		sub	sp, sp, #12
 1826              		.cfi_def_cfa_offset 16
 1827 0004 00AF     		add	r7, sp, #0
 1828              		.cfi_def_cfa_register 7
 1829 0006 7860     		str	r0, [r7, #4]
 619:C:/Users/leonardo/Desktop/Code/Github/DawnGBC/Libraries/FWLIB/src\gd32f4xx_rtc.c ****     /* disable tamper */
 620:C:/Users/leonardo/Desktop/Code/Github/DawnGBC/Libraries/FWLIB/src\gd32f4xx_rtc.c ****     RTC_TAMP &= (uint32_t)~(rtc_tamper->tamper_source); 
 1830              		.loc 1 620 14
 1831 0008 344B     		ldr	r3, .L97
 1832 000a 1A68     		ldr	r2, [r3]
 1833              		.loc 1 620 39
 1834 000c 7B68     		ldr	r3, [r7, #4]
 1835 000e 1B68     		ldr	r3, [r3]
 1836              		.loc 1 620 27
 1837 0010 DB43     		mvns	r3, r3
 1838              		.loc 1 620 14
 1839 0012 3249     		ldr	r1, .L97
 1840 0014 1340     		ands	r3, r3, r2
 1841 0016 0B60     		str	r3, [r1]
 621:C:/Users/leonardo/Desktop/Code/Github/DawnGBC/Libraries/FWLIB/src\gd32f4xx_rtc.c **** 
 622:C:/Users/leonardo/Desktop/Code/Github/DawnGBC/Libraries/FWLIB/src\gd32f4xx_rtc.c ****     /* tamper filter must be used when the tamper source is voltage level detection */
 623:C:/Users/leonardo/Desktop/Code/Github/DawnGBC/Libraries/FWLIB/src\gd32f4xx_rtc.c ****     RTC_TAMP &= (uint32_t)~RTC_TAMP_FLT;
 1842              		.loc 1 623 14
 1843 0018 304B     		ldr	r3, .L97
 1844 001a 1B68     		ldr	r3, [r3]
 1845 001c 2F4A     		ldr	r2, .L97
 1846 001e 23F4C053 		bic	r3, r3, #6144
 1847 0022 1360     		str	r3, [r2]
 624:C:/Users/leonardo/Desktop/Code/Github/DawnGBC/Libraries/FWLIB/src\gd32f4xx_rtc.c ****     
 625:C:/Users/leonardo/Desktop/Code/Github/DawnGBC/Libraries/FWLIB/src\gd32f4xx_rtc.c ****     /* the tamper source is voltage level detection */
 626:C:/Users/leonardo/Desktop/Code/Github/DawnGBC/Libraries/FWLIB/src\gd32f4xx_rtc.c ****     if((uint32_t)(rtc_tamper->tamper_filter) != RTC_FLT_EDGE ){ 
 1848              		.loc 1 626 29
 1849 0024 7B68     		ldr	r3, [r7, #4]
 1850 0026 9B68     		ldr	r3, [r3, #8]
 1851              		.loc 1 626 7
 1852 0028 002B     		cmp	r3, #0
 1853 002a 25D0     		beq	.L92
 627:C:/Users/leonardo/Desktop/Code/Github/DawnGBC/Libraries/FWLIB/src\gd32f4xx_rtc.c ****         RTC_TAMP &= (uint32_t)~(RTC_TAMP_DISPU | RTC_TAMP_PRCH | RTC_TAMP_FREQ | RTC_TAMP_FLT);
 1854              		.loc 1 627 18
 1855 002c 2B4B     		ldr	r3, .L97
 1856 002e 1B68     		ldr	r3, [r3]
 1857 0030 2A4A     		ldr	r2, .L97
 1858 0032 23F47F43 		bic	r3, r3, #65280
 1859 0036 1360     		str	r3, [r2]
 628:C:/Users/leonardo/Desktop/Code/Github/DawnGBC/Libraries/FWLIB/src\gd32f4xx_rtc.c **** 
 629:C:/Users/leonardo/Desktop/Code/Github/DawnGBC/Libraries/FWLIB/src\gd32f4xx_rtc.c ****         /* check if the tamper pin need precharge, if need, then configure the precharge time */
 630:C:/Users/leonardo/Desktop/Code/Github/DawnGBC/Libraries/FWLIB/src\gd32f4xx_rtc.c ****         if(DISABLE == rtc_tamper->tamper_precharge_enable){
 1860              		.loc 1 630 33
 1861 0038 7B68     		ldr	r3, [r7, #4]
 1862 003a 1B7C     		ldrb	r3, [r3, #16]	@ zero_extendqisi2
 1863              		.loc 1 630 11
 1864 003c 002B     		cmp	r3, #0
 1865 003e 06D1     		bne	.L93
 631:C:/Users/leonardo/Desktop/Code/Github/DawnGBC/Libraries/FWLIB/src\gd32f4xx_rtc.c ****             RTC_TAMP |=  (uint32_t)RTC_TAMP_DISPU;    
 1866              		.loc 1 631 22
 1867 0040 264B     		ldr	r3, .L97
 1868 0042 1B68     		ldr	r3, [r3]
 1869 0044 254A     		ldr	r2, .L97
 1870 0046 43F40043 		orr	r3, r3, #32768
 1871 004a 1360     		str	r3, [r2]
 1872 004c 06E0     		b	.L94
 1873              	.L93:
 632:C:/Users/leonardo/Desktop/Code/Github/DawnGBC/Libraries/FWLIB/src\gd32f4xx_rtc.c ****         }else{
 633:C:/Users/leonardo/Desktop/Code/Github/DawnGBC/Libraries/FWLIB/src\gd32f4xx_rtc.c ****             RTC_TAMP |= (uint32_t)(rtc_tamper->tamper_precharge_time);
 1874              		.loc 1 633 22
 1875 004e 234B     		ldr	r3, .L97
 1876 0050 1A68     		ldr	r2, [r3]
 1877              		.loc 1 633 46
 1878 0052 7B68     		ldr	r3, [r7, #4]
 1879 0054 5B69     		ldr	r3, [r3, #20]
 1880              		.loc 1 633 22
 1881 0056 2149     		ldr	r1, .L97
 1882 0058 1343     		orrs	r3, r3, r2
 1883 005a 0B60     		str	r3, [r1]
 1884              	.L94:
 634:C:/Users/leonardo/Desktop/Code/Github/DawnGBC/Libraries/FWLIB/src\gd32f4xx_rtc.c ****         }
 635:C:/Users/leonardo/Desktop/Code/Github/DawnGBC/Libraries/FWLIB/src\gd32f4xx_rtc.c **** 
 636:C:/Users/leonardo/Desktop/Code/Github/DawnGBC/Libraries/FWLIB/src\gd32f4xx_rtc.c ****         RTC_TAMP |= (uint32_t)(rtc_tamper->tamper_sample_frequency);
 1885              		.loc 1 636 18
 1886 005c 1F4B     		ldr	r3, .L97
 1887 005e 1A68     		ldr	r2, [r3]
 1888              		.loc 1 636 42
 1889 0060 7B68     		ldr	r3, [r7, #4]
 1890 0062 DB68     		ldr	r3, [r3, #12]
 1891              		.loc 1 636 18
 1892 0064 1D49     		ldr	r1, .L97
 1893 0066 1343     		orrs	r3, r3, r2
 1894 0068 0B60     		str	r3, [r1]
 637:C:/Users/leonardo/Desktop/Code/Github/DawnGBC/Libraries/FWLIB/src\gd32f4xx_rtc.c ****         RTC_TAMP |= (uint32_t)(rtc_tamper->tamper_filter);
 1895              		.loc 1 637 18
 1896 006a 1C4B     		ldr	r3, .L97
 1897 006c 1A68     		ldr	r2, [r3]
 1898              		.loc 1 637 42
 1899 006e 7B68     		ldr	r3, [r7, #4]
 1900 0070 9B68     		ldr	r3, [r3, #8]
 1901              		.loc 1 637 18
 1902 0072 1A49     		ldr	r1, .L97
 1903 0074 1343     		orrs	r3, r3, r2
 1904 0076 0B60     		str	r3, [r1]
 1905              	.L92:
 638:C:/Users/leonardo/Desktop/Code/Github/DawnGBC/Libraries/FWLIB/src\gd32f4xx_rtc.c ****     }
 639:C:/Users/leonardo/Desktop/Code/Github/DawnGBC/Libraries/FWLIB/src\gd32f4xx_rtc.c ****     
 640:C:/Users/leonardo/Desktop/Code/Github/DawnGBC/Libraries/FWLIB/src\gd32f4xx_rtc.c ****     RTC_TAMP &= (uint32_t)~RTC_TAMP_TPTS;  
 1906              		.loc 1 640 14
 1907 0078 184B     		ldr	r3, .L97
 1908 007a 1B68     		ldr	r3, [r3]
 1909 007c 174A     		ldr	r2, .L97
 1910 007e 23F08003 		bic	r3, r3, #128
 1911 0082 1360     		str	r3, [r2]
 641:C:/Users/leonardo/Desktop/Code/Github/DawnGBC/Libraries/FWLIB/src\gd32f4xx_rtc.c ****     
 642:C:/Users/leonardo/Desktop/Code/Github/DawnGBC/Libraries/FWLIB/src\gd32f4xx_rtc.c ****     if(DISABLE != rtc_tamper->tamper_with_timestamp){           
 1912              		.loc 1 642 29
 1913 0084 7B68     		ldr	r3, [r7, #4]
 1914 0086 1B7E     		ldrb	r3, [r3, #24]	@ zero_extendqisi2
 1915              		.loc 1 642 7
 1916 0088 002B     		cmp	r3, #0
 1917 008a 05D0     		beq	.L95
 643:C:/Users/leonardo/Desktop/Code/Github/DawnGBC/Libraries/FWLIB/src\gd32f4xx_rtc.c ****         /* the tamper event also cause a time-stamp event */
 644:C:/Users/leonardo/Desktop/Code/Github/DawnGBC/Libraries/FWLIB/src\gd32f4xx_rtc.c ****         RTC_TAMP |= (uint32_t)RTC_TAMP_TPTS;
 1918              		.loc 1 644 18
 1919 008c 134B     		ldr	r3, .L97
 1920 008e 1B68     		ldr	r3, [r3]
 1921 0090 124A     		ldr	r2, .L97
 1922 0092 43F08003 		orr	r3, r3, #128
 1923 0096 1360     		str	r3, [r2]
 1924              	.L95:
 645:C:/Users/leonardo/Desktop/Code/Github/DawnGBC/Libraries/FWLIB/src\gd32f4xx_rtc.c ****     } 
 646:C:/Users/leonardo/Desktop/Code/Github/DawnGBC/Libraries/FWLIB/src\gd32f4xx_rtc.c ****     
 647:C:/Users/leonardo/Desktop/Code/Github/DawnGBC/Libraries/FWLIB/src\gd32f4xx_rtc.c ****     /* configure the tamper trigger */
 648:C:/Users/leonardo/Desktop/Code/Github/DawnGBC/Libraries/FWLIB/src\gd32f4xx_rtc.c ****     RTC_TAMP &= ((uint32_t)~((rtc_tamper->tamper_source) << RTC_TAMPER_TRIGGER_POS));    
 1925              		.loc 1 648 14
 1926 0098 104B     		ldr	r3, .L97
 1927 009a 1A68     		ldr	r2, [r3]
 1928              		.loc 1 648 41
 1929 009c 7B68     		ldr	r3, [r7, #4]
 1930 009e 1B68     		ldr	r3, [r3]
 1931              		.loc 1 648 58
 1932 00a0 5B00     		lsls	r3, r3, #1
 1933              		.loc 1 648 28
 1934 00a2 DB43     		mvns	r3, r3
 1935              		.loc 1 648 14
 1936 00a4 0D49     		ldr	r1, .L97
 1937 00a6 1340     		ands	r3, r3, r2
 1938 00a8 0B60     		str	r3, [r1]
 649:C:/Users/leonardo/Desktop/Code/Github/DawnGBC/Libraries/FWLIB/src\gd32f4xx_rtc.c ****     if(RTC_TAMPER_TRIGGER_EDGE_RISING != rtc_tamper->tamper_trigger){
 1939              		.loc 1 649 52
 1940 00aa 7B68     		ldr	r3, [r7, #4]
 1941 00ac 5B68     		ldr	r3, [r3, #4]
 1942              		.loc 1 649 7
 1943 00ae 002B     		cmp	r3, #0
 1944 00b0 07D0     		beq	.L96
 650:C:/Users/leonardo/Desktop/Code/Github/DawnGBC/Libraries/FWLIB/src\gd32f4xx_rtc.c ****         RTC_TAMP |= (uint32_t)((rtc_tamper->tamper_source)<< RTC_TAMPER_TRIGGER_POS);  
 1945              		.loc 1 650 18
 1946 00b2 0A4B     		ldr	r3, .L97
 1947 00b4 1A68     		ldr	r2, [r3]
 1948              		.loc 1 650 43
 1949 00b6 7B68     		ldr	r3, [r7, #4]
 1950 00b8 1B68     		ldr	r3, [r3]
 1951              		.loc 1 650 59
 1952 00ba 5B00     		lsls	r3, r3, #1
 1953              		.loc 1 650 18
 1954 00bc 0749     		ldr	r1, .L97
 1955 00be 1343     		orrs	r3, r3, r2
 1956 00c0 0B60     		str	r3, [r1]
 1957              	.L96:
 651:C:/Users/leonardo/Desktop/Code/Github/DawnGBC/Libraries/FWLIB/src\gd32f4xx_rtc.c ****     }    
 652:C:/Users/leonardo/Desktop/Code/Github/DawnGBC/Libraries/FWLIB/src\gd32f4xx_rtc.c ****     /* enable tamper */
 653:C:/Users/leonardo/Desktop/Code/Github/DawnGBC/Libraries/FWLIB/src\gd32f4xx_rtc.c ****     RTC_TAMP |=  (uint32_t)(rtc_tamper->tamper_source); 
 1958              		.loc 1 653 14
 1959 00c2 064B     		ldr	r3, .L97
 1960 00c4 1A68     		ldr	r2, [r3]
 1961              		.loc 1 653 39
 1962 00c6 7B68     		ldr	r3, [r7, #4]
 1963 00c8 1B68     		ldr	r3, [r3]
 1964              		.loc 1 653 14
 1965 00ca 0449     		ldr	r1, .L97
 1966 00cc 1343     		orrs	r3, r3, r2
 1967 00ce 0B60     		str	r3, [r1]
 654:C:/Users/leonardo/Desktop/Code/Github/DawnGBC/Libraries/FWLIB/src\gd32f4xx_rtc.c **** }
 1968              		.loc 1 654 1
 1969 00d0 00BF     		nop
 1970 00d2 0C37     		adds	r7, r7, #12
 1971              		.cfi_def_cfa_offset 4
 1972 00d4 BD46     		mov	sp, r7
 1973              		.cfi_def_cfa_register 13
 1974              		@ sp needed
 1975 00d6 80BC     		pop	{r7}
 1976              		.cfi_restore 7
 1977              		.cfi_def_cfa_offset 0
 1978 00d8 7047     		bx	lr
 1979              	.L98:
 1980 00da 00BF     		.align	2
 1981              	.L97:
 1982 00dc 40280040 		.word	1073752128
 1983              		.cfi_endproc
 1984              	.LFE141:
 1986              		.section	.text.rtc_tamper_disable,"ax",%progbits
 1987              		.align	1
 1988              		.global	rtc_tamper_disable
 1989              		.syntax unified
 1990              		.thumb
 1991              		.thumb_func
 1992              		.fpu softvfp
 1994              	rtc_tamper_disable:
 1995              	.LFB142:
 655:C:/Users/leonardo/Desktop/Code/Github/DawnGBC/Libraries/FWLIB/src\gd32f4xx_rtc.c **** 
 656:C:/Users/leonardo/Desktop/Code/Github/DawnGBC/Libraries/FWLIB/src\gd32f4xx_rtc.c **** /*!
 657:C:/Users/leonardo/Desktop/Code/Github/DawnGBC/Libraries/FWLIB/src\gd32f4xx_rtc.c ****     \brief      disable RTC tamper
 658:C:/Users/leonardo/Desktop/Code/Github/DawnGBC/Libraries/FWLIB/src\gd32f4xx_rtc.c ****     \param[in]  source: specify which tamper source to be disabled
 659:C:/Users/leonardo/Desktop/Code/Github/DawnGBC/Libraries/FWLIB/src\gd32f4xx_rtc.c ****       \arg        RTC_TAMPER0
 660:C:/Users/leonardo/Desktop/Code/Github/DawnGBC/Libraries/FWLIB/src\gd32f4xx_rtc.c ****       \arg        RTC_TAMPER1
 661:C:/Users/leonardo/Desktop/Code/Github/DawnGBC/Libraries/FWLIB/src\gd32f4xx_rtc.c ****     \param[out] none
 662:C:/Users/leonardo/Desktop/Code/Github/DawnGBC/Libraries/FWLIB/src\gd32f4xx_rtc.c ****     \retval     none
 663:C:/Users/leonardo/Desktop/Code/Github/DawnGBC/Libraries/FWLIB/src\gd32f4xx_rtc.c **** */
 664:C:/Users/leonardo/Desktop/Code/Github/DawnGBC/Libraries/FWLIB/src\gd32f4xx_rtc.c **** void rtc_tamper_disable(uint32_t source)
 665:C:/Users/leonardo/Desktop/Code/Github/DawnGBC/Libraries/FWLIB/src\gd32f4xx_rtc.c **** {
 1996              		.loc 1 665 1
 1997              		.cfi_startproc
 1998              		@ args = 0, pretend = 0, frame = 8
 1999              		@ frame_needed = 1, uses_anonymous_args = 0
 2000              		@ link register save eliminated.
 2001 0000 80B4     		push	{r7}
 2002              		.cfi_def_cfa_offset 4
 2003              		.cfi_offset 7, -4
 2004 0002 83B0     		sub	sp, sp, #12
 2005              		.cfi_def_cfa_offset 16
 2006 0004 00AF     		add	r7, sp, #0
 2007              		.cfi_def_cfa_register 7
 2008 0006 7860     		str	r0, [r7, #4]
 666:C:/Users/leonardo/Desktop/Code/Github/DawnGBC/Libraries/FWLIB/src\gd32f4xx_rtc.c ****     /* disable tamper */
 667:C:/Users/leonardo/Desktop/Code/Github/DawnGBC/Libraries/FWLIB/src\gd32f4xx_rtc.c ****     RTC_TAMP &= (uint32_t)~source; 
 2009              		.loc 1 667 14
 2010 0008 054B     		ldr	r3, .L100
 2011 000a 1A68     		ldr	r2, [r3]
 2012              		.loc 1 667 27
 2013 000c 7B68     		ldr	r3, [r7, #4]
 2014 000e DB43     		mvns	r3, r3
 2015              		.loc 1 667 14
 2016 0010 0349     		ldr	r1, .L100
 2017 0012 1340     		ands	r3, r3, r2
 2018 0014 0B60     		str	r3, [r1]
 668:C:/Users/leonardo/Desktop/Code/Github/DawnGBC/Libraries/FWLIB/src\gd32f4xx_rtc.c **** 
 669:C:/Users/leonardo/Desktop/Code/Github/DawnGBC/Libraries/FWLIB/src\gd32f4xx_rtc.c **** }
 2019              		.loc 1 669 1
 2020 0016 00BF     		nop
 2021 0018 0C37     		adds	r7, r7, #12
 2022              		.cfi_def_cfa_offset 4
 2023 001a BD46     		mov	sp, r7
 2024              		.cfi_def_cfa_register 13
 2025              		@ sp needed
 2026 001c 80BC     		pop	{r7}
 2027              		.cfi_restore 7
 2028              		.cfi_def_cfa_offset 0
 2029 001e 7047     		bx	lr
 2030              	.L101:
 2031              		.align	2
 2032              	.L100:
 2033 0020 40280040 		.word	1073752128
 2034              		.cfi_endproc
 2035              	.LFE142:
 2037              		.section	.text.rtc_tamper0_pin_map,"ax",%progbits
 2038              		.align	1
 2039              		.global	rtc_tamper0_pin_map
 2040              		.syntax unified
 2041              		.thumb
 2042              		.thumb_func
 2043              		.fpu softvfp
 2045              	rtc_tamper0_pin_map:
 2046              	.LFB143:
 670:C:/Users/leonardo/Desktop/Code/Github/DawnGBC/Libraries/FWLIB/src\gd32f4xx_rtc.c **** 
 671:C:/Users/leonardo/Desktop/Code/Github/DawnGBC/Libraries/FWLIB/src\gd32f4xx_rtc.c **** /*!
 672:C:/Users/leonardo/Desktop/Code/Github/DawnGBC/Libraries/FWLIB/src\gd32f4xx_rtc.c ****     \brief      RTC tamper0 mapping 
 673:C:/Users/leonardo/Desktop/Code/Github/DawnGBC/Libraries/FWLIB/src\gd32f4xx_rtc.c ****     \param[in]  rtc_af:
 674:C:/Users/leonardo/Desktop/Code/Github/DawnGBC/Libraries/FWLIB/src\gd32f4xx_rtc.c ****       \arg        RTC_AF0_TAMPER0: RTC_AF0 use for tamper0
 675:C:/Users/leonardo/Desktop/Code/Github/DawnGBC/Libraries/FWLIB/src\gd32f4xx_rtc.c ****       \arg        RTC_AF1_TAMPER0: RTC_AF1 use for tamper0
 676:C:/Users/leonardo/Desktop/Code/Github/DawnGBC/Libraries/FWLIB/src\gd32f4xx_rtc.c ****     \param[out] none
 677:C:/Users/leonardo/Desktop/Code/Github/DawnGBC/Libraries/FWLIB/src\gd32f4xx_rtc.c ****     \retval     none
 678:C:/Users/leonardo/Desktop/Code/Github/DawnGBC/Libraries/FWLIB/src\gd32f4xx_rtc.c **** */
 679:C:/Users/leonardo/Desktop/Code/Github/DawnGBC/Libraries/FWLIB/src\gd32f4xx_rtc.c **** void rtc_tamper0_pin_map(uint32_t rtc_af)
 680:C:/Users/leonardo/Desktop/Code/Github/DawnGBC/Libraries/FWLIB/src\gd32f4xx_rtc.c **** {
 2047              		.loc 1 680 1
 2048              		.cfi_startproc
 2049              		@ args = 0, pretend = 0, frame = 8
 2050              		@ frame_needed = 1, uses_anonymous_args = 0
 2051              		@ link register save eliminated.
 2052 0000 80B4     		push	{r7}
 2053              		.cfi_def_cfa_offset 4
 2054              		.cfi_offset 7, -4
 2055 0002 83B0     		sub	sp, sp, #12
 2056              		.cfi_def_cfa_offset 16
 2057 0004 00AF     		add	r7, sp, #0
 2058              		.cfi_def_cfa_register 7
 2059 0006 7860     		str	r0, [r7, #4]
 681:C:/Users/leonardo/Desktop/Code/Github/DawnGBC/Libraries/FWLIB/src\gd32f4xx_rtc.c ****     RTC_TAMP &= ~(RTC_TAMP_TP0EN | RTC_TAMP_TP0SEL);
 2060              		.loc 1 681 14
 2061 0008 084B     		ldr	r3, .L103
 2062 000a 1B68     		ldr	r3, [r3]
 2063 000c 074A     		ldr	r2, .L103
 2064 000e 23F00113 		bic	r3, r3, #65537
 2065 0012 1360     		str	r3, [r2]
 682:C:/Users/leonardo/Desktop/Code/Github/DawnGBC/Libraries/FWLIB/src\gd32f4xx_rtc.c ****     RTC_TAMP |= rtc_af;
 2066              		.loc 1 682 14
 2067 0014 054B     		ldr	r3, .L103
 2068 0016 1A68     		ldr	r2, [r3]
 2069 0018 0449     		ldr	r1, .L103
 2070 001a 7B68     		ldr	r3, [r7, #4]
 2071 001c 1343     		orrs	r3, r3, r2
 2072 001e 0B60     		str	r3, [r1]
 683:C:/Users/leonardo/Desktop/Code/Github/DawnGBC/Libraries/FWLIB/src\gd32f4xx_rtc.c **** }
 2073              		.loc 1 683 1
 2074 0020 00BF     		nop
 2075 0022 0C37     		adds	r7, r7, #12
 2076              		.cfi_def_cfa_offset 4
 2077 0024 BD46     		mov	sp, r7
 2078              		.cfi_def_cfa_register 13
 2079              		@ sp needed
 2080 0026 80BC     		pop	{r7}
 2081              		.cfi_restore 7
 2082              		.cfi_def_cfa_offset 0
 2083 0028 7047     		bx	lr
 2084              	.L104:
 2085 002a 00BF     		.align	2
 2086              	.L103:
 2087 002c 40280040 		.word	1073752128
 2088              		.cfi_endproc
 2089              	.LFE143:
 2091              		.section	.text.rtc_interrupt_enable,"ax",%progbits
 2092              		.align	1
 2093              		.global	rtc_interrupt_enable
 2094              		.syntax unified
 2095              		.thumb
 2096              		.thumb_func
 2097              		.fpu softvfp
 2099              	rtc_interrupt_enable:
 2100              	.LFB144:
 684:C:/Users/leonardo/Desktop/Code/Github/DawnGBC/Libraries/FWLIB/src\gd32f4xx_rtc.c **** /*!
 685:C:/Users/leonardo/Desktop/Code/Github/DawnGBC/Libraries/FWLIB/src\gd32f4xx_rtc.c ****     \brief      enable specified RTC interrupt
 686:C:/Users/leonardo/Desktop/Code/Github/DawnGBC/Libraries/FWLIB/src\gd32f4xx_rtc.c ****     \param[in]  interrupt: specify which interrupt source to be enabled
 687:C:/Users/leonardo/Desktop/Code/Github/DawnGBC/Libraries/FWLIB/src\gd32f4xx_rtc.c ****       \arg        RTC_INT_TIMESTAMP: timestamp interrupt
 688:C:/Users/leonardo/Desktop/Code/Github/DawnGBC/Libraries/FWLIB/src\gd32f4xx_rtc.c ****       \arg        RTC_INT_ALARM0: alarm0 interrupt
 689:C:/Users/leonardo/Desktop/Code/Github/DawnGBC/Libraries/FWLIB/src\gd32f4xx_rtc.c ****       \arg        RTC_INT_ALARM1: alarm1 interrupt
 690:C:/Users/leonardo/Desktop/Code/Github/DawnGBC/Libraries/FWLIB/src\gd32f4xx_rtc.c ****       \arg        RTC_INT_TAMP: tamp interrupt
 691:C:/Users/leonardo/Desktop/Code/Github/DawnGBC/Libraries/FWLIB/src\gd32f4xx_rtc.c ****       \arg        RTC_INT_WAKEUP: wakeup timer interrupt
 692:C:/Users/leonardo/Desktop/Code/Github/DawnGBC/Libraries/FWLIB/src\gd32f4xx_rtc.c ****     \param[out] none
 693:C:/Users/leonardo/Desktop/Code/Github/DawnGBC/Libraries/FWLIB/src\gd32f4xx_rtc.c ****     \retval     none
 694:C:/Users/leonardo/Desktop/Code/Github/DawnGBC/Libraries/FWLIB/src\gd32f4xx_rtc.c **** */
 695:C:/Users/leonardo/Desktop/Code/Github/DawnGBC/Libraries/FWLIB/src\gd32f4xx_rtc.c **** void rtc_interrupt_enable(uint32_t interrupt)
 696:C:/Users/leonardo/Desktop/Code/Github/DawnGBC/Libraries/FWLIB/src\gd32f4xx_rtc.c **** {  
 2101              		.loc 1 696 1
 2102              		.cfi_startproc
 2103              		@ args = 0, pretend = 0, frame = 8
 2104              		@ frame_needed = 1, uses_anonymous_args = 0
 2105              		@ link register save eliminated.
 2106 0000 80B4     		push	{r7}
 2107              		.cfi_def_cfa_offset 4
 2108              		.cfi_offset 7, -4
 2109 0002 83B0     		sub	sp, sp, #12
 2110              		.cfi_def_cfa_offset 16
 2111 0004 00AF     		add	r7, sp, #0
 2112              		.cfi_def_cfa_register 7
 2113 0006 7860     		str	r0, [r7, #4]
 697:C:/Users/leonardo/Desktop/Code/Github/DawnGBC/Libraries/FWLIB/src\gd32f4xx_rtc.c ****     /* disable the write protection */
 698:C:/Users/leonardo/Desktop/Code/Github/DawnGBC/Libraries/FWLIB/src\gd32f4xx_rtc.c ****     RTC_WPK = RTC_UNLOCK_KEY1;
 2114              		.loc 1 698 5
 2115 0008 0E4B     		ldr	r3, .L106
 2116              		.loc 1 698 13
 2117 000a CA22     		movs	r2, #202
 2118 000c 1A60     		str	r2, [r3]
 699:C:/Users/leonardo/Desktop/Code/Github/DawnGBC/Libraries/FWLIB/src\gd32f4xx_rtc.c ****     RTC_WPK = RTC_UNLOCK_KEY2;
 2119              		.loc 1 699 5
 2120 000e 0D4B     		ldr	r3, .L106
 2121              		.loc 1 699 13
 2122 0010 5322     		movs	r2, #83
 2123 0012 1A60     		str	r2, [r3]
 700:C:/Users/leonardo/Desktop/Code/Github/DawnGBC/Libraries/FWLIB/src\gd32f4xx_rtc.c ****  
 701:C:/Users/leonardo/Desktop/Code/Github/DawnGBC/Libraries/FWLIB/src\gd32f4xx_rtc.c ****     /* enable the interrupts in RTC_CTL register */
 702:C:/Users/leonardo/Desktop/Code/Github/DawnGBC/Libraries/FWLIB/src\gd32f4xx_rtc.c ****     RTC_CTL |= (uint32_t)(interrupt & (uint32_t)~RTC_TAMP_TPIE);
 2124              		.loc 1 702 13
 2125 0014 0C4B     		ldr	r3, .L106+4
 2126 0016 1A68     		ldr	r2, [r3]
 2127              		.loc 1 702 16
 2128 0018 7B68     		ldr	r3, [r7, #4]
 2129 001a 23F00403 		bic	r3, r3, #4
 2130              		.loc 1 702 13
 2131 001e 0A49     		ldr	r1, .L106+4
 2132 0020 1343     		orrs	r3, r3, r2
 2133 0022 0B60     		str	r3, [r1]
 703:C:/Users/leonardo/Desktop/Code/Github/DawnGBC/Libraries/FWLIB/src\gd32f4xx_rtc.c ****     /* enable the interrupts in RTC_TAMP register */
 704:C:/Users/leonardo/Desktop/Code/Github/DawnGBC/Libraries/FWLIB/src\gd32f4xx_rtc.c ****     RTC_TAMP |= (uint32_t)(interrupt & RTC_TAMP_TPIE);
 2134              		.loc 1 704 14
 2135 0024 094B     		ldr	r3, .L106+8
 2136 0026 1A68     		ldr	r2, [r3]
 2137              		.loc 1 704 17
 2138 0028 7B68     		ldr	r3, [r7, #4]
 2139 002a 03F00403 		and	r3, r3, #4
 2140              		.loc 1 704 14
 2141 002e 0749     		ldr	r1, .L106+8
 2142 0030 1343     		orrs	r3, r3, r2
 2143 0032 0B60     		str	r3, [r1]
 705:C:/Users/leonardo/Desktop/Code/Github/DawnGBC/Libraries/FWLIB/src\gd32f4xx_rtc.c ****     
 706:C:/Users/leonardo/Desktop/Code/Github/DawnGBC/Libraries/FWLIB/src\gd32f4xx_rtc.c ****     /* enable the write protection */
 707:C:/Users/leonardo/Desktop/Code/Github/DawnGBC/Libraries/FWLIB/src\gd32f4xx_rtc.c ****     RTC_WPK = RTC_LOCK_KEY; 
 2144              		.loc 1 707 5
 2145 0034 034B     		ldr	r3, .L106
 2146              		.loc 1 707 13
 2147 0036 FF22     		movs	r2, #255
 2148 0038 1A60     		str	r2, [r3]
 708:C:/Users/leonardo/Desktop/Code/Github/DawnGBC/Libraries/FWLIB/src\gd32f4xx_rtc.c **** }
 2149              		.loc 1 708 1
 2150 003a 00BF     		nop
 2151 003c 0C37     		adds	r7, r7, #12
 2152              		.cfi_def_cfa_offset 4
 2153 003e BD46     		mov	sp, r7
 2154              		.cfi_def_cfa_register 13
 2155              		@ sp needed
 2156 0040 80BC     		pop	{r7}
 2157              		.cfi_restore 7
 2158              		.cfi_def_cfa_offset 0
 2159 0042 7047     		bx	lr
 2160              	.L107:
 2161              		.align	2
 2162              	.L106:
 2163 0044 24280040 		.word	1073752100
 2164 0048 08280040 		.word	1073752072
 2165 004c 40280040 		.word	1073752128
 2166              		.cfi_endproc
 2167              	.LFE144:
 2169              		.section	.text.rtc_interrupt_disable,"ax",%progbits
 2170              		.align	1
 2171              		.global	rtc_interrupt_disable
 2172              		.syntax unified
 2173              		.thumb
 2174              		.thumb_func
 2175              		.fpu softvfp
 2177              	rtc_interrupt_disable:
 2178              	.LFB145:
 709:C:/Users/leonardo/Desktop/Code/Github/DawnGBC/Libraries/FWLIB/src\gd32f4xx_rtc.c **** 
 710:C:/Users/leonardo/Desktop/Code/Github/DawnGBC/Libraries/FWLIB/src\gd32f4xx_rtc.c **** /*!
 711:C:/Users/leonardo/Desktop/Code/Github/DawnGBC/Libraries/FWLIB/src\gd32f4xx_rtc.c ****     \brief      disble specified RTC interrupt
 712:C:/Users/leonardo/Desktop/Code/Github/DawnGBC/Libraries/FWLIB/src\gd32f4xx_rtc.c ****     \param[in]  interrupt: specify which interrupt source to be disabled
 713:C:/Users/leonardo/Desktop/Code/Github/DawnGBC/Libraries/FWLIB/src\gd32f4xx_rtc.c ****       \arg        RTC_INT_TIMESTAMP: timestamp interrupt
 714:C:/Users/leonardo/Desktop/Code/Github/DawnGBC/Libraries/FWLIB/src\gd32f4xx_rtc.c ****       \arg        RTC_INT_ALARM0: alarm interrupt
 715:C:/Users/leonardo/Desktop/Code/Github/DawnGBC/Libraries/FWLIB/src\gd32f4xx_rtc.c ****       \arg        RTC_INT_ALARM1: alarm interrupt
 716:C:/Users/leonardo/Desktop/Code/Github/DawnGBC/Libraries/FWLIB/src\gd32f4xx_rtc.c ****       \arg        RTC_INT_TAMP: tamp interrupt
 717:C:/Users/leonardo/Desktop/Code/Github/DawnGBC/Libraries/FWLIB/src\gd32f4xx_rtc.c ****       \arg        RTC_INT_WAKEUP: wakeup timer interrupt
 718:C:/Users/leonardo/Desktop/Code/Github/DawnGBC/Libraries/FWLIB/src\gd32f4xx_rtc.c ****     \param[out] none
 719:C:/Users/leonardo/Desktop/Code/Github/DawnGBC/Libraries/FWLIB/src\gd32f4xx_rtc.c ****     \retval     none
 720:C:/Users/leonardo/Desktop/Code/Github/DawnGBC/Libraries/FWLIB/src\gd32f4xx_rtc.c **** */
 721:C:/Users/leonardo/Desktop/Code/Github/DawnGBC/Libraries/FWLIB/src\gd32f4xx_rtc.c **** void rtc_interrupt_disable(uint32_t interrupt)
 722:C:/Users/leonardo/Desktop/Code/Github/DawnGBC/Libraries/FWLIB/src\gd32f4xx_rtc.c **** {  
 2179              		.loc 1 722 1
 2180              		.cfi_startproc
 2181              		@ args = 0, pretend = 0, frame = 8
 2182              		@ frame_needed = 1, uses_anonymous_args = 0
 2183              		@ link register save eliminated.
 2184 0000 80B4     		push	{r7}
 2185              		.cfi_def_cfa_offset 4
 2186              		.cfi_offset 7, -4
 2187 0002 83B0     		sub	sp, sp, #12
 2188              		.cfi_def_cfa_offset 16
 2189 0004 00AF     		add	r7, sp, #0
 2190              		.cfi_def_cfa_register 7
 2191 0006 7860     		str	r0, [r7, #4]
 723:C:/Users/leonardo/Desktop/Code/Github/DawnGBC/Libraries/FWLIB/src\gd32f4xx_rtc.c ****     /* disable the write protection */
 724:C:/Users/leonardo/Desktop/Code/Github/DawnGBC/Libraries/FWLIB/src\gd32f4xx_rtc.c ****     RTC_WPK = RTC_UNLOCK_KEY1;
 2192              		.loc 1 724 5
 2193 0008 0F4B     		ldr	r3, .L109
 2194              		.loc 1 724 13
 2195 000a CA22     		movs	r2, #202
 2196 000c 1A60     		str	r2, [r3]
 725:C:/Users/leonardo/Desktop/Code/Github/DawnGBC/Libraries/FWLIB/src\gd32f4xx_rtc.c ****     RTC_WPK = RTC_UNLOCK_KEY2;
 2197              		.loc 1 725 5
 2198 000e 0E4B     		ldr	r3, .L109
 2199              		.loc 1 725 13
 2200 0010 5322     		movs	r2, #83
 2201 0012 1A60     		str	r2, [r3]
 726:C:/Users/leonardo/Desktop/Code/Github/DawnGBC/Libraries/FWLIB/src\gd32f4xx_rtc.c ****  
 727:C:/Users/leonardo/Desktop/Code/Github/DawnGBC/Libraries/FWLIB/src\gd32f4xx_rtc.c ****     /* disable the interrupts in RTC_CTL register */
 728:C:/Users/leonardo/Desktop/Code/Github/DawnGBC/Libraries/FWLIB/src\gd32f4xx_rtc.c ****     RTC_CTL &= (uint32_t)~(interrupt & (uint32_t)~RTC_TAMP_TPIE);
 2202              		.loc 1 728 13
 2203 0014 0D4B     		ldr	r3, .L109+4
 2204 0016 1A68     		ldr	r2, [r3]
 2205              		.loc 1 728 38
 2206 0018 7B68     		ldr	r3, [r7, #4]
 2207 001a 23F00403 		bic	r3, r3, #4
 2208              		.loc 1 728 16
 2209 001e DB43     		mvns	r3, r3
 2210              		.loc 1 728 13
 2211 0020 0A49     		ldr	r1, .L109+4
 2212 0022 1340     		ands	r3, r3, r2
 2213 0024 0B60     		str	r3, [r1]
 729:C:/Users/leonardo/Desktop/Code/Github/DawnGBC/Libraries/FWLIB/src\gd32f4xx_rtc.c ****     /* disable the interrupts in RTC_TAMP register */
 730:C:/Users/leonardo/Desktop/Code/Github/DawnGBC/Libraries/FWLIB/src\gd32f4xx_rtc.c ****     RTC_TAMP &= (uint32_t)~(interrupt & RTC_TAMP_TPIE);
 2214              		.loc 1 730 14
 2215 0026 0A4B     		ldr	r3, .L109+8
 2216 0028 1A68     		ldr	r2, [r3]
 2217              		.loc 1 730 39
 2218 002a 7B68     		ldr	r3, [r7, #4]
 2219 002c 03F00403 		and	r3, r3, #4
 2220              		.loc 1 730 17
 2221 0030 DB43     		mvns	r3, r3
 2222              		.loc 1 730 14
 2223 0032 0749     		ldr	r1, .L109+8
 2224 0034 1340     		ands	r3, r3, r2
 2225 0036 0B60     		str	r3, [r1]
 731:C:/Users/leonardo/Desktop/Code/Github/DawnGBC/Libraries/FWLIB/src\gd32f4xx_rtc.c **** 
 732:C:/Users/leonardo/Desktop/Code/Github/DawnGBC/Libraries/FWLIB/src\gd32f4xx_rtc.c ****     /* enable the write protection */
 733:C:/Users/leonardo/Desktop/Code/Github/DawnGBC/Libraries/FWLIB/src\gd32f4xx_rtc.c ****     RTC_WPK = RTC_LOCK_KEY;
 2226              		.loc 1 733 5
 2227 0038 034B     		ldr	r3, .L109
 2228              		.loc 1 733 13
 2229 003a FF22     		movs	r2, #255
 2230 003c 1A60     		str	r2, [r3]
 734:C:/Users/leonardo/Desktop/Code/Github/DawnGBC/Libraries/FWLIB/src\gd32f4xx_rtc.c **** }
 2231              		.loc 1 734 1
 2232 003e 00BF     		nop
 2233 0040 0C37     		adds	r7, r7, #12
 2234              		.cfi_def_cfa_offset 4
 2235 0042 BD46     		mov	sp, r7
 2236              		.cfi_def_cfa_register 13
 2237              		@ sp needed
 2238 0044 80BC     		pop	{r7}
 2239              		.cfi_restore 7
 2240              		.cfi_def_cfa_offset 0
 2241 0046 7047     		bx	lr
 2242              	.L110:
 2243              		.align	2
 2244              	.L109:
 2245 0048 24280040 		.word	1073752100
 2246 004c 08280040 		.word	1073752072
 2247 0050 40280040 		.word	1073752128
 2248              		.cfi_endproc
 2249              	.LFE145:
 2251              		.section	.text.rtc_flag_get,"ax",%progbits
 2252              		.align	1
 2253              		.global	rtc_flag_get
 2254              		.syntax unified
 2255              		.thumb
 2256              		.thumb_func
 2257              		.fpu softvfp
 2259              	rtc_flag_get:
 2260              	.LFB146:
 735:C:/Users/leonardo/Desktop/Code/Github/DawnGBC/Libraries/FWLIB/src\gd32f4xx_rtc.c **** 
 736:C:/Users/leonardo/Desktop/Code/Github/DawnGBC/Libraries/FWLIB/src\gd32f4xx_rtc.c **** /*!
 737:C:/Users/leonardo/Desktop/Code/Github/DawnGBC/Libraries/FWLIB/src\gd32f4xx_rtc.c ****     \brief      check specified flag
 738:C:/Users/leonardo/Desktop/Code/Github/DawnGBC/Libraries/FWLIB/src\gd32f4xx_rtc.c ****     \param[in]  flag: specify which flag to check
 739:C:/Users/leonardo/Desktop/Code/Github/DawnGBC/Libraries/FWLIB/src\gd32f4xx_rtc.c ****       \arg        RTC_STAT_RECPF: recalibration pending flag
 740:C:/Users/leonardo/Desktop/Code/Github/DawnGBC/Libraries/FWLIB/src\gd32f4xx_rtc.c ****       \arg        RTC_STAT_TP1F: tamper 1 event flag
 741:C:/Users/leonardo/Desktop/Code/Github/DawnGBC/Libraries/FWLIB/src\gd32f4xx_rtc.c ****       \arg        RTC_STAT_TP0F: tamper 0 event flag
 742:C:/Users/leonardo/Desktop/Code/Github/DawnGBC/Libraries/FWLIB/src\gd32f4xx_rtc.c ****       \arg        RTC_STAT_TSOVRF: time-stamp overflow event flag
 743:C:/Users/leonardo/Desktop/Code/Github/DawnGBC/Libraries/FWLIB/src\gd32f4xx_rtc.c ****       \arg        RTC_STAT_TSF: time-stamp event flag
 744:C:/Users/leonardo/Desktop/Code/Github/DawnGBC/Libraries/FWLIB/src\gd32f4xx_rtc.c ****       \arg        RTC_STAT_ALRM0F: alarm0 event flag
 745:C:/Users/leonardo/Desktop/Code/Github/DawnGBC/Libraries/FWLIB/src\gd32f4xx_rtc.c ****       \arg        RTC_STAT_ALRM1F: alarm1 event flag
 746:C:/Users/leonardo/Desktop/Code/Github/DawnGBC/Libraries/FWLIB/src\gd32f4xx_rtc.c ****       \arg        RTC_STAT_WTF: wakeup timer event flag
 747:C:/Users/leonardo/Desktop/Code/Github/DawnGBC/Libraries/FWLIB/src\gd32f4xx_rtc.c ****       \arg        RTC_STAT_INITF: init mode event flag
 748:C:/Users/leonardo/Desktop/Code/Github/DawnGBC/Libraries/FWLIB/src\gd32f4xx_rtc.c ****       \arg        RTC_STAT_RSYNF: time and date registers synchronized event flag
 749:C:/Users/leonardo/Desktop/Code/Github/DawnGBC/Libraries/FWLIB/src\gd32f4xx_rtc.c ****       \arg        RTC_STAT_YCM: year parameter configured event flag
 750:C:/Users/leonardo/Desktop/Code/Github/DawnGBC/Libraries/FWLIB/src\gd32f4xx_rtc.c ****       \arg        RTC_STAT_SOPF: shift operation pending flag
 751:C:/Users/leonardo/Desktop/Code/Github/DawnGBC/Libraries/FWLIB/src\gd32f4xx_rtc.c ****       \arg        RTC_STAT_ALRM0WF: alarm0 writen available flag
 752:C:/Users/leonardo/Desktop/Code/Github/DawnGBC/Libraries/FWLIB/src\gd32f4xx_rtc.c ****       \arg        RTC_STAT_ALRM1WF: alarm1 writen available flag
 753:C:/Users/leonardo/Desktop/Code/Github/DawnGBC/Libraries/FWLIB/src\gd32f4xx_rtc.c ****       \arg        RTC_STAT_WTWF: wakeup timer writen available flag
 754:C:/Users/leonardo/Desktop/Code/Github/DawnGBC/Libraries/FWLIB/src\gd32f4xx_rtc.c ****     \param[out] none
 755:C:/Users/leonardo/Desktop/Code/Github/DawnGBC/Libraries/FWLIB/src\gd32f4xx_rtc.c ****     \retval     FlagStatus: SET or RESET
 756:C:/Users/leonardo/Desktop/Code/Github/DawnGBC/Libraries/FWLIB/src\gd32f4xx_rtc.c **** */
 757:C:/Users/leonardo/Desktop/Code/Github/DawnGBC/Libraries/FWLIB/src\gd32f4xx_rtc.c **** FlagStatus rtc_flag_get(uint32_t flag)
 758:C:/Users/leonardo/Desktop/Code/Github/DawnGBC/Libraries/FWLIB/src\gd32f4xx_rtc.c **** {
 2261              		.loc 1 758 1
 2262              		.cfi_startproc
 2263              		@ args = 0, pretend = 0, frame = 16
 2264              		@ frame_needed = 1, uses_anonymous_args = 0
 2265              		@ link register save eliminated.
 2266 0000 80B4     		push	{r7}
 2267              		.cfi_def_cfa_offset 4
 2268              		.cfi_offset 7, -4
 2269 0002 85B0     		sub	sp, sp, #20
 2270              		.cfi_def_cfa_offset 24
 2271 0004 00AF     		add	r7, sp, #0
 2272              		.cfi_def_cfa_register 7
 2273 0006 7860     		str	r0, [r7, #4]
 759:C:/Users/leonardo/Desktop/Code/Github/DawnGBC/Libraries/FWLIB/src\gd32f4xx_rtc.c ****     FlagStatus flag_state = RESET;
 2274              		.loc 1 759 16
 2275 0008 0023     		movs	r3, #0
 2276 000a FB73     		strb	r3, [r7, #15]
 760:C:/Users/leonardo/Desktop/Code/Github/DawnGBC/Libraries/FWLIB/src\gd32f4xx_rtc.c ****     
 761:C:/Users/leonardo/Desktop/Code/Github/DawnGBC/Libraries/FWLIB/src\gd32f4xx_rtc.c ****     if ((uint32_t)RESET != (RTC_STAT & flag)){
 2277              		.loc 1 761 29
 2278 000c 064B     		ldr	r3, .L114
 2279 000e 1A68     		ldr	r2, [r3]
 2280              		.loc 1 761 38
 2281 0010 7B68     		ldr	r3, [r7, #4]
 2282 0012 1340     		ands	r3, r3, r2
 2283              		.loc 1 761 8
 2284 0014 002B     		cmp	r3, #0
 2285 0016 01D0     		beq	.L112
 762:C:/Users/leonardo/Desktop/Code/Github/DawnGBC/Libraries/FWLIB/src\gd32f4xx_rtc.c ****         flag_state = SET;
 2286              		.loc 1 762 20
 2287 0018 0123     		movs	r3, #1
 2288 001a FB73     		strb	r3, [r7, #15]
 2289              	.L112:
 763:C:/Users/leonardo/Desktop/Code/Github/DawnGBC/Libraries/FWLIB/src\gd32f4xx_rtc.c ****     }
 764:C:/Users/leonardo/Desktop/Code/Github/DawnGBC/Libraries/FWLIB/src\gd32f4xx_rtc.c ****     return flag_state;
 2290              		.loc 1 764 12
 2291 001c FB7B     		ldrb	r3, [r7, #15]	@ zero_extendqisi2
 765:C:/Users/leonardo/Desktop/Code/Github/DawnGBC/Libraries/FWLIB/src\gd32f4xx_rtc.c **** }
 2292              		.loc 1 765 1
 2293 001e 1846     		mov	r0, r3
 2294 0020 1437     		adds	r7, r7, #20
 2295              		.cfi_def_cfa_offset 4
 2296 0022 BD46     		mov	sp, r7
 2297              		.cfi_def_cfa_register 13
 2298              		@ sp needed
 2299 0024 80BC     		pop	{r7}
 2300              		.cfi_restore 7
 2301              		.cfi_def_cfa_offset 0
 2302 0026 7047     		bx	lr
 2303              	.L115:
 2304              		.align	2
 2305              	.L114:
 2306 0028 0C280040 		.word	1073752076
 2307              		.cfi_endproc
 2308              	.LFE146:
 2310              		.section	.text.rtc_flag_clear,"ax",%progbits
 2311              		.align	1
 2312              		.global	rtc_flag_clear
 2313              		.syntax unified
 2314              		.thumb
 2315              		.thumb_func
 2316              		.fpu softvfp
 2318              	rtc_flag_clear:
 2319              	.LFB147:
 766:C:/Users/leonardo/Desktop/Code/Github/DawnGBC/Libraries/FWLIB/src\gd32f4xx_rtc.c **** 
 767:C:/Users/leonardo/Desktop/Code/Github/DawnGBC/Libraries/FWLIB/src\gd32f4xx_rtc.c **** /*!
 768:C:/Users/leonardo/Desktop/Code/Github/DawnGBC/Libraries/FWLIB/src\gd32f4xx_rtc.c ****     \brief      clear specified flag
 769:C:/Users/leonardo/Desktop/Code/Github/DawnGBC/Libraries/FWLIB/src\gd32f4xx_rtc.c ****     \param[in]  flag: specify which flag to clear
 770:C:/Users/leonardo/Desktop/Code/Github/DawnGBC/Libraries/FWLIB/src\gd32f4xx_rtc.c ****       \arg        RTC_STAT_TP1F: tamper 1 event flag
 771:C:/Users/leonardo/Desktop/Code/Github/DawnGBC/Libraries/FWLIB/src\gd32f4xx_rtc.c ****       \arg        RTC_STAT_TP0F: tamper 0 event flag
 772:C:/Users/leonardo/Desktop/Code/Github/DawnGBC/Libraries/FWLIB/src\gd32f4xx_rtc.c ****       \arg        RTC_STAT_TSOVRF: time-stamp overflow event flag
 773:C:/Users/leonardo/Desktop/Code/Github/DawnGBC/Libraries/FWLIB/src\gd32f4xx_rtc.c ****       \arg        RTC_STAT_TSF: time-stamp event flag
 774:C:/Users/leonardo/Desktop/Code/Github/DawnGBC/Libraries/FWLIB/src\gd32f4xx_rtc.c ****       \arg        RTC_STAT_WTF: time-stamp event flag
 775:C:/Users/leonardo/Desktop/Code/Github/DawnGBC/Libraries/FWLIB/src\gd32f4xx_rtc.c ****       \arg        RTC_STAT_ALRM0F: alarm0 event flag
 776:C:/Users/leonardo/Desktop/Code/Github/DawnGBC/Libraries/FWLIB/src\gd32f4xx_rtc.c ****       \arg        RTC_STAT_ALRM1F: alarm1 event flag
 777:C:/Users/leonardo/Desktop/Code/Github/DawnGBC/Libraries/FWLIB/src\gd32f4xx_rtc.c ****       \arg        RTC_STAT_RSYNF: time and date registers synchronized event flag
 778:C:/Users/leonardo/Desktop/Code/Github/DawnGBC/Libraries/FWLIB/src\gd32f4xx_rtc.c ****     \param[out] none
 779:C:/Users/leonardo/Desktop/Code/Github/DawnGBC/Libraries/FWLIB/src\gd32f4xx_rtc.c ****     \retval     none
 780:C:/Users/leonardo/Desktop/Code/Github/DawnGBC/Libraries/FWLIB/src\gd32f4xx_rtc.c **** */
 781:C:/Users/leonardo/Desktop/Code/Github/DawnGBC/Libraries/FWLIB/src\gd32f4xx_rtc.c **** void rtc_flag_clear(uint32_t flag)
 782:C:/Users/leonardo/Desktop/Code/Github/DawnGBC/Libraries/FWLIB/src\gd32f4xx_rtc.c **** {
 2320              		.loc 1 782 1
 2321              		.cfi_startproc
 2322              		@ args = 0, pretend = 0, frame = 8
 2323              		@ frame_needed = 1, uses_anonymous_args = 0
 2324              		@ link register save eliminated.
 2325 0000 80B4     		push	{r7}
 2326              		.cfi_def_cfa_offset 4
 2327              		.cfi_offset 7, -4
 2328 0002 83B0     		sub	sp, sp, #12
 2329              		.cfi_def_cfa_offset 16
 2330 0004 00AF     		add	r7, sp, #0
 2331              		.cfi_def_cfa_register 7
 2332 0006 7860     		str	r0, [r7, #4]
 783:C:/Users/leonardo/Desktop/Code/Github/DawnGBC/Libraries/FWLIB/src\gd32f4xx_rtc.c ****     RTC_STAT &= (uint32_t)(~flag);  
 2333              		.loc 1 783 14
 2334 0008 054B     		ldr	r3, .L117
 2335 000a 1A68     		ldr	r2, [r3]
 2336              		.loc 1 783 28
 2337 000c 7B68     		ldr	r3, [r7, #4]
 2338 000e DB43     		mvns	r3, r3
 2339              		.loc 1 783 14
 2340 0010 0349     		ldr	r1, .L117
 2341 0012 1340     		ands	r3, r3, r2
 2342 0014 0B60     		str	r3, [r1]
 784:C:/Users/leonardo/Desktop/Code/Github/DawnGBC/Libraries/FWLIB/src\gd32f4xx_rtc.c **** }
 2343              		.loc 1 784 1
 2344 0016 00BF     		nop
 2345 0018 0C37     		adds	r7, r7, #12
 2346              		.cfi_def_cfa_offset 4
 2347 001a BD46     		mov	sp, r7
 2348              		.cfi_def_cfa_register 13
 2349              		@ sp needed
 2350 001c 80BC     		pop	{r7}
 2351              		.cfi_restore 7
 2352              		.cfi_def_cfa_offset 0
 2353 001e 7047     		bx	lr
 2354              	.L118:
 2355              		.align	2
 2356              	.L117:
 2357 0020 0C280040 		.word	1073752076
 2358              		.cfi_endproc
 2359              	.LFE147:
 2361              		.section	.text.rtc_alarm_output_config,"ax",%progbits
 2362              		.align	1
 2363              		.global	rtc_alarm_output_config
 2364              		.syntax unified
 2365              		.thumb
 2366              		.thumb_func
 2367              		.fpu softvfp
 2369              	rtc_alarm_output_config:
 2370              	.LFB148:
 785:C:/Users/leonardo/Desktop/Code/Github/DawnGBC/Libraries/FWLIB/src\gd32f4xx_rtc.c **** 
 786:C:/Users/leonardo/Desktop/Code/Github/DawnGBC/Libraries/FWLIB/src\gd32f4xx_rtc.c **** /*!
 787:C:/Users/leonardo/Desktop/Code/Github/DawnGBC/Libraries/FWLIB/src\gd32f4xx_rtc.c ****     \brief      configure rtc alarm output source
 788:C:/Users/leonardo/Desktop/Code/Github/DawnGBC/Libraries/FWLIB/src\gd32f4xx_rtc.c ****     \param[in]  source: specify signal to output
 789:C:/Users/leonardo/Desktop/Code/Github/DawnGBC/Libraries/FWLIB/src\gd32f4xx_rtc.c ****       \arg        RTC_ALARM0_HIGH: when the  alarm0 flag is set, the output pin is high
 790:C:/Users/leonardo/Desktop/Code/Github/DawnGBC/Libraries/FWLIB/src\gd32f4xx_rtc.c ****       \arg        RTC_ALARM0_LOW: when the  alarm0 flag is set, the output pin is low
 791:C:/Users/leonardo/Desktop/Code/Github/DawnGBC/Libraries/FWLIB/src\gd32f4xx_rtc.c ****       \arg        RTC_ALARM1_HIGH: when the  alarm1 flag is set, the output pin is high
 792:C:/Users/leonardo/Desktop/Code/Github/DawnGBC/Libraries/FWLIB/src\gd32f4xx_rtc.c ****       \arg        RTC_ALARM1_LOW: when the  alarm1 flag is set, the output pin is low
 793:C:/Users/leonardo/Desktop/Code/Github/DawnGBC/Libraries/FWLIB/src\gd32f4xx_rtc.c ****       \arg        RTC_WAKEUP_HIGH: when the  wakeup flag is set, the output pin is high
 794:C:/Users/leonardo/Desktop/Code/Github/DawnGBC/Libraries/FWLIB/src\gd32f4xx_rtc.c ****       \arg        RTC_WAKEUP_LOW: when the  wakeup flag is set, the output pin is low
 795:C:/Users/leonardo/Desktop/Code/Github/DawnGBC/Libraries/FWLIB/src\gd32f4xx_rtc.c ****     \param[in]  mode: specify the output pin mode when output alarm signal
 796:C:/Users/leonardo/Desktop/Code/Github/DawnGBC/Libraries/FWLIB/src\gd32f4xx_rtc.c ****       \arg        RTC_ALARM_OUTPUT_OD: open drain mode
 797:C:/Users/leonardo/Desktop/Code/Github/DawnGBC/Libraries/FWLIB/src\gd32f4xx_rtc.c ****       \arg        RTC_ALARM_OUTPUT_PP: push pull mode
 798:C:/Users/leonardo/Desktop/Code/Github/DawnGBC/Libraries/FWLIB/src\gd32f4xx_rtc.c ****     \param[out] none
 799:C:/Users/leonardo/Desktop/Code/Github/DawnGBC/Libraries/FWLIB/src\gd32f4xx_rtc.c ****     \retval     none
 800:C:/Users/leonardo/Desktop/Code/Github/DawnGBC/Libraries/FWLIB/src\gd32f4xx_rtc.c **** */
 801:C:/Users/leonardo/Desktop/Code/Github/DawnGBC/Libraries/FWLIB/src\gd32f4xx_rtc.c **** void rtc_alarm_output_config(uint32_t source, uint32_t mode)
 802:C:/Users/leonardo/Desktop/Code/Github/DawnGBC/Libraries/FWLIB/src\gd32f4xx_rtc.c **** {
 2371              		.loc 1 802 1
 2372              		.cfi_startproc
 2373              		@ args = 0, pretend = 0, frame = 8
 2374              		@ frame_needed = 1, uses_anonymous_args = 0
 2375              		@ link register save eliminated.
 2376 0000 80B4     		push	{r7}
 2377              		.cfi_def_cfa_offset 4
 2378              		.cfi_offset 7, -4
 2379 0002 83B0     		sub	sp, sp, #12
 2380              		.cfi_def_cfa_offset 16
 2381 0004 00AF     		add	r7, sp, #0
 2382              		.cfi_def_cfa_register 7
 2383 0006 7860     		str	r0, [r7, #4]
 2384 0008 3960     		str	r1, [r7]
 803:C:/Users/leonardo/Desktop/Code/Github/DawnGBC/Libraries/FWLIB/src\gd32f4xx_rtc.c ****     /* disable the write protection */
 804:C:/Users/leonardo/Desktop/Code/Github/DawnGBC/Libraries/FWLIB/src\gd32f4xx_rtc.c ****     RTC_WPK = RTC_UNLOCK_KEY1;
 2385              		.loc 1 804 5
 2386 000a 134B     		ldr	r3, .L120
 2387              		.loc 1 804 13
 2388 000c CA22     		movs	r2, #202
 2389 000e 1A60     		str	r2, [r3]
 805:C:/Users/leonardo/Desktop/Code/Github/DawnGBC/Libraries/FWLIB/src\gd32f4xx_rtc.c ****     RTC_WPK = RTC_UNLOCK_KEY2;
 2390              		.loc 1 805 5
 2391 0010 114B     		ldr	r3, .L120
 2392              		.loc 1 805 13
 2393 0012 5322     		movs	r2, #83
 2394 0014 1A60     		str	r2, [r3]
 806:C:/Users/leonardo/Desktop/Code/Github/DawnGBC/Libraries/FWLIB/src\gd32f4xx_rtc.c **** 
 807:C:/Users/leonardo/Desktop/Code/Github/DawnGBC/Libraries/FWLIB/src\gd32f4xx_rtc.c ****     RTC_CTL &= ~(RTC_CTL_OS | RTC_CTL_OPOL);
 2395              		.loc 1 807 13
 2396 0016 114B     		ldr	r3, .L120+4
 2397 0018 1B68     		ldr	r3, [r3]
 2398 001a 104A     		ldr	r2, .L120+4
 2399 001c 23F4E003 		bic	r3, r3, #7340032
 2400 0020 1360     		str	r3, [r2]
 808:C:/Users/leonardo/Desktop/Code/Github/DawnGBC/Libraries/FWLIB/src\gd32f4xx_rtc.c ****     RTC_TAMP &= ~RTC_TAMP_AOT;
 2401              		.loc 1 808 14
 2402 0022 0F4B     		ldr	r3, .L120+8
 2403 0024 1B68     		ldr	r3, [r3]
 2404 0026 0E4A     		ldr	r2, .L120+8
 2405 0028 23F48023 		bic	r3, r3, #262144
 2406 002c 1360     		str	r3, [r2]
 809:C:/Users/leonardo/Desktop/Code/Github/DawnGBC/Libraries/FWLIB/src\gd32f4xx_rtc.c **** 
 810:C:/Users/leonardo/Desktop/Code/Github/DawnGBC/Libraries/FWLIB/src\gd32f4xx_rtc.c ****     RTC_CTL |= (uint32_t)(source);
 2407              		.loc 1 810 13
 2408 002e 0B4B     		ldr	r3, .L120+4
 2409 0030 1A68     		ldr	r2, [r3]
 2410 0032 0A49     		ldr	r1, .L120+4
 2411 0034 7B68     		ldr	r3, [r7, #4]
 2412 0036 1343     		orrs	r3, r3, r2
 2413 0038 0B60     		str	r3, [r1]
 811:C:/Users/leonardo/Desktop/Code/Github/DawnGBC/Libraries/FWLIB/src\gd32f4xx_rtc.c ****     /* alarm output */
 812:C:/Users/leonardo/Desktop/Code/Github/DawnGBC/Libraries/FWLIB/src\gd32f4xx_rtc.c ****     RTC_TAMP |= (uint32_t)(mode);
 2414              		.loc 1 812 14
 2415 003a 094B     		ldr	r3, .L120+8
 2416 003c 1A68     		ldr	r2, [r3]
 2417 003e 0849     		ldr	r1, .L120+8
 2418 0040 3B68     		ldr	r3, [r7]
 2419 0042 1343     		orrs	r3, r3, r2
 2420 0044 0B60     		str	r3, [r1]
 813:C:/Users/leonardo/Desktop/Code/Github/DawnGBC/Libraries/FWLIB/src\gd32f4xx_rtc.c **** 
 814:C:/Users/leonardo/Desktop/Code/Github/DawnGBC/Libraries/FWLIB/src\gd32f4xx_rtc.c ****     /* enable the write protection */
 815:C:/Users/leonardo/Desktop/Code/Github/DawnGBC/Libraries/FWLIB/src\gd32f4xx_rtc.c ****     RTC_WPK = RTC_LOCK_KEY;
 2421              		.loc 1 815 5
 2422 0046 044B     		ldr	r3, .L120
 2423              		.loc 1 815 13
 2424 0048 FF22     		movs	r2, #255
 2425 004a 1A60     		str	r2, [r3]
 816:C:/Users/leonardo/Desktop/Code/Github/DawnGBC/Libraries/FWLIB/src\gd32f4xx_rtc.c **** }
 2426              		.loc 1 816 1
 2427 004c 00BF     		nop
 2428 004e 0C37     		adds	r7, r7, #12
 2429              		.cfi_def_cfa_offset 4
 2430 0050 BD46     		mov	sp, r7
 2431              		.cfi_def_cfa_register 13
 2432              		@ sp needed
 2433 0052 80BC     		pop	{r7}
 2434              		.cfi_restore 7
 2435              		.cfi_def_cfa_offset 0
 2436 0054 7047     		bx	lr
 2437              	.L121:
 2438 0056 00BF     		.align	2
 2439              	.L120:
 2440 0058 24280040 		.word	1073752100
 2441 005c 08280040 		.word	1073752072
 2442 0060 40280040 		.word	1073752128
 2443              		.cfi_endproc
 2444              	.LFE148:
 2446              		.section	.text.rtc_calibration_output_config,"ax",%progbits
 2447              		.align	1
 2448              		.global	rtc_calibration_output_config
 2449              		.syntax unified
 2450              		.thumb
 2451              		.thumb_func
 2452              		.fpu softvfp
 2454              	rtc_calibration_output_config:
 2455              	.LFB149:
 817:C:/Users/leonardo/Desktop/Code/Github/DawnGBC/Libraries/FWLIB/src\gd32f4xx_rtc.c **** 
 818:C:/Users/leonardo/Desktop/Code/Github/DawnGBC/Libraries/FWLIB/src\gd32f4xx_rtc.c **** /*!
 819:C:/Users/leonardo/Desktop/Code/Github/DawnGBC/Libraries/FWLIB/src\gd32f4xx_rtc.c ****     \brief      configure rtc calibration output source
 820:C:/Users/leonardo/Desktop/Code/Github/DawnGBC/Libraries/FWLIB/src\gd32f4xx_rtc.c ****     \param[in]  source: specify signal to output
 821:C:/Users/leonardo/Desktop/Code/Github/DawnGBC/Libraries/FWLIB/src\gd32f4xx_rtc.c ****       \arg        RTC_CALIBRATION_512HZ: when the LSE freqency is 32768Hz and the RTC_PSC 
 822:C:/Users/leonardo/Desktop/Code/Github/DawnGBC/Libraries/FWLIB/src\gd32f4xx_rtc.c ****                                          is the default value, output 512Hz signal
 823:C:/Users/leonardo/Desktop/Code/Github/DawnGBC/Libraries/FWLIB/src\gd32f4xx_rtc.c ****       \arg        RTC_CALIBRATION_1HZ: when the LSE freqency is 32768Hz and the RTC_PSC 
 824:C:/Users/leonardo/Desktop/Code/Github/DawnGBC/Libraries/FWLIB/src\gd32f4xx_rtc.c ****                                        is the default value, output 512Hz signal
 825:C:/Users/leonardo/Desktop/Code/Github/DawnGBC/Libraries/FWLIB/src\gd32f4xx_rtc.c ****     \param[out] none
 826:C:/Users/leonardo/Desktop/Code/Github/DawnGBC/Libraries/FWLIB/src\gd32f4xx_rtc.c ****     \retval     none
 827:C:/Users/leonardo/Desktop/Code/Github/DawnGBC/Libraries/FWLIB/src\gd32f4xx_rtc.c **** */
 828:C:/Users/leonardo/Desktop/Code/Github/DawnGBC/Libraries/FWLIB/src\gd32f4xx_rtc.c **** void rtc_calibration_output_config(uint32_t source)
 829:C:/Users/leonardo/Desktop/Code/Github/DawnGBC/Libraries/FWLIB/src\gd32f4xx_rtc.c **** {
 2456              		.loc 1 829 1
 2457              		.cfi_startproc
 2458              		@ args = 0, pretend = 0, frame = 8
 2459              		@ frame_needed = 1, uses_anonymous_args = 0
 2460              		@ link register save eliminated.
 2461 0000 80B4     		push	{r7}
 2462              		.cfi_def_cfa_offset 4
 2463              		.cfi_offset 7, -4
 2464 0002 83B0     		sub	sp, sp, #12
 2465              		.cfi_def_cfa_offset 16
 2466 0004 00AF     		add	r7, sp, #0
 2467              		.cfi_def_cfa_register 7
 2468 0006 7860     		str	r0, [r7, #4]
 830:C:/Users/leonardo/Desktop/Code/Github/DawnGBC/Libraries/FWLIB/src\gd32f4xx_rtc.c ****     /* disable the write protection */
 831:C:/Users/leonardo/Desktop/Code/Github/DawnGBC/Libraries/FWLIB/src\gd32f4xx_rtc.c ****     RTC_WPK = RTC_UNLOCK_KEY1;
 2469              		.loc 1 831 5
 2470 0008 0C4B     		ldr	r3, .L123
 2471              		.loc 1 831 13
 2472 000a CA22     		movs	r2, #202
 2473 000c 1A60     		str	r2, [r3]
 832:C:/Users/leonardo/Desktop/Code/Github/DawnGBC/Libraries/FWLIB/src\gd32f4xx_rtc.c ****     RTC_WPK = RTC_UNLOCK_KEY2;
 2474              		.loc 1 832 5
 2475 000e 0B4B     		ldr	r3, .L123
 2476              		.loc 1 832 13
 2477 0010 5322     		movs	r2, #83
 2478 0012 1A60     		str	r2, [r3]
 833:C:/Users/leonardo/Desktop/Code/Github/DawnGBC/Libraries/FWLIB/src\gd32f4xx_rtc.c **** 
 834:C:/Users/leonardo/Desktop/Code/Github/DawnGBC/Libraries/FWLIB/src\gd32f4xx_rtc.c ****     RTC_CTL &= (uint32_t)~(RTC_CTL_COEN | RTC_CTL_COS);
 2479              		.loc 1 834 13
 2480 0014 0A4B     		ldr	r3, .L123+4
 2481 0016 1B68     		ldr	r3, [r3]
 2482 0018 094A     		ldr	r2, .L123+4
 2483 001a 23F40803 		bic	r3, r3, #8912896
 2484 001e 1360     		str	r3, [r2]
 835:C:/Users/leonardo/Desktop/Code/Github/DawnGBC/Libraries/FWLIB/src\gd32f4xx_rtc.c **** 
 836:C:/Users/leonardo/Desktop/Code/Github/DawnGBC/Libraries/FWLIB/src\gd32f4xx_rtc.c ****     RTC_CTL |= (uint32_t)(source);
 2485              		.loc 1 836 13
 2486 0020 074B     		ldr	r3, .L123+4
 2487 0022 1A68     		ldr	r2, [r3]
 2488 0024 0649     		ldr	r1, .L123+4
 2489 0026 7B68     		ldr	r3, [r7, #4]
 2490 0028 1343     		orrs	r3, r3, r2
 2491 002a 0B60     		str	r3, [r1]
 837:C:/Users/leonardo/Desktop/Code/Github/DawnGBC/Libraries/FWLIB/src\gd32f4xx_rtc.c ****     /* enable the write protection */
 838:C:/Users/leonardo/Desktop/Code/Github/DawnGBC/Libraries/FWLIB/src\gd32f4xx_rtc.c ****     RTC_WPK = RTC_LOCK_KEY;
 2492              		.loc 1 838 5
 2493 002c 034B     		ldr	r3, .L123
 2494              		.loc 1 838 13
 2495 002e FF22     		movs	r2, #255
 2496 0030 1A60     		str	r2, [r3]
 839:C:/Users/leonardo/Desktop/Code/Github/DawnGBC/Libraries/FWLIB/src\gd32f4xx_rtc.c **** }
 2497              		.loc 1 839 1
 2498 0032 00BF     		nop
 2499 0034 0C37     		adds	r7, r7, #12
 2500              		.cfi_def_cfa_offset 4
 2501 0036 BD46     		mov	sp, r7
 2502              		.cfi_def_cfa_register 13
 2503              		@ sp needed
 2504 0038 80BC     		pop	{r7}
 2505              		.cfi_restore 7
 2506              		.cfi_def_cfa_offset 0
 2507 003a 7047     		bx	lr
 2508              	.L124:
 2509              		.align	2
 2510              	.L123:
 2511 003c 24280040 		.word	1073752100
 2512 0040 08280040 		.word	1073752072
 2513              		.cfi_endproc
 2514              	.LFE149:
 2516              		.section	.text.rtc_hour_adjust,"ax",%progbits
 2517              		.align	1
 2518              		.global	rtc_hour_adjust
 2519              		.syntax unified
 2520              		.thumb
 2521              		.thumb_func
 2522              		.fpu softvfp
 2524              	rtc_hour_adjust:
 2525              	.LFB150:
 840:C:/Users/leonardo/Desktop/Code/Github/DawnGBC/Libraries/FWLIB/src\gd32f4xx_rtc.c **** 
 841:C:/Users/leonardo/Desktop/Code/Github/DawnGBC/Libraries/FWLIB/src\gd32f4xx_rtc.c **** 
 842:C:/Users/leonardo/Desktop/Code/Github/DawnGBC/Libraries/FWLIB/src\gd32f4xx_rtc.c **** /*!
 843:C:/Users/leonardo/Desktop/Code/Github/DawnGBC/Libraries/FWLIB/src\gd32f4xx_rtc.c ****     \brief      adjust the daylight saving time by adding or substracting one hour from the current
 844:C:/Users/leonardo/Desktop/Code/Github/DawnGBC/Libraries/FWLIB/src\gd32f4xx_rtc.c ****     \param[in]  operation: hour adjustment operation
 845:C:/Users/leonardo/Desktop/Code/Github/DawnGBC/Libraries/FWLIB/src\gd32f4xx_rtc.c ****       \arg        RTC_CTL_A1H: add one hour
 846:C:/Users/leonardo/Desktop/Code/Github/DawnGBC/Libraries/FWLIB/src\gd32f4xx_rtc.c ****       \arg        RTC_CTL_S1H: substract one hour
 847:C:/Users/leonardo/Desktop/Code/Github/DawnGBC/Libraries/FWLIB/src\gd32f4xx_rtc.c ****     \param[out] none
 848:C:/Users/leonardo/Desktop/Code/Github/DawnGBC/Libraries/FWLIB/src\gd32f4xx_rtc.c ****     \retval     none
 849:C:/Users/leonardo/Desktop/Code/Github/DawnGBC/Libraries/FWLIB/src\gd32f4xx_rtc.c **** */
 850:C:/Users/leonardo/Desktop/Code/Github/DawnGBC/Libraries/FWLIB/src\gd32f4xx_rtc.c **** void rtc_hour_adjust(uint32_t operation)
 851:C:/Users/leonardo/Desktop/Code/Github/DawnGBC/Libraries/FWLIB/src\gd32f4xx_rtc.c **** {
 2526              		.loc 1 851 1
 2527              		.cfi_startproc
 2528              		@ args = 0, pretend = 0, frame = 8
 2529              		@ frame_needed = 1, uses_anonymous_args = 0
 2530              		@ link register save eliminated.
 2531 0000 80B4     		push	{r7}
 2532              		.cfi_def_cfa_offset 4
 2533              		.cfi_offset 7, -4
 2534 0002 83B0     		sub	sp, sp, #12
 2535              		.cfi_def_cfa_offset 16
 2536 0004 00AF     		add	r7, sp, #0
 2537              		.cfi_def_cfa_register 7
 2538 0006 7860     		str	r0, [r7, #4]
 852:C:/Users/leonardo/Desktop/Code/Github/DawnGBC/Libraries/FWLIB/src\gd32f4xx_rtc.c ****     /* disable the write protection */
 853:C:/Users/leonardo/Desktop/Code/Github/DawnGBC/Libraries/FWLIB/src\gd32f4xx_rtc.c ****     RTC_WPK = RTC_UNLOCK_KEY1;
 2539              		.loc 1 853 5
 2540 0008 094B     		ldr	r3, .L126
 2541              		.loc 1 853 13
 2542 000a CA22     		movs	r2, #202
 2543 000c 1A60     		str	r2, [r3]
 854:C:/Users/leonardo/Desktop/Code/Github/DawnGBC/Libraries/FWLIB/src\gd32f4xx_rtc.c ****     RTC_WPK = RTC_UNLOCK_KEY2;
 2544              		.loc 1 854 5
 2545 000e 084B     		ldr	r3, .L126
 2546              		.loc 1 854 13
 2547 0010 5322     		movs	r2, #83
 2548 0012 1A60     		str	r2, [r3]
 855:C:/Users/leonardo/Desktop/Code/Github/DawnGBC/Libraries/FWLIB/src\gd32f4xx_rtc.c ****     
 856:C:/Users/leonardo/Desktop/Code/Github/DawnGBC/Libraries/FWLIB/src\gd32f4xx_rtc.c ****     RTC_CTL |= (uint32_t)(operation);
 2549              		.loc 1 856 13
 2550 0014 074B     		ldr	r3, .L126+4
 2551 0016 1A68     		ldr	r2, [r3]
 2552 0018 0649     		ldr	r1, .L126+4
 2553 001a 7B68     		ldr	r3, [r7, #4]
 2554 001c 1343     		orrs	r3, r3, r2
 2555 001e 0B60     		str	r3, [r1]
 857:C:/Users/leonardo/Desktop/Code/Github/DawnGBC/Libraries/FWLIB/src\gd32f4xx_rtc.c **** 
 858:C:/Users/leonardo/Desktop/Code/Github/DawnGBC/Libraries/FWLIB/src\gd32f4xx_rtc.c ****     /* enable the write protection */
 859:C:/Users/leonardo/Desktop/Code/Github/DawnGBC/Libraries/FWLIB/src\gd32f4xx_rtc.c ****     RTC_WPK = RTC_LOCK_KEY;
 2556              		.loc 1 859 5
 2557 0020 034B     		ldr	r3, .L126
 2558              		.loc 1 859 13
 2559 0022 FF22     		movs	r2, #255
 2560 0024 1A60     		str	r2, [r3]
 860:C:/Users/leonardo/Desktop/Code/Github/DawnGBC/Libraries/FWLIB/src\gd32f4xx_rtc.c **** }
 2561              		.loc 1 860 1
 2562 0026 00BF     		nop
 2563 0028 0C37     		adds	r7, r7, #12
 2564              		.cfi_def_cfa_offset 4
 2565 002a BD46     		mov	sp, r7
 2566              		.cfi_def_cfa_register 13
 2567              		@ sp needed
 2568 002c 80BC     		pop	{r7}
 2569              		.cfi_restore 7
 2570              		.cfi_def_cfa_offset 0
 2571 002e 7047     		bx	lr
 2572              	.L127:
 2573              		.align	2
 2574              	.L126:
 2575 0030 24280040 		.word	1073752100
 2576 0034 08280040 		.word	1073752072
 2577              		.cfi_endproc
 2578              	.LFE150:
 2580              		.section	.text.rtc_second_adjust,"ax",%progbits
 2581              		.align	1
 2582              		.global	rtc_second_adjust
 2583              		.syntax unified
 2584              		.thumb
 2585              		.thumb_func
 2586              		.fpu softvfp
 2588              	rtc_second_adjust:
 2589              	.LFB151:
 861:C:/Users/leonardo/Desktop/Code/Github/DawnGBC/Libraries/FWLIB/src\gd32f4xx_rtc.c **** 
 862:C:/Users/leonardo/Desktop/Code/Github/DawnGBC/Libraries/FWLIB/src\gd32f4xx_rtc.c **** /*!
 863:C:/Users/leonardo/Desktop/Code/Github/DawnGBC/Libraries/FWLIB/src\gd32f4xx_rtc.c ****     \brief      adjust RTC second or subsecond value of current time
 864:C:/Users/leonardo/Desktop/Code/Github/DawnGBC/Libraries/FWLIB/src\gd32f4xx_rtc.c ****     \param[in]  add: add 1s to current time or not
 865:C:/Users/leonardo/Desktop/Code/Github/DawnGBC/Libraries/FWLIB/src\gd32f4xx_rtc.c ****       \arg        RTC_SHIFT_ADD1S_RESET: no effect
 866:C:/Users/leonardo/Desktop/Code/Github/DawnGBC/Libraries/FWLIB/src\gd32f4xx_rtc.c ****       \arg        RTC_SHIFT_ADD1S_SET: add 1s to current time
 867:C:/Users/leonardo/Desktop/Code/Github/DawnGBC/Libraries/FWLIB/src\gd32f4xx_rtc.c ****     \param[in]  minus: number of subsecond to minus from current time(0x0 - 0x7FFF)
 868:C:/Users/leonardo/Desktop/Code/Github/DawnGBC/Libraries/FWLIB/src\gd32f4xx_rtc.c ****     \param[out] none
 869:C:/Users/leonardo/Desktop/Code/Github/DawnGBC/Libraries/FWLIB/src\gd32f4xx_rtc.c ****     \retval     ErrStatus: ERROR or SUCCESS
 870:C:/Users/leonardo/Desktop/Code/Github/DawnGBC/Libraries/FWLIB/src\gd32f4xx_rtc.c **** */
 871:C:/Users/leonardo/Desktop/Code/Github/DawnGBC/Libraries/FWLIB/src\gd32f4xx_rtc.c **** ErrStatus rtc_second_adjust(uint32_t add, uint32_t minus)
 872:C:/Users/leonardo/Desktop/Code/Github/DawnGBC/Libraries/FWLIB/src\gd32f4xx_rtc.c **** {
 2590              		.loc 1 872 1
 2591              		.cfi_startproc
 2592              		@ args = 0, pretend = 0, frame = 24
 2593              		@ frame_needed = 1, uses_anonymous_args = 0
 2594 0000 80B5     		push	{r7, lr}
 2595              		.cfi_def_cfa_offset 8
 2596              		.cfi_offset 7, -8
 2597              		.cfi_offset 14, -4
 2598 0002 86B0     		sub	sp, sp, #24
 2599              		.cfi_def_cfa_offset 32
 2600 0004 00AF     		add	r7, sp, #0
 2601              		.cfi_def_cfa_register 7
 2602 0006 7860     		str	r0, [r7, #4]
 2603 0008 3960     		str	r1, [r7]
 873:C:/Users/leonardo/Desktop/Code/Github/DawnGBC/Libraries/FWLIB/src\gd32f4xx_rtc.c ****     volatile uint32_t time_index = RTC_SHIFTCTL_TIMEOUT;
 2604              		.loc 1 873 23
 2605 000a 4FF48053 		mov	r3, #4096
 2606 000e BB60     		str	r3, [r7, #8]
 874:C:/Users/leonardo/Desktop/Code/Github/DawnGBC/Libraries/FWLIB/src\gd32f4xx_rtc.c ****     ErrStatus error_status = ERROR;
 2607              		.loc 1 874 15
 2608 0010 0023     		movs	r3, #0
 2609 0012 FB75     		strb	r3, [r7, #23]
 875:C:/Users/leonardo/Desktop/Code/Github/DawnGBC/Libraries/FWLIB/src\gd32f4xx_rtc.c ****     uint32_t flag_status = RESET;
 2610              		.loc 1 875 14
 2611 0014 0023     		movs	r3, #0
 2612 0016 3B61     		str	r3, [r7, #16]
 876:C:/Users/leonardo/Desktop/Code/Github/DawnGBC/Libraries/FWLIB/src\gd32f4xx_rtc.c ****     uint32_t temp=0U;
 2613              		.loc 1 876 14
 2614 0018 0023     		movs	r3, #0
 2615 001a FB60     		str	r3, [r7, #12]
 877:C:/Users/leonardo/Desktop/Code/Github/DawnGBC/Libraries/FWLIB/src\gd32f4xx_rtc.c ****     /* disable the write protection */
 878:C:/Users/leonardo/Desktop/Code/Github/DawnGBC/Libraries/FWLIB/src\gd32f4xx_rtc.c ****     RTC_WPK = RTC_UNLOCK_KEY1;
 2616              		.loc 1 878 5
 2617 001c 184B     		ldr	r3, .L133
 2618              		.loc 1 878 13
 2619 001e CA22     		movs	r2, #202
 2620 0020 1A60     		str	r2, [r3]
 879:C:/Users/leonardo/Desktop/Code/Github/DawnGBC/Libraries/FWLIB/src\gd32f4xx_rtc.c ****     RTC_WPK = RTC_UNLOCK_KEY2;
 2621              		.loc 1 879 5
 2622 0022 174B     		ldr	r3, .L133
 2623              		.loc 1 879 13
 2624 0024 5322     		movs	r2, #83
 2625 0026 1A60     		str	r2, [r3]
 2626              	.L130:
 880:C:/Users/leonardo/Desktop/Code/Github/DawnGBC/Libraries/FWLIB/src\gd32f4xx_rtc.c ****     
 881:C:/Users/leonardo/Desktop/Code/Github/DawnGBC/Libraries/FWLIB/src\gd32f4xx_rtc.c ****     /* check if a shift operation is ongoing */    
 882:C:/Users/leonardo/Desktop/Code/Github/DawnGBC/Libraries/FWLIB/src\gd32f4xx_rtc.c ****     do{
 883:C:/Users/leonardo/Desktop/Code/Github/DawnGBC/Libraries/FWLIB/src\gd32f4xx_rtc.c ****         flag_status = RTC_STAT & RTC_STAT_SOPF;
 2627              		.loc 1 883 23 discriminator 2
 2628 0028 164B     		ldr	r3, .L133+4
 2629 002a 1B68     		ldr	r3, [r3]
 2630              		.loc 1 883 21 discriminator 2
 2631 002c 03F00803 		and	r3, r3, #8
 2632 0030 3B61     		str	r3, [r7, #16]
 884:C:/Users/leonardo/Desktop/Code/Github/DawnGBC/Libraries/FWLIB/src\gd32f4xx_rtc.c ****     }while((--time_index > 0U) && ((uint32_t)RESET != flag_status));
 2633              		.loc 1 884 13 discriminator 2
 2634 0032 BB68     		ldr	r3, [r7, #8]
 2635 0034 013B     		subs	r3, r3, #1
 2636              		.loc 1 884 5 discriminator 2
 2637 0036 BB60     		str	r3, [r7, #8]
 2638 0038 002B     		cmp	r3, #0
 2639 003a 02D0     		beq	.L129
 2640              		.loc 1 884 32 discriminator 1
 2641 003c 3B69     		ldr	r3, [r7, #16]
 2642 003e 002B     		cmp	r3, #0
 2643 0040 F2D1     		bne	.L130
 2644              	.L129:
 885:C:/Users/leonardo/Desktop/Code/Github/DawnGBC/Libraries/FWLIB/src\gd32f4xx_rtc.c ****     
 886:C:/Users/leonardo/Desktop/Code/Github/DawnGBC/Libraries/FWLIB/src\gd32f4xx_rtc.c ****     /* check if the function of reference clock detection is disabled */
 887:C:/Users/leonardo/Desktop/Code/Github/DawnGBC/Libraries/FWLIB/src\gd32f4xx_rtc.c ****     temp = RTC_CTL & RTC_CTL_REFEN;
 2645              		.loc 1 887 12
 2646 0042 114B     		ldr	r3, .L133+8
 2647 0044 1B68     		ldr	r3, [r3]
 2648              		.loc 1 887 10
 2649 0046 03F01003 		and	r3, r3, #16
 2650 004a FB60     		str	r3, [r7, #12]
 888:C:/Users/leonardo/Desktop/Code/Github/DawnGBC/Libraries/FWLIB/src\gd32f4xx_rtc.c ****     if((RESET == flag_status) && (RESET == temp)){  
 2651              		.loc 1 888 7
 2652 004c 3B69     		ldr	r3, [r7, #16]
 2653 004e 002B     		cmp	r3, #0
 2654 0050 0DD1     		bne	.L131
 2655              		.loc 1 888 31 discriminator 1
 2656 0052 FB68     		ldr	r3, [r7, #12]
 2657 0054 002B     		cmp	r3, #0
 2658 0056 0AD1     		bne	.L131
 889:C:/Users/leonardo/Desktop/Code/Github/DawnGBC/Libraries/FWLIB/src\gd32f4xx_rtc.c ****         RTC_SHIFTCTL = (uint32_t)(add | SHIFTCTL_SFS(minus));
 2659              		.loc 1 889 41
 2660 0058 3B68     		ldr	r3, [r7]
 2661 005a C3F30E02 		ubfx	r2, r3, #0, #15
 2662              		.loc 1 889 9
 2663 005e 0B49     		ldr	r1, .L133+12
 2664              		.loc 1 889 24
 2665 0060 7B68     		ldr	r3, [r7, #4]
 2666 0062 1343     		orrs	r3, r3, r2
 2667              		.loc 1 889 22
 2668 0064 0B60     		str	r3, [r1]
 890:C:/Users/leonardo/Desktop/Code/Github/DawnGBC/Libraries/FWLIB/src\gd32f4xx_rtc.c ****         error_status = rtc_register_sync_wait();        
 2669              		.loc 1 890 24
 2670 0066 FFF7FEFF 		bl	rtc_register_sync_wait
 2671 006a 0346     		mov	r3, r0
 2672 006c FB75     		strb	r3, [r7, #23]
 2673              	.L131:
 891:C:/Users/leonardo/Desktop/Code/Github/DawnGBC/Libraries/FWLIB/src\gd32f4xx_rtc.c ****     }
 892:C:/Users/leonardo/Desktop/Code/Github/DawnGBC/Libraries/FWLIB/src\gd32f4xx_rtc.c **** 
 893:C:/Users/leonardo/Desktop/Code/Github/DawnGBC/Libraries/FWLIB/src\gd32f4xx_rtc.c ****     /* enable the write protection */
 894:C:/Users/leonardo/Desktop/Code/Github/DawnGBC/Libraries/FWLIB/src\gd32f4xx_rtc.c ****     RTC_WPK = RTC_LOCK_KEY;
 2674              		.loc 1 894 5
 2675 006e 044B     		ldr	r3, .L133
 2676              		.loc 1 894 13
 2677 0070 FF22     		movs	r2, #255
 2678 0072 1A60     		str	r2, [r3]
 895:C:/Users/leonardo/Desktop/Code/Github/DawnGBC/Libraries/FWLIB/src\gd32f4xx_rtc.c **** 
 896:C:/Users/leonardo/Desktop/Code/Github/DawnGBC/Libraries/FWLIB/src\gd32f4xx_rtc.c ****     return error_status;
 2679              		.loc 1 896 12
 2680 0074 FB7D     		ldrb	r3, [r7, #23]	@ zero_extendqisi2
 897:C:/Users/leonardo/Desktop/Code/Github/DawnGBC/Libraries/FWLIB/src\gd32f4xx_rtc.c **** }
 2681              		.loc 1 897 1
 2682 0076 1846     		mov	r0, r3
 2683 0078 1837     		adds	r7, r7, #24
 2684              		.cfi_def_cfa_offset 8
 2685 007a BD46     		mov	sp, r7
 2686              		.cfi_def_cfa_register 13
 2687              		@ sp needed
 2688 007c 80BD     		pop	{r7, pc}
 2689              	.L134:
 2690 007e 00BF     		.align	2
 2691              	.L133:
 2692 0080 24280040 		.word	1073752100
 2693 0084 0C280040 		.word	1073752076
 2694 0088 08280040 		.word	1073752072
 2695 008c 2C280040 		.word	1073752108
 2696              		.cfi_endproc
 2697              	.LFE151:
 2699              		.section	.text.rtc_bypass_shadow_enable,"ax",%progbits
 2700              		.align	1
 2701              		.global	rtc_bypass_shadow_enable
 2702              		.syntax unified
 2703              		.thumb
 2704              		.thumb_func
 2705              		.fpu softvfp
 2707              	rtc_bypass_shadow_enable:
 2708              	.LFB152:
 898:C:/Users/leonardo/Desktop/Code/Github/DawnGBC/Libraries/FWLIB/src\gd32f4xx_rtc.c **** 
 899:C:/Users/leonardo/Desktop/Code/Github/DawnGBC/Libraries/FWLIB/src\gd32f4xx_rtc.c **** /*!
 900:C:/Users/leonardo/Desktop/Code/Github/DawnGBC/Libraries/FWLIB/src\gd32f4xx_rtc.c ****     \brief      enable RTC bypass shadow registers function
 901:C:/Users/leonardo/Desktop/Code/Github/DawnGBC/Libraries/FWLIB/src\gd32f4xx_rtc.c ****     \param[in]  none
 902:C:/Users/leonardo/Desktop/Code/Github/DawnGBC/Libraries/FWLIB/src\gd32f4xx_rtc.c ****     \param[out] none
 903:C:/Users/leonardo/Desktop/Code/Github/DawnGBC/Libraries/FWLIB/src\gd32f4xx_rtc.c ****     \retval     none
 904:C:/Users/leonardo/Desktop/Code/Github/DawnGBC/Libraries/FWLIB/src\gd32f4xx_rtc.c **** */
 905:C:/Users/leonardo/Desktop/Code/Github/DawnGBC/Libraries/FWLIB/src\gd32f4xx_rtc.c **** void rtc_bypass_shadow_enable(void)
 906:C:/Users/leonardo/Desktop/Code/Github/DawnGBC/Libraries/FWLIB/src\gd32f4xx_rtc.c **** { 
 2709              		.loc 1 906 1
 2710              		.cfi_startproc
 2711              		@ args = 0, pretend = 0, frame = 0
 2712              		@ frame_needed = 1, uses_anonymous_args = 0
 2713              		@ link register save eliminated.
 2714 0000 80B4     		push	{r7}
 2715              		.cfi_def_cfa_offset 4
 2716              		.cfi_offset 7, -4
 2717 0002 00AF     		add	r7, sp, #0
 2718              		.cfi_def_cfa_register 7
 907:C:/Users/leonardo/Desktop/Code/Github/DawnGBC/Libraries/FWLIB/src\gd32f4xx_rtc.c ****     /* disable the write protection */
 908:C:/Users/leonardo/Desktop/Code/Github/DawnGBC/Libraries/FWLIB/src\gd32f4xx_rtc.c ****     RTC_WPK = RTC_UNLOCK_KEY1;
 2719              		.loc 1 908 5
 2720 0004 094B     		ldr	r3, .L136
 2721              		.loc 1 908 13
 2722 0006 CA22     		movs	r2, #202
 2723 0008 1A60     		str	r2, [r3]
 909:C:/Users/leonardo/Desktop/Code/Github/DawnGBC/Libraries/FWLIB/src\gd32f4xx_rtc.c ****     RTC_WPK = RTC_UNLOCK_KEY2;
 2724              		.loc 1 909 5
 2725 000a 084B     		ldr	r3, .L136
 2726              		.loc 1 909 13
 2727 000c 5322     		movs	r2, #83
 2728 000e 1A60     		str	r2, [r3]
 910:C:/Users/leonardo/Desktop/Code/Github/DawnGBC/Libraries/FWLIB/src\gd32f4xx_rtc.c **** 
 911:C:/Users/leonardo/Desktop/Code/Github/DawnGBC/Libraries/FWLIB/src\gd32f4xx_rtc.c ****     RTC_CTL |= RTC_CTL_BPSHAD;
 2729              		.loc 1 911 13
 2730 0010 074B     		ldr	r3, .L136+4
 2731 0012 1B68     		ldr	r3, [r3]
 2732 0014 064A     		ldr	r2, .L136+4
 2733 0016 43F02003 		orr	r3, r3, #32
 2734 001a 1360     		str	r3, [r2]
 912:C:/Users/leonardo/Desktop/Code/Github/DawnGBC/Libraries/FWLIB/src\gd32f4xx_rtc.c **** 
 913:C:/Users/leonardo/Desktop/Code/Github/DawnGBC/Libraries/FWLIB/src\gd32f4xx_rtc.c ****     /* enable the write protection */
 914:C:/Users/leonardo/Desktop/Code/Github/DawnGBC/Libraries/FWLIB/src\gd32f4xx_rtc.c ****     RTC_WPK = RTC_LOCK_KEY;
 2735              		.loc 1 914 5
 2736 001c 034B     		ldr	r3, .L136
 2737              		.loc 1 914 13
 2738 001e FF22     		movs	r2, #255
 2739 0020 1A60     		str	r2, [r3]
 915:C:/Users/leonardo/Desktop/Code/Github/DawnGBC/Libraries/FWLIB/src\gd32f4xx_rtc.c **** }
 2740              		.loc 1 915 1
 2741 0022 00BF     		nop
 2742 0024 BD46     		mov	sp, r7
 2743              		.cfi_def_cfa_register 13
 2744              		@ sp needed
 2745 0026 80BC     		pop	{r7}
 2746              		.cfi_restore 7
 2747              		.cfi_def_cfa_offset 0
 2748 0028 7047     		bx	lr
 2749              	.L137:
 2750 002a 00BF     		.align	2
 2751              	.L136:
 2752 002c 24280040 		.word	1073752100
 2753 0030 08280040 		.word	1073752072
 2754              		.cfi_endproc
 2755              	.LFE152:
 2757              		.section	.text.rtc_bypass_shadow_disable,"ax",%progbits
 2758              		.align	1
 2759              		.global	rtc_bypass_shadow_disable
 2760              		.syntax unified
 2761              		.thumb
 2762              		.thumb_func
 2763              		.fpu softvfp
 2765              	rtc_bypass_shadow_disable:
 2766              	.LFB153:
 916:C:/Users/leonardo/Desktop/Code/Github/DawnGBC/Libraries/FWLIB/src\gd32f4xx_rtc.c **** 
 917:C:/Users/leonardo/Desktop/Code/Github/DawnGBC/Libraries/FWLIB/src\gd32f4xx_rtc.c **** /*!
 918:C:/Users/leonardo/Desktop/Code/Github/DawnGBC/Libraries/FWLIB/src\gd32f4xx_rtc.c ****     \brief      disable RTC bypass shadow registers function
 919:C:/Users/leonardo/Desktop/Code/Github/DawnGBC/Libraries/FWLIB/src\gd32f4xx_rtc.c ****     \param[in]  none
 920:C:/Users/leonardo/Desktop/Code/Github/DawnGBC/Libraries/FWLIB/src\gd32f4xx_rtc.c ****     \param[out] none
 921:C:/Users/leonardo/Desktop/Code/Github/DawnGBC/Libraries/FWLIB/src\gd32f4xx_rtc.c ****     \retval     none
 922:C:/Users/leonardo/Desktop/Code/Github/DawnGBC/Libraries/FWLIB/src\gd32f4xx_rtc.c **** */
 923:C:/Users/leonardo/Desktop/Code/Github/DawnGBC/Libraries/FWLIB/src\gd32f4xx_rtc.c **** void rtc_bypass_shadow_disable(void)
 924:C:/Users/leonardo/Desktop/Code/Github/DawnGBC/Libraries/FWLIB/src\gd32f4xx_rtc.c **** { 
 2767              		.loc 1 924 1
 2768              		.cfi_startproc
 2769              		@ args = 0, pretend = 0, frame = 0
 2770              		@ frame_needed = 1, uses_anonymous_args = 0
 2771              		@ link register save eliminated.
 2772 0000 80B4     		push	{r7}
 2773              		.cfi_def_cfa_offset 4
 2774              		.cfi_offset 7, -4
 2775 0002 00AF     		add	r7, sp, #0
 2776              		.cfi_def_cfa_register 7
 925:C:/Users/leonardo/Desktop/Code/Github/DawnGBC/Libraries/FWLIB/src\gd32f4xx_rtc.c ****     /* disable the write protection */
 926:C:/Users/leonardo/Desktop/Code/Github/DawnGBC/Libraries/FWLIB/src\gd32f4xx_rtc.c ****     RTC_WPK = RTC_UNLOCK_KEY1;
 2777              		.loc 1 926 5
 2778 0004 094B     		ldr	r3, .L139
 2779              		.loc 1 926 13
 2780 0006 CA22     		movs	r2, #202
 2781 0008 1A60     		str	r2, [r3]
 927:C:/Users/leonardo/Desktop/Code/Github/DawnGBC/Libraries/FWLIB/src\gd32f4xx_rtc.c ****     RTC_WPK = RTC_UNLOCK_KEY2;
 2782              		.loc 1 927 5
 2783 000a 084B     		ldr	r3, .L139
 2784              		.loc 1 927 13
 2785 000c 5322     		movs	r2, #83
 2786 000e 1A60     		str	r2, [r3]
 928:C:/Users/leonardo/Desktop/Code/Github/DawnGBC/Libraries/FWLIB/src\gd32f4xx_rtc.c **** 
 929:C:/Users/leonardo/Desktop/Code/Github/DawnGBC/Libraries/FWLIB/src\gd32f4xx_rtc.c ****     RTC_CTL &= ~RTC_CTL_BPSHAD;
 2787              		.loc 1 929 13
 2788 0010 074B     		ldr	r3, .L139+4
 2789 0012 1B68     		ldr	r3, [r3]
 2790 0014 064A     		ldr	r2, .L139+4
 2791 0016 23F02003 		bic	r3, r3, #32
 2792 001a 1360     		str	r3, [r2]
 930:C:/Users/leonardo/Desktop/Code/Github/DawnGBC/Libraries/FWLIB/src\gd32f4xx_rtc.c **** 
 931:C:/Users/leonardo/Desktop/Code/Github/DawnGBC/Libraries/FWLIB/src\gd32f4xx_rtc.c ****     /* enable the write protection */
 932:C:/Users/leonardo/Desktop/Code/Github/DawnGBC/Libraries/FWLIB/src\gd32f4xx_rtc.c ****     RTC_WPK = RTC_LOCK_KEY;
 2793              		.loc 1 932 5
 2794 001c 034B     		ldr	r3, .L139
 2795              		.loc 1 932 13
 2796 001e FF22     		movs	r2, #255
 2797 0020 1A60     		str	r2, [r3]
 933:C:/Users/leonardo/Desktop/Code/Github/DawnGBC/Libraries/FWLIB/src\gd32f4xx_rtc.c **** }
 2798              		.loc 1 933 1
 2799 0022 00BF     		nop
 2800 0024 BD46     		mov	sp, r7
 2801              		.cfi_def_cfa_register 13
 2802              		@ sp needed
 2803 0026 80BC     		pop	{r7}
 2804              		.cfi_restore 7
 2805              		.cfi_def_cfa_offset 0
 2806 0028 7047     		bx	lr
 2807              	.L140:
 2808 002a 00BF     		.align	2
 2809              	.L139:
 2810 002c 24280040 		.word	1073752100
 2811 0030 08280040 		.word	1073752072
 2812              		.cfi_endproc
 2813              	.LFE153:
 2815              		.section	.text.rtc_refclock_detection_enable,"ax",%progbits
 2816              		.align	1
 2817              		.global	rtc_refclock_detection_enable
 2818              		.syntax unified
 2819              		.thumb
 2820              		.thumb_func
 2821              		.fpu softvfp
 2823              	rtc_refclock_detection_enable:
 2824              	.LFB154:
 934:C:/Users/leonardo/Desktop/Code/Github/DawnGBC/Libraries/FWLIB/src\gd32f4xx_rtc.c **** 
 935:C:/Users/leonardo/Desktop/Code/Github/DawnGBC/Libraries/FWLIB/src\gd32f4xx_rtc.c **** /*!
 936:C:/Users/leonardo/Desktop/Code/Github/DawnGBC/Libraries/FWLIB/src\gd32f4xx_rtc.c ****     \brief      enable RTC reference clock detection function
 937:C:/Users/leonardo/Desktop/Code/Github/DawnGBC/Libraries/FWLIB/src\gd32f4xx_rtc.c ****     \param[in]  none
 938:C:/Users/leonardo/Desktop/Code/Github/DawnGBC/Libraries/FWLIB/src\gd32f4xx_rtc.c ****     \param[out] none
 939:C:/Users/leonardo/Desktop/Code/Github/DawnGBC/Libraries/FWLIB/src\gd32f4xx_rtc.c ****     \retval     ErrStatus: ERROR or SUCCESS
 940:C:/Users/leonardo/Desktop/Code/Github/DawnGBC/Libraries/FWLIB/src\gd32f4xx_rtc.c **** */
 941:C:/Users/leonardo/Desktop/Code/Github/DawnGBC/Libraries/FWLIB/src\gd32f4xx_rtc.c **** ErrStatus rtc_refclock_detection_enable(void)
 942:C:/Users/leonardo/Desktop/Code/Github/DawnGBC/Libraries/FWLIB/src\gd32f4xx_rtc.c **** {
 2825              		.loc 1 942 1
 2826              		.cfi_startproc
 2827              		@ args = 0, pretend = 0, frame = 8
 2828              		@ frame_needed = 1, uses_anonymous_args = 0
 2829 0000 80B5     		push	{r7, lr}
 2830              		.cfi_def_cfa_offset 8
 2831              		.cfi_offset 7, -8
 2832              		.cfi_offset 14, -4
 2833 0002 82B0     		sub	sp, sp, #8
 2834              		.cfi_def_cfa_offset 16
 2835 0004 00AF     		add	r7, sp, #0
 2836              		.cfi_def_cfa_register 7
 943:C:/Users/leonardo/Desktop/Code/Github/DawnGBC/Libraries/FWLIB/src\gd32f4xx_rtc.c ****     ErrStatus error_status = ERROR;
 2837              		.loc 1 943 15
 2838 0006 0023     		movs	r3, #0
 2839 0008 FB71     		strb	r3, [r7, #7]
 944:C:/Users/leonardo/Desktop/Code/Github/DawnGBC/Libraries/FWLIB/src\gd32f4xx_rtc.c ****     
 945:C:/Users/leonardo/Desktop/Code/Github/DawnGBC/Libraries/FWLIB/src\gd32f4xx_rtc.c ****     /* disable the write protection */
 946:C:/Users/leonardo/Desktop/Code/Github/DawnGBC/Libraries/FWLIB/src\gd32f4xx_rtc.c ****     RTC_WPK = RTC_UNLOCK_KEY1;
 2840              		.loc 1 946 5
 2841 000a 0E4B     		ldr	r3, .L144
 2842              		.loc 1 946 13
 2843 000c CA22     		movs	r2, #202
 2844 000e 1A60     		str	r2, [r3]
 947:C:/Users/leonardo/Desktop/Code/Github/DawnGBC/Libraries/FWLIB/src\gd32f4xx_rtc.c ****     RTC_WPK = RTC_UNLOCK_KEY2;
 2845              		.loc 1 947 5
 2846 0010 0C4B     		ldr	r3, .L144
 2847              		.loc 1 947 13
 2848 0012 5322     		movs	r2, #83
 2849 0014 1A60     		str	r2, [r3]
 948:C:/Users/leonardo/Desktop/Code/Github/DawnGBC/Libraries/FWLIB/src\gd32f4xx_rtc.c **** 
 949:C:/Users/leonardo/Desktop/Code/Github/DawnGBC/Libraries/FWLIB/src\gd32f4xx_rtc.c ****     /* enter init mode */
 950:C:/Users/leonardo/Desktop/Code/Github/DawnGBC/Libraries/FWLIB/src\gd32f4xx_rtc.c ****     error_status = rtc_init_mode_enter();
 2850              		.loc 1 950 20
 2851 0016 FFF7FEFF 		bl	rtc_init_mode_enter
 2852 001a 0346     		mov	r3, r0
 2853 001c FB71     		strb	r3, [r7, #7]
 951:C:/Users/leonardo/Desktop/Code/Github/DawnGBC/Libraries/FWLIB/src\gd32f4xx_rtc.c **** 
 952:C:/Users/leonardo/Desktop/Code/Github/DawnGBC/Libraries/FWLIB/src\gd32f4xx_rtc.c ****     if(ERROR != error_status){
 2854              		.loc 1 952 7
 2855 001e FB79     		ldrb	r3, [r7, #7]	@ zero_extendqisi2
 2856 0020 002B     		cmp	r3, #0
 2857 0022 07D0     		beq	.L142
 953:C:/Users/leonardo/Desktop/Code/Github/DawnGBC/Libraries/FWLIB/src\gd32f4xx_rtc.c ****         RTC_CTL |= (uint32_t)RTC_CTL_REFEN;
 2858              		.loc 1 953 17
 2859 0024 084B     		ldr	r3, .L144+4
 2860 0026 1B68     		ldr	r3, [r3]
 2861 0028 074A     		ldr	r2, .L144+4
 2862 002a 43F01003 		orr	r3, r3, #16
 2863 002e 1360     		str	r3, [r2]
 954:C:/Users/leonardo/Desktop/Code/Github/DawnGBC/Libraries/FWLIB/src\gd32f4xx_rtc.c ****         /* exit init mode */
 955:C:/Users/leonardo/Desktop/Code/Github/DawnGBC/Libraries/FWLIB/src\gd32f4xx_rtc.c ****         rtc_init_mode_exit();
 2864              		.loc 1 955 9
 2865 0030 FFF7FEFF 		bl	rtc_init_mode_exit
 2866              	.L142:
 956:C:/Users/leonardo/Desktop/Code/Github/DawnGBC/Libraries/FWLIB/src\gd32f4xx_rtc.c ****     }
 957:C:/Users/leonardo/Desktop/Code/Github/DawnGBC/Libraries/FWLIB/src\gd32f4xx_rtc.c **** 
 958:C:/Users/leonardo/Desktop/Code/Github/DawnGBC/Libraries/FWLIB/src\gd32f4xx_rtc.c ****     /* enable the write protection */
 959:C:/Users/leonardo/Desktop/Code/Github/DawnGBC/Libraries/FWLIB/src\gd32f4xx_rtc.c ****     RTC_WPK = RTC_LOCK_KEY;
 2867              		.loc 1 959 5
 2868 0034 034B     		ldr	r3, .L144
 2869              		.loc 1 959 13
 2870 0036 FF22     		movs	r2, #255
 2871 0038 1A60     		str	r2, [r3]
 960:C:/Users/leonardo/Desktop/Code/Github/DawnGBC/Libraries/FWLIB/src\gd32f4xx_rtc.c **** 
 961:C:/Users/leonardo/Desktop/Code/Github/DawnGBC/Libraries/FWLIB/src\gd32f4xx_rtc.c ****     return error_status;
 2872              		.loc 1 961 12
 2873 003a FB79     		ldrb	r3, [r7, #7]	@ zero_extendqisi2
 962:C:/Users/leonardo/Desktop/Code/Github/DawnGBC/Libraries/FWLIB/src\gd32f4xx_rtc.c **** }
 2874              		.loc 1 962 1
 2875 003c 1846     		mov	r0, r3
 2876 003e 0837     		adds	r7, r7, #8
 2877              		.cfi_def_cfa_offset 8
 2878 0040 BD46     		mov	sp, r7
 2879              		.cfi_def_cfa_register 13
 2880              		@ sp needed
 2881 0042 80BD     		pop	{r7, pc}
 2882              	.L145:
 2883              		.align	2
 2884              	.L144:
 2885 0044 24280040 		.word	1073752100
 2886 0048 08280040 		.word	1073752072
 2887              		.cfi_endproc
 2888              	.LFE154:
 2890              		.section	.text.rtc_refclock_detection_disable,"ax",%progbits
 2891              		.align	1
 2892              		.global	rtc_refclock_detection_disable
 2893              		.syntax unified
 2894              		.thumb
 2895              		.thumb_func
 2896              		.fpu softvfp
 2898              	rtc_refclock_detection_disable:
 2899              	.LFB155:
 963:C:/Users/leonardo/Desktop/Code/Github/DawnGBC/Libraries/FWLIB/src\gd32f4xx_rtc.c **** 
 964:C:/Users/leonardo/Desktop/Code/Github/DawnGBC/Libraries/FWLIB/src\gd32f4xx_rtc.c **** /*!
 965:C:/Users/leonardo/Desktop/Code/Github/DawnGBC/Libraries/FWLIB/src\gd32f4xx_rtc.c ****     \brief      disable RTC reference clock detection function
 966:C:/Users/leonardo/Desktop/Code/Github/DawnGBC/Libraries/FWLIB/src\gd32f4xx_rtc.c ****     \param[in]  none
 967:C:/Users/leonardo/Desktop/Code/Github/DawnGBC/Libraries/FWLIB/src\gd32f4xx_rtc.c ****     \param[out] none
 968:C:/Users/leonardo/Desktop/Code/Github/DawnGBC/Libraries/FWLIB/src\gd32f4xx_rtc.c ****     \retval     ErrStatus: ERROR or SUCCESS
 969:C:/Users/leonardo/Desktop/Code/Github/DawnGBC/Libraries/FWLIB/src\gd32f4xx_rtc.c **** */
 970:C:/Users/leonardo/Desktop/Code/Github/DawnGBC/Libraries/FWLIB/src\gd32f4xx_rtc.c **** ErrStatus rtc_refclock_detection_disable(void)
 971:C:/Users/leonardo/Desktop/Code/Github/DawnGBC/Libraries/FWLIB/src\gd32f4xx_rtc.c **** {
 2900              		.loc 1 971 1
 2901              		.cfi_startproc
 2902              		@ args = 0, pretend = 0, frame = 8
 2903              		@ frame_needed = 1, uses_anonymous_args = 0
 2904 0000 80B5     		push	{r7, lr}
 2905              		.cfi_def_cfa_offset 8
 2906              		.cfi_offset 7, -8
 2907              		.cfi_offset 14, -4
 2908 0002 82B0     		sub	sp, sp, #8
 2909              		.cfi_def_cfa_offset 16
 2910 0004 00AF     		add	r7, sp, #0
 2911              		.cfi_def_cfa_register 7
 972:C:/Users/leonardo/Desktop/Code/Github/DawnGBC/Libraries/FWLIB/src\gd32f4xx_rtc.c ****     ErrStatus error_status = ERROR;
 2912              		.loc 1 972 15
 2913 0006 0023     		movs	r3, #0
 2914 0008 FB71     		strb	r3, [r7, #7]
 973:C:/Users/leonardo/Desktop/Code/Github/DawnGBC/Libraries/FWLIB/src\gd32f4xx_rtc.c ****     
 974:C:/Users/leonardo/Desktop/Code/Github/DawnGBC/Libraries/FWLIB/src\gd32f4xx_rtc.c ****     /* disable the write protection */
 975:C:/Users/leonardo/Desktop/Code/Github/DawnGBC/Libraries/FWLIB/src\gd32f4xx_rtc.c ****     RTC_WPK = RTC_UNLOCK_KEY1;
 2915              		.loc 1 975 5
 2916 000a 0E4B     		ldr	r3, .L149
 2917              		.loc 1 975 13
 2918 000c CA22     		movs	r2, #202
 2919 000e 1A60     		str	r2, [r3]
 976:C:/Users/leonardo/Desktop/Code/Github/DawnGBC/Libraries/FWLIB/src\gd32f4xx_rtc.c ****     RTC_WPK = RTC_UNLOCK_KEY2;
 2920              		.loc 1 976 5
 2921 0010 0C4B     		ldr	r3, .L149
 2922              		.loc 1 976 13
 2923 0012 5322     		movs	r2, #83
 2924 0014 1A60     		str	r2, [r3]
 977:C:/Users/leonardo/Desktop/Code/Github/DawnGBC/Libraries/FWLIB/src\gd32f4xx_rtc.c **** 
 978:C:/Users/leonardo/Desktop/Code/Github/DawnGBC/Libraries/FWLIB/src\gd32f4xx_rtc.c ****     /* enter init mode */
 979:C:/Users/leonardo/Desktop/Code/Github/DawnGBC/Libraries/FWLIB/src\gd32f4xx_rtc.c ****     error_status = rtc_init_mode_enter();
 2925              		.loc 1 979 20
 2926 0016 FFF7FEFF 		bl	rtc_init_mode_enter
 2927 001a 0346     		mov	r3, r0
 2928 001c FB71     		strb	r3, [r7, #7]
 980:C:/Users/leonardo/Desktop/Code/Github/DawnGBC/Libraries/FWLIB/src\gd32f4xx_rtc.c **** 
 981:C:/Users/leonardo/Desktop/Code/Github/DawnGBC/Libraries/FWLIB/src\gd32f4xx_rtc.c ****     if(ERROR != error_status){ 
 2929              		.loc 1 981 7
 2930 001e FB79     		ldrb	r3, [r7, #7]	@ zero_extendqisi2
 2931 0020 002B     		cmp	r3, #0
 2932 0022 07D0     		beq	.L147
 982:C:/Users/leonardo/Desktop/Code/Github/DawnGBC/Libraries/FWLIB/src\gd32f4xx_rtc.c ****         RTC_CTL &= (uint32_t)~RTC_CTL_REFEN;
 2933              		.loc 1 982 17
 2934 0024 084B     		ldr	r3, .L149+4
 2935 0026 1B68     		ldr	r3, [r3]
 2936 0028 074A     		ldr	r2, .L149+4
 2937 002a 23F01003 		bic	r3, r3, #16
 2938 002e 1360     		str	r3, [r2]
 983:C:/Users/leonardo/Desktop/Code/Github/DawnGBC/Libraries/FWLIB/src\gd32f4xx_rtc.c ****         /* exit init mode */
 984:C:/Users/leonardo/Desktop/Code/Github/DawnGBC/Libraries/FWLIB/src\gd32f4xx_rtc.c ****         rtc_init_mode_exit();
 2939              		.loc 1 984 9
 2940 0030 FFF7FEFF 		bl	rtc_init_mode_exit
 2941              	.L147:
 985:C:/Users/leonardo/Desktop/Code/Github/DawnGBC/Libraries/FWLIB/src\gd32f4xx_rtc.c ****     }
 986:C:/Users/leonardo/Desktop/Code/Github/DawnGBC/Libraries/FWLIB/src\gd32f4xx_rtc.c **** 
 987:C:/Users/leonardo/Desktop/Code/Github/DawnGBC/Libraries/FWLIB/src\gd32f4xx_rtc.c ****     /* enable the write protection */
 988:C:/Users/leonardo/Desktop/Code/Github/DawnGBC/Libraries/FWLIB/src\gd32f4xx_rtc.c ****     RTC_WPK = RTC_LOCK_KEY;
 2942              		.loc 1 988 5
 2943 0034 034B     		ldr	r3, .L149
 2944              		.loc 1 988 13
 2945 0036 FF22     		movs	r2, #255
 2946 0038 1A60     		str	r2, [r3]
 989:C:/Users/leonardo/Desktop/Code/Github/DawnGBC/Libraries/FWLIB/src\gd32f4xx_rtc.c **** 
 990:C:/Users/leonardo/Desktop/Code/Github/DawnGBC/Libraries/FWLIB/src\gd32f4xx_rtc.c ****     return error_status;
 2947              		.loc 1 990 12
 2948 003a FB79     		ldrb	r3, [r7, #7]	@ zero_extendqisi2
 991:C:/Users/leonardo/Desktop/Code/Github/DawnGBC/Libraries/FWLIB/src\gd32f4xx_rtc.c **** }
 2949              		.loc 1 991 1
 2950 003c 1846     		mov	r0, r3
 2951 003e 0837     		adds	r7, r7, #8
 2952              		.cfi_def_cfa_offset 8
 2953 0040 BD46     		mov	sp, r7
 2954              		.cfi_def_cfa_register 13
 2955              		@ sp needed
 2956 0042 80BD     		pop	{r7, pc}
 2957              	.L150:
 2958              		.align	2
 2959              	.L149:
 2960 0044 24280040 		.word	1073752100
 2961 0048 08280040 		.word	1073752072
 2962              		.cfi_endproc
 2963              	.LFE155:
 2965              		.section	.text.rtc_wakeup_enable,"ax",%progbits
 2966              		.align	1
 2967              		.global	rtc_wakeup_enable
 2968              		.syntax unified
 2969              		.thumb
 2970              		.thumb_func
 2971              		.fpu softvfp
 2973              	rtc_wakeup_enable:
 2974              	.LFB156:
 992:C:/Users/leonardo/Desktop/Code/Github/DawnGBC/Libraries/FWLIB/src\gd32f4xx_rtc.c **** 
 993:C:/Users/leonardo/Desktop/Code/Github/DawnGBC/Libraries/FWLIB/src\gd32f4xx_rtc.c **** /*!
 994:C:/Users/leonardo/Desktop/Code/Github/DawnGBC/Libraries/FWLIB/src\gd32f4xx_rtc.c ****     \brief      enable RTC auto wakeup function
 995:C:/Users/leonardo/Desktop/Code/Github/DawnGBC/Libraries/FWLIB/src\gd32f4xx_rtc.c ****     \param[in]  none
 996:C:/Users/leonardo/Desktop/Code/Github/DawnGBC/Libraries/FWLIB/src\gd32f4xx_rtc.c ****     \param[out] none
 997:C:/Users/leonardo/Desktop/Code/Github/DawnGBC/Libraries/FWLIB/src\gd32f4xx_rtc.c ****     \retval     none
 998:C:/Users/leonardo/Desktop/Code/Github/DawnGBC/Libraries/FWLIB/src\gd32f4xx_rtc.c **** */
 999:C:/Users/leonardo/Desktop/Code/Github/DawnGBC/Libraries/FWLIB/src\gd32f4xx_rtc.c **** void rtc_wakeup_enable(void)
1000:C:/Users/leonardo/Desktop/Code/Github/DawnGBC/Libraries/FWLIB/src\gd32f4xx_rtc.c **** {
 2975              		.loc 1 1000 1
 2976              		.cfi_startproc
 2977              		@ args = 0, pretend = 0, frame = 0
 2978              		@ frame_needed = 1, uses_anonymous_args = 0
 2979              		@ link register save eliminated.
 2980 0000 80B4     		push	{r7}
 2981              		.cfi_def_cfa_offset 4
 2982              		.cfi_offset 7, -4
 2983 0002 00AF     		add	r7, sp, #0
 2984              		.cfi_def_cfa_register 7
1001:C:/Users/leonardo/Desktop/Code/Github/DawnGBC/Libraries/FWLIB/src\gd32f4xx_rtc.c ****     /* disable the write protection */
1002:C:/Users/leonardo/Desktop/Code/Github/DawnGBC/Libraries/FWLIB/src\gd32f4xx_rtc.c ****     RTC_WPK = RTC_UNLOCK_KEY1;
 2985              		.loc 1 1002 5
 2986 0004 094B     		ldr	r3, .L152
 2987              		.loc 1 1002 13
 2988 0006 CA22     		movs	r2, #202
 2989 0008 1A60     		str	r2, [r3]
1003:C:/Users/leonardo/Desktop/Code/Github/DawnGBC/Libraries/FWLIB/src\gd32f4xx_rtc.c ****     RTC_WPK = RTC_UNLOCK_KEY2; 
 2990              		.loc 1 1003 5
 2991 000a 084B     		ldr	r3, .L152
 2992              		.loc 1 1003 13
 2993 000c 5322     		movs	r2, #83
 2994 000e 1A60     		str	r2, [r3]
1004:C:/Users/leonardo/Desktop/Code/Github/DawnGBC/Libraries/FWLIB/src\gd32f4xx_rtc.c **** 
1005:C:/Users/leonardo/Desktop/Code/Github/DawnGBC/Libraries/FWLIB/src\gd32f4xx_rtc.c ****     RTC_CTL |= RTC_CTL_WTEN;
 2995              		.loc 1 1005 13
 2996 0010 074B     		ldr	r3, .L152+4
 2997 0012 1B68     		ldr	r3, [r3]
 2998 0014 064A     		ldr	r2, .L152+4
 2999 0016 43F48063 		orr	r3, r3, #1024
 3000 001a 1360     		str	r3, [r2]
1006:C:/Users/leonardo/Desktop/Code/Github/DawnGBC/Libraries/FWLIB/src\gd32f4xx_rtc.c **** 
1007:C:/Users/leonardo/Desktop/Code/Github/DawnGBC/Libraries/FWLIB/src\gd32f4xx_rtc.c ****     /* enable the write protection */
1008:C:/Users/leonardo/Desktop/Code/Github/DawnGBC/Libraries/FWLIB/src\gd32f4xx_rtc.c ****     RTC_WPK = RTC_LOCK_KEY;
 3001              		.loc 1 1008 5
 3002 001c 034B     		ldr	r3, .L152
 3003              		.loc 1 1008 13
 3004 001e FF22     		movs	r2, #255
 3005 0020 1A60     		str	r2, [r3]
1009:C:/Users/leonardo/Desktop/Code/Github/DawnGBC/Libraries/FWLIB/src\gd32f4xx_rtc.c **** }
 3006              		.loc 1 1009 1
 3007 0022 00BF     		nop
 3008 0024 BD46     		mov	sp, r7
 3009              		.cfi_def_cfa_register 13
 3010              		@ sp needed
 3011 0026 80BC     		pop	{r7}
 3012              		.cfi_restore 7
 3013              		.cfi_def_cfa_offset 0
 3014 0028 7047     		bx	lr
 3015              	.L153:
 3016 002a 00BF     		.align	2
 3017              	.L152:
 3018 002c 24280040 		.word	1073752100
 3019 0030 08280040 		.word	1073752072
 3020              		.cfi_endproc
 3021              	.LFE156:
 3023              		.section	.text.rtc_wakeup_disable,"ax",%progbits
 3024              		.align	1
 3025              		.global	rtc_wakeup_disable
 3026              		.syntax unified
 3027              		.thumb
 3028              		.thumb_func
 3029              		.fpu softvfp
 3031              	rtc_wakeup_disable:
 3032              	.LFB157:
1010:C:/Users/leonardo/Desktop/Code/Github/DawnGBC/Libraries/FWLIB/src\gd32f4xx_rtc.c **** 
1011:C:/Users/leonardo/Desktop/Code/Github/DawnGBC/Libraries/FWLIB/src\gd32f4xx_rtc.c **** /*!
1012:C:/Users/leonardo/Desktop/Code/Github/DawnGBC/Libraries/FWLIB/src\gd32f4xx_rtc.c ****     \brief      disable RTC auto wakeup function
1013:C:/Users/leonardo/Desktop/Code/Github/DawnGBC/Libraries/FWLIB/src\gd32f4xx_rtc.c ****     \param[in]  none
1014:C:/Users/leonardo/Desktop/Code/Github/DawnGBC/Libraries/FWLIB/src\gd32f4xx_rtc.c ****     \param[out] none
1015:C:/Users/leonardo/Desktop/Code/Github/DawnGBC/Libraries/FWLIB/src\gd32f4xx_rtc.c ****     \retval     ErrStatus: ERROR or SUCCESS
1016:C:/Users/leonardo/Desktop/Code/Github/DawnGBC/Libraries/FWLIB/src\gd32f4xx_rtc.c **** */
1017:C:/Users/leonardo/Desktop/Code/Github/DawnGBC/Libraries/FWLIB/src\gd32f4xx_rtc.c **** ErrStatus rtc_wakeup_disable(void)
1018:C:/Users/leonardo/Desktop/Code/Github/DawnGBC/Libraries/FWLIB/src\gd32f4xx_rtc.c **** {
 3033              		.loc 1 1018 1
 3034              		.cfi_startproc
 3035              		@ args = 0, pretend = 0, frame = 16
 3036              		@ frame_needed = 1, uses_anonymous_args = 0
 3037              		@ link register save eliminated.
 3038 0000 80B4     		push	{r7}
 3039              		.cfi_def_cfa_offset 4
 3040              		.cfi_offset 7, -4
 3041 0002 85B0     		sub	sp, sp, #20
 3042              		.cfi_def_cfa_offset 24
 3043 0004 00AF     		add	r7, sp, #0
 3044              		.cfi_def_cfa_register 7
1019:C:/Users/leonardo/Desktop/Code/Github/DawnGBC/Libraries/FWLIB/src\gd32f4xx_rtc.c ****     ErrStatus error_status = ERROR;
 3045              		.loc 1 1019 15
 3046 0006 0023     		movs	r3, #0
 3047 0008 FB73     		strb	r3, [r7, #15]
1020:C:/Users/leonardo/Desktop/Code/Github/DawnGBC/Libraries/FWLIB/src\gd32f4xx_rtc.c ****     volatile uint32_t time_index = RTC_WTWF_TIMEOUT;
 3048              		.loc 1 1020 23
 3049 000a 4FF48043 		mov	r3, #16384
 3050 000e 7B60     		str	r3, [r7, #4]
1021:C:/Users/leonardo/Desktop/Code/Github/DawnGBC/Libraries/FWLIB/src\gd32f4xx_rtc.c ****     uint32_t flag_status = RESET;
 3051              		.loc 1 1021 14
 3052 0010 0023     		movs	r3, #0
 3053 0012 BB60     		str	r3, [r7, #8]
1022:C:/Users/leonardo/Desktop/Code/Github/DawnGBC/Libraries/FWLIB/src\gd32f4xx_rtc.c ****     /* disable the write protection */
1023:C:/Users/leonardo/Desktop/Code/Github/DawnGBC/Libraries/FWLIB/src\gd32f4xx_rtc.c ****     RTC_WPK = RTC_UNLOCK_KEY1;
 3054              		.loc 1 1023 5
 3055 0014 144B     		ldr	r3, .L160
 3056              		.loc 1 1023 13
 3057 0016 CA22     		movs	r2, #202
 3058 0018 1A60     		str	r2, [r3]
1024:C:/Users/leonardo/Desktop/Code/Github/DawnGBC/Libraries/FWLIB/src\gd32f4xx_rtc.c ****     RTC_WPK = RTC_UNLOCK_KEY2;
 3059              		.loc 1 1024 5
 3060 001a 134B     		ldr	r3, .L160
 3061              		.loc 1 1024 13
 3062 001c 5322     		movs	r2, #83
 3063 001e 1A60     		str	r2, [r3]
1025:C:/Users/leonardo/Desktop/Code/Github/DawnGBC/Libraries/FWLIB/src\gd32f4xx_rtc.c ****     RTC_CTL &= ~RTC_CTL_WTEN;
 3064              		.loc 1 1025 13
 3065 0020 124B     		ldr	r3, .L160+4
 3066 0022 1B68     		ldr	r3, [r3]
 3067 0024 114A     		ldr	r2, .L160+4
 3068 0026 23F48063 		bic	r3, r3, #1024
 3069 002a 1360     		str	r3, [r2]
 3070              	.L156:
1026:C:/Users/leonardo/Desktop/Code/Github/DawnGBC/Libraries/FWLIB/src\gd32f4xx_rtc.c ****     /* wait until the WTWF flag to be set */
1027:C:/Users/leonardo/Desktop/Code/Github/DawnGBC/Libraries/FWLIB/src\gd32f4xx_rtc.c ****     do{
1028:C:/Users/leonardo/Desktop/Code/Github/DawnGBC/Libraries/FWLIB/src\gd32f4xx_rtc.c ****         flag_status = RTC_STAT & RTC_STAT_WTWF;
 3071              		.loc 1 1028 23 discriminator 2
 3072 002c 104B     		ldr	r3, .L160+8
 3073 002e 1B68     		ldr	r3, [r3]
 3074              		.loc 1 1028 21 discriminator 2
 3075 0030 03F00403 		and	r3, r3, #4
 3076 0034 BB60     		str	r3, [r7, #8]
1029:C:/Users/leonardo/Desktop/Code/Github/DawnGBC/Libraries/FWLIB/src\gd32f4xx_rtc.c ****     }while((--time_index > 0U) && ((uint32_t)RESET == flag_status));
 3077              		.loc 1 1029 13 discriminator 2
 3078 0036 7B68     		ldr	r3, [r7, #4]
 3079 0038 013B     		subs	r3, r3, #1
 3080              		.loc 1 1029 5 discriminator 2
 3081 003a 7B60     		str	r3, [r7, #4]
 3082 003c 002B     		cmp	r3, #0
 3083 003e 02D0     		beq	.L155
 3084              		.loc 1 1029 32 discriminator 1
 3085 0040 BB68     		ldr	r3, [r7, #8]
 3086 0042 002B     		cmp	r3, #0
 3087 0044 F2D0     		beq	.L156
 3088              	.L155:
1030:C:/Users/leonardo/Desktop/Code/Github/DawnGBC/Libraries/FWLIB/src\gd32f4xx_rtc.c **** 
1031:C:/Users/leonardo/Desktop/Code/Github/DawnGBC/Libraries/FWLIB/src\gd32f4xx_rtc.c ****     if ((uint32_t)RESET == flag_status){
 3089              		.loc 1 1031 8
 3090 0046 BB68     		ldr	r3, [r7, #8]
 3091 0048 002B     		cmp	r3, #0
 3092 004a 02D1     		bne	.L157
1032:C:/Users/leonardo/Desktop/Code/Github/DawnGBC/Libraries/FWLIB/src\gd32f4xx_rtc.c ****         error_status = ERROR;
 3093              		.loc 1 1032 22
 3094 004c 0023     		movs	r3, #0
 3095 004e FB73     		strb	r3, [r7, #15]
 3096 0050 01E0     		b	.L158
 3097              	.L157:
1033:C:/Users/leonardo/Desktop/Code/Github/DawnGBC/Libraries/FWLIB/src\gd32f4xx_rtc.c ****     }else{
1034:C:/Users/leonardo/Desktop/Code/Github/DawnGBC/Libraries/FWLIB/src\gd32f4xx_rtc.c ****         error_status = SUCCESS;
 3098              		.loc 1 1034 22
 3099 0052 0123     		movs	r3, #1
 3100 0054 FB73     		strb	r3, [r7, #15]
 3101              	.L158:
1035:C:/Users/leonardo/Desktop/Code/Github/DawnGBC/Libraries/FWLIB/src\gd32f4xx_rtc.c ****     }
1036:C:/Users/leonardo/Desktop/Code/Github/DawnGBC/Libraries/FWLIB/src\gd32f4xx_rtc.c ****     /* enable the write protection */
1037:C:/Users/leonardo/Desktop/Code/Github/DawnGBC/Libraries/FWLIB/src\gd32f4xx_rtc.c ****     RTC_WPK = RTC_LOCK_KEY;
 3102              		.loc 1 1037 5
 3103 0056 044B     		ldr	r3, .L160
 3104              		.loc 1 1037 13
 3105 0058 FF22     		movs	r2, #255
 3106 005a 1A60     		str	r2, [r3]
1038:C:/Users/leonardo/Desktop/Code/Github/DawnGBC/Libraries/FWLIB/src\gd32f4xx_rtc.c ****     return error_status;
 3107              		.loc 1 1038 12
 3108 005c FB7B     		ldrb	r3, [r7, #15]	@ zero_extendqisi2
1039:C:/Users/leonardo/Desktop/Code/Github/DawnGBC/Libraries/FWLIB/src\gd32f4xx_rtc.c **** }
 3109              		.loc 1 1039 1
 3110 005e 1846     		mov	r0, r3
 3111 0060 1437     		adds	r7, r7, #20
 3112              		.cfi_def_cfa_offset 4
 3113 0062 BD46     		mov	sp, r7
 3114              		.cfi_def_cfa_register 13
 3115              		@ sp needed
 3116 0064 80BC     		pop	{r7}
 3117              		.cfi_restore 7
 3118              		.cfi_def_cfa_offset 0
 3119 0066 7047     		bx	lr
 3120              	.L161:
 3121              		.align	2
 3122              	.L160:
 3123 0068 24280040 		.word	1073752100
 3124 006c 08280040 		.word	1073752072
 3125 0070 0C280040 		.word	1073752076
 3126              		.cfi_endproc
 3127              	.LFE157:
 3129              		.section	.text.rtc_wakeup_clock_set,"ax",%progbits
 3130              		.align	1
 3131              		.global	rtc_wakeup_clock_set
 3132              		.syntax unified
 3133              		.thumb
 3134              		.thumb_func
 3135              		.fpu softvfp
 3137              	rtc_wakeup_clock_set:
 3138              	.LFB158:
1040:C:/Users/leonardo/Desktop/Code/Github/DawnGBC/Libraries/FWLIB/src\gd32f4xx_rtc.c **** 
1041:C:/Users/leonardo/Desktop/Code/Github/DawnGBC/Libraries/FWLIB/src\gd32f4xx_rtc.c **** /*!
1042:C:/Users/leonardo/Desktop/Code/Github/DawnGBC/Libraries/FWLIB/src\gd32f4xx_rtc.c ****     \brief      set RTC auto wakeup timer clock
1043:C:/Users/leonardo/Desktop/Code/Github/DawnGBC/Libraries/FWLIB/src\gd32f4xx_rtc.c ****     \param[in]  wakeup_clock:
1044:C:/Users/leonardo/Desktop/Code/Github/DawnGBC/Libraries/FWLIB/src\gd32f4xx_rtc.c ****       \arg        WAKEUP_RTCCK_DIV16: RTC auto wakeup timer clock is RTC clock divided by 16 
1045:C:/Users/leonardo/Desktop/Code/Github/DawnGBC/Libraries/FWLIB/src\gd32f4xx_rtc.c ****       \arg        WAKEUP_RTCCK_DIV8: RTC auto wakeup timer clock is RTC clock divided by 8 
1046:C:/Users/leonardo/Desktop/Code/Github/DawnGBC/Libraries/FWLIB/src\gd32f4xx_rtc.c ****       \arg        WAKEUP_RTCCK_DIV4: RTC auto wakeup timer clock is RTC clock divided by 4 
1047:C:/Users/leonardo/Desktop/Code/Github/DawnGBC/Libraries/FWLIB/src\gd32f4xx_rtc.c ****       \arg        WAKEUP_RTCCK_DIV2: RTC auto wakeup timer clock is RTC clock divided by 2 
1048:C:/Users/leonardo/Desktop/Code/Github/DawnGBC/Libraries/FWLIB/src\gd32f4xx_rtc.c ****       \arg        WAKEUP_CKSPRE: RTC auto wakeup timer clock is ckspre
1049:C:/Users/leonardo/Desktop/Code/Github/DawnGBC/Libraries/FWLIB/src\gd32f4xx_rtc.c ****       \arg        WAKEUP_CKSPRE_2EXP16: RTC auto wakeup timer clock is ckspre and wakeup timer add 
1050:C:/Users/leonardo/Desktop/Code/Github/DawnGBC/Libraries/FWLIB/src\gd32f4xx_rtc.c ****     \param[out] none
1051:C:/Users/leonardo/Desktop/Code/Github/DawnGBC/Libraries/FWLIB/src\gd32f4xx_rtc.c ****     \retval     ErrStatus: ERROR or SUCCESS
1052:C:/Users/leonardo/Desktop/Code/Github/DawnGBC/Libraries/FWLIB/src\gd32f4xx_rtc.c **** */
1053:C:/Users/leonardo/Desktop/Code/Github/DawnGBC/Libraries/FWLIB/src\gd32f4xx_rtc.c **** ErrStatus rtc_wakeup_clock_set(uint8_t wakeup_clock)
1054:C:/Users/leonardo/Desktop/Code/Github/DawnGBC/Libraries/FWLIB/src\gd32f4xx_rtc.c **** {
 3139              		.loc 1 1054 1
 3140              		.cfi_startproc
 3141              		@ args = 0, pretend = 0, frame = 24
 3142              		@ frame_needed = 1, uses_anonymous_args = 0
 3143              		@ link register save eliminated.
 3144 0000 80B4     		push	{r7}
 3145              		.cfi_def_cfa_offset 4
 3146              		.cfi_offset 7, -4
 3147 0002 87B0     		sub	sp, sp, #28
 3148              		.cfi_def_cfa_offset 32
 3149 0004 00AF     		add	r7, sp, #0
 3150              		.cfi_def_cfa_register 7
 3151 0006 0346     		mov	r3, r0
 3152 0008 FB71     		strb	r3, [r7, #7]
1055:C:/Users/leonardo/Desktop/Code/Github/DawnGBC/Libraries/FWLIB/src\gd32f4xx_rtc.c ****     ErrStatus error_status = ERROR;
