   1              		.cpu cortex-m4
   2              		.eabi_attribute 20, 1
   3              		.eabi_attribute 21, 1
   4              		.eabi_attribute 23, 3
   5              		.eabi_attribute 24, 1
   6              		.eabi_attribute 25, 1
   7              		.eabi_attribute 26, 1
   8              		.eabi_attribute 30, 6
   9              		.eabi_attribute 34, 1
  10              		.eabi_attribute 18, 4
  11              		.file	"gd32f4xx_iref.c"
  12              		.text
  13              	.Ltext0:
  14              		.cfi_sections	.debug_frame
  15              		.section	.text.iref_deinit,"ax",%progbits
  16              		.align	1
  17              		.global	iref_deinit
  18              		.arch armv7e-m
  19              		.syntax unified
  20              		.thumb
  21              		.thumb_func
  22              		.fpu softvfp
  24              	iref_deinit:
  25              	.LFB123:
  26              		.file 1 "C:/Users/leonardo/Desktop/Code/Github/DawnBGC/Libraries/FWLIB/src/gd32f4xx_iref.c"
   1:C:/Users/leonardo/Desktop/Code/Github/DawnBGC/Libraries/FWLIB/src\gd32f4xx_iref.c **** /*!
   2:C:/Users/leonardo/Desktop/Code/Github/DawnBGC/Libraries/FWLIB/src\gd32f4xx_iref.c ****     \file  gd32f4xx_iref.c
   3:C:/Users/leonardo/Desktop/Code/Github/DawnBGC/Libraries/FWLIB/src\gd32f4xx_iref.c ****     \brief IREF driver
   4:C:/Users/leonardo/Desktop/Code/Github/DawnBGC/Libraries/FWLIB/src\gd32f4xx_iref.c **** */
   5:C:/Users/leonardo/Desktop/Code/Github/DawnBGC/Libraries/FWLIB/src\gd32f4xx_iref.c **** 
   6:C:/Users/leonardo/Desktop/Code/Github/DawnBGC/Libraries/FWLIB/src\gd32f4xx_iref.c **** /*
   7:C:/Users/leonardo/Desktop/Code/Github/DawnBGC/Libraries/FWLIB/src\gd32f4xx_iref.c ****     Copyright (C) 2016 GigaDevice
   8:C:/Users/leonardo/Desktop/Code/Github/DawnBGC/Libraries/FWLIB/src\gd32f4xx_iref.c **** 
   9:C:/Users/leonardo/Desktop/Code/Github/DawnBGC/Libraries/FWLIB/src\gd32f4xx_iref.c ****     2016-08-15, V1.0.0, firmware for GD32F4xx
  10:C:/Users/leonardo/Desktop/Code/Github/DawnBGC/Libraries/FWLIB/src\gd32f4xx_iref.c **** */
  11:C:/Users/leonardo/Desktop/Code/Github/DawnBGC/Libraries/FWLIB/src\gd32f4xx_iref.c **** 
  12:C:/Users/leonardo/Desktop/Code/Github/DawnBGC/Libraries/FWLIB/src\gd32f4xx_iref.c **** #include "gd32f4xx_iref.h"
  13:C:/Users/leonardo/Desktop/Code/Github/DawnBGC/Libraries/FWLIB/src\gd32f4xx_iref.c **** 
  14:C:/Users/leonardo/Desktop/Code/Github/DawnBGC/Libraries/FWLIB/src\gd32f4xx_iref.c **** /*!
  15:C:/Users/leonardo/Desktop/Code/Github/DawnBGC/Libraries/FWLIB/src\gd32f4xx_iref.c ****     \brief      deinit IREF
  16:C:/Users/leonardo/Desktop/Code/Github/DawnBGC/Libraries/FWLIB/src\gd32f4xx_iref.c ****     \param[in]  none
  17:C:/Users/leonardo/Desktop/Code/Github/DawnBGC/Libraries/FWLIB/src\gd32f4xx_iref.c ****     \param[out] none
  18:C:/Users/leonardo/Desktop/Code/Github/DawnBGC/Libraries/FWLIB/src\gd32f4xx_iref.c ****     \retval     none
  19:C:/Users/leonardo/Desktop/Code/Github/DawnBGC/Libraries/FWLIB/src\gd32f4xx_iref.c **** */
  20:C:/Users/leonardo/Desktop/Code/Github/DawnBGC/Libraries/FWLIB/src\gd32f4xx_iref.c **** void iref_deinit(void)
  21:C:/Users/leonardo/Desktop/Code/Github/DawnBGC/Libraries/FWLIB/src\gd32f4xx_iref.c **** {
  27              		.loc 1 21 1
  28              		.cfi_startproc
  29              		@ args = 0, pretend = 0, frame = 0
  30              		@ frame_needed = 1, uses_anonymous_args = 0
  31 0000 80B5     		push	{r7, lr}
  32              		.cfi_def_cfa_offset 8
  33              		.cfi_offset 7, -8
  34              		.cfi_offset 14, -4
  35 0002 00AF     		add	r7, sp, #0
  36              		.cfi_def_cfa_register 7
  22:C:/Users/leonardo/Desktop/Code/Github/DawnBGC/Libraries/FWLIB/src\gd32f4xx_iref.c ****     rcu_periph_reset_enable(RCU_IREFRST);
  37              		.loc 1 22 5
  38 0004 43F61F00 		movw	r0, #14367
  39 0008 FFF7FEFF 		bl	rcu_periph_reset_enable
  23:C:/Users/leonardo/Desktop/Code/Github/DawnBGC/Libraries/FWLIB/src\gd32f4xx_iref.c ****     rcu_periph_reset_disable(RCU_IREFRST);
  40              		.loc 1 23 5
  41 000c 43F61F00 		movw	r0, #14367
  42 0010 FFF7FEFF 		bl	rcu_periph_reset_disable
  24:C:/Users/leonardo/Desktop/Code/Github/DawnBGC/Libraries/FWLIB/src\gd32f4xx_iref.c **** }
  43              		.loc 1 24 1
  44 0014 00BF     		nop
  45 0016 80BD     		pop	{r7, pc}
  46              		.cfi_endproc
  47              	.LFE123:
  49              		.section	.text.iref_enable,"ax",%progbits
  50              		.align	1
  51              		.global	iref_enable
  52              		.syntax unified
  53              		.thumb
  54              		.thumb_func
  55              		.fpu softvfp
  57              	iref_enable:
  58              	.LFB124:
  25:C:/Users/leonardo/Desktop/Code/Github/DawnBGC/Libraries/FWLIB/src\gd32f4xx_iref.c **** 
  26:C:/Users/leonardo/Desktop/Code/Github/DawnBGC/Libraries/FWLIB/src\gd32f4xx_iref.c **** /*!
  27:C:/Users/leonardo/Desktop/Code/Github/DawnBGC/Libraries/FWLIB/src\gd32f4xx_iref.c ****     \brief      enable IREF
  28:C:/Users/leonardo/Desktop/Code/Github/DawnBGC/Libraries/FWLIB/src\gd32f4xx_iref.c ****     \param[in]  none
  29:C:/Users/leonardo/Desktop/Code/Github/DawnBGC/Libraries/FWLIB/src\gd32f4xx_iref.c ****     \param[out] none
  30:C:/Users/leonardo/Desktop/Code/Github/DawnBGC/Libraries/FWLIB/src\gd32f4xx_iref.c ****     \retval     none
  31:C:/Users/leonardo/Desktop/Code/Github/DawnBGC/Libraries/FWLIB/src\gd32f4xx_iref.c **** */
  32:C:/Users/leonardo/Desktop/Code/Github/DawnBGC/Libraries/FWLIB/src\gd32f4xx_iref.c **** void iref_enable(void)
  33:C:/Users/leonardo/Desktop/Code/Github/DawnBGC/Libraries/FWLIB/src\gd32f4xx_iref.c **** {
  59              		.loc 1 33 1
  60              		.cfi_startproc
  61              		@ args = 0, pretend = 0, frame = 0
  62              		@ frame_needed = 1, uses_anonymous_args = 0
  63              		@ link register save eliminated.
  64 0000 80B4     		push	{r7}
  65              		.cfi_def_cfa_offset 4
  66              		.cfi_offset 7, -4
  67 0002 00AF     		add	r7, sp, #0
  68              		.cfi_def_cfa_register 7
  34:C:/Users/leonardo/Desktop/Code/Github/DawnBGC/Libraries/FWLIB/src\gd32f4xx_iref.c ****     IREF_CTL |= IREF_CTL_CREN;
  69              		.loc 1 34 14
  70 0004 044B     		ldr	r3, .L3
  71 0006 1B68     		ldr	r3, [r3]
  72 0008 034A     		ldr	r2, .L3
  73 000a 43F40043 		orr	r3, r3, #32768
  74 000e 1360     		str	r3, [r2]
  35:C:/Users/leonardo/Desktop/Code/Github/DawnBGC/Libraries/FWLIB/src\gd32f4xx_iref.c **** }
  75              		.loc 1 35 1
  76 0010 00BF     		nop
  77 0012 BD46     		mov	sp, r7
  78              		.cfi_def_cfa_register 13
  79              		@ sp needed
  80 0014 80BC     		pop	{r7}
  81              		.cfi_restore 7
  82              		.cfi_def_cfa_offset 0
  83 0016 7047     		bx	lr
  84              	.L4:
  85              		.align	2
  86              	.L3:
  87 0018 00C70040 		.word	1073792768
  88              		.cfi_endproc
  89              	.LFE124:
  91              		.section	.text.iref_disable,"ax",%progbits
  92              		.align	1
  93              		.global	iref_disable
  94              		.syntax unified
  95              		.thumb
  96              		.thumb_func
  97              		.fpu softvfp
  99              	iref_disable:
 100              	.LFB125:
  36:C:/Users/leonardo/Desktop/Code/Github/DawnBGC/Libraries/FWLIB/src\gd32f4xx_iref.c **** 
  37:C:/Users/leonardo/Desktop/Code/Github/DawnBGC/Libraries/FWLIB/src\gd32f4xx_iref.c **** /*!
  38:C:/Users/leonardo/Desktop/Code/Github/DawnBGC/Libraries/FWLIB/src\gd32f4xx_iref.c ****     \brief      disable IREF
  39:C:/Users/leonardo/Desktop/Code/Github/DawnBGC/Libraries/FWLIB/src\gd32f4xx_iref.c ****     \param[in]  none
  40:C:/Users/leonardo/Desktop/Code/Github/DawnBGC/Libraries/FWLIB/src\gd32f4xx_iref.c ****     \param[out] none
  41:C:/Users/leonardo/Desktop/Code/Github/DawnBGC/Libraries/FWLIB/src\gd32f4xx_iref.c ****     \retval     none
  42:C:/Users/leonardo/Desktop/Code/Github/DawnBGC/Libraries/FWLIB/src\gd32f4xx_iref.c **** */
  43:C:/Users/leonardo/Desktop/Code/Github/DawnBGC/Libraries/FWLIB/src\gd32f4xx_iref.c **** void iref_disable(void)
  44:C:/Users/leonardo/Desktop/Code/Github/DawnBGC/Libraries/FWLIB/src\gd32f4xx_iref.c **** {
 101              		.loc 1 44 1
 102              		.cfi_startproc
 103              		@ args = 0, pretend = 0, frame = 0
 104              		@ frame_needed = 1, uses_anonymous_args = 0
 105              		@ link register save eliminated.
 106 0000 80B4     		push	{r7}
 107              		.cfi_def_cfa_offset 4
 108              		.cfi_offset 7, -4
 109 0002 00AF     		add	r7, sp, #0
 110              		.cfi_def_cfa_register 7
  45:C:/Users/leonardo/Desktop/Code/Github/DawnBGC/Libraries/FWLIB/src\gd32f4xx_iref.c ****     IREF_CTL &= ~IREF_CTL_CREN;
 111              		.loc 1 45 14
 112 0004 044B     		ldr	r3, .L6
 113 0006 1B68     		ldr	r3, [r3]
 114 0008 034A     		ldr	r2, .L6
 115 000a 23F40043 		bic	r3, r3, #32768
 116 000e 1360     		str	r3, [r2]
  46:C:/Users/leonardo/Desktop/Code/Github/DawnBGC/Libraries/FWLIB/src\gd32f4xx_iref.c **** }
 117              		.loc 1 46 1
 118 0010 00BF     		nop
 119 0012 BD46     		mov	sp, r7
 120              		.cfi_def_cfa_register 13
 121              		@ sp needed
 122 0014 80BC     		pop	{r7}
 123              		.cfi_restore 7
 124              		.cfi_def_cfa_offset 0
 125 0016 7047     		bx	lr
 126              	.L7:
 127              		.align	2
 128              	.L6:
 129 0018 00C70040 		.word	1073792768
 130              		.cfi_endproc
 131              	.LFE125:
 133              		.section	.text.iref_mode_set,"ax",%progbits
 134              		.align	1
 135              		.global	iref_mode_set
 136              		.syntax unified
 137              		.thumb
 138              		.thumb_func
 139              		.fpu softvfp
 141              	iref_mode_set:
 142              	.LFB126:
  47:C:/Users/leonardo/Desktop/Code/Github/DawnBGC/Libraries/FWLIB/src\gd32f4xx_iref.c **** 
  48:C:/Users/leonardo/Desktop/Code/Github/DawnBGC/Libraries/FWLIB/src\gd32f4xx_iref.c **** /*!
  49:C:/Users/leonardo/Desktop/Code/Github/DawnBGC/Libraries/FWLIB/src\gd32f4xx_iref.c ****     \brief      set IREF mode
  50:C:/Users/leonardo/Desktop/Code/Github/DawnBGC/Libraries/FWLIB/src\gd32f4xx_iref.c ****     \param[in]  step
  51:C:/Users/leonardo/Desktop/Code/Github/DawnBGC/Libraries/FWLIB/src\gd32f4xx_iref.c ****       \arg        IREF_MODE_LOW_POWER: 1uA step
  52:C:/Users/leonardo/Desktop/Code/Github/DawnBGC/Libraries/FWLIB/src\gd32f4xx_iref.c ****       \arg        IREF_MODE_HIGH_CURRENT: 8uA step
  53:C:/Users/leonardo/Desktop/Code/Github/DawnBGC/Libraries/FWLIB/src\gd32f4xx_iref.c ****     \param[out] none
  54:C:/Users/leonardo/Desktop/Code/Github/DawnBGC/Libraries/FWLIB/src\gd32f4xx_iref.c ****     \retval     none
  55:C:/Users/leonardo/Desktop/Code/Github/DawnBGC/Libraries/FWLIB/src\gd32f4xx_iref.c **** */
  56:C:/Users/leonardo/Desktop/Code/Github/DawnBGC/Libraries/FWLIB/src\gd32f4xx_iref.c **** void iref_mode_set(uint32_t step)
  57:C:/Users/leonardo/Desktop/Code/Github/DawnBGC/Libraries/FWLIB/src\gd32f4xx_iref.c **** {
 143              		.loc 1 57 1
 144              		.cfi_startproc
 145              		@ args = 0, pretend = 0, frame = 8
 146              		@ frame_needed = 1, uses_anonymous_args = 0
 147              		@ link register save eliminated.
 148 0000 80B4     		push	{r7}
 149              		.cfi_def_cfa_offset 4
 150              		.cfi_offset 7, -4
 151 0002 83B0     		sub	sp, sp, #12
 152              		.cfi_def_cfa_offset 16
 153 0004 00AF     		add	r7, sp, #0
 154              		.cfi_def_cfa_register 7
 155 0006 7860     		str	r0, [r7, #4]
  58:C:/Users/leonardo/Desktop/Code/Github/DawnBGC/Libraries/FWLIB/src\gd32f4xx_iref.c ****     IREF_CTL &= ~IREF_CTL_SSEL;
 156              		.loc 1 58 14
 157 0008 084B     		ldr	r3, .L9
 158 000a 1B68     		ldr	r3, [r3]
 159 000c 074A     		ldr	r2, .L9
 160 000e 23F48043 		bic	r3, r3, #16384
 161 0012 1360     		str	r3, [r2]
  59:C:/Users/leonardo/Desktop/Code/Github/DawnBGC/Libraries/FWLIB/src\gd32f4xx_iref.c ****     IREF_CTL |= step;
 162              		.loc 1 59 14
 163 0014 054B     		ldr	r3, .L9
 164 0016 1A68     		ldr	r2, [r3]
 165 0018 0449     		ldr	r1, .L9
 166 001a 7B68     		ldr	r3, [r7, #4]
 167 001c 1343     		orrs	r3, r3, r2
 168 001e 0B60     		str	r3, [r1]
  60:C:/Users/leonardo/Desktop/Code/Github/DawnBGC/Libraries/FWLIB/src\gd32f4xx_iref.c **** }
 169              		.loc 1 60 1
 170 0020 00BF     		nop
 171 0022 0C37     		adds	r7, r7, #12
 172              		.cfi_def_cfa_offset 4
 173 0024 BD46     		mov	sp, r7
 174              		.cfi_def_cfa_register 13
 175              		@ sp needed
 176 0026 80BC     		pop	{r7}
 177              		.cfi_restore 7
 178              		.cfi_def_cfa_offset 0
 179 0028 7047     		bx	lr
 180              	.L10:
 181 002a 00BF     		.align	2
 182              	.L9:
 183 002c 00C70040 		.word	1073792768
 184              		.cfi_endproc
 185              	.LFE126:
 187              		.section	.text.iref_precision_trim_value_set,"ax",%progbits
 188              		.align	1
 189              		.global	iref_precision_trim_value_set
 190              		.syntax unified
 191              		.thumb
 192              		.thumb_func
 193              		.fpu softvfp
 195              	iref_precision_trim_value_set:
 196              	.LFB127:
  61:C:/Users/leonardo/Desktop/Code/Github/DawnBGC/Libraries/FWLIB/src\gd32f4xx_iref.c **** 
  62:C:/Users/leonardo/Desktop/Code/Github/DawnBGC/Libraries/FWLIB/src\gd32f4xx_iref.c **** /*!
  63:C:/Users/leonardo/Desktop/Code/Github/DawnBGC/Libraries/FWLIB/src\gd32f4xx_iref.c ****     \brief      set IREF precision_trim_value
  64:C:/Users/leonardo/Desktop/Code/Github/DawnBGC/Libraries/FWLIB/src\gd32f4xx_iref.c ****     \param[in]  precisiontrim
  65:C:/Users/leonardo/Desktop/Code/Github/DawnBGC/Libraries/FWLIB/src\gd32f4xx_iref.c ****       \arg        IREF_CUR_PRECISION_TRIM_X(x=0..31): (-15+ x)%
  66:C:/Users/leonardo/Desktop/Code/Github/DawnBGC/Libraries/FWLIB/src\gd32f4xx_iref.c ****     \param[out] none
  67:C:/Users/leonardo/Desktop/Code/Github/DawnBGC/Libraries/FWLIB/src\gd32f4xx_iref.c ****     \retval     none
  68:C:/Users/leonardo/Desktop/Code/Github/DawnBGC/Libraries/FWLIB/src\gd32f4xx_iref.c **** */
  69:C:/Users/leonardo/Desktop/Code/Github/DawnBGC/Libraries/FWLIB/src\gd32f4xx_iref.c **** void iref_precision_trim_value_set(uint32_t precisiontrim)
  70:C:/Users/leonardo/Desktop/Code/Github/DawnBGC/Libraries/FWLIB/src\gd32f4xx_iref.c **** {
 197              		.loc 1 70 1
 198              		.cfi_startproc
 199              		@ args = 0, pretend = 0, frame = 8
 200              		@ frame_needed = 1, uses_anonymous_args = 0
 201              		@ link register save eliminated.
 202 0000 80B4     		push	{r7}
 203              		.cfi_def_cfa_offset 4
 204              		.cfi_offset 7, -4
 205 0002 83B0     		sub	sp, sp, #12
 206              		.cfi_def_cfa_offset 16
 207 0004 00AF     		add	r7, sp, #0
 208              		.cfi_def_cfa_register 7
 209 0006 7860     		str	r0, [r7, #4]
  71:C:/Users/leonardo/Desktop/Code/Github/DawnBGC/Libraries/FWLIB/src\gd32f4xx_iref.c ****     IREF_CTL &= ~IREF_CTL_CPT;
 210              		.loc 1 71 14
 211 0008 084B     		ldr	r3, .L12
 212 000a 1B68     		ldr	r3, [r3]
 213 000c 074A     		ldr	r2, .L12
 214 000e 23F4F853 		bic	r3, r3, #7936
 215 0012 1360     		str	r3, [r2]
  72:C:/Users/leonardo/Desktop/Code/Github/DawnBGC/Libraries/FWLIB/src\gd32f4xx_iref.c ****     IREF_CTL |= precisiontrim;
 216              		.loc 1 72 14
 217 0014 054B     		ldr	r3, .L12
 218 0016 1A68     		ldr	r2, [r3]
 219 0018 0449     		ldr	r1, .L12
 220 001a 7B68     		ldr	r3, [r7, #4]
 221 001c 1343     		orrs	r3, r3, r2
 222 001e 0B60     		str	r3, [r1]
  73:C:/Users/leonardo/Desktop/Code/Github/DawnBGC/Libraries/FWLIB/src\gd32f4xx_iref.c **** }
 223              		.loc 1 73 1
 224 0020 00BF     		nop
 225 0022 0C37     		adds	r7, r7, #12
 226              		.cfi_def_cfa_offset 4
 227 0024 BD46     		mov	sp, r7
 228              		.cfi_def_cfa_register 13
 229              		@ sp needed
 230 0026 80BC     		pop	{r7}
 231              		.cfi_restore 7
 232              		.cfi_def_cfa_offset 0
 233 0028 7047     		bx	lr
 234              	.L13:
 235 002a 00BF     		.align	2
 236              	.L12:
 237 002c 00C70040 		.word	1073792768
 238              		.cfi_endproc
 239              	.LFE127:
 241              		.section	.text.iref_sink_set,"ax",%progbits
 242              		.align	1
 243              		.global	iref_sink_set
 244              		.syntax unified
 245              		.thumb
 246              		.thumb_func
 247              		.fpu softvfp
 249              	iref_sink_set:
 250              	.LFB128:
  74:C:/Users/leonardo/Desktop/Code/Github/DawnBGC/Libraries/FWLIB/src\gd32f4xx_iref.c **** 
  75:C:/Users/leonardo/Desktop/Code/Github/DawnBGC/Libraries/FWLIB/src\gd32f4xx_iref.c **** /*!
  76:C:/Users/leonardo/Desktop/Code/Github/DawnBGC/Libraries/FWLIB/src\gd32f4xx_iref.c ****     \brief      set IREF sink mode
  77:C:/Users/leonardo/Desktop/Code/Github/DawnBGC/Libraries/FWLIB/src\gd32f4xx_iref.c ****     \param[in]  sinkmode
  78:C:/Users/leonardo/Desktop/Code/Github/DawnBGC/Libraries/FWLIB/src\gd32f4xx_iref.c ****       \arg        IREF_SOURCE_CURRENT : source current.
  79:C:/Users/leonardo/Desktop/Code/Github/DawnBGC/Libraries/FWLIB/src\gd32f4xx_iref.c ****       \arg        IREF_SINK_CURRENT: sink current
  80:C:/Users/leonardo/Desktop/Code/Github/DawnBGC/Libraries/FWLIB/src\gd32f4xx_iref.c ****     \param[out] none
  81:C:/Users/leonardo/Desktop/Code/Github/DawnBGC/Libraries/FWLIB/src\gd32f4xx_iref.c ****     \retval     none
  82:C:/Users/leonardo/Desktop/Code/Github/DawnBGC/Libraries/FWLIB/src\gd32f4xx_iref.c **** */
  83:C:/Users/leonardo/Desktop/Code/Github/DawnBGC/Libraries/FWLIB/src\gd32f4xx_iref.c **** void iref_sink_set(uint32_t sinkmode)
  84:C:/Users/leonardo/Desktop/Code/Github/DawnBGC/Libraries/FWLIB/src\gd32f4xx_iref.c **** {
 251              		.loc 1 84 1
 252              		.cfi_startproc
 253              		@ args = 0, pretend = 0, frame = 8
 254              		@ frame_needed = 1, uses_anonymous_args = 0
 255              		@ link register save eliminated.
 256 0000 80B4     		push	{r7}
 257              		.cfi_def_cfa_offset 4
 258              		.cfi_offset 7, -4
 259 0002 83B0     		sub	sp, sp, #12
 260              		.cfi_def_cfa_offset 16
 261 0004 00AF     		add	r7, sp, #0
 262              		.cfi_def_cfa_register 7
 263 0006 7860     		str	r0, [r7, #4]
  85:C:/Users/leonardo/Desktop/Code/Github/DawnBGC/Libraries/FWLIB/src\gd32f4xx_iref.c ****     IREF_CTL &= ~IREF_CTL_SCMOD;
 264              		.loc 1 85 14
 265 0008 084B     		ldr	r3, .L15
 266 000a 1B68     		ldr	r3, [r3]
 267 000c 074A     		ldr	r2, .L15
 268 000e 23F08003 		bic	r3, r3, #128
 269 0012 1360     		str	r3, [r2]
  86:C:/Users/leonardo/Desktop/Code/Github/DawnBGC/Libraries/FWLIB/src\gd32f4xx_iref.c ****     IREF_CTL |= sinkmode;
 270              		.loc 1 86 14
 271 0014 054B     		ldr	r3, .L15
 272 0016 1A68     		ldr	r2, [r3]
 273 0018 0449     		ldr	r1, .L15
 274 001a 7B68     		ldr	r3, [r7, #4]
 275 001c 1343     		orrs	r3, r3, r2
 276 001e 0B60     		str	r3, [r1]
  87:C:/Users/leonardo/Desktop/Code/Github/DawnBGC/Libraries/FWLIB/src\gd32f4xx_iref.c **** }
 277              		.loc 1 87 1
 278 0020 00BF     		nop
 279 0022 0C37     		adds	r7, r7, #12
 280              		.cfi_def_cfa_offset 4
 281 0024 BD46     		mov	sp, r7
 282              		.cfi_def_cfa_register 13
 283              		@ sp needed
 284 0026 80BC     		pop	{r7}
 285              		.cfi_restore 7
 286              		.cfi_def_cfa_offset 0
 287 0028 7047     		bx	lr
 288              	.L16:
 289 002a 00BF     		.align	2
 290              	.L15:
 291 002c 00C70040 		.word	1073792768
 292              		.cfi_endproc
 293              	.LFE128:
 295              		.section	.text.iref_step_data_config,"ax",%progbits
 296              		.align	1
 297              		.global	iref_step_data_config
 298              		.syntax unified
 299              		.thumb
 300              		.thumb_func
 301              		.fpu softvfp
 303              	iref_step_data_config:
 304              	.LFB129:
  88:C:/Users/leonardo/Desktop/Code/Github/DawnBGC/Libraries/FWLIB/src\gd32f4xx_iref.c **** 
  89:C:/Users/leonardo/Desktop/Code/Github/DawnBGC/Libraries/FWLIB/src\gd32f4xx_iref.c **** /*!
  90:C:/Users/leonardo/Desktop/Code/Github/DawnBGC/Libraries/FWLIB/src\gd32f4xx_iref.c ****     \brief      set IREF step data 
  91:C:/Users/leonardo/Desktop/Code/Github/DawnBGC/Libraries/FWLIB/src\gd32f4xx_iref.c ****     \param[in]  stepdata
  92:C:/Users/leonardo/Desktop/Code/Github/DawnBGC/Libraries/FWLIB/src\gd32f4xx_iref.c ****       \arg        IREF_CUR_STEP_DATA_X:(x=0..63): step*x
  93:C:/Users/leonardo/Desktop/Code/Github/DawnBGC/Libraries/FWLIB/src\gd32f4xx_iref.c ****     \param[out] none
  94:C:/Users/leonardo/Desktop/Code/Github/DawnBGC/Libraries/FWLIB/src\gd32f4xx_iref.c ****     \retval     none
  95:C:/Users/leonardo/Desktop/Code/Github/DawnBGC/Libraries/FWLIB/src\gd32f4xx_iref.c **** */
  96:C:/Users/leonardo/Desktop/Code/Github/DawnBGC/Libraries/FWLIB/src\gd32f4xx_iref.c **** 
  97:C:/Users/leonardo/Desktop/Code/Github/DawnBGC/Libraries/FWLIB/src\gd32f4xx_iref.c **** void iref_step_data_config(uint32_t stepdata)
  98:C:/Users/leonardo/Desktop/Code/Github/DawnBGC/Libraries/FWLIB/src\gd32f4xx_iref.c **** {
 305              		.loc 1 98 1
 306              		.cfi_startproc
 307              		@ args = 0, pretend = 0, frame = 8
 308              		@ frame_needed = 1, uses_anonymous_args = 0
 309              		@ link register save eliminated.
 310 0000 80B4     		push	{r7}
 311              		.cfi_def_cfa_offset 4
 312              		.cfi_offset 7, -4
 313 0002 83B0     		sub	sp, sp, #12
 314              		.cfi_def_cfa_offset 16
 315 0004 00AF     		add	r7, sp, #0
 316              		.cfi_def_cfa_register 7
 317 0006 7860     		str	r0, [r7, #4]
  99:C:/Users/leonardo/Desktop/Code/Github/DawnBGC/Libraries/FWLIB/src\gd32f4xx_iref.c ****     IREF_CTL &= ~IREF_CTL_CSDT;
 318              		.loc 1 99 14
 319 0008 084B     		ldr	r3, .L18
 320 000a 1B68     		ldr	r3, [r3]
 321 000c 074A     		ldr	r2, .L18
 322 000e 23F03F03 		bic	r3, r3, #63
 323 0012 1360     		str	r3, [r2]
 100:C:/Users/leonardo/Desktop/Code/Github/DawnBGC/Libraries/FWLIB/src\gd32f4xx_iref.c ****     IREF_CTL |= stepdata;
 324              		.loc 1 100 14
 325 0014 054B     		ldr	r3, .L18
 326 0016 1A68     		ldr	r2, [r3]
 327 0018 0449     		ldr	r1, .L18
 328 001a 7B68     		ldr	r3, [r7, #4]
 329 001c 1343     		orrs	r3, r3, r2
 330 001e 0B60     		str	r3, [r1]
 101:C:/Users/leonardo/Desktop/Code/Github/DawnBGC/Libraries/FWLIB/src\gd32f4xx_iref.c **** }
 331              		.loc 1 101 1
 332 0020 00BF     		nop
 333 0022 0C37     		adds	r7, r7, #12
 334              		.cfi_def_cfa_offset 4
 335 0024 BD46     		mov	sp, r7
 336              		.cfi_def_cfa_register 13
 337              		@ sp needed
 338 0026 80BC     		pop	{r7}
 339              		.cfi_restore 7
 340              		.cfi_def_cfa_offset 0
 341 0028 7047     		bx	lr
 342              	.L19:
 343 002a 00BF     		.align	2
 344              	.L18:
 345 002c 00C70040 		.word	1073792768
 346              		.cfi_endproc
 347              	.LFE129:
 349              		.text
 350              	.Letext0:
 351              		.file 2 "c:\\users\\leonardo\\desktop\\gd32embeddedbuilder_v1.5.6_rel\\tools\\gnu tools arm embedd
 352              		.file 3 "c:\\users\\leonardo\\desktop\\gd32embeddedbuilder_v1.5.6_rel\\tools\\gnu tools arm embedd
 353              		.file 4 "../../CMSIS/DSP/Include/core_cm4.h"
 354              		.file 5 "../../CMSIS/system_gd32f4xx.h"
 355              		.file 6 "../../Libraries/FWLIB/inc/gd32f4xx_rcu.h"