   1              		.cpu cortex-m4
   2              		.eabi_attribute 20, 1
   3              		.eabi_attribute 21, 1
   4              		.eabi_attribute 23, 3
   5              		.eabi_attribute 24, 1
   6              		.eabi_attribute 25, 1
   7              		.eabi_attribute 26, 1
   8              		.eabi_attribute 30, 6
   9              		.eabi_attribute 34, 1
  10              		.eabi_attribute 18, 4
  11              		.file	"gd32f4xx_spi.c"
  12              		.text
  13              	.Ltext0:
  14              		.cfi_sections	.debug_frame
  15              		.section	.text.spi_i2s_deinit,"ax",%progbits
  16              		.align	1
  17              		.global	spi_i2s_deinit
  18              		.arch armv7e-m
  19              		.syntax unified
  20              		.thumb
  21              		.thumb_func
  22              		.fpu softvfp
  24              	spi_i2s_deinit:
  25              	.LFB123:
  26              		.file 1 "C:/Users/leonardo/Desktop/Code/Github/DawnGBC/Libraries/FWLIB/src/gd32f4xx_spi.c"
   1:C:/Users/leonardo/Desktop/Code/Github/DawnGBC/Libraries/FWLIB/src\gd32f4xx_spi.c **** /*!
   2:C:/Users/leonardo/Desktop/Code/Github/DawnGBC/Libraries/FWLIB/src\gd32f4xx_spi.c ****     \file  gd32f4xx_spi.c
   3:C:/Users/leonardo/Desktop/Code/Github/DawnGBC/Libraries/FWLIB/src\gd32f4xx_spi.c ****     \brief SPI driver
   4:C:/Users/leonardo/Desktop/Code/Github/DawnGBC/Libraries/FWLIB/src\gd32f4xx_spi.c **** */
   5:C:/Users/leonardo/Desktop/Code/Github/DawnGBC/Libraries/FWLIB/src\gd32f4xx_spi.c **** 
   6:C:/Users/leonardo/Desktop/Code/Github/DawnGBC/Libraries/FWLIB/src\gd32f4xx_spi.c **** /*
   7:C:/Users/leonardo/Desktop/Code/Github/DawnGBC/Libraries/FWLIB/src\gd32f4xx_spi.c ****     Copyright (C) 2016 GigaDevice
   8:C:/Users/leonardo/Desktop/Code/Github/DawnGBC/Libraries/FWLIB/src\gd32f4xx_spi.c **** 
   9:C:/Users/leonardo/Desktop/Code/Github/DawnGBC/Libraries/FWLIB/src\gd32f4xx_spi.c ****     2016-08-15, V1.0.2, firmware for GD32F4xx
  10:C:/Users/leonardo/Desktop/Code/Github/DawnGBC/Libraries/FWLIB/src\gd32f4xx_spi.c **** */
  11:C:/Users/leonardo/Desktop/Code/Github/DawnGBC/Libraries/FWLIB/src\gd32f4xx_spi.c **** 
  12:C:/Users/leonardo/Desktop/Code/Github/DawnGBC/Libraries/FWLIB/src\gd32f4xx_spi.c **** #include "gd32f4xx_spi.h"
  13:C:/Users/leonardo/Desktop/Code/Github/DawnGBC/Libraries/FWLIB/src\gd32f4xx_spi.c **** #include "gd32f4xx_rcu.h"
  14:C:/Users/leonardo/Desktop/Code/Github/DawnGBC/Libraries/FWLIB/src\gd32f4xx_spi.c **** 
  15:C:/Users/leonardo/Desktop/Code/Github/DawnGBC/Libraries/FWLIB/src\gd32f4xx_spi.c **** #define SPI_INIT_MASK                   ((uint32_t)0x00003040U)
  16:C:/Users/leonardo/Desktop/Code/Github/DawnGBC/Libraries/FWLIB/src\gd32f4xx_spi.c **** #define I2S_INIT_MASK                   ((uint32_t)0x0000F047U)
  17:C:/Users/leonardo/Desktop/Code/Github/DawnGBC/Libraries/FWLIB/src\gd32f4xx_spi.c **** #define I2S_FULL_DUPLEX_MASK            ((uint32_t)0x0000F040U)
  18:C:/Users/leonardo/Desktop/Code/Github/DawnGBC/Libraries/FWLIB/src\gd32f4xx_spi.c **** 
  19:C:/Users/leonardo/Desktop/Code/Github/DawnGBC/Libraries/FWLIB/src\gd32f4xx_spi.c **** /*!
  20:C:/Users/leonardo/Desktop/Code/Github/DawnGBC/Libraries/FWLIB/src\gd32f4xx_spi.c ****     \brief      reset SPI and I2S 
  21:C:/Users/leonardo/Desktop/Code/Github/DawnGBC/Libraries/FWLIB/src\gd32f4xx_spi.c ****     \param[in]  spi_periph: SPIx(x=0,1,2,3,4,5),include I2S1_ADD and I2S2_ADD
  22:C:/Users/leonardo/Desktop/Code/Github/DawnGBC/Libraries/FWLIB/src\gd32f4xx_spi.c ****     \param[out] none
  23:C:/Users/leonardo/Desktop/Code/Github/DawnGBC/Libraries/FWLIB/src\gd32f4xx_spi.c ****     \retval     none
  24:C:/Users/leonardo/Desktop/Code/Github/DawnGBC/Libraries/FWLIB/src\gd32f4xx_spi.c **** */
  25:C:/Users/leonardo/Desktop/Code/Github/DawnGBC/Libraries/FWLIB/src\gd32f4xx_spi.c **** void spi_i2s_deinit(uint32_t spi_periph)
  26:C:/Users/leonardo/Desktop/Code/Github/DawnGBC/Libraries/FWLIB/src\gd32f4xx_spi.c **** {
  27              		.loc 1 26 1
  28              		.cfi_startproc
  29              		@ args = 0, pretend = 0, frame = 8
  30              		@ frame_needed = 1, uses_anonymous_args = 0
  31 0000 80B5     		push	{r7, lr}
  32              		.cfi_def_cfa_offset 8
  33              		.cfi_offset 7, -8
  34              		.cfi_offset 14, -4
  35 0002 82B0     		sub	sp, sp, #8
  36              		.cfi_def_cfa_offset 16
  37 0004 00AF     		add	r7, sp, #0
  38              		.cfi_def_cfa_register 7
  39 0006 7860     		str	r0, [r7, #4]
  27:C:/Users/leonardo/Desktop/Code/Github/DawnGBC/Libraries/FWLIB/src\gd32f4xx_spi.c ****     switch(spi_periph){
  40              		.loc 1 27 5
  41 0008 7B68     		ldr	r3, [r7, #4]
  42 000a 314A     		ldr	r2, .L11
  43 000c 9342     		cmp	r3, r2
  44 000e 51D0     		beq	.L2
  45 0010 7B68     		ldr	r3, [r7, #4]
  46 0012 2F4A     		ldr	r2, .L11
  47 0014 9342     		cmp	r3, r2
  48 0016 56D8     		bhi	.L10
  49 0018 7B68     		ldr	r3, [r7, #4]
  50 001a 2E4A     		ldr	r2, .L11+4
  51 001c 9342     		cmp	r3, r2
  52 001e 40D0     		beq	.L4
  53 0020 7B68     		ldr	r3, [r7, #4]
  54 0022 2C4A     		ldr	r2, .L11+4
  55 0024 9342     		cmp	r3, r2
  56 0026 4ED8     		bhi	.L10
  57 0028 7B68     		ldr	r3, [r7, #4]
  58 002a 2B4A     		ldr	r2, .L11+8
  59 002c 9342     		cmp	r3, r2
  60 002e 2FD0     		beq	.L5
  61 0030 7B68     		ldr	r3, [r7, #4]
  62 0032 294A     		ldr	r2, .L11+8
  63 0034 9342     		cmp	r3, r2
  64 0036 46D8     		bhi	.L10
  65 0038 7B68     		ldr	r3, [r7, #4]
  66 003a 284A     		ldr	r2, .L11+12
  67 003c 9342     		cmp	r3, r2
  68 003e 0CD0     		beq	.L6
  69 0040 7B68     		ldr	r3, [r7, #4]
  70 0042 264A     		ldr	r2, .L11+12
  71 0044 9342     		cmp	r3, r2
  72 0046 3ED8     		bhi	.L10
  73 0048 7B68     		ldr	r3, [r7, #4]
  74 004a 254A     		ldr	r2, .L11+16
  75 004c 9342     		cmp	r3, r2
  76 004e 0DD0     		beq	.L7
  77 0050 7B68     		ldr	r3, [r7, #4]
  78 0052 244A     		ldr	r2, .L11+20
  79 0054 9342     		cmp	r3, r2
  80 0056 12D0     		beq	.L8
  28:C:/Users/leonardo/Desktop/Code/Github/DawnGBC/Libraries/FWLIB/src\gd32f4xx_spi.c ****     case SPI0:
  29:C:/Users/leonardo/Desktop/Code/Github/DawnGBC/Libraries/FWLIB/src\gd32f4xx_spi.c ****         /* reset SPI0 */
  30:C:/Users/leonardo/Desktop/Code/Github/DawnGBC/Libraries/FWLIB/src\gd32f4xx_spi.c ****         rcu_periph_reset_enable(RCU_SPI0RST);
  31:C:/Users/leonardo/Desktop/Code/Github/DawnGBC/Libraries/FWLIB/src\gd32f4xx_spi.c ****         rcu_periph_reset_disable(RCU_SPI0RST);
  32:C:/Users/leonardo/Desktop/Code/Github/DawnGBC/Libraries/FWLIB/src\gd32f4xx_spi.c ****         break;
  33:C:/Users/leonardo/Desktop/Code/Github/DawnGBC/Libraries/FWLIB/src\gd32f4xx_spi.c ****     case SPI1:
  34:C:/Users/leonardo/Desktop/Code/Github/DawnGBC/Libraries/FWLIB/src\gd32f4xx_spi.c ****         /* reset SPI1,I2S1 and I2S1_ADD */
  35:C:/Users/leonardo/Desktop/Code/Github/DawnGBC/Libraries/FWLIB/src\gd32f4xx_spi.c ****         rcu_periph_reset_enable(RCU_SPI1RST);
  36:C:/Users/leonardo/Desktop/Code/Github/DawnGBC/Libraries/FWLIB/src\gd32f4xx_spi.c ****         rcu_periph_reset_disable(RCU_SPI1RST);
  37:C:/Users/leonardo/Desktop/Code/Github/DawnGBC/Libraries/FWLIB/src\gd32f4xx_spi.c ****         break;
  38:C:/Users/leonardo/Desktop/Code/Github/DawnGBC/Libraries/FWLIB/src\gd32f4xx_spi.c ****     case SPI2:
  39:C:/Users/leonardo/Desktop/Code/Github/DawnGBC/Libraries/FWLIB/src\gd32f4xx_spi.c ****         /* reset SPI2,I2S2 and I2S2_ADD */
  40:C:/Users/leonardo/Desktop/Code/Github/DawnGBC/Libraries/FWLIB/src\gd32f4xx_spi.c ****         rcu_periph_reset_enable(RCU_SPI2RST);
  41:C:/Users/leonardo/Desktop/Code/Github/DawnGBC/Libraries/FWLIB/src\gd32f4xx_spi.c ****         rcu_periph_reset_disable(RCU_SPI2RST);
  42:C:/Users/leonardo/Desktop/Code/Github/DawnGBC/Libraries/FWLIB/src\gd32f4xx_spi.c ****         break;
  43:C:/Users/leonardo/Desktop/Code/Github/DawnGBC/Libraries/FWLIB/src\gd32f4xx_spi.c ****     case SPI3:
  44:C:/Users/leonardo/Desktop/Code/Github/DawnGBC/Libraries/FWLIB/src\gd32f4xx_spi.c ****         /* reset SPI3 */
  45:C:/Users/leonardo/Desktop/Code/Github/DawnGBC/Libraries/FWLIB/src\gd32f4xx_spi.c ****         rcu_periph_reset_enable(RCU_SPI3RST);
  46:C:/Users/leonardo/Desktop/Code/Github/DawnGBC/Libraries/FWLIB/src\gd32f4xx_spi.c ****         rcu_periph_reset_disable(RCU_SPI3RST);
  47:C:/Users/leonardo/Desktop/Code/Github/DawnGBC/Libraries/FWLIB/src\gd32f4xx_spi.c ****         break;
  48:C:/Users/leonardo/Desktop/Code/Github/DawnGBC/Libraries/FWLIB/src\gd32f4xx_spi.c ****     case SPI4:
  49:C:/Users/leonardo/Desktop/Code/Github/DawnGBC/Libraries/FWLIB/src\gd32f4xx_spi.c ****         /* reset SPI4 */
  50:C:/Users/leonardo/Desktop/Code/Github/DawnGBC/Libraries/FWLIB/src\gd32f4xx_spi.c ****         rcu_periph_reset_enable(RCU_SPI4RST);
  51:C:/Users/leonardo/Desktop/Code/Github/DawnGBC/Libraries/FWLIB/src\gd32f4xx_spi.c ****         rcu_periph_reset_disable(RCU_SPI4RST);
  52:C:/Users/leonardo/Desktop/Code/Github/DawnGBC/Libraries/FWLIB/src\gd32f4xx_spi.c ****         break;
  53:C:/Users/leonardo/Desktop/Code/Github/DawnGBC/Libraries/FWLIB/src\gd32f4xx_spi.c ****     case SPI5:
  54:C:/Users/leonardo/Desktop/Code/Github/DawnGBC/Libraries/FWLIB/src\gd32f4xx_spi.c ****         /* reset SPI5 */
  55:C:/Users/leonardo/Desktop/Code/Github/DawnGBC/Libraries/FWLIB/src\gd32f4xx_spi.c ****         rcu_periph_reset_enable(RCU_SPI5RST);
  56:C:/Users/leonardo/Desktop/Code/Github/DawnGBC/Libraries/FWLIB/src\gd32f4xx_spi.c ****         rcu_periph_reset_disable(RCU_SPI5RST);
  57:C:/Users/leonardo/Desktop/Code/Github/DawnGBC/Libraries/FWLIB/src\gd32f4xx_spi.c ****         break;
  58:C:/Users/leonardo/Desktop/Code/Github/DawnGBC/Libraries/FWLIB/src\gd32f4xx_spi.c ****     default :
  59:C:/Users/leonardo/Desktop/Code/Github/DawnGBC/Libraries/FWLIB/src\gd32f4xx_spi.c ****         break;
  81              		.loc 1 59 9
  82 0058 35E0     		b	.L10
  83              	.L6:
  30:C:/Users/leonardo/Desktop/Code/Github/DawnGBC/Libraries/FWLIB/src\gd32f4xx_spi.c ****         rcu_periph_reset_disable(RCU_SPI0RST);
  84              		.loc 1 30 9
  85 005a 40F60C10 		movw	r0, #2316
  86 005e FFF7FEFF 		bl	rcu_periph_reset_enable
  31:C:/Users/leonardo/Desktop/Code/Github/DawnGBC/Libraries/FWLIB/src\gd32f4xx_spi.c ****         break;
  87              		.loc 1 31 9
  88 0062 40F60C10 		movw	r0, #2316
  89 0066 FFF7FEFF 		bl	rcu_periph_reset_disable
  32:C:/Users/leonardo/Desktop/Code/Github/DawnGBC/Libraries/FWLIB/src\gd32f4xx_spi.c ****     case SPI1:
  90              		.loc 1 32 9
  91 006a 2DE0     		b	.L9
  92              	.L7:
  35:C:/Users/leonardo/Desktop/Code/Github/DawnGBC/Libraries/FWLIB/src\gd32f4xx_spi.c ****         rcu_periph_reset_disable(RCU_SPI1RST);
  93              		.loc 1 35 9
  94 006c 40F60E00 		movw	r0, #2062
  95 0070 FFF7FEFF 		bl	rcu_periph_reset_enable
  36:C:/Users/leonardo/Desktop/Code/Github/DawnGBC/Libraries/FWLIB/src\gd32f4xx_spi.c ****         break;
  96              		.loc 1 36 9
  97 0074 40F60E00 		movw	r0, #2062
  98 0078 FFF7FEFF 		bl	rcu_periph_reset_disable
  37:C:/Users/leonardo/Desktop/Code/Github/DawnGBC/Libraries/FWLIB/src\gd32f4xx_spi.c ****     case SPI2:
  99              		.loc 1 37 9
 100 007c 24E0     		b	.L9
 101              	.L8:
  40:C:/Users/leonardo/Desktop/Code/Github/DawnGBC/Libraries/FWLIB/src\gd32f4xx_spi.c ****         rcu_periph_reset_disable(RCU_SPI2RST);
 102              		.loc 1 40 9
 103 007e 40F60F00 		movw	r0, #2063
 104 0082 FFF7FEFF 		bl	rcu_periph_reset_enable
  41:C:/Users/leonardo/Desktop/Code/Github/DawnGBC/Libraries/FWLIB/src\gd32f4xx_spi.c ****         break;
 105              		.loc 1 41 9
 106 0086 40F60F00 		movw	r0, #2063
 107 008a FFF7FEFF 		bl	rcu_periph_reset_disable
  42:C:/Users/leonardo/Desktop/Code/Github/DawnGBC/Libraries/FWLIB/src\gd32f4xx_spi.c ****     case SPI3:
 108              		.loc 1 42 9
 109 008e 1BE0     		b	.L9
 110              	.L5:
  45:C:/Users/leonardo/Desktop/Code/Github/DawnGBC/Libraries/FWLIB/src\gd32f4xx_spi.c ****         rcu_periph_reset_disable(RCU_SPI3RST);
 111              		.loc 1 45 9
 112 0090 40F60D10 		movw	r0, #2317
 113 0094 FFF7FEFF 		bl	rcu_periph_reset_enable
  46:C:/Users/leonardo/Desktop/Code/Github/DawnGBC/Libraries/FWLIB/src\gd32f4xx_spi.c ****         break;
 114              		.loc 1 46 9
 115 0098 40F60D10 		movw	r0, #2317
 116 009c FFF7FEFF 		bl	rcu_periph_reset_disable
  47:C:/Users/leonardo/Desktop/Code/Github/DawnGBC/Libraries/FWLIB/src\gd32f4xx_spi.c ****     case SPI4:
 117              		.loc 1 47 9
 118 00a0 12E0     		b	.L9
 119              	.L4:
  50:C:/Users/leonardo/Desktop/Code/Github/DawnGBC/Libraries/FWLIB/src\gd32f4xx_spi.c ****         rcu_periph_reset_disable(RCU_SPI4RST);
 120              		.loc 1 50 9
 121 00a2 40F61410 		movw	r0, #2324
 122 00a6 FFF7FEFF 		bl	rcu_periph_reset_enable
  51:C:/Users/leonardo/Desktop/Code/Github/DawnGBC/Libraries/FWLIB/src\gd32f4xx_spi.c ****         break;
 123              		.loc 1 51 9
 124 00aa 40F61410 		movw	r0, #2324
 125 00ae FFF7FEFF 		bl	rcu_periph_reset_disable
  52:C:/Users/leonardo/Desktop/Code/Github/DawnGBC/Libraries/FWLIB/src\gd32f4xx_spi.c ****     case SPI5:
 126              		.loc 1 52 9
 127 00b2 09E0     		b	.L9
 128              	.L2:
  55:C:/Users/leonardo/Desktop/Code/Github/DawnGBC/Libraries/FWLIB/src\gd32f4xx_spi.c ****         rcu_periph_reset_disable(RCU_SPI5RST);
 129              		.loc 1 55 9
 130 00b4 40F61510 		movw	r0, #2325
 131 00b8 FFF7FEFF 		bl	rcu_periph_reset_enable
  56:C:/Users/leonardo/Desktop/Code/Github/DawnGBC/Libraries/FWLIB/src\gd32f4xx_spi.c ****         break;
 132              		.loc 1 56 9
 133 00bc 40F61510 		movw	r0, #2325
 134 00c0 FFF7FEFF 		bl	rcu_periph_reset_disable
  57:C:/Users/leonardo/Desktop/Code/Github/DawnGBC/Libraries/FWLIB/src\gd32f4xx_spi.c ****     default :
 135              		.loc 1 57 9
 136 00c4 00E0     		b	.L9
 137              	.L10:
 138              		.loc 1 59 9
 139 00c6 00BF     		nop
 140              	.L9:
  60:C:/Users/leonardo/Desktop/Code/Github/DawnGBC/Libraries/FWLIB/src\gd32f4xx_spi.c ****     }
  61:C:/Users/leonardo/Desktop/Code/Github/DawnGBC/Libraries/FWLIB/src\gd32f4xx_spi.c **** }
 141              		.loc 1 61 1
 142 00c8 00BF     		nop
 143 00ca 0837     		adds	r7, r7, #8
 144              		.cfi_def_cfa_offset 8
 145 00cc BD46     		mov	sp, r7
 146              		.cfi_def_cfa_register 13
 147              		@ sp needed
 148 00ce 80BD     		pop	{r7, pc}
 149              	.L12:
 150              		.align	2
 151              	.L11:
 152 00d0 00540140 		.word	1073828864
 153 00d4 00500140 		.word	1073827840
 154 00d8 00340140 		.word	1073820672
 155 00dc 00300140 		.word	1073819648
 156 00e0 00380040 		.word	1073756160
 157 00e4 003C0040 		.word	1073757184
 158              		.cfi_endproc
 159              	.LFE123:
 161              		.section	.text.spi_init,"ax",%progbits
 162              		.align	1
 163              		.global	spi_init
 164              		.syntax unified
 165              		.thumb
 166              		.thumb_func
 167              		.fpu softvfp
 169              	spi_init:
 170              	.LFB124:
  62:C:/Users/leonardo/Desktop/Code/Github/DawnGBC/Libraries/FWLIB/src\gd32f4xx_spi.c **** 
  63:C:/Users/leonardo/Desktop/Code/Github/DawnGBC/Libraries/FWLIB/src\gd32f4xx_spi.c **** /*!
  64:C:/Users/leonardo/Desktop/Code/Github/DawnGBC/Libraries/FWLIB/src\gd32f4xx_spi.c ****     \brief      initialize SPI parameter
  65:C:/Users/leonardo/Desktop/Code/Github/DawnGBC/Libraries/FWLIB/src\gd32f4xx_spi.c ****     \param[in]  spi_periph: SPIx(x=0,1,2,3,4,5)
  66:C:/Users/leonardo/Desktop/Code/Github/DawnGBC/Libraries/FWLIB/src\gd32f4xx_spi.c ****     \param[in]  spi_struct: SPI parameter initialization stuct members of the structure
  67:C:/Users/leonardo/Desktop/Code/Github/DawnGBC/Libraries/FWLIB/src\gd32f4xx_spi.c ****                 and the member values are shown as below:
  68:C:/Users/leonardo/Desktop/Code/Github/DawnGBC/Libraries/FWLIB/src\gd32f4xx_spi.c ****                   device_mode: SPI_MASTER, SPI_SLAVE.
  69:C:/Users/leonardo/Desktop/Code/Github/DawnGBC/Libraries/FWLIB/src\gd32f4xx_spi.c ****                   trans_mode: SPI_TRANSMODE_FULLDUPLEX, SPI_TRANSMODE_RECEIVEONLY,
  70:C:/Users/leonardo/Desktop/Code/Github/DawnGBC/Libraries/FWLIB/src\gd32f4xx_spi.c ****                               SPI_TRANSMODE_BDRECEIVE, SPI_TRANSMODE_BDTRANSMIT
  71:C:/Users/leonardo/Desktop/Code/Github/DawnGBC/Libraries/FWLIB/src\gd32f4xx_spi.c ****                   frame_size: SPI_FRAMESIZE_16BIT, SPI_FRAMESIZE_8BIT
  72:C:/Users/leonardo/Desktop/Code/Github/DawnGBC/Libraries/FWLIB/src\gd32f4xx_spi.c ****                   nss: SPI_NSS_SOFT, SPI_NSS_HARD
  73:C:/Users/leonardo/Desktop/Code/Github/DawnGBC/Libraries/FWLIB/src\gd32f4xx_spi.c ****                   endian: SPI_ENDIAN_MSB, SPI_ENDIAN_LSB
  74:C:/Users/leonardo/Desktop/Code/Github/DawnGBC/Libraries/FWLIB/src\gd32f4xx_spi.c ****                   clock_polarity_phase: SPI_CK_PL_LOW_PH_1EDGE, SPI_CK_PL_HIGH_PH_1EDGE
  75:C:/Users/leonardo/Desktop/Code/Github/DawnGBC/Libraries/FWLIB/src\gd32f4xx_spi.c ****                                         SPI_CK_PL_LOW_PH_2EDGE, SPI_CK_PL_HIGH_PH_2EDGE
  76:C:/Users/leonardo/Desktop/Code/Github/DawnGBC/Libraries/FWLIB/src\gd32f4xx_spi.c ****                   prescale: SPI_PSC_n (n=2,4,8,16,32,64,128,256)
  77:C:/Users/leonardo/Desktop/Code/Github/DawnGBC/Libraries/FWLIB/src\gd32f4xx_spi.c ****     \param[out] none
  78:C:/Users/leonardo/Desktop/Code/Github/DawnGBC/Libraries/FWLIB/src\gd32f4xx_spi.c ****     \retval     none
  79:C:/Users/leonardo/Desktop/Code/Github/DawnGBC/Libraries/FWLIB/src\gd32f4xx_spi.c **** */
  80:C:/Users/leonardo/Desktop/Code/Github/DawnGBC/Libraries/FWLIB/src\gd32f4xx_spi.c **** void spi_init(uint32_t spi_periph, spi_parameter_struct* spi_struct)
  81:C:/Users/leonardo/Desktop/Code/Github/DawnGBC/Libraries/FWLIB/src\gd32f4xx_spi.c **** {   
 171              		.loc 1 81 1
 172              		.cfi_startproc
 173              		@ args = 0, pretend = 0, frame = 16
 174              		@ frame_needed = 1, uses_anonymous_args = 0
 175              		@ link register save eliminated.
 176 0000 80B4     		push	{r7}
 177              		.cfi_def_cfa_offset 4
 178              		.cfi_offset 7, -4
 179 0002 85B0     		sub	sp, sp, #20
 180              		.cfi_def_cfa_offset 24
 181 0004 00AF     		add	r7, sp, #0
 182              		.cfi_def_cfa_register 7
 183 0006 7860     		str	r0, [r7, #4]
 184 0008 3960     		str	r1, [r7]
  82:C:/Users/leonardo/Desktop/Code/Github/DawnGBC/Libraries/FWLIB/src\gd32f4xx_spi.c ****     uint32_t reg = 0U;
 185              		.loc 1 82 14
 186 000a 0023     		movs	r3, #0
 187 000c FB60     		str	r3, [r7, #12]
  83:C:/Users/leonardo/Desktop/Code/Github/DawnGBC/Libraries/FWLIB/src\gd32f4xx_spi.c ****     reg = SPI_CTL0(spi_periph);
 188              		.loc 1 83 11
 189 000e 7B68     		ldr	r3, [r7, #4]
 190              		.loc 1 83 9
 191 0010 1B68     		ldr	r3, [r3]
 192 0012 FB60     		str	r3, [r7, #12]
  84:C:/Users/leonardo/Desktop/Code/Github/DawnGBC/Libraries/FWLIB/src\gd32f4xx_spi.c ****     reg &= SPI_INIT_MASK;
 193              		.loc 1 84 9
 194 0014 FB68     		ldr	r3, [r7, #12]
 195 0016 03F44153 		and	r3, r3, #12352
 196 001a FB60     		str	r3, [r7, #12]
  85:C:/Users/leonardo/Desktop/Code/Github/DawnGBC/Libraries/FWLIB/src\gd32f4xx_spi.c **** 
  86:C:/Users/leonardo/Desktop/Code/Github/DawnGBC/Libraries/FWLIB/src\gd32f4xx_spi.c ****     /* select SPI as master or slave */
  87:C:/Users/leonardo/Desktop/Code/Github/DawnGBC/Libraries/FWLIB/src\gd32f4xx_spi.c ****     reg |= spi_struct->device_mode;
 197              		.loc 1 87 22
 198 001c 3B68     		ldr	r3, [r7]
 199 001e 1B68     		ldr	r3, [r3]
 200              		.loc 1 87 9
 201 0020 FA68     		ldr	r2, [r7, #12]
 202 0022 1343     		orrs	r3, r3, r2
 203 0024 FB60     		str	r3, [r7, #12]
  88:C:/Users/leonardo/Desktop/Code/Github/DawnGBC/Libraries/FWLIB/src\gd32f4xx_spi.c ****     /* select SPI transfer mode */
  89:C:/Users/leonardo/Desktop/Code/Github/DawnGBC/Libraries/FWLIB/src\gd32f4xx_spi.c ****     reg |= spi_struct->trans_mode;
 204              		.loc 1 89 22
 205 0026 3B68     		ldr	r3, [r7]
 206 0028 5B68     		ldr	r3, [r3, #4]
 207              		.loc 1 89 9
 208 002a FA68     		ldr	r2, [r7, #12]
 209 002c 1343     		orrs	r3, r3, r2
 210 002e FB60     		str	r3, [r7, #12]
  90:C:/Users/leonardo/Desktop/Code/Github/DawnGBC/Libraries/FWLIB/src\gd32f4xx_spi.c ****     /* select SPI frame size */
  91:C:/Users/leonardo/Desktop/Code/Github/DawnGBC/Libraries/FWLIB/src\gd32f4xx_spi.c ****     reg |= spi_struct->frame_size;
 211              		.loc 1 91 22
 212 0030 3B68     		ldr	r3, [r7]
 213 0032 9B68     		ldr	r3, [r3, #8]
 214              		.loc 1 91 9
 215 0034 FA68     		ldr	r2, [r7, #12]
 216 0036 1343     		orrs	r3, r3, r2
 217 0038 FB60     		str	r3, [r7, #12]
  92:C:/Users/leonardo/Desktop/Code/Github/DawnGBC/Libraries/FWLIB/src\gd32f4xx_spi.c ****     /* select SPI nss use hardware or software */
  93:C:/Users/leonardo/Desktop/Code/Github/DawnGBC/Libraries/FWLIB/src\gd32f4xx_spi.c ****     reg |= spi_struct->nss;
 218              		.loc 1 93 22
 219 003a 3B68     		ldr	r3, [r7]
 220 003c DB68     		ldr	r3, [r3, #12]
 221              		.loc 1 93 9
 222 003e FA68     		ldr	r2, [r7, #12]
 223 0040 1343     		orrs	r3, r3, r2
 224 0042 FB60     		str	r3, [r7, #12]
  94:C:/Users/leonardo/Desktop/Code/Github/DawnGBC/Libraries/FWLIB/src\gd32f4xx_spi.c ****     /* select SPI LSB or MSB */
  95:C:/Users/leonardo/Desktop/Code/Github/DawnGBC/Libraries/FWLIB/src\gd32f4xx_spi.c ****     reg |= spi_struct->endian;
 225              		.loc 1 95 22
 226 0044 3B68     		ldr	r3, [r7]
 227 0046 1B69     		ldr	r3, [r3, #16]
 228              		.loc 1 95 9
 229 0048 FA68     		ldr	r2, [r7, #12]
 230 004a 1343     		orrs	r3, r3, r2
 231 004c FB60     		str	r3, [r7, #12]
  96:C:/Users/leonardo/Desktop/Code/Github/DawnGBC/Libraries/FWLIB/src\gd32f4xx_spi.c ****     /* select SPI polarity and phase */
  97:C:/Users/leonardo/Desktop/Code/Github/DawnGBC/Libraries/FWLIB/src\gd32f4xx_spi.c ****     reg |= spi_struct->clock_polarity_phase;
 232              		.loc 1 97 22
 233 004e 3B68     		ldr	r3, [r7]
 234 0050 5B69     		ldr	r3, [r3, #20]
 235              		.loc 1 97 9
 236 0052 FA68     		ldr	r2, [r7, #12]
 237 0054 1343     		orrs	r3, r3, r2
 238 0056 FB60     		str	r3, [r7, #12]
  98:C:/Users/leonardo/Desktop/Code/Github/DawnGBC/Libraries/FWLIB/src\gd32f4xx_spi.c ****     /* select SPI prescale to adjust transmit speed */
  99:C:/Users/leonardo/Desktop/Code/Github/DawnGBC/Libraries/FWLIB/src\gd32f4xx_spi.c ****     reg |= spi_struct->prescale;
 239              		.loc 1 99 22
 240 0058 3B68     		ldr	r3, [r7]
 241 005a 9B69     		ldr	r3, [r3, #24]
 242              		.loc 1 99 9
 243 005c FA68     		ldr	r2, [r7, #12]
 244 005e 1343     		orrs	r3, r3, r2
 245 0060 FB60     		str	r3, [r7, #12]
 100:C:/Users/leonardo/Desktop/Code/Github/DawnGBC/Libraries/FWLIB/src\gd32f4xx_spi.c **** 
 101:C:/Users/leonardo/Desktop/Code/Github/DawnGBC/Libraries/FWLIB/src\gd32f4xx_spi.c ****     /* write to SPI_CTL0 register */
 102:C:/Users/leonardo/Desktop/Code/Github/DawnGBC/Libraries/FWLIB/src\gd32f4xx_spi.c ****     SPI_CTL0(spi_periph) = (uint32_t)reg;
 246              		.loc 1 102 5
 247 0062 7B68     		ldr	r3, [r7, #4]
 248              		.loc 1 102 26
 249 0064 FA68     		ldr	r2, [r7, #12]
 250 0066 1A60     		str	r2, [r3]
 103:C:/Users/leonardo/Desktop/Code/Github/DawnGBC/Libraries/FWLIB/src\gd32f4xx_spi.c **** 
 104:C:/Users/leonardo/Desktop/Code/Github/DawnGBC/Libraries/FWLIB/src\gd32f4xx_spi.c ****     SPI_I2SCTL(spi_periph) &= (uint32_t)(~SPI_I2SCTL_I2SSEL);
 251              		.loc 1 104 28
 252 0068 7B68     		ldr	r3, [r7, #4]
 253 006a 1C33     		adds	r3, r3, #28
 254 006c 1B68     		ldr	r3, [r3]
 255 006e 7A68     		ldr	r2, [r7, #4]
 256 0070 1C32     		adds	r2, r2, #28
 257 0072 23F40063 		bic	r3, r3, #2048
 258 0076 1360     		str	r3, [r2]
 105:C:/Users/leonardo/Desktop/Code/Github/DawnGBC/Libraries/FWLIB/src\gd32f4xx_spi.c **** }
 259              		.loc 1 105 1
 260 0078 00BF     		nop
 261 007a 1437     		adds	r7, r7, #20
 262              		.cfi_def_cfa_offset 4
 263 007c BD46     		mov	sp, r7
 264              		.cfi_def_cfa_register 13
 265              		@ sp needed
 266 007e 80BC     		pop	{r7}
 267              		.cfi_restore 7
 268              		.cfi_def_cfa_offset 0
 269 0080 7047     		bx	lr
 270              		.cfi_endproc
 271              	.LFE124:
 273              		.section	.text.spi_enable,"ax",%progbits
 274              		.align	1
 275              		.global	spi_enable
 276              		.syntax unified
 277              		.thumb
 278              		.thumb_func
 279              		.fpu softvfp
 281              	spi_enable:
 282              	.LFB125:
 106:C:/Users/leonardo/Desktop/Code/Github/DawnGBC/Libraries/FWLIB/src\gd32f4xx_spi.c **** 
 107:C:/Users/leonardo/Desktop/Code/Github/DawnGBC/Libraries/FWLIB/src\gd32f4xx_spi.c **** /*!
 108:C:/Users/leonardo/Desktop/Code/Github/DawnGBC/Libraries/FWLIB/src\gd32f4xx_spi.c ****     \brief      enable SPI 
 109:C:/Users/leonardo/Desktop/Code/Github/DawnGBC/Libraries/FWLIB/src\gd32f4xx_spi.c ****     \param[in]  spi_periph: SPIx(x=0,1,2,3,4,5)
 110:C:/Users/leonardo/Desktop/Code/Github/DawnGBC/Libraries/FWLIB/src\gd32f4xx_spi.c ****     \param[out] none
 111:C:/Users/leonardo/Desktop/Code/Github/DawnGBC/Libraries/FWLIB/src\gd32f4xx_spi.c ****     \retval     none
 112:C:/Users/leonardo/Desktop/Code/Github/DawnGBC/Libraries/FWLIB/src\gd32f4xx_spi.c **** */
 113:C:/Users/leonardo/Desktop/Code/Github/DawnGBC/Libraries/FWLIB/src\gd32f4xx_spi.c **** void spi_enable(uint32_t spi_periph)
 114:C:/Users/leonardo/Desktop/Code/Github/DawnGBC/Libraries/FWLIB/src\gd32f4xx_spi.c **** {
 283              		.loc 1 114 1
 284              		.cfi_startproc
 285              		@ args = 0, pretend = 0, frame = 8
 286              		@ frame_needed = 1, uses_anonymous_args = 0
 287              		@ link register save eliminated.
 288 0000 80B4     		push	{r7}
 289              		.cfi_def_cfa_offset 4
 290              		.cfi_offset 7, -4
 291 0002 83B0     		sub	sp, sp, #12
 292              		.cfi_def_cfa_offset 16
 293 0004 00AF     		add	r7, sp, #0
 294              		.cfi_def_cfa_register 7
 295 0006 7860     		str	r0, [r7, #4]
 115:C:/Users/leonardo/Desktop/Code/Github/DawnGBC/Libraries/FWLIB/src\gd32f4xx_spi.c ****     SPI_CTL0(spi_periph) |= (uint32_t)SPI_CTL0_SPIEN;
 296              		.loc 1 115 26
 297 0008 7B68     		ldr	r3, [r7, #4]
 298 000a 1A68     		ldr	r2, [r3]
 299 000c 7B68     		ldr	r3, [r7, #4]
 300 000e 42F04002 		orr	r2, r2, #64
 301 0012 1A60     		str	r2, [r3]
 116:C:/Users/leonardo/Desktop/Code/Github/DawnGBC/Libraries/FWLIB/src\gd32f4xx_spi.c **** }
 302              		.loc 1 116 1
 303 0014 00BF     		nop
 304 0016 0C37     		adds	r7, r7, #12
 305              		.cfi_def_cfa_offset 4
 306 0018 BD46     		mov	sp, r7
 307              		.cfi_def_cfa_register 13
 308              		@ sp needed
 309 001a 80BC     		pop	{r7}
 310              		.cfi_restore 7
 311              		.cfi_def_cfa_offset 0
 312 001c 7047     		bx	lr
 313              		.cfi_endproc
 314              	.LFE125:
 316              		.section	.text.spi_disable,"ax",%progbits
 317              		.align	1
 318              		.global	spi_disable
 319              		.syntax unified
 320              		.thumb
 321              		.thumb_func
 322              		.fpu softvfp
 324              	spi_disable:
 325              	.LFB126:
 117:C:/Users/leonardo/Desktop/Code/Github/DawnGBC/Libraries/FWLIB/src\gd32f4xx_spi.c **** 
 118:C:/Users/leonardo/Desktop/Code/Github/DawnGBC/Libraries/FWLIB/src\gd32f4xx_spi.c **** /*!
 119:C:/Users/leonardo/Desktop/Code/Github/DawnGBC/Libraries/FWLIB/src\gd32f4xx_spi.c ****     \brief      disable SPI 
 120:C:/Users/leonardo/Desktop/Code/Github/DawnGBC/Libraries/FWLIB/src\gd32f4xx_spi.c ****     \param[in]  spi_periph: SPIx(x=0,1,2,3,4,5)
 121:C:/Users/leonardo/Desktop/Code/Github/DawnGBC/Libraries/FWLIB/src\gd32f4xx_spi.c ****     \param[out] none
 122:C:/Users/leonardo/Desktop/Code/Github/DawnGBC/Libraries/FWLIB/src\gd32f4xx_spi.c ****     \retval     none
 123:C:/Users/leonardo/Desktop/Code/Github/DawnGBC/Libraries/FWLIB/src\gd32f4xx_spi.c **** */
 124:C:/Users/leonardo/Desktop/Code/Github/DawnGBC/Libraries/FWLIB/src\gd32f4xx_spi.c **** void spi_disable(uint32_t spi_periph)
 125:C:/Users/leonardo/Desktop/Code/Github/DawnGBC/Libraries/FWLIB/src\gd32f4xx_spi.c **** {
 326              		.loc 1 125 1
 327              		.cfi_startproc
 328              		@ args = 0, pretend = 0, frame = 8
 329              		@ frame_needed = 1, uses_anonymous_args = 0
 330              		@ link register save eliminated.
 331 0000 80B4     		push	{r7}
 332              		.cfi_def_cfa_offset 4
 333              		.cfi_offset 7, -4
 334 0002 83B0     		sub	sp, sp, #12
 335              		.cfi_def_cfa_offset 16
 336 0004 00AF     		add	r7, sp, #0
 337              		.cfi_def_cfa_register 7
 338 0006 7860     		str	r0, [r7, #4]
 126:C:/Users/leonardo/Desktop/Code/Github/DawnGBC/Libraries/FWLIB/src\gd32f4xx_spi.c ****     SPI_CTL0(spi_periph) &= (uint32_t)(~SPI_CTL0_SPIEN);
 339              		.loc 1 126 26
 340 0008 7B68     		ldr	r3, [r7, #4]
 341 000a 1A68     		ldr	r2, [r3]
 342 000c 7B68     		ldr	r3, [r7, #4]
 343 000e 22F04002 		bic	r2, r2, #64
 344 0012 1A60     		str	r2, [r3]
 127:C:/Users/leonardo/Desktop/Code/Github/DawnGBC/Libraries/FWLIB/src\gd32f4xx_spi.c **** }
 345              		.loc 1 127 1
 346 0014 00BF     		nop
 347 0016 0C37     		adds	r7, r7, #12
 348              		.cfi_def_cfa_offset 4
 349 0018 BD46     		mov	sp, r7
 350              		.cfi_def_cfa_register 13
 351              		@ sp needed
 352 001a 80BC     		pop	{r7}
 353              		.cfi_restore 7
 354              		.cfi_def_cfa_offset 0
 355 001c 7047     		bx	lr
 356              		.cfi_endproc
 357              	.LFE126:
 359              		.section	.text.i2s_psc_config,"ax",%progbits
 360              		.align	1
 361              		.global	i2s_psc_config
 362              		.syntax unified
 363              		.thumb
 364              		.thumb_func
 365              		.fpu softvfp
 367              	i2s_psc_config:
 368              	.LFB127:
 128:C:/Users/leonardo/Desktop/Code/Github/DawnGBC/Libraries/FWLIB/src\gd32f4xx_spi.c **** 
 129:C:/Users/leonardo/Desktop/Code/Github/DawnGBC/Libraries/FWLIB/src\gd32f4xx_spi.c **** /*!
 130:C:/Users/leonardo/Desktop/Code/Github/DawnGBC/Libraries/FWLIB/src\gd32f4xx_spi.c ****     \brief      configure I2S prescale
 131:C:/Users/leonardo/Desktop/Code/Github/DawnGBC/Libraries/FWLIB/src\gd32f4xx_spi.c ****     \param[in]  spi_periph: SPIx(x=1,2)
 132:C:/Users/leonardo/Desktop/Code/Github/DawnGBC/Libraries/FWLIB/src\gd32f4xx_spi.c ****     \param[in]  i2s_audiosample: I2S audio sample rate
 133:C:/Users/leonardo/Desktop/Code/Github/DawnGBC/Libraries/FWLIB/src\gd32f4xx_spi.c ****       \arg        I2S_AUDIOSAMPLE_8K: audio sample rate is 8KHz
 134:C:/Users/leonardo/Desktop/Code/Github/DawnGBC/Libraries/FWLIB/src\gd32f4xx_spi.c ****       \arg        I2S_AUDIOSAMPLE_11K: audio sample rate is 11KHz
 135:C:/Users/leonardo/Desktop/Code/Github/DawnGBC/Libraries/FWLIB/src\gd32f4xx_spi.c ****       \arg        I2S_AUDIOSAMPLE_16K: audio sample rate is 16KHz
 136:C:/Users/leonardo/Desktop/Code/Github/DawnGBC/Libraries/FWLIB/src\gd32f4xx_spi.c ****       \arg        I2S_AUDIOSAMPLE_22K: audio sample rate is 22KHz
 137:C:/Users/leonardo/Desktop/Code/Github/DawnGBC/Libraries/FWLIB/src\gd32f4xx_spi.c ****       \arg        I2S_AUDIOSAMPLE_32K: audio sample rate is 32KHz
 138:C:/Users/leonardo/Desktop/Code/Github/DawnGBC/Libraries/FWLIB/src\gd32f4xx_spi.c ****       \arg        I2S_AUDIOSAMPLE_44K: audio sample rate is 44KHz
 139:C:/Users/leonardo/Desktop/Code/Github/DawnGBC/Libraries/FWLIB/src\gd32f4xx_spi.c ****       \arg        I2S_AUDIOSAMPLE_48K: audio sample rate is 48KHz
 140:C:/Users/leonardo/Desktop/Code/Github/DawnGBC/Libraries/FWLIB/src\gd32f4xx_spi.c ****       \arg        I2S_AUDIOSAMPLE_96K: audio sample rate is 96KHz
 141:C:/Users/leonardo/Desktop/Code/Github/DawnGBC/Libraries/FWLIB/src\gd32f4xx_spi.c ****       \arg        I2S_AUDIOSAMPLE_192K: audio sample rate is 192KHz
 142:C:/Users/leonardo/Desktop/Code/Github/DawnGBC/Libraries/FWLIB/src\gd32f4xx_spi.c ****     \param[in]  i2s_frameformat: I2S data length and channel length
 143:C:/Users/leonardo/Desktop/Code/Github/DawnGBC/Libraries/FWLIB/src\gd32f4xx_spi.c ****       \arg        I2S_FRAMEFORMAT_DT16B_CH16B: I2S data length is 16 bit and channel length is 16 b
 144:C:/Users/leonardo/Desktop/Code/Github/DawnGBC/Libraries/FWLIB/src\gd32f4xx_spi.c ****       \arg        I2S_FRAMEFORMAT_DT16B_CH32B: I2S data length is 16 bit and channel length is 32 b
 145:C:/Users/leonardo/Desktop/Code/Github/DawnGBC/Libraries/FWLIB/src\gd32f4xx_spi.c ****       \arg        I2S_FRAMEFORMAT_DT24B_CH32B: I2S data length is 24 bit and channel length is 32 b
 146:C:/Users/leonardo/Desktop/Code/Github/DawnGBC/Libraries/FWLIB/src\gd32f4xx_spi.c ****       \arg        I2S_FRAMEFORMAT_DT32B_CH32B: I2S data length is 32 bit and channel length is 32 b
 147:C:/Users/leonardo/Desktop/Code/Github/DawnGBC/Libraries/FWLIB/src\gd32f4xx_spi.c ****     \param[in]  i2s_mckout: I2S master clock output
 148:C:/Users/leonardo/Desktop/Code/Github/DawnGBC/Libraries/FWLIB/src\gd32f4xx_spi.c ****       \arg        I2S_MCKOUT_ENABLE: I2S master clock output enable
 149:C:/Users/leonardo/Desktop/Code/Github/DawnGBC/Libraries/FWLIB/src\gd32f4xx_spi.c ****       \arg        I2S_MCKOUT_DISABLE: I2S master clock output disable
 150:C:/Users/leonardo/Desktop/Code/Github/DawnGBC/Libraries/FWLIB/src\gd32f4xx_spi.c ****     \param[out] none
 151:C:/Users/leonardo/Desktop/Code/Github/DawnGBC/Libraries/FWLIB/src\gd32f4xx_spi.c ****     \retval     none
 152:C:/Users/leonardo/Desktop/Code/Github/DawnGBC/Libraries/FWLIB/src\gd32f4xx_spi.c **** */
 153:C:/Users/leonardo/Desktop/Code/Github/DawnGBC/Libraries/FWLIB/src\gd32f4xx_spi.c **** void i2s_psc_config(uint32_t spi_periph, uint32_t i2s_audiosample, uint32_t i2s_frameformat, uint32
 154:C:/Users/leonardo/Desktop/Code/Github/DawnGBC/Libraries/FWLIB/src\gd32f4xx_spi.c **** {
 369              		.loc 1 154 1
 370              		.cfi_startproc
 371              		@ args = 0, pretend = 0, frame = 48
 372              		@ frame_needed = 1, uses_anonymous_args = 0
 373 0000 80B5     		push	{r7, lr}
 374              		.cfi_def_cfa_offset 8
 375              		.cfi_offset 7, -8
 376              		.cfi_offset 14, -4
 377 0002 8CB0     		sub	sp, sp, #48
 378              		.cfi_def_cfa_offset 56
 379 0004 00AF     		add	r7, sp, #0
 380              		.cfi_def_cfa_register 7
 381 0006 F860     		str	r0, [r7, #12]
 382 0008 B960     		str	r1, [r7, #8]
 383 000a 7A60     		str	r2, [r7, #4]
 384 000c 3B60     		str	r3, [r7]
 155:C:/Users/leonardo/Desktop/Code/Github/DawnGBC/Libraries/FWLIB/src\gd32f4xx_spi.c ****     uint32_t i2sdiv = 2U, i2sof = 0U;
 385              		.loc 1 155 14
 386 000e 0223     		movs	r3, #2
 387 0010 FB62     		str	r3, [r7, #44]
 388              		.loc 1 155 27
 389 0012 0023     		movs	r3, #0
 390 0014 BB62     		str	r3, [r7, #40]
 156:C:/Users/leonardo/Desktop/Code/Github/DawnGBC/Libraries/FWLIB/src\gd32f4xx_spi.c ****     uint32_t clks = 0U;
 391              		.loc 1 156 14
 392 0016 0023     		movs	r3, #0
 393 0018 7B62     		str	r3, [r7, #36]
 157:C:/Users/leonardo/Desktop/Code/Github/DawnGBC/Libraries/FWLIB/src\gd32f4xx_spi.c ****     uint32_t i2sclock = 0U;
 394              		.loc 1 157 14
 395 001a 0023     		movs	r3, #0
 396 001c 3B62     		str	r3, [r7, #32]
 158:C:/Users/leonardo/Desktop/Code/Github/DawnGBC/Libraries/FWLIB/src\gd32f4xx_spi.c **** 
 159:C:/Users/leonardo/Desktop/Code/Github/DawnGBC/Libraries/FWLIB/src\gd32f4xx_spi.c **** #ifndef I2S_EXTERNAL_CLOCK_IN
 160:C:/Users/leonardo/Desktop/Code/Github/DawnGBC/Libraries/FWLIB/src\gd32f4xx_spi.c ****   uint32_t plli2sm = 0U, plli2sn = 0U, plli2sr = 0U;
 397              		.loc 1 160 12
 398 001e 0023     		movs	r3, #0
 399 0020 FB61     		str	r3, [r7, #28]
 400              		.loc 1 160 26
 401 0022 0023     		movs	r3, #0
 402 0024 BB61     		str	r3, [r7, #24]
 403              		.loc 1 160 40
 404 0026 0023     		movs	r3, #0
 405 0028 7B61     		str	r3, [r7, #20]
 161:C:/Users/leonardo/Desktop/Code/Github/DawnGBC/Libraries/FWLIB/src\gd32f4xx_spi.c **** #endif /* I2S_EXTERNAL_CLOCK_IN */
 162:C:/Users/leonardo/Desktop/Code/Github/DawnGBC/Libraries/FWLIB/src\gd32f4xx_spi.c **** 
 163:C:/Users/leonardo/Desktop/Code/Github/DawnGBC/Libraries/FWLIB/src\gd32f4xx_spi.c ****     /* deinit SPI_I2SPSC register */
 164:C:/Users/leonardo/Desktop/Code/Github/DawnGBC/Libraries/FWLIB/src\gd32f4xx_spi.c ****     SPI_I2SPSC(spi_periph) = 0x0002U;
 406              		.loc 1 164 5
 407 002a FB68     		ldr	r3, [r7, #12]
 408 002c 2033     		adds	r3, r3, #32
 409 002e 1A46     		mov	r2, r3
 410              		.loc 1 164 28
 411 0030 0223     		movs	r3, #2
 412 0032 1360     		str	r3, [r2]
 165:C:/Users/leonardo/Desktop/Code/Github/DawnGBC/Libraries/FWLIB/src\gd32f4xx_spi.c **** 
 166:C:/Users/leonardo/Desktop/Code/Github/DawnGBC/Libraries/FWLIB/src\gd32f4xx_spi.c **** #ifdef I2S_EXTERNAL_CLOCK_IN
 167:C:/Users/leonardo/Desktop/Code/Github/DawnGBC/Libraries/FWLIB/src\gd32f4xx_spi.c ****     rcu_i2s_clock_config(RCU_I2SSRC_I2S_CKIN);
 168:C:/Users/leonardo/Desktop/Code/Github/DawnGBC/Libraries/FWLIB/src\gd32f4xx_spi.c **** 
 169:C:/Users/leonardo/Desktop/Code/Github/DawnGBC/Libraries/FWLIB/src\gd32f4xx_spi.c ****     /* set the I2S clock to the external clock input value */
 170:C:/Users/leonardo/Desktop/Code/Github/DawnGBC/Libraries/FWLIB/src\gd32f4xx_spi.c ****     i2sclock = I2S_EXTERNAL_CLOCK_IN;
 171:C:/Users/leonardo/Desktop/Code/Github/DawnGBC/Libraries/FWLIB/src\gd32f4xx_spi.c **** #else
 172:C:/Users/leonardo/Desktop/Code/Github/DawnGBC/Libraries/FWLIB/src\gd32f4xx_spi.c **** 
 173:C:/Users/leonardo/Desktop/Code/Github/DawnGBC/Libraries/FWLIB/src\gd32f4xx_spi.c ****     /* turn on the oscillator HXTAL */
 174:C:/Users/leonardo/Desktop/Code/Github/DawnGBC/Libraries/FWLIB/src\gd32f4xx_spi.c ****     rcu_osci_on(RCU_HXTAL);
 413              		.loc 1 174 5
 414 0034 1020     		movs	r0, #16
 415 0036 FFF7FEFF 		bl	rcu_osci_on
 175:C:/Users/leonardo/Desktop/Code/Github/DawnGBC/Libraries/FWLIB/src\gd32f4xx_spi.c ****     /* wait for oscillator stabilization flags is SET */
 176:C:/Users/leonardo/Desktop/Code/Github/DawnGBC/Libraries/FWLIB/src\gd32f4xx_spi.c ****     rcu_osci_stab_wait(RCU_HXTAL);
 416              		.loc 1 176 5
 417 003a 1020     		movs	r0, #16
 418 003c FFF7FEFF 		bl	rcu_osci_stab_wait
 177:C:/Users/leonardo/Desktop/Code/Github/DawnGBC/Libraries/FWLIB/src\gd32f4xx_spi.c ****     /* turn on the PLLI2S */
 178:C:/Users/leonardo/Desktop/Code/Github/DawnGBC/Libraries/FWLIB/src\gd32f4xx_spi.c ****     rcu_osci_on(RCU_PLLI2S_CK);
 419              		.loc 1 178 5
 420 0040 1A20     		movs	r0, #26
 421 0042 FFF7FEFF 		bl	rcu_osci_on
 179:C:/Users/leonardo/Desktop/Code/Github/DawnGBC/Libraries/FWLIB/src\gd32f4xx_spi.c ****     /* wait for PLLI2S flags is SET */
 180:C:/Users/leonardo/Desktop/Code/Github/DawnGBC/Libraries/FWLIB/src\gd32f4xx_spi.c ****     rcu_osci_stab_wait(RCU_PLLI2S_CK);
 422              		.loc 1 180 5
 423 0046 1A20     		movs	r0, #26
 424 0048 FFF7FEFF 		bl	rcu_osci_stab_wait
 181:C:/Users/leonardo/Desktop/Code/Github/DawnGBC/Libraries/FWLIB/src\gd32f4xx_spi.c ****     /* configure the I2S clock source selection */
 182:C:/Users/leonardo/Desktop/Code/Github/DawnGBC/Libraries/FWLIB/src\gd32f4xx_spi.c ****     rcu_i2s_clock_config(RCU_I2SSRC_PLLI2S);
 425              		.loc 1 182 5
 426 004c 0020     		movs	r0, #0
 427 004e FFF7FEFF 		bl	rcu_i2s_clock_config
 183:C:/Users/leonardo/Desktop/Code/Github/DawnGBC/Libraries/FWLIB/src\gd32f4xx_spi.c **** 
 184:C:/Users/leonardo/Desktop/Code/Github/DawnGBC/Libraries/FWLIB/src\gd32f4xx_spi.c ****     /* get the RCU_PLL_PLLPSC value */
 185:C:/Users/leonardo/Desktop/Code/Github/DawnGBC/Libraries/FWLIB/src\gd32f4xx_spi.c ****     plli2sm = (uint32_t)(RCU_PLL & RCU_PLL_PLLPSC);
 428              		.loc 1 185 26
 429 0052 4A4B     		ldr	r3, .L24
 430 0054 1B68     		ldr	r3, [r3]
 431              		.loc 1 185 13
 432 0056 03F03F03 		and	r3, r3, #63
 433 005a FB61     		str	r3, [r7, #28]
 186:C:/Users/leonardo/Desktop/Code/Github/DawnGBC/Libraries/FWLIB/src\gd32f4xx_spi.c ****     /* get the RCU_PLLI2S_PLLI2SN value */
 187:C:/Users/leonardo/Desktop/Code/Github/DawnGBC/Libraries/FWLIB/src\gd32f4xx_spi.c ****     plli2sn = (uint32_t)((RCU_PLLI2S & RCU_PLLI2S_PLLI2SN) >> 6);
 434              		.loc 1 187 27
 435 005c 484B     		ldr	r3, .L24+4
 436 005e 1B68     		ldr	r3, [r3]
 437              		.loc 1 187 15
 438 0060 9B09     		lsrs	r3, r3, #6
 439              		.loc 1 187 13
 440 0062 C3F30803 		ubfx	r3, r3, #0, #9
 441 0066 BB61     		str	r3, [r7, #24]
 188:C:/Users/leonardo/Desktop/Code/Github/DawnGBC/Libraries/FWLIB/src\gd32f4xx_spi.c ****     /* get the RCU_PLLI2S_PLLI2SR value */
 189:C:/Users/leonardo/Desktop/Code/Github/DawnGBC/Libraries/FWLIB/src\gd32f4xx_spi.c ****     plli2sr = (uint32_t)((RCU_PLLI2S & RCU_PLLI2S_PLLI2SR) >> 28);
 442              		.loc 1 189 27
 443 0068 454B     		ldr	r3, .L24+4
 444 006a 1B68     		ldr	r3, [r3]
 445              		.loc 1 189 15
 446 006c 1B0F     		lsrs	r3, r3, #28
 447              		.loc 1 189 13
 448 006e 03F00703 		and	r3, r3, #7
 449 0072 7B61     		str	r3, [r7, #20]
 190:C:/Users/leonardo/Desktop/Code/Github/DawnGBC/Libraries/FWLIB/src\gd32f4xx_spi.c **** 
 191:C:/Users/leonardo/Desktop/Code/Github/DawnGBC/Libraries/FWLIB/src\gd32f4xx_spi.c ****     if((RCU_PLL & RCU_PLL_PLLSEL) == RCU_PLLSRC_HXTAL)
 450              		.loc 1 191 9
 451 0074 414B     		ldr	r3, .L24
 452 0076 1B68     		ldr	r3, [r3]
 453              		.loc 1 191 17
 454 0078 03F48003 		and	r3, r3, #4194304
 455              		.loc 1 191 7
 456 007c B3F5800F 		cmp	r3, #4194304
 457 0080 0BD1     		bne	.L17
 192:C:/Users/leonardo/Desktop/Code/Github/DawnGBC/Libraries/FWLIB/src\gd32f4xx_spi.c ****     {
 193:C:/Users/leonardo/Desktop/Code/Github/DawnGBC/Libraries/FWLIB/src\gd32f4xx_spi.c ****       /* get the I2S source clock value */
 194:C:/Users/leonardo/Desktop/Code/Github/DawnGBC/Libraries/FWLIB/src\gd32f4xx_spi.c ****       i2sclock = (uint32_t)(((HXTAL_VALUE / plli2sm) * plli2sn) / plli2sr);
 458              		.loc 1 194 43
 459 0082 404A     		ldr	r2, .L24+8
 460 0084 FB69     		ldr	r3, [r7, #28]
 461 0086 B2FBF3F3 		udiv	r3, r2, r3
 462              		.loc 1 194 54
 463 008a BA69     		ldr	r2, [r7, #24]
 464 008c 02FB03F2 		mul	r2, r2, r3
 465              		.loc 1 194 16
 466 0090 7B69     		ldr	r3, [r7, #20]
 467 0092 B2FBF3F3 		udiv	r3, r2, r3
 468 0096 3B62     		str	r3, [r7, #32]
 469 0098 0AE0     		b	.L18
 470              	.L17:
 195:C:/Users/leonardo/Desktop/Code/Github/DawnGBC/Libraries/FWLIB/src\gd32f4xx_spi.c ****     }
 196:C:/Users/leonardo/Desktop/Code/Github/DawnGBC/Libraries/FWLIB/src\gd32f4xx_spi.c ****     else
 197:C:/Users/leonardo/Desktop/Code/Github/DawnGBC/Libraries/FWLIB/src\gd32f4xx_spi.c ****     { /* get the I2S source clock value */
 198:C:/Users/leonardo/Desktop/Code/Github/DawnGBC/Libraries/FWLIB/src\gd32f4xx_spi.c ****       i2sclock = (uint32_t)(((IRC16M_VALUE / plli2sm) * plli2sn) / plli2sr);
 471              		.loc 1 198 44
 472 009a 3B4A     		ldr	r2, .L24+12
 473 009c FB69     		ldr	r3, [r7, #28]
 474 009e B2FBF3F3 		udiv	r3, r2, r3
 475              		.loc 1 198 55
 476 00a2 BA69     		ldr	r2, [r7, #24]
 477 00a4 02FB03F2 		mul	r2, r2, r3
 478              		.loc 1 198 16
 479 00a8 7B69     		ldr	r3, [r7, #20]
 480 00aa B2FBF3F3 		udiv	r3, r2, r3
 481 00ae 3B62     		str	r3, [r7, #32]
 482              	.L18:
 199:C:/Users/leonardo/Desktop/Code/Github/DawnGBC/Libraries/FWLIB/src\gd32f4xx_spi.c ****     }
 200:C:/Users/leonardo/Desktop/Code/Github/DawnGBC/Libraries/FWLIB/src\gd32f4xx_spi.c **** #endif /* I2S_EXTERNAL_CLOCK_IN */
 201:C:/Users/leonardo/Desktop/Code/Github/DawnGBC/Libraries/FWLIB/src\gd32f4xx_spi.c **** 
 202:C:/Users/leonardo/Desktop/Code/Github/DawnGBC/Libraries/FWLIB/src\gd32f4xx_spi.c ****     /* config the prescaler depending on the mclk output state, the frame format and audio sample r
 203:C:/Users/leonardo/Desktop/Code/Github/DawnGBC/Libraries/FWLIB/src\gd32f4xx_spi.c ****     if(I2S_MCKOUT_ENABLE == i2s_mckout){
 483              		.loc 1 203 7
 484 00b0 3B68     		ldr	r3, [r7]
 485 00b2 B3F5007F 		cmp	r3, #512
 486 00b6 0BD1     		bne	.L19
 204:C:/Users/leonardo/Desktop/Code/Github/DawnGBC/Libraries/FWLIB/src\gd32f4xx_spi.c ****         clks = (uint32_t)(((i2sclock / 256U) * 10U) / i2s_audiosample);
 487              		.loc 1 204 38
 488 00b8 3B6A     		ldr	r3, [r7, #32]
 489 00ba 1A0A     		lsrs	r2, r3, #8
 490              		.loc 1 204 46
 491 00bc 1346     		mov	r3, r2
 492 00be 9B00     		lsls	r3, r3, #2
 493 00c0 1344     		add	r3, r3, r2
 494 00c2 5B00     		lsls	r3, r3, #1
 495 00c4 1A46     		mov	r2, r3
 496              		.loc 1 204 14
 497 00c6 BB68     		ldr	r3, [r7, #8]
 498 00c8 B2FBF3F3 		udiv	r3, r2, r3
 499 00cc 7B62     		str	r3, [r7, #36]
 500 00ce 19E0     		b	.L20
 501              	.L19:
 205:C:/Users/leonardo/Desktop/Code/Github/DawnGBC/Libraries/FWLIB/src\gd32f4xx_spi.c ****     }else{
 206:C:/Users/leonardo/Desktop/Code/Github/DawnGBC/Libraries/FWLIB/src\gd32f4xx_spi.c ****         if(I2S_FRAMEFORMAT_DT16B_CH16B == i2s_frameformat){
 502              		.loc 1 206 11
 503 00d0 7B68     		ldr	r3, [r7, #4]
 504 00d2 002B     		cmp	r3, #0
 505 00d4 0BD1     		bne	.L21
 207:C:/Users/leonardo/Desktop/Code/Github/DawnGBC/Libraries/FWLIB/src\gd32f4xx_spi.c ****             clks = (uint32_t)(((i2sclock / 32U) *10U ) / i2s_audiosample);
 506              		.loc 1 207 42
 507 00d6 3B6A     		ldr	r3, [r7, #32]
 508 00d8 5A09     		lsrs	r2, r3, #5
 509              		.loc 1 207 49
 510 00da 1346     		mov	r3, r2
 511 00dc 9B00     		lsls	r3, r3, #2
 512 00de 1344     		add	r3, r3, r2
 513 00e0 5B00     		lsls	r3, r3, #1
 514 00e2 1A46     		mov	r2, r3
 515              		.loc 1 207 18
 516 00e4 BB68     		ldr	r3, [r7, #8]
 517 00e6 B2FBF3F3 		udiv	r3, r2, r3
 518 00ea 7B62     		str	r3, [r7, #36]
 519 00ec 0AE0     		b	.L20
 520              	.L21:
 208:C:/Users/leonardo/Desktop/Code/Github/DawnGBC/Libraries/FWLIB/src\gd32f4xx_spi.c ****         }else{
 209:C:/Users/leonardo/Desktop/Code/Github/DawnGBC/Libraries/FWLIB/src\gd32f4xx_spi.c ****             clks = (uint32_t)(((i2sclock / 64U) *10U ) / i2s_audiosample);
 521              		.loc 1 209 42
 522 00ee 3B6A     		ldr	r3, [r7, #32]
 523 00f0 9A09     		lsrs	r2, r3, #6
 524              		.loc 1 209 49
 525 00f2 1346     		mov	r3, r2
 526 00f4 9B00     		lsls	r3, r3, #2
 527 00f6 1344     		add	r3, r3, r2
 528 00f8 5B00     		lsls	r3, r3, #1
 529 00fa 1A46     		mov	r2, r3
 530              		.loc 1 209 18
 531 00fc BB68     		ldr	r3, [r7, #8]
 532 00fe B2FBF3F3 		udiv	r3, r2, r3
 533 0102 7B62     		str	r3, [r7, #36]
 534              	.L20:
 210:C:/Users/leonardo/Desktop/Code/Github/DawnGBC/Libraries/FWLIB/src\gd32f4xx_spi.c ****         }
 211:C:/Users/leonardo/Desktop/Code/Github/DawnGBC/Libraries/FWLIB/src\gd32f4xx_spi.c ****     }
 212:C:/Users/leonardo/Desktop/Code/Github/DawnGBC/Libraries/FWLIB/src\gd32f4xx_spi.c ****     /* remove the floating point */
 213:C:/Users/leonardo/Desktop/Code/Github/DawnGBC/Libraries/FWLIB/src\gd32f4xx_spi.c ****     clks = (clks + 5U) / 10U;
 535              		.loc 1 213 18
 536 0104 7B6A     		ldr	r3, [r7, #36]
 537 0106 0533     		adds	r3, r3, #5
 538              		.loc 1 213 10
 539 0108 204A     		ldr	r2, .L24+16
 540 010a A2FB0323 		umull	r2, r3, r2, r3
 541 010e DB08     		lsrs	r3, r3, #3
 542 0110 7B62     		str	r3, [r7, #36]
 214:C:/Users/leonardo/Desktop/Code/Github/DawnGBC/Libraries/FWLIB/src\gd32f4xx_spi.c ****     i2sof = (clks & 0x00000001U);
 543              		.loc 1 214 11
 544 0112 7B6A     		ldr	r3, [r7, #36]
 545 0114 03F00103 		and	r3, r3, #1
 546 0118 BB62     		str	r3, [r7, #40]
 215:C:/Users/leonardo/Desktop/Code/Github/DawnGBC/Libraries/FWLIB/src\gd32f4xx_spi.c ****     i2sdiv = ((clks - i2sof) / 2U);
 547              		.loc 1 215 21
 548 011a 7A6A     		ldr	r2, [r7, #36]
 549 011c BB6A     		ldr	r3, [r7, #40]
 550 011e D31A     		subs	r3, r2, r3
 551              		.loc 1 215 12
 552 0120 5B08     		lsrs	r3, r3, #1
 553 0122 FB62     		str	r3, [r7, #44]
 216:C:/Users/leonardo/Desktop/Code/Github/DawnGBC/Libraries/FWLIB/src\gd32f4xx_spi.c ****     i2sof = (i2sof << 8U);
 554              		.loc 1 216 11
 555 0124 BB6A     		ldr	r3, [r7, #40]
 556 0126 1B02     		lsls	r3, r3, #8
 557 0128 BB62     		str	r3, [r7, #40]
 217:C:/Users/leonardo/Desktop/Code/Github/DawnGBC/Libraries/FWLIB/src\gd32f4xx_spi.c **** 
 218:C:/Users/leonardo/Desktop/Code/Github/DawnGBC/Libraries/FWLIB/src\gd32f4xx_spi.c ****     /* set the default values */
 219:C:/Users/leonardo/Desktop/Code/Github/DawnGBC/Libraries/FWLIB/src\gd32f4xx_spi.c ****     if((i2sdiv< 2U) || (i2sdiv > 255U)){
 558              		.loc 1 219 7
 559 012a FB6A     		ldr	r3, [r7, #44]
 560 012c 012B     		cmp	r3, #1
 561 012e 02D9     		bls	.L22
 562              		.loc 1 219 21 discriminator 1
 563 0130 FB6A     		ldr	r3, [r7, #44]
 564 0132 FF2B     		cmp	r3, #255
 565 0134 03D9     		bls	.L23
 566              	.L22:
 220:C:/Users/leonardo/Desktop/Code/Github/DawnGBC/Libraries/FWLIB/src\gd32f4xx_spi.c ****         i2sdiv = 2U;
 567              		.loc 1 220 16
 568 0136 0223     		movs	r3, #2
 569 0138 FB62     		str	r3, [r7, #44]
 221:C:/Users/leonardo/Desktop/Code/Github/DawnGBC/Libraries/FWLIB/src\gd32f4xx_spi.c ****         i2sof = 0U;
 570              		.loc 1 221 15
 571 013a 0023     		movs	r3, #0
 572 013c BB62     		str	r3, [r7, #40]
 573              	.L23:
 222:C:/Users/leonardo/Desktop/Code/Github/DawnGBC/Libraries/FWLIB/src\gd32f4xx_spi.c ****     }
 223:C:/Users/leonardo/Desktop/Code/Github/DawnGBC/Libraries/FWLIB/src\gd32f4xx_spi.c **** 
 224:C:/Users/leonardo/Desktop/Code/Github/DawnGBC/Libraries/FWLIB/src\gd32f4xx_spi.c ****     /* configure SPI_I2SPSC */
 225:C:/Users/leonardo/Desktop/Code/Github/DawnGBC/Libraries/FWLIB/src\gd32f4xx_spi.c ****     SPI_I2SPSC(spi_periph) = (uint32_t)(i2sdiv | i2sof | i2s_mckout);
 574              		.loc 1 225 48
 575 013e FA6A     		ldr	r2, [r7, #44]
 576 0140 BB6A     		ldr	r3, [r7, #40]
 577 0142 1A43     		orrs	r2, r2, r3
 578              		.loc 1 225 5
 579 0144 FB68     		ldr	r3, [r7, #12]
 580 0146 2033     		adds	r3, r3, #32
 581 0148 1946     		mov	r1, r3
 582              		.loc 1 225 56
 583 014a 3B68     		ldr	r3, [r7]
 584 014c 1343     		orrs	r3, r3, r2
 585              		.loc 1 225 28
 586 014e 0B60     		str	r3, [r1]
 226:C:/Users/leonardo/Desktop/Code/Github/DawnGBC/Libraries/FWLIB/src\gd32f4xx_spi.c **** 
 227:C:/Users/leonardo/Desktop/Code/Github/DawnGBC/Libraries/FWLIB/src\gd32f4xx_spi.c ****     /* clear SPI_I2SCTL_DTLEN and SPI_I2SCTL_CHLEN bits */
 228:C:/Users/leonardo/Desktop/Code/Github/DawnGBC/Libraries/FWLIB/src\gd32f4xx_spi.c ****     SPI_I2SCTL(spi_periph) &= (uint32_t)(~(SPI_I2SCTL_DTLEN|SPI_I2SCTL_CHLEN));
 587              		.loc 1 228 28
 588 0150 FB68     		ldr	r3, [r7, #12]
 589 0152 1C33     		adds	r3, r3, #28
 590 0154 1B68     		ldr	r3, [r3]
 591 0156 FA68     		ldr	r2, [r7, #12]
 592 0158 1C32     		adds	r2, r2, #28
 593 015a 23F00703 		bic	r3, r3, #7
 594 015e 1360     		str	r3, [r2]
 229:C:/Users/leonardo/Desktop/Code/Github/DawnGBC/Libraries/FWLIB/src\gd32f4xx_spi.c ****     /* configure data frame format */
 230:C:/Users/leonardo/Desktop/Code/Github/DawnGBC/Libraries/FWLIB/src\gd32f4xx_spi.c ****     SPI_I2SCTL(spi_periph) |= (uint32_t)i2s_frameformat;
 595              		.loc 1 230 28
 596 0160 FB68     		ldr	r3, [r7, #12]
 597 0162 1C33     		adds	r3, r3, #28
 598 0164 1A68     		ldr	r2, [r3]
 599 0166 FB68     		ldr	r3, [r7, #12]
 600 0168 1C33     		adds	r3, r3, #28
 601 016a 1946     		mov	r1, r3
 602 016c 7B68     		ldr	r3, [r7, #4]
 603 016e 1343     		orrs	r3, r3, r2
 604 0170 0B60     		str	r3, [r1]
 231:C:/Users/leonardo/Desktop/Code/Github/DawnGBC/Libraries/FWLIB/src\gd32f4xx_spi.c **** }
 605              		.loc 1 231 1
 606 0172 00BF     		nop
 607 0174 3037     		adds	r7, r7, #48
 608              		.cfi_def_cfa_offset 8
 609 0176 BD46     		mov	sp, r7
 610              		.cfi_def_cfa_register 13
 611              		@ sp needed
 612 0178 80BD     		pop	{r7, pc}
 613              	.L25:
 614 017a 00BF     		.align	2
 615              	.L24:
 616 017c 04380240 		.word	1073887236
 617 0180 84380240 		.word	1073887364
 618 0184 40787D01 		.word	25000000
 619 0188 0024F400 		.word	16000000
 620 018c CDCCCCCC 		.word	-858993459
 621              		.cfi_endproc
 622              	.LFE127:
 624              		.section	.text.i2s_init,"ax",%progbits
 625              		.align	1
 626              		.global	i2s_init
 627              		.syntax unified
 628              		.thumb
 629              		.thumb_func
 630              		.fpu softvfp
 632              	i2s_init:
 633              	.LFB128:
 232:C:/Users/leonardo/Desktop/Code/Github/DawnGBC/Libraries/FWLIB/src\gd32f4xx_spi.c **** 
 233:C:/Users/leonardo/Desktop/Code/Github/DawnGBC/Libraries/FWLIB/src\gd32f4xx_spi.c **** /*!
 234:C:/Users/leonardo/Desktop/Code/Github/DawnGBC/Libraries/FWLIB/src\gd32f4xx_spi.c ****     \brief      initialize I2S parameter 
 235:C:/Users/leonardo/Desktop/Code/Github/DawnGBC/Libraries/FWLIB/src\gd32f4xx_spi.c ****     \param[in]  spi_periph: SPIx(x=1,2)
 236:C:/Users/leonardo/Desktop/Code/Github/DawnGBC/Libraries/FWLIB/src\gd32f4xx_spi.c ****     \param[in]  i2s_mode: I2S operation mode
 237:C:/Users/leonardo/Desktop/Code/Github/DawnGBC/Libraries/FWLIB/src\gd32f4xx_spi.c ****       \arg        I2S_MODE_SLAVETX : I2S slave transmit mode
 238:C:/Users/leonardo/Desktop/Code/Github/DawnGBC/Libraries/FWLIB/src\gd32f4xx_spi.c ****       \arg        I2S_MODE_SLAVERX : I2S slave receive mode
 239:C:/Users/leonardo/Desktop/Code/Github/DawnGBC/Libraries/FWLIB/src\gd32f4xx_spi.c ****       \arg        I2S_MODE_MASTERTX : I2S master transmit mode
 240:C:/Users/leonardo/Desktop/Code/Github/DawnGBC/Libraries/FWLIB/src\gd32f4xx_spi.c ****       \arg        I2S_MODE_MASTERRX : I2S master receive mode
 241:C:/Users/leonardo/Desktop/Code/Github/DawnGBC/Libraries/FWLIB/src\gd32f4xx_spi.c ****     \param[in]  i2s_standard: I2S standard 
 242:C:/Users/leonardo/Desktop/Code/Github/DawnGBC/Libraries/FWLIB/src\gd32f4xx_spi.c ****       \arg        I2S_STD_PHILLIPS : I2S phillips standard
 243:C:/Users/leonardo/Desktop/Code/Github/DawnGBC/Libraries/FWLIB/src\gd32f4xx_spi.c ****       \arg        I2S_STD_MSB : I2S MSB standard
 244:C:/Users/leonardo/Desktop/Code/Github/DawnGBC/Libraries/FWLIB/src\gd32f4xx_spi.c ****       \arg        I2S_STD_LSB : I2S LSB standard
 245:C:/Users/leonardo/Desktop/Code/Github/DawnGBC/Libraries/FWLIB/src\gd32f4xx_spi.c ****       \arg        I2S_STD_PCMSHORT : I2S PCM short standard
 246:C:/Users/leonardo/Desktop/Code/Github/DawnGBC/Libraries/FWLIB/src\gd32f4xx_spi.c ****       \arg        I2S_STD_PCMLONG : I2S PCM long standard
 247:C:/Users/leonardo/Desktop/Code/Github/DawnGBC/Libraries/FWLIB/src\gd32f4xx_spi.c ****     \param[in]  i2s_ckpl: I2S idle state clock polarity
 248:C:/Users/leonardo/Desktop/Code/Github/DawnGBC/Libraries/FWLIB/src\gd32f4xx_spi.c ****       \arg        I2S_CKPL_LOW : I2S clock polarity low level
 249:C:/Users/leonardo/Desktop/Code/Github/DawnGBC/Libraries/FWLIB/src\gd32f4xx_spi.c ****       \arg        I2S_CKPL_HIGH : I2S clock polarity high level
 250:C:/Users/leonardo/Desktop/Code/Github/DawnGBC/Libraries/FWLIB/src\gd32f4xx_spi.c ****     \param[out] none
 251:C:/Users/leonardo/Desktop/Code/Github/DawnGBC/Libraries/FWLIB/src\gd32f4xx_spi.c ****     \retval     none
 252:C:/Users/leonardo/Desktop/Code/Github/DawnGBC/Libraries/FWLIB/src\gd32f4xx_spi.c **** */
 253:C:/Users/leonardo/Desktop/Code/Github/DawnGBC/Libraries/FWLIB/src\gd32f4xx_spi.c **** void i2s_init(uint32_t spi_periph, uint32_t i2s_mode, uint32_t i2s_standard, uint32_t i2s_ckpl)
 254:C:/Users/leonardo/Desktop/Code/Github/DawnGBC/Libraries/FWLIB/src\gd32f4xx_spi.c **** {
 634              		.loc 1 254 1
 635              		.cfi_startproc
 636              		@ args = 0, pretend = 0, frame = 24
 637              		@ frame_needed = 1, uses_anonymous_args = 0
 638              		@ link register save eliminated.
 639 0000 80B4     		push	{r7}
 640              		.cfi_def_cfa_offset 4
 641              		.cfi_offset 7, -4
 642 0002 87B0     		sub	sp, sp, #28
 643              		.cfi_def_cfa_offset 32
 644 0004 00AF     		add	r7, sp, #0
 645              		.cfi_def_cfa_register 7
 646 0006 F860     		str	r0, [r7, #12]
 647 0008 B960     		str	r1, [r7, #8]
 648 000a 7A60     		str	r2, [r7, #4]
 649 000c 3B60     		str	r3, [r7]
 255:C:/Users/leonardo/Desktop/Code/Github/DawnGBC/Libraries/FWLIB/src\gd32f4xx_spi.c ****     uint32_t reg= 0U;
 650              		.loc 1 255 14
 651 000e 0023     		movs	r3, #0
 652 0010 7B61     		str	r3, [r7, #20]
 256:C:/Users/leonardo/Desktop/Code/Github/DawnGBC/Libraries/FWLIB/src\gd32f4xx_spi.c ****     reg = SPI_I2SCTL(spi_periph);
 653              		.loc 1 256 11
 654 0012 FB68     		ldr	r3, [r7, #12]
 655 0014 1C33     		adds	r3, r3, #28
 656              		.loc 1 256 9
 657 0016 1B68     		ldr	r3, [r3]
 658 0018 7B61     		str	r3, [r7, #20]
 257:C:/Users/leonardo/Desktop/Code/Github/DawnGBC/Libraries/FWLIB/src\gd32f4xx_spi.c ****     reg &= I2S_INIT_MASK;
 659              		.loc 1 257 9
 660 001a 7A69     		ldr	r2, [r7, #20]
 661 001c 4FF24703 		movw	r3, #61511
 662 0020 1340     		ands	r3, r3, r2
 663 0022 7B61     		str	r3, [r7, #20]
 258:C:/Users/leonardo/Desktop/Code/Github/DawnGBC/Libraries/FWLIB/src\gd32f4xx_spi.c **** 
 259:C:/Users/leonardo/Desktop/Code/Github/DawnGBC/Libraries/FWLIB/src\gd32f4xx_spi.c ****     /* enable I2S mode */
 260:C:/Users/leonardo/Desktop/Code/Github/DawnGBC/Libraries/FWLIB/src\gd32f4xx_spi.c ****     reg |= (uint32_t)SPI_I2SCTL_I2SSEL; 
 664              		.loc 1 260 9
 665 0024 7B69     		ldr	r3, [r7, #20]
 666 0026 43F40063 		orr	r3, r3, #2048
 667 002a 7B61     		str	r3, [r7, #20]
 261:C:/Users/leonardo/Desktop/Code/Github/DawnGBC/Libraries/FWLIB/src\gd32f4xx_spi.c ****     /* select I2S mode */
 262:C:/Users/leonardo/Desktop/Code/Github/DawnGBC/Libraries/FWLIB/src\gd32f4xx_spi.c ****     reg |= (uint32_t)i2s_mode;
 668              		.loc 1 262 9
 669 002c 7A69     		ldr	r2, [r7, #20]
 670 002e BB68     		ldr	r3, [r7, #8]
 671 0030 1343     		orrs	r3, r3, r2
 672 0032 7B61     		str	r3, [r7, #20]
 263:C:/Users/leonardo/Desktop/Code/Github/DawnGBC/Libraries/FWLIB/src\gd32f4xx_spi.c ****     /* select I2S standard */
 264:C:/Users/leonardo/Desktop/Code/Github/DawnGBC/Libraries/FWLIB/src\gd32f4xx_spi.c ****     reg |= (uint32_t)i2s_standard;
 673              		.loc 1 264 9
 674 0034 7A69     		ldr	r2, [r7, #20]
 675 0036 7B68     		ldr	r3, [r7, #4]
 676 0038 1343     		orrs	r3, r3, r2
 677 003a 7B61     		str	r3, [r7, #20]
 265:C:/Users/leonardo/Desktop/Code/Github/DawnGBC/Libraries/FWLIB/src\gd32f4xx_spi.c ****     /* select I2S polarity */
 266:C:/Users/leonardo/Desktop/Code/Github/DawnGBC/Libraries/FWLIB/src\gd32f4xx_spi.c ****     reg |= (uint32_t)i2s_ckpl;
 678              		.loc 1 266 9
 679 003c 7A69     		ldr	r2, [r7, #20]
 680 003e 3B68     		ldr	r3, [r7]
 681 0040 1343     		orrs	r3, r3, r2
 682 0042 7B61     		str	r3, [r7, #20]
 267:C:/Users/leonardo/Desktop/Code/Github/DawnGBC/Libraries/FWLIB/src\gd32f4xx_spi.c **** 
 268:C:/Users/leonardo/Desktop/Code/Github/DawnGBC/Libraries/FWLIB/src\gd32f4xx_spi.c ****     /* write to SPI_I2SCTL register */
 269:C:/Users/leonardo/Desktop/Code/Github/DawnGBC/Libraries/FWLIB/src\gd32f4xx_spi.c ****     SPI_I2SCTL(spi_periph) = (uint32_t)reg;
 683              		.loc 1 269 5
 684 0044 FB68     		ldr	r3, [r7, #12]
 685 0046 1C33     		adds	r3, r3, #28
 686 0048 1A46     		mov	r2, r3
 687              		.loc 1 269 28
 688 004a 7B69     		ldr	r3, [r7, #20]
 689 004c 1360     		str	r3, [r2]
 270:C:/Users/leonardo/Desktop/Code/Github/DawnGBC/Libraries/FWLIB/src\gd32f4xx_spi.c **** }
 690              		.loc 1 270 1
 691 004e 00BF     		nop
 692 0050 1C37     		adds	r7, r7, #28
 693              		.cfi_def_cfa_offset 4
 694 0052 BD46     		mov	sp, r7
 695              		.cfi_def_cfa_register 13
 696              		@ sp needed
 697 0054 80BC     		pop	{r7}
 698              		.cfi_restore 7
 699              		.cfi_def_cfa_offset 0
 700 0056 7047     		bx	lr
 701              		.cfi_endproc
 702              	.LFE128:
 704              		.section	.text.i2s_enable,"ax",%progbits
 705              		.align	1
 706              		.global	i2s_enable
 707              		.syntax unified
 708              		.thumb
 709              		.thumb_func
 710              		.fpu softvfp
 712              	i2s_enable:
 713              	.LFB129:
 271:C:/Users/leonardo/Desktop/Code/Github/DawnGBC/Libraries/FWLIB/src\gd32f4xx_spi.c **** 
 272:C:/Users/leonardo/Desktop/Code/Github/DawnGBC/Libraries/FWLIB/src\gd32f4xx_spi.c **** /*!
 273:C:/Users/leonardo/Desktop/Code/Github/DawnGBC/Libraries/FWLIB/src\gd32f4xx_spi.c ****     \brief      enable I2S 
 274:C:/Users/leonardo/Desktop/Code/Github/DawnGBC/Libraries/FWLIB/src\gd32f4xx_spi.c ****     \param[in]  spi_periph: SPIx(x=1,2)
 275:C:/Users/leonardo/Desktop/Code/Github/DawnGBC/Libraries/FWLIB/src\gd32f4xx_spi.c ****     \param[out] none
 276:C:/Users/leonardo/Desktop/Code/Github/DawnGBC/Libraries/FWLIB/src\gd32f4xx_spi.c ****     \retval     none
 277:C:/Users/leonardo/Desktop/Code/Github/DawnGBC/Libraries/FWLIB/src\gd32f4xx_spi.c **** */
 278:C:/Users/leonardo/Desktop/Code/Github/DawnGBC/Libraries/FWLIB/src\gd32f4xx_spi.c **** void i2s_enable(uint32_t spi_periph)
 279:C:/Users/leonardo/Desktop/Code/Github/DawnGBC/Libraries/FWLIB/src\gd32f4xx_spi.c **** {
 714              		.loc 1 279 1
 715              		.cfi_startproc
 716              		@ args = 0, pretend = 0, frame = 8
 717              		@ frame_needed = 1, uses_anonymous_args = 0
 718              		@ link register save eliminated.
 719 0000 80B4     		push	{r7}
 720              		.cfi_def_cfa_offset 4
 721              		.cfi_offset 7, -4
 722 0002 83B0     		sub	sp, sp, #12
 723              		.cfi_def_cfa_offset 16
 724 0004 00AF     		add	r7, sp, #0
 725              		.cfi_def_cfa_register 7
 726 0006 7860     		str	r0, [r7, #4]
 280:C:/Users/leonardo/Desktop/Code/Github/DawnGBC/Libraries/FWLIB/src\gd32f4xx_spi.c ****     SPI_I2SCTL(spi_periph) |= (uint32_t)SPI_I2SCTL_I2SEN;
 727              		.loc 1 280 28
 728 0008 7B68     		ldr	r3, [r7, #4]
 729 000a 1C33     		adds	r3, r3, #28
 730 000c 1B68     		ldr	r3, [r3]
 731 000e 7A68     		ldr	r2, [r7, #4]
 732 0010 1C32     		adds	r2, r2, #28
 733 0012 43F48063 		orr	r3, r3, #1024
 734 0016 1360     		str	r3, [r2]
 281:C:/Users/leonardo/Desktop/Code/Github/DawnGBC/Libraries/FWLIB/src\gd32f4xx_spi.c **** }
 735              		.loc 1 281 1
 736 0018 00BF     		nop
 737 001a 0C37     		adds	r7, r7, #12
 738              		.cfi_def_cfa_offset 4
 739 001c BD46     		mov	sp, r7
 740              		.cfi_def_cfa_register 13
 741              		@ sp needed
 742 001e 80BC     		pop	{r7}
 743              		.cfi_restore 7
 744              		.cfi_def_cfa_offset 0
 745 0020 7047     		bx	lr
 746              		.cfi_endproc
 747              	.LFE129:
 749              		.section	.text.i2s_disable,"ax",%progbits
 750              		.align	1
 751              		.global	i2s_disable
 752              		.syntax unified
 753              		.thumb
 754              		.thumb_func
 755              		.fpu softvfp
 757              	i2s_disable:
 758              	.LFB130:
 282:C:/Users/leonardo/Desktop/Code/Github/DawnGBC/Libraries/FWLIB/src\gd32f4xx_spi.c **** 
 283:C:/Users/leonardo/Desktop/Code/Github/DawnGBC/Libraries/FWLIB/src\gd32f4xx_spi.c **** /*!
 284:C:/Users/leonardo/Desktop/Code/Github/DawnGBC/Libraries/FWLIB/src\gd32f4xx_spi.c ****     \brief      disable I2S 
 285:C:/Users/leonardo/Desktop/Code/Github/DawnGBC/Libraries/FWLIB/src\gd32f4xx_spi.c ****     \param[in]  spi_periph: SPIx(x=1,2)
 286:C:/Users/leonardo/Desktop/Code/Github/DawnGBC/Libraries/FWLIB/src\gd32f4xx_spi.c ****     \param[out] none
 287:C:/Users/leonardo/Desktop/Code/Github/DawnGBC/Libraries/FWLIB/src\gd32f4xx_spi.c ****     \retval     none
 288:C:/Users/leonardo/Desktop/Code/Github/DawnGBC/Libraries/FWLIB/src\gd32f4xx_spi.c **** */
 289:C:/Users/leonardo/Desktop/Code/Github/DawnGBC/Libraries/FWLIB/src\gd32f4xx_spi.c **** void i2s_disable(uint32_t spi_periph)
 290:C:/Users/leonardo/Desktop/Code/Github/DawnGBC/Libraries/FWLIB/src\gd32f4xx_spi.c **** {
 759              		.loc 1 290 1
 760              		.cfi_startproc
 761              		@ args = 0, pretend = 0, frame = 8
 762              		@ frame_needed = 1, uses_anonymous_args = 0
 763              		@ link register save eliminated.
 764 0000 80B4     		push	{r7}
 765              		.cfi_def_cfa_offset 4
 766              		.cfi_offset 7, -4
 767 0002 83B0     		sub	sp, sp, #12
 768              		.cfi_def_cfa_offset 16
 769 0004 00AF     		add	r7, sp, #0
 770              		.cfi_def_cfa_register 7
 771 0006 7860     		str	r0, [r7, #4]
 291:C:/Users/leonardo/Desktop/Code/Github/DawnGBC/Libraries/FWLIB/src\gd32f4xx_spi.c ****     SPI_I2SCTL(spi_periph) &= (uint32_t)(~SPI_I2SCTL_I2SEN);
 772              		.loc 1 291 28
 773 0008 7B68     		ldr	r3, [r7, #4]
 774 000a 1C33     		adds	r3, r3, #28
 775 000c 1B68     		ldr	r3, [r3]
 776 000e 7A68     		ldr	r2, [r7, #4]
 777 0010 1C32     		adds	r2, r2, #28
 778 0012 23F48063 		bic	r3, r3, #1024
 779 0016 1360     		str	r3, [r2]
 292:C:/Users/leonardo/Desktop/Code/Github/DawnGBC/Libraries/FWLIB/src\gd32f4xx_spi.c **** }
 780              		.loc 1 292 1
 781 0018 00BF     		nop
 782 001a 0C37     		adds	r7, r7, #12
 783              		.cfi_def_cfa_offset 4
 784 001c BD46     		mov	sp, r7
 785              		.cfi_def_cfa_register 13
 786              		@ sp needed
 787 001e 80BC     		pop	{r7}
 788              		.cfi_restore 7
 789              		.cfi_def_cfa_offset 0
 790 0020 7047     		bx	lr
 791              		.cfi_endproc
 792              	.LFE130:
 794              		.section	.text.spi_nss_output_enable,"ax",%progbits
 795              		.align	1
 796              		.global	spi_nss_output_enable
 797              		.syntax unified
 798              		.thumb
 799              		.thumb_func
 800              		.fpu softvfp
 802              	spi_nss_output_enable:
 803              	.LFB131:
 293:C:/Users/leonardo/Desktop/Code/Github/DawnGBC/Libraries/FWLIB/src\gd32f4xx_spi.c **** 
 294:C:/Users/leonardo/Desktop/Code/Github/DawnGBC/Libraries/FWLIB/src\gd32f4xx_spi.c **** /*!
 295:C:/Users/leonardo/Desktop/Code/Github/DawnGBC/Libraries/FWLIB/src\gd32f4xx_spi.c ****     \brief      enable SPI nss output 
 296:C:/Users/leonardo/Desktop/Code/Github/DawnGBC/Libraries/FWLIB/src\gd32f4xx_spi.c ****     \param[in]  spi_periph: SPIx(x=0,1,2,3,4,5)
 297:C:/Users/leonardo/Desktop/Code/Github/DawnGBC/Libraries/FWLIB/src\gd32f4xx_spi.c ****     \param[out] none
 298:C:/Users/leonardo/Desktop/Code/Github/DawnGBC/Libraries/FWLIB/src\gd32f4xx_spi.c ****     \retval     none
 299:C:/Users/leonardo/Desktop/Code/Github/DawnGBC/Libraries/FWLIB/src\gd32f4xx_spi.c **** */
 300:C:/Users/leonardo/Desktop/Code/Github/DawnGBC/Libraries/FWLIB/src\gd32f4xx_spi.c **** void spi_nss_output_enable(uint32_t spi_periph)
 301:C:/Users/leonardo/Desktop/Code/Github/DawnGBC/Libraries/FWLIB/src\gd32f4xx_spi.c **** {
 804              		.loc 1 301 1
 805              		.cfi_startproc
 806              		@ args = 0, pretend = 0, frame = 8
 807              		@ frame_needed = 1, uses_anonymous_args = 0
 808              		@ link register save eliminated.
 809 0000 80B4     		push	{r7}
 810              		.cfi_def_cfa_offset 4
 811              		.cfi_offset 7, -4
 812 0002 83B0     		sub	sp, sp, #12
 813              		.cfi_def_cfa_offset 16
 814 0004 00AF     		add	r7, sp, #0
 815              		.cfi_def_cfa_register 7
 816 0006 7860     		str	r0, [r7, #4]
 302:C:/Users/leonardo/Desktop/Code/Github/DawnGBC/Libraries/FWLIB/src\gd32f4xx_spi.c ****     SPI_CTL1(spi_periph) |= (uint32_t)SPI_CTL1_NSSDRV;
 817              		.loc 1 302 26
 818 0008 7B68     		ldr	r3, [r7, #4]
 819 000a 0433     		adds	r3, r3, #4
 820 000c 1B68     		ldr	r3, [r3]
 821 000e 7A68     		ldr	r2, [r7, #4]
 822 0010 0432     		adds	r2, r2, #4
 823 0012 43F00403 		orr	r3, r3, #4
 824 0016 1360     		str	r3, [r2]
 303:C:/Users/leonardo/Desktop/Code/Github/DawnGBC/Libraries/FWLIB/src\gd32f4xx_spi.c **** }
 825              		.loc 1 303 1
 826 0018 00BF     		nop
 827 001a 0C37     		adds	r7, r7, #12
 828              		.cfi_def_cfa_offset 4
 829 001c BD46     		mov	sp, r7
 830              		.cfi_def_cfa_register 13
 831              		@ sp needed
 832 001e 80BC     		pop	{r7}
 833              		.cfi_restore 7
 834              		.cfi_def_cfa_offset 0
 835 0020 7047     		bx	lr
 836              		.cfi_endproc
 837              	.LFE131:
 839              		.section	.text.spi_nss_output_disable,"ax",%progbits
 840              		.align	1
 841              		.global	spi_nss_output_disable
 842              		.syntax unified
 843              		.thumb
 844              		.thumb_func
 845              		.fpu softvfp
 847              	spi_nss_output_disable:
 848              	.LFB132:
 304:C:/Users/leonardo/Desktop/Code/Github/DawnGBC/Libraries/FWLIB/src\gd32f4xx_spi.c **** 
 305:C:/Users/leonardo/Desktop/Code/Github/DawnGBC/Libraries/FWLIB/src\gd32f4xx_spi.c **** /*!
 306:C:/Users/leonardo/Desktop/Code/Github/DawnGBC/Libraries/FWLIB/src\gd32f4xx_spi.c ****     \brief      disable SPI nss output 
 307:C:/Users/leonardo/Desktop/Code/Github/DawnGBC/Libraries/FWLIB/src\gd32f4xx_spi.c ****     \param[in]  spi_periph: SPIx(x=0,1,2,3,4,5)
 308:C:/Users/leonardo/Desktop/Code/Github/DawnGBC/Libraries/FWLIB/src\gd32f4xx_spi.c ****     \param[out] none
 309:C:/Users/leonardo/Desktop/Code/Github/DawnGBC/Libraries/FWLIB/src\gd32f4xx_spi.c ****     \retval     none
 310:C:/Users/leonardo/Desktop/Code/Github/DawnGBC/Libraries/FWLIB/src\gd32f4xx_spi.c **** */
 311:C:/Users/leonardo/Desktop/Code/Github/DawnGBC/Libraries/FWLIB/src\gd32f4xx_spi.c **** void spi_nss_output_disable(uint32_t spi_periph)
 312:C:/Users/leonardo/Desktop/Code/Github/DawnGBC/Libraries/FWLIB/src\gd32f4xx_spi.c **** {
 849              		.loc 1 312 1
 850              		.cfi_startproc
 851              		@ args = 0, pretend = 0, frame = 8
 852              		@ frame_needed = 1, uses_anonymous_args = 0
 853              		@ link register save eliminated.
 854 0000 80B4     		push	{r7}
 855              		.cfi_def_cfa_offset 4
 856              		.cfi_offset 7, -4
 857 0002 83B0     		sub	sp, sp, #12
 858              		.cfi_def_cfa_offset 16
 859 0004 00AF     		add	r7, sp, #0
 860              		.cfi_def_cfa_register 7
 861 0006 7860     		str	r0, [r7, #4]
 313:C:/Users/leonardo/Desktop/Code/Github/DawnGBC/Libraries/FWLIB/src\gd32f4xx_spi.c ****     SPI_CTL1(spi_periph) &= (uint32_t)(~SPI_CTL1_NSSDRV);
 862              		.loc 1 313 26
 863 0008 7B68     		ldr	r3, [r7, #4]
 864 000a 0433     		adds	r3, r3, #4
 865 000c 1B68     		ldr	r3, [r3]
 866 000e 7A68     		ldr	r2, [r7, #4]
 867 0010 0432     		adds	r2, r2, #4
 868 0012 23F00403 		bic	r3, r3, #4
 869 0016 1360     		str	r3, [r2]
 314:C:/Users/leonardo/Desktop/Code/Github/DawnGBC/Libraries/FWLIB/src\gd32f4xx_spi.c **** }
 870              		.loc 1 314 1
 871 0018 00BF     		nop
 872 001a 0C37     		adds	r7, r7, #12
 873              		.cfi_def_cfa_offset 4
 874 001c BD46     		mov	sp, r7
 875              		.cfi_def_cfa_register 13
 876              		@ sp needed
 877 001e 80BC     		pop	{r7}
 878              		.cfi_restore 7
 879              		.cfi_def_cfa_offset 0
 880 0020 7047     		bx	lr
 881              		.cfi_endproc
 882              	.LFE132:
 884              		.section	.text.spi_nss_internal_high,"ax",%progbits
 885              		.align	1
 886              		.global	spi_nss_internal_high
 887              		.syntax unified
 888              		.thumb
 889              		.thumb_func
 890              		.fpu softvfp
 892              	spi_nss_internal_high:
 893              	.LFB133:
 315:C:/Users/leonardo/Desktop/Code/Github/DawnGBC/Libraries/FWLIB/src\gd32f4xx_spi.c **** 
 316:C:/Users/leonardo/Desktop/Code/Github/DawnGBC/Libraries/FWLIB/src\gd32f4xx_spi.c **** /*!
 317:C:/Users/leonardo/Desktop/Code/Github/DawnGBC/Libraries/FWLIB/src\gd32f4xx_spi.c ****     \brief      SPI nss pin high level in software mode
 318:C:/Users/leonardo/Desktop/Code/Github/DawnGBC/Libraries/FWLIB/src\gd32f4xx_spi.c ****     \param[in]  spi_periph: SPIx(x=0,1,2,3,4,5)
 319:C:/Users/leonardo/Desktop/Code/Github/DawnGBC/Libraries/FWLIB/src\gd32f4xx_spi.c ****     \param[out] none
 320:C:/Users/leonardo/Desktop/Code/Github/DawnGBC/Libraries/FWLIB/src\gd32f4xx_spi.c ****     \retval     none
 321:C:/Users/leonardo/Desktop/Code/Github/DawnGBC/Libraries/FWLIB/src\gd32f4xx_spi.c **** */
 322:C:/Users/leonardo/Desktop/Code/Github/DawnGBC/Libraries/FWLIB/src\gd32f4xx_spi.c **** void spi_nss_internal_high(uint32_t spi_periph)
 323:C:/Users/leonardo/Desktop/Code/Github/DawnGBC/Libraries/FWLIB/src\gd32f4xx_spi.c **** {
 894              		.loc 1 323 1
 895              		.cfi_startproc
 896              		@ args = 0, pretend = 0, frame = 8
 897              		@ frame_needed = 1, uses_anonymous_args = 0
 898              		@ link register save eliminated.
 899 0000 80B4     		push	{r7}
 900              		.cfi_def_cfa_offset 4
 901              		.cfi_offset 7, -4
 902 0002 83B0     		sub	sp, sp, #12
 903              		.cfi_def_cfa_offset 16
 904 0004 00AF     		add	r7, sp, #0
 905              		.cfi_def_cfa_register 7
 906 0006 7860     		str	r0, [r7, #4]
 324:C:/Users/leonardo/Desktop/Code/Github/DawnGBC/Libraries/FWLIB/src\gd32f4xx_spi.c ****     SPI_CTL0(spi_periph) |= (uint32_t)SPI_CTL0_SWNSS;
 907              		.loc 1 324 26
 908 0008 7B68     		ldr	r3, [r7, #4]
 909 000a 1A68     		ldr	r2, [r3]
 910 000c 7B68     		ldr	r3, [r7, #4]
 911 000e 42F48072 		orr	r2, r2, #256
 912 0012 1A60     		str	r2, [r3]
 325:C:/Users/leonardo/Desktop/Code/Github/DawnGBC/Libraries/FWLIB/src\gd32f4xx_spi.c **** }
 913              		.loc 1 325 1
 914 0014 00BF     		nop
 915 0016 0C37     		adds	r7, r7, #12
 916              		.cfi_def_cfa_offset 4
 917 0018 BD46     		mov	sp, r7
 918              		.cfi_def_cfa_register 13
 919              		@ sp needed
 920 001a 80BC     		pop	{r7}
 921              		.cfi_restore 7
 922              		.cfi_def_cfa_offset 0
 923 001c 7047     		bx	lr
 924              		.cfi_endproc
 925              	.LFE133:
 927              		.section	.text.spi_nss_internal_low,"ax",%progbits
 928              		.align	1
 929              		.global	spi_nss_internal_low
 930              		.syntax unified
 931              		.thumb
 932              		.thumb_func
 933              		.fpu softvfp
 935              	spi_nss_internal_low:
 936              	.LFB134:
 326:C:/Users/leonardo/Desktop/Code/Github/DawnGBC/Libraries/FWLIB/src\gd32f4xx_spi.c **** 
 327:C:/Users/leonardo/Desktop/Code/Github/DawnGBC/Libraries/FWLIB/src\gd32f4xx_spi.c **** /*!
 328:C:/Users/leonardo/Desktop/Code/Github/DawnGBC/Libraries/FWLIB/src\gd32f4xx_spi.c ****     \brief      SPI nss pin low level in software mode
 329:C:/Users/leonardo/Desktop/Code/Github/DawnGBC/Libraries/FWLIB/src\gd32f4xx_spi.c ****     \param[in]  spi_periph: SPIx(x=0,1,2,3,4,5)
 330:C:/Users/leonardo/Desktop/Code/Github/DawnGBC/Libraries/FWLIB/src\gd32f4xx_spi.c ****     \param[out] none
 331:C:/Users/leonardo/Desktop/Code/Github/DawnGBC/Libraries/FWLIB/src\gd32f4xx_spi.c ****     \retval     none
 332:C:/Users/leonardo/Desktop/Code/Github/DawnGBC/Libraries/FWLIB/src\gd32f4xx_spi.c **** */
 333:C:/Users/leonardo/Desktop/Code/Github/DawnGBC/Libraries/FWLIB/src\gd32f4xx_spi.c **** void spi_nss_internal_low(uint32_t spi_periph)
 334:C:/Users/leonardo/Desktop/Code/Github/DawnGBC/Libraries/FWLIB/src\gd32f4xx_spi.c **** {
 937              		.loc 1 334 1
 938              		.cfi_startproc
 939              		@ args = 0, pretend = 0, frame = 8
 940              		@ frame_needed = 1, uses_anonymous_args = 0
 941              		@ link register save eliminated.
 942 0000 80B4     		push	{r7}
 943              		.cfi_def_cfa_offset 4
 944              		.cfi_offset 7, -4
 945 0002 83B0     		sub	sp, sp, #12
 946              		.cfi_def_cfa_offset 16
 947 0004 00AF     		add	r7, sp, #0
 948              		.cfi_def_cfa_register 7
 949 0006 7860     		str	r0, [r7, #4]
 335:C:/Users/leonardo/Desktop/Code/Github/DawnGBC/Libraries/FWLIB/src\gd32f4xx_spi.c ****     SPI_CTL0(spi_periph) &= (uint32_t)(~SPI_CTL0_SWNSS);
 950              		.loc 1 335 26
 951 0008 7B68     		ldr	r3, [r7, #4]
 952 000a 1A68     		ldr	r2, [r3]
 953 000c 7B68     		ldr	r3, [r7, #4]
 954 000e 22F48072 		bic	r2, r2, #256
 955 0012 1A60     		str	r2, [r3]
 336:C:/Users/leonardo/Desktop/Code/Github/DawnGBC/Libraries/FWLIB/src\gd32f4xx_spi.c **** }
 956              		.loc 1 336 1
 957 0014 00BF     		nop
 958 0016 0C37     		adds	r7, r7, #12
 959              		.cfi_def_cfa_offset 4
 960 0018 BD46     		mov	sp, r7
 961              		.cfi_def_cfa_register 13
 962              		@ sp needed
 963 001a 80BC     		pop	{r7}
 964              		.cfi_restore 7
 965              		.cfi_def_cfa_offset 0
 966 001c 7047     		bx	lr
 967              		.cfi_endproc
 968              	.LFE134:
 970              		.section	.text.spi_dma_enable,"ax",%progbits
 971              		.align	1
 972              		.global	spi_dma_enable
 973              		.syntax unified
 974              		.thumb
 975              		.thumb_func
 976              		.fpu softvfp
 978              	spi_dma_enable:
 979              	.LFB135:
 337:C:/Users/leonardo/Desktop/Code/Github/DawnGBC/Libraries/FWLIB/src\gd32f4xx_spi.c **** 
 338:C:/Users/leonardo/Desktop/Code/Github/DawnGBC/Libraries/FWLIB/src\gd32f4xx_spi.c **** /*!
 339:C:/Users/leonardo/Desktop/Code/Github/DawnGBC/Libraries/FWLIB/src\gd32f4xx_spi.c ****     \brief      enable SPI DMA send or receive
 340:C:/Users/leonardo/Desktop/Code/Github/DawnGBC/Libraries/FWLIB/src\gd32f4xx_spi.c ****     \param[in]  spi_periph: SPIx(x=0,1,2,3,4,5)
 341:C:/Users/leonardo/Desktop/Code/Github/DawnGBC/Libraries/FWLIB/src\gd32f4xx_spi.c ****     \param[in]  spi_dma: SPI DMA mode
 342:C:/Users/leonardo/Desktop/Code/Github/DawnGBC/Libraries/FWLIB/src\gd32f4xx_spi.c ****       \arg        SPI_DMA_TRANSMIT: SPI transmit data use DMA
 343:C:/Users/leonardo/Desktop/Code/Github/DawnGBC/Libraries/FWLIB/src\gd32f4xx_spi.c ****       \arg        SPI_DMA_RECEIVE: SPI receive data use DMA
 344:C:/Users/leonardo/Desktop/Code/Github/DawnGBC/Libraries/FWLIB/src\gd32f4xx_spi.c ****     \param[out] none
 345:C:/Users/leonardo/Desktop/Code/Github/DawnGBC/Libraries/FWLIB/src\gd32f4xx_spi.c ****     \retval     none
 346:C:/Users/leonardo/Desktop/Code/Github/DawnGBC/Libraries/FWLIB/src\gd32f4xx_spi.c **** */
 347:C:/Users/leonardo/Desktop/Code/Github/DawnGBC/Libraries/FWLIB/src\gd32f4xx_spi.c **** void spi_dma_enable(uint32_t spi_periph, uint8_t spi_dma)
 348:C:/Users/leonardo/Desktop/Code/Github/DawnGBC/Libraries/FWLIB/src\gd32f4xx_spi.c **** {
 980              		.loc 1 348 1
 981              		.cfi_startproc
 982              		@ args = 0, pretend = 0, frame = 8
 983              		@ frame_needed = 1, uses_anonymous_args = 0
 984              		@ link register save eliminated.
 985 0000 80B4     		push	{r7}
 986              		.cfi_def_cfa_offset 4
 987              		.cfi_offset 7, -4
 988 0002 83B0     		sub	sp, sp, #12
 989              		.cfi_def_cfa_offset 16
 990 0004 00AF     		add	r7, sp, #0
 991              		.cfi_def_cfa_register 7
 992 0006 7860     		str	r0, [r7, #4]
 993 0008 0B46     		mov	r3, r1
 994 000a FB70     		strb	r3, [r7, #3]
 349:C:/Users/leonardo/Desktop/Code/Github/DawnGBC/Libraries/FWLIB/src\gd32f4xx_spi.c ****     if(SPI_DMA_TRANSMIT == spi_dma){
 995              		.loc 1 349 7
 996 000c FB78     		ldrb	r3, [r7, #3]	@ zero_extendqisi2
 997 000e 002B     		cmp	r3, #0
 998 0010 08D1     		bne	.L34
 350:C:/Users/leonardo/Desktop/Code/Github/DawnGBC/Libraries/FWLIB/src\gd32f4xx_spi.c ****         SPI_CTL1(spi_periph) |= (uint32_t)SPI_CTL1_DMATEN;
 999              		.loc 1 350 30
 1000 0012 7B68     		ldr	r3, [r7, #4]
 1001 0014 0433     		adds	r3, r3, #4
 1002 0016 1B68     		ldr	r3, [r3]
 1003 0018 7A68     		ldr	r2, [r7, #4]
 1004 001a 0432     		adds	r2, r2, #4
 1005 001c 43F00203 		orr	r3, r3, #2
 1006 0020 1360     		str	r3, [r2]
 351:C:/Users/leonardo/Desktop/Code/Github/DawnGBC/Libraries/FWLIB/src\gd32f4xx_spi.c ****     }else{
 352:C:/Users/leonardo/Desktop/Code/Github/DawnGBC/Libraries/FWLIB/src\gd32f4xx_spi.c ****         SPI_CTL1(spi_periph) |= (uint32_t)SPI_CTL1_DMAREN;
 353:C:/Users/leonardo/Desktop/Code/Github/DawnGBC/Libraries/FWLIB/src\gd32f4xx_spi.c ****     }
 354:C:/Users/leonardo/Desktop/Code/Github/DawnGBC/Libraries/FWLIB/src\gd32f4xx_spi.c **** }
 1007              		.loc 1 354 1
 1008 0022 07E0     		b	.L36
 1009              	.L34:
 352:C:/Users/leonardo/Desktop/Code/Github/DawnGBC/Libraries/FWLIB/src\gd32f4xx_spi.c ****     }
 1010              		.loc 1 352 30
 1011 0024 7B68     		ldr	r3, [r7, #4]
 1012 0026 0433     		adds	r3, r3, #4
 1013 0028 1B68     		ldr	r3, [r3]
 1014 002a 7A68     		ldr	r2, [r7, #4]
 1015 002c 0432     		adds	r2, r2, #4
 1016 002e 43F00103 		orr	r3, r3, #1
 1017 0032 1360     		str	r3, [r2]
 1018              	.L36:
 1019              		.loc 1 354 1
 1020 0034 00BF     		nop
 1021 0036 0C37     		adds	r7, r7, #12
 1022              		.cfi_def_cfa_offset 4
 1023 0038 BD46     		mov	sp, r7
 1024              		.cfi_def_cfa_register 13
 1025              		@ sp needed
 1026 003a 80BC     		pop	{r7}
 1027              		.cfi_restore 7
 1028              		.cfi_def_cfa_offset 0
 1029 003c 7047     		bx	lr
 1030              		.cfi_endproc
 1031              	.LFE135:
 1033              		.section	.text.spi_dma_disable,"ax",%progbits
 1034              		.align	1
 1035              		.global	spi_dma_disable
 1036              		.syntax unified
 1037              		.thumb
 1038              		.thumb_func
 1039              		.fpu softvfp
 1041              	spi_dma_disable:
 1042              	.LFB136:
 355:C:/Users/leonardo/Desktop/Code/Github/DawnGBC/Libraries/FWLIB/src\gd32f4xx_spi.c **** 
 356:C:/Users/leonardo/Desktop/Code/Github/DawnGBC/Libraries/FWLIB/src\gd32f4xx_spi.c **** /*!
 357:C:/Users/leonardo/Desktop/Code/Github/DawnGBC/Libraries/FWLIB/src\gd32f4xx_spi.c ****     \brief      diable SPI DMA send or receive 
 358:C:/Users/leonardo/Desktop/Code/Github/DawnGBC/Libraries/FWLIB/src\gd32f4xx_spi.c ****     \param[in]  spi_periph: SPIx(x=0,1,2,3,4,5)
 359:C:/Users/leonardo/Desktop/Code/Github/DawnGBC/Libraries/FWLIB/src\gd32f4xx_spi.c ****     \param[in]  spi_dma: SPI DMA mode
 360:C:/Users/leonardo/Desktop/Code/Github/DawnGBC/Libraries/FWLIB/src\gd32f4xx_spi.c ****       \arg        SPI_DMA_TRANSMIT: SPI transmit data use DMA
 361:C:/Users/leonardo/Desktop/Code/Github/DawnGBC/Libraries/FWLIB/src\gd32f4xx_spi.c ****       \arg        SPI_DMA_RECEIVE: SPI receive data use DMA
 362:C:/Users/leonardo/Desktop/Code/Github/DawnGBC/Libraries/FWLIB/src\gd32f4xx_spi.c ****     \param[out] none
 363:C:/Users/leonardo/Desktop/Code/Github/DawnGBC/Libraries/FWLIB/src\gd32f4xx_spi.c ****     \retval     none
 364:C:/Users/leonardo/Desktop/Code/Github/DawnGBC/Libraries/FWLIB/src\gd32f4xx_spi.c **** */
 365:C:/Users/leonardo/Desktop/Code/Github/DawnGBC/Libraries/FWLIB/src\gd32f4xx_spi.c **** void spi_dma_disable(uint32_t spi_periph, uint8_t spi_dma)
 366:C:/Users/leonardo/Desktop/Code/Github/DawnGBC/Libraries/FWLIB/src\gd32f4xx_spi.c **** {
 1043              		.loc 1 366 1
 1044              		.cfi_startproc
 1045              		@ args = 0, pretend = 0, frame = 8
 1046              		@ frame_needed = 1, uses_anonymous_args = 0
 1047              		@ link register save eliminated.
 1048 0000 80B4     		push	{r7}
 1049              		.cfi_def_cfa_offset 4
 1050              		.cfi_offset 7, -4
 1051 0002 83B0     		sub	sp, sp, #12
 1052              		.cfi_def_cfa_offset 16
 1053 0004 00AF     		add	r7, sp, #0
 1054              		.cfi_def_cfa_register 7
 1055 0006 7860     		str	r0, [r7, #4]
 1056 0008 0B46     		mov	r3, r1
 1057 000a FB70     		strb	r3, [r7, #3]
 367:C:/Users/leonardo/Desktop/Code/Github/DawnGBC/Libraries/FWLIB/src\gd32f4xx_spi.c ****     if(SPI_DMA_TRANSMIT == spi_dma){
 1058              		.loc 1 367 7
 1059 000c FB78     		ldrb	r3, [r7, #3]	@ zero_extendqisi2
 1060 000e 002B     		cmp	r3, #0
 1061 0010 08D1     		bne	.L38
 368:C:/Users/leonardo/Desktop/Code/Github/DawnGBC/Libraries/FWLIB/src\gd32f4xx_spi.c ****         SPI_CTL1(spi_periph) &= (uint32_t)(~SPI_CTL1_DMATEN);
 1062              		.loc 1 368 30
 1063 0012 7B68     		ldr	r3, [r7, #4]
 1064 0014 0433     		adds	r3, r3, #4
 1065 0016 1B68     		ldr	r3, [r3]
 1066 0018 7A68     		ldr	r2, [r7, #4]
 1067 001a 0432     		adds	r2, r2, #4
 1068 001c 23F00203 		bic	r3, r3, #2
 1069 0020 1360     		str	r3, [r2]
 369:C:/Users/leonardo/Desktop/Code/Github/DawnGBC/Libraries/FWLIB/src\gd32f4xx_spi.c ****     }else{
 370:C:/Users/leonardo/Desktop/Code/Github/DawnGBC/Libraries/FWLIB/src\gd32f4xx_spi.c ****         SPI_CTL1(spi_periph) &= (uint32_t)(~SPI_CTL1_DMAREN);
 371:C:/Users/leonardo/Desktop/Code/Github/DawnGBC/Libraries/FWLIB/src\gd32f4xx_spi.c ****     }
 372:C:/Users/leonardo/Desktop/Code/Github/DawnGBC/Libraries/FWLIB/src\gd32f4xx_spi.c **** }
 1070              		.loc 1 372 1
 1071 0022 07E0     		b	.L40
 1072              	.L38:
 370:C:/Users/leonardo/Desktop/Code/Github/DawnGBC/Libraries/FWLIB/src\gd32f4xx_spi.c ****     }
 1073              		.loc 1 370 30
 1074 0024 7B68     		ldr	r3, [r7, #4]
 1075 0026 0433     		adds	r3, r3, #4
 1076 0028 1B68     		ldr	r3, [r3]
 1077 002a 7A68     		ldr	r2, [r7, #4]
 1078 002c 0432     		adds	r2, r2, #4
 1079 002e 23F00103 		bic	r3, r3, #1
 1080 0032 1360     		str	r3, [r2]
 1081              	.L40:
 1082              		.loc 1 372 1
 1083 0034 00BF     		nop
 1084 0036 0C37     		adds	r7, r7, #12
 1085              		.cfi_def_cfa_offset 4
 1086 0038 BD46     		mov	sp, r7
 1087              		.cfi_def_cfa_register 13
 1088              		@ sp needed
 1089 003a 80BC     		pop	{r7}
 1090              		.cfi_restore 7
 1091              		.cfi_def_cfa_offset 0
 1092 003c 7047     		bx	lr
 1093              		.cfi_endproc
 1094              	.LFE136:
 1096              		.section	.text.spi_i2s_data_frame_format_config,"ax",%progbits
 1097              		.align	1
 1098              		.global	spi_i2s_data_frame_format_config
 1099              		.syntax unified
 1100              		.thumb
 1101              		.thumb_func
 1102              		.fpu softvfp
 1104              	spi_i2s_data_frame_format_config:
 1105              	.LFB137:
 373:C:/Users/leonardo/Desktop/Code/Github/DawnGBC/Libraries/FWLIB/src\gd32f4xx_spi.c **** 
 374:C:/Users/leonardo/Desktop/Code/Github/DawnGBC/Libraries/FWLIB/src\gd32f4xx_spi.c **** /*!
 375:C:/Users/leonardo/Desktop/Code/Github/DawnGBC/Libraries/FWLIB/src\gd32f4xx_spi.c ****     \brief      configure SPI/I2S data frame format
 376:C:/Users/leonardo/Desktop/Code/Github/DawnGBC/Libraries/FWLIB/src\gd32f4xx_spi.c ****     \param[in]  spi_periph: SPIx(x=0,1,2,3,4,5)
 377:C:/Users/leonardo/Desktop/Code/Github/DawnGBC/Libraries/FWLIB/src\gd32f4xx_spi.c ****     \param[in]  frame_format: SPI frame size
 378:C:/Users/leonardo/Desktop/Code/Github/DawnGBC/Libraries/FWLIB/src\gd32f4xx_spi.c ****       \arg        SPI_FRAMESIZE_16BIT: SPI frame size is 16 bits
 379:C:/Users/leonardo/Desktop/Code/Github/DawnGBC/Libraries/FWLIB/src\gd32f4xx_spi.c ****       \arg        SPI_FRAMESIZE_8BIT: SPI frame size is 8 bits
 380:C:/Users/leonardo/Desktop/Code/Github/DawnGBC/Libraries/FWLIB/src\gd32f4xx_spi.c ****     \param[out] none
 381:C:/Users/leonardo/Desktop/Code/Github/DawnGBC/Libraries/FWLIB/src\gd32f4xx_spi.c ****     \retval     none
 382:C:/Users/leonardo/Desktop/Code/Github/DawnGBC/Libraries/FWLIB/src\gd32f4xx_spi.c **** */
 383:C:/Users/leonardo/Desktop/Code/Github/DawnGBC/Libraries/FWLIB/src\gd32f4xx_spi.c **** void spi_i2s_data_frame_format_config(uint32_t spi_periph, uint16_t frame_format)
 384:C:/Users/leonardo/Desktop/Code/Github/DawnGBC/Libraries/FWLIB/src\gd32f4xx_spi.c **** {
 1106              		.loc 1 384 1
 1107              		.cfi_startproc
 1108              		@ args = 0, pretend = 0, frame = 8
 1109              		@ frame_needed = 1, uses_anonymous_args = 0
 1110              		@ link register save eliminated.
 1111 0000 80B4     		push	{r7}
 1112              		.cfi_def_cfa_offset 4
 1113              		.cfi_offset 7, -4
 1114 0002 83B0     		sub	sp, sp, #12
 1115              		.cfi_def_cfa_offset 16
 1116 0004 00AF     		add	r7, sp, #0
 1117              		.cfi_def_cfa_register 7
 1118 0006 7860     		str	r0, [r7, #4]
 1119 0008 0B46     		mov	r3, r1
 1120 000a 7B80     		strh	r3, [r7, #2]	@ movhi
 385:C:/Users/leonardo/Desktop/Code/Github/DawnGBC/Libraries/FWLIB/src\gd32f4xx_spi.c ****     /* clear SPI_CTL0_FF16 bit */
 386:C:/Users/leonardo/Desktop/Code/Github/DawnGBC/Libraries/FWLIB/src\gd32f4xx_spi.c ****     SPI_CTL0(spi_periph) &= (uint32_t)(~SPI_CTL0_FF16);
 1121              		.loc 1 386 26
 1122 000c 7B68     		ldr	r3, [r7, #4]
 1123 000e 1A68     		ldr	r2, [r3]
 1124 0010 7B68     		ldr	r3, [r7, #4]
 1125 0012 22F40062 		bic	r2, r2, #2048
 1126 0016 1A60     		str	r2, [r3]
 387:C:/Users/leonardo/Desktop/Code/Github/DawnGBC/Libraries/FWLIB/src\gd32f4xx_spi.c ****     /* confige SPI_CTL0_FF16 bit */
 388:C:/Users/leonardo/Desktop/Code/Github/DawnGBC/Libraries/FWLIB/src\gd32f4xx_spi.c ****     SPI_CTL0(spi_periph) |= (uint32_t)frame_format;
 1127              		.loc 1 388 26
 1128 0018 7B68     		ldr	r3, [r7, #4]
 1129 001a 1968     		ldr	r1, [r3]
 1130              		.loc 1 388 29
 1131 001c 7A88     		ldrh	r2, [r7, #2]
 1132              		.loc 1 388 26
 1133 001e 7B68     		ldr	r3, [r7, #4]
 1134 0020 0A43     		orrs	r2, r2, r1
 1135 0022 1A60     		str	r2, [r3]
 389:C:/Users/leonardo/Desktop/Code/Github/DawnGBC/Libraries/FWLIB/src\gd32f4xx_spi.c **** }
 1136              		.loc 1 389 1
 1137 0024 00BF     		nop
 1138 0026 0C37     		adds	r7, r7, #12
 1139              		.cfi_def_cfa_offset 4
 1140 0028 BD46     		mov	sp, r7
 1141              		.cfi_def_cfa_register 13
 1142              		@ sp needed
 1143 002a 80BC     		pop	{r7}
 1144              		.cfi_restore 7
 1145              		.cfi_def_cfa_offset 0
 1146 002c 7047     		bx	lr
 1147              		.cfi_endproc
 1148              	.LFE137:
 1150              		.section	.text.spi_i2s_data_transmit,"ax",%progbits
 1151              		.align	1
 1152              		.global	spi_i2s_data_transmit
 1153              		.syntax unified
 1154              		.thumb
 1155              		.thumb_func
 1156              		.fpu softvfp
 1158              	spi_i2s_data_transmit:
 1159              	.LFB138:
 390:C:/Users/leonardo/Desktop/Code/Github/DawnGBC/Libraries/FWLIB/src\gd32f4xx_spi.c **** 
 391:C:/Users/leonardo/Desktop/Code/Github/DawnGBC/Libraries/FWLIB/src\gd32f4xx_spi.c **** /*!
 392:C:/Users/leonardo/Desktop/Code/Github/DawnGBC/Libraries/FWLIB/src\gd32f4xx_spi.c ****     \brief      SPI transmit data
 393:C:/Users/leonardo/Desktop/Code/Github/DawnGBC/Libraries/FWLIB/src\gd32f4xx_spi.c ****     \param[in]  spi_periph: SPIx(x=0,1,2,3,4,5)
 394:C:/Users/leonardo/Desktop/Code/Github/DawnGBC/Libraries/FWLIB/src\gd32f4xx_spi.c ****     \param[in]  data: 16-bit data
 395:C:/Users/leonardo/Desktop/Code/Github/DawnGBC/Libraries/FWLIB/src\gd32f4xx_spi.c ****     \param[out] none
 396:C:/Users/leonardo/Desktop/Code/Github/DawnGBC/Libraries/FWLIB/src\gd32f4xx_spi.c ****     \retval     none
 397:C:/Users/leonardo/Desktop/Code/Github/DawnGBC/Libraries/FWLIB/src\gd32f4xx_spi.c **** */
 398:C:/Users/leonardo/Desktop/Code/Github/DawnGBC/Libraries/FWLIB/src\gd32f4xx_spi.c **** void spi_i2s_data_transmit(uint32_t spi_periph, uint16_t data)
 399:C:/Users/leonardo/Desktop/Code/Github/DawnGBC/Libraries/FWLIB/src\gd32f4xx_spi.c **** {
 1160              		.loc 1 399 1
 1161              		.cfi_startproc
 1162              		@ args = 0, pretend = 0, frame = 8
 1163              		@ frame_needed = 1, uses_anonymous_args = 0
 1164              		@ link register save eliminated.
 1165 0000 80B4     		push	{r7}
 1166              		.cfi_def_cfa_offset 4
 1167              		.cfi_offset 7, -4
 1168 0002 83B0     		sub	sp, sp, #12
 1169              		.cfi_def_cfa_offset 16
 1170 0004 00AF     		add	r7, sp, #0
 1171              		.cfi_def_cfa_register 7
 1172 0006 7860     		str	r0, [r7, #4]
 1173 0008 0B46     		mov	r3, r1
 1174 000a 7B80     		strh	r3, [r7, #2]	@ movhi
 400:C:/Users/leonardo/Desktop/Code/Github/DawnGBC/Libraries/FWLIB/src\gd32f4xx_spi.c ****     SPI_DATA(spi_periph) = (uint32_t)data;
 1175              		.loc 1 400 5
 1176 000c 7B68     		ldr	r3, [r7, #4]
 1177 000e 0C33     		adds	r3, r3, #12
 1178 0010 1A46     		mov	r2, r3
 1179              		.loc 1 400 28
 1180 0012 7B88     		ldrh	r3, [r7, #2]
 1181              		.loc 1 400 26
 1182 0014 1360     		str	r3, [r2]
 401:C:/Users/leonardo/Desktop/Code/Github/DawnGBC/Libraries/FWLIB/src\gd32f4xx_spi.c **** }
 1183              		.loc 1 401 1
 1184 0016 00BF     		nop
 1185 0018 0C37     		adds	r7, r7, #12
 1186              		.cfi_def_cfa_offset 4
 1187 001a BD46     		mov	sp, r7
 1188              		.cfi_def_cfa_register 13
 1189              		@ sp needed
 1190 001c 80BC     		pop	{r7}
 1191              		.cfi_restore 7
 1192              		.cfi_def_cfa_offset 0
 1193 001e 7047     		bx	lr
 1194              		.cfi_endproc
 1195              	.LFE138:
 1197              		.section	.text.spi_i2s_data_receive,"ax",%progbits
 1198              		.align	1
 1199              		.global	spi_i2s_data_receive
 1200              		.syntax unified
 1201              		.thumb
 1202              		.thumb_func
 1203              		.fpu softvfp
 1205              	spi_i2s_data_receive:
 1206              	.LFB139:
 402:C:/Users/leonardo/Desktop/Code/Github/DawnGBC/Libraries/FWLIB/src\gd32f4xx_spi.c **** 
 403:C:/Users/leonardo/Desktop/Code/Github/DawnGBC/Libraries/FWLIB/src\gd32f4xx_spi.c **** /*!
 404:C:/Users/leonardo/Desktop/Code/Github/DawnGBC/Libraries/FWLIB/src\gd32f4xx_spi.c ****     \brief      SPI receive data
 405:C:/Users/leonardo/Desktop/Code/Github/DawnGBC/Libraries/FWLIB/src\gd32f4xx_spi.c ****     \param[in]  spi_periph: SPIx(x=0,1,2,3,4,5)
 406:C:/Users/leonardo/Desktop/Code/Github/DawnGBC/Libraries/FWLIB/src\gd32f4xx_spi.c ****     \param[out] none
 407:C:/Users/leonardo/Desktop/Code/Github/DawnGBC/Libraries/FWLIB/src\gd32f4xx_spi.c ****     \retval     16-bit data
 408:C:/Users/leonardo/Desktop/Code/Github/DawnGBC/Libraries/FWLIB/src\gd32f4xx_spi.c **** */
 409:C:/Users/leonardo/Desktop/Code/Github/DawnGBC/Libraries/FWLIB/src\gd32f4xx_spi.c **** uint16_t spi_i2s_data_receive(uint32_t spi_periph)
 410:C:/Users/leonardo/Desktop/Code/Github/DawnGBC/Libraries/FWLIB/src\gd32f4xx_spi.c **** {
 1207              		.loc 1 410 1
 1208              		.cfi_startproc
 1209              		@ args = 0, pretend = 0, frame = 8
 1210              		@ frame_needed = 1, uses_anonymous_args = 0
 1211              		@ link register save eliminated.
 1212 0000 80B4     		push	{r7}
 1213              		.cfi_def_cfa_offset 4
 1214              		.cfi_offset 7, -4
 1215 0002 83B0     		sub	sp, sp, #12
 1216              		.cfi_def_cfa_offset 16
 1217 0004 00AF     		add	r7, sp, #0
 1218              		.cfi_def_cfa_register 7
 1219 0006 7860     		str	r0, [r7, #4]
 411:C:/Users/leonardo/Desktop/Code/Github/DawnGBC/Libraries/FWLIB/src\gd32f4xx_spi.c ****     return ((uint16_t)SPI_DATA(spi_periph));
 1220              		.loc 1 411 23
 1221 0008 7B68     		ldr	r3, [r7, #4]
 1222 000a 0C33     		adds	r3, r3, #12
 1223 000c 1B68     		ldr	r3, [r3]
 1224              		.loc 1 411 13
 1225 000e 9BB2     		uxth	r3, r3
 412:C:/Users/leonardo/Desktop/Code/Github/DawnGBC/Libraries/FWLIB/src\gd32f4xx_spi.c **** }
 1226              		.loc 1 412 1
 1227 0010 1846     		mov	r0, r3
 1228 0012 0C37     		adds	r7, r7, #12
 1229              		.cfi_def_cfa_offset 4
 1230 0014 BD46     		mov	sp, r7
 1231              		.cfi_def_cfa_register 13
 1232              		@ sp needed
 1233 0016 80BC     		pop	{r7}
 1234              		.cfi_restore 7
 1235              		.cfi_def_cfa_offset 0
 1236 0018 7047     		bx	lr
 1237              		.cfi_endproc
 1238              	.LFE139:
 1240              		.section	.text.spi_bidirectional_transfer_config,"ax",%progbits
 1241              		.align	1
 1242              		.global	spi_bidirectional_transfer_config
 1243              		.syntax unified
 1244              		.thumb
 1245              		.thumb_func
 1246              		.fpu softvfp
 1248              	spi_bidirectional_transfer_config:
 1249              	.LFB140:
 413:C:/Users/leonardo/Desktop/Code/Github/DawnGBC/Libraries/FWLIB/src\gd32f4xx_spi.c **** 
 414:C:/Users/leonardo/Desktop/Code/Github/DawnGBC/Libraries/FWLIB/src\gd32f4xx_spi.c **** /*!
 415:C:/Users/leonardo/Desktop/Code/Github/DawnGBC/Libraries/FWLIB/src\gd32f4xx_spi.c ****     \brief      configure SPI bidirectional transfer direction
 416:C:/Users/leonardo/Desktop/Code/Github/DawnGBC/Libraries/FWLIB/src\gd32f4xx_spi.c ****     \param[in]  spi_periph: SPIx(x=0,1,2,3,4,5)
 417:C:/Users/leonardo/Desktop/Code/Github/DawnGBC/Libraries/FWLIB/src\gd32f4xx_spi.c ****     \param[in]  transfer_direction: SPI transfer direction
 418:C:/Users/leonardo/Desktop/Code/Github/DawnGBC/Libraries/FWLIB/src\gd32f4xx_spi.c ****       \arg        SPI_BIDIRECTIONAL_TRANSMIT: SPI work in transmit-only mode
 419:C:/Users/leonardo/Desktop/Code/Github/DawnGBC/Libraries/FWLIB/src\gd32f4xx_spi.c ****       \arg        SPI_BIDIRECTIONAL_RECEIVE: SPI work in receive-only mode
 420:C:/Users/leonardo/Desktop/Code/Github/DawnGBC/Libraries/FWLIB/src\gd32f4xx_spi.c ****     \retval     none
 421:C:/Users/leonardo/Desktop/Code/Github/DawnGBC/Libraries/FWLIB/src\gd32f4xx_spi.c **** */
 422:C:/Users/leonardo/Desktop/Code/Github/DawnGBC/Libraries/FWLIB/src\gd32f4xx_spi.c **** void spi_bidirectional_transfer_config(uint32_t spi_periph, uint32_t transfer_direction)
 423:C:/Users/leonardo/Desktop/Code/Github/DawnGBC/Libraries/FWLIB/src\gd32f4xx_spi.c **** {
 1250              		.loc 1 423 1
 1251              		.cfi_startproc
 1252              		@ args = 0, pretend = 0, frame = 8
 1253              		@ frame_needed = 1, uses_anonymous_args = 0
 1254              		@ link register save eliminated.
 1255 0000 80B4     		push	{r7}
 1256              		.cfi_def_cfa_offset 4
 1257              		.cfi_offset 7, -4
 1258 0002 83B0     		sub	sp, sp, #12
 1259              		.cfi_def_cfa_offset 16
 1260 0004 00AF     		add	r7, sp, #0
 1261              		.cfi_def_cfa_register 7
 1262 0006 7860     		str	r0, [r7, #4]
 1263 0008 3960     		str	r1, [r7]
 424:C:/Users/leonardo/Desktop/Code/Github/DawnGBC/Libraries/FWLIB/src\gd32f4xx_spi.c ****     if(SPI_BIDIRECTIONAL_TRANSMIT == transfer_direction){
 1264              		.loc 1 424 7
 1265 000a 3B68     		ldr	r3, [r7]
 1266 000c B3F5804F 		cmp	r3, #16384
 1267 0010 06D1     		bne	.L46
 425:C:/Users/leonardo/Desktop/Code/Github/DawnGBC/Libraries/FWLIB/src\gd32f4xx_spi.c ****         /* set the transmit only mode */
 426:C:/Users/leonardo/Desktop/Code/Github/DawnGBC/Libraries/FWLIB/src\gd32f4xx_spi.c ****         SPI_CTL0(spi_periph) |= (uint32_t)SPI_BIDIRECTIONAL_TRANSMIT;
 1268              		.loc 1 426 30
 1269 0012 7B68     		ldr	r3, [r7, #4]
 1270 0014 1A68     		ldr	r2, [r3]
 1271 0016 7B68     		ldr	r3, [r7, #4]
 1272 0018 42F48042 		orr	r2, r2, #16384
 1273 001c 1A60     		str	r2, [r3]
 427:C:/Users/leonardo/Desktop/Code/Github/DawnGBC/Libraries/FWLIB/src\gd32f4xx_spi.c ****     }else{
 428:C:/Users/leonardo/Desktop/Code/Github/DawnGBC/Libraries/FWLIB/src\gd32f4xx_spi.c ****         /* set the receive only mode */
 429:C:/Users/leonardo/Desktop/Code/Github/DawnGBC/Libraries/FWLIB/src\gd32f4xx_spi.c ****         SPI_CTL0(spi_periph) &= SPI_BIDIRECTIONAL_RECEIVE;
 430:C:/Users/leonardo/Desktop/Code/Github/DawnGBC/Libraries/FWLIB/src\gd32f4xx_spi.c ****     }
 431:C:/Users/leonardo/Desktop/Code/Github/DawnGBC/Libraries/FWLIB/src\gd32f4xx_spi.c **** }
 1274              		.loc 1 431 1
 1275 001e 05E0     		b	.L48
 1276              	.L46:
 429:C:/Users/leonardo/Desktop/Code/Github/DawnGBC/Libraries/FWLIB/src\gd32f4xx_spi.c ****     }
 1277              		.loc 1 429 30
 1278 0020 7B68     		ldr	r3, [r7, #4]
 1279 0022 1A68     		ldr	r2, [r3]
 1280 0024 7B68     		ldr	r3, [r7, #4]
 1281 0026 22F48042 		bic	r2, r2, #16384
 1282 002a 1A60     		str	r2, [r3]
 1283              	.L48:
 1284              		.loc 1 431 1
 1285 002c 00BF     		nop
 1286 002e 0C37     		adds	r7, r7, #12
 1287              		.cfi_def_cfa_offset 4
 1288 0030 BD46     		mov	sp, r7
 1289              		.cfi_def_cfa_register 13
 1290              		@ sp needed
 1291 0032 80BC     		pop	{r7}
 1292              		.cfi_restore 7
 1293              		.cfi_def_cfa_offset 0
 1294 0034 7047     		bx	lr
 1295              		.cfi_endproc
 1296              	.LFE140:
 1298              		.section	.text.spi_i2s_interrupt_enable,"ax",%progbits
 1299              		.align	1
 1300              		.global	spi_i2s_interrupt_enable
 1301              		.syntax unified
 1302              		.thumb
 1303              		.thumb_func
 1304              		.fpu softvfp
 1306              	spi_i2s_interrupt_enable:
 1307              	.LFB141:
 432:C:/Users/leonardo/Desktop/Code/Github/DawnGBC/Libraries/FWLIB/src\gd32f4xx_spi.c **** 
 433:C:/Users/leonardo/Desktop/Code/Github/DawnGBC/Libraries/FWLIB/src\gd32f4xx_spi.c **** /*!
 434:C:/Users/leonardo/Desktop/Code/Github/DawnGBC/Libraries/FWLIB/src\gd32f4xx_spi.c ****     \brief      enable SPI and I2S interrupt 
 435:C:/Users/leonardo/Desktop/Code/Github/DawnGBC/Libraries/FWLIB/src\gd32f4xx_spi.c ****     \param[in]  spi_periph: SPIx(x=0,1,2,3,4,5)
 436:C:/Users/leonardo/Desktop/Code/Github/DawnGBC/Libraries/FWLIB/src\gd32f4xx_spi.c ****     \param[in]  spi_i2s_int: SPI/I2S interrupt
 437:C:/Users/leonardo/Desktop/Code/Github/DawnGBC/Libraries/FWLIB/src\gd32f4xx_spi.c ****       \arg        SPI_I2S_INT_TBE: transmit buffer empty interrupt
 438:C:/Users/leonardo/Desktop/Code/Github/DawnGBC/Libraries/FWLIB/src\gd32f4xx_spi.c ****       \arg        SPI_I2S_INT_RBNE: receive buffer not empty interrupt
 439:C:/Users/leonardo/Desktop/Code/Github/DawnGBC/Libraries/FWLIB/src\gd32f4xx_spi.c ****       \arg        SPI_I2S_INT_ERR: CRC error,configuration error,reception overrun error,
 440:C:/Users/leonardo/Desktop/Code/Github/DawnGBC/Libraries/FWLIB/src\gd32f4xx_spi.c ****                                    transmission underrun error and format error interrupt
 441:C:/Users/leonardo/Desktop/Code/Github/DawnGBC/Libraries/FWLIB/src\gd32f4xx_spi.c ****     \param[out] none
 442:C:/Users/leonardo/Desktop/Code/Github/DawnGBC/Libraries/FWLIB/src\gd32f4xx_spi.c ****     \retval     none
 443:C:/Users/leonardo/Desktop/Code/Github/DawnGBC/Libraries/FWLIB/src\gd32f4xx_spi.c **** */
 444:C:/Users/leonardo/Desktop/Code/Github/DawnGBC/Libraries/FWLIB/src\gd32f4xx_spi.c **** void spi_i2s_interrupt_enable(uint32_t spi_periph, uint8_t spi_i2s_int)
 445:C:/Users/leonardo/Desktop/Code/Github/DawnGBC/Libraries/FWLIB/src\gd32f4xx_spi.c **** {
 1308              		.loc 1 445 1
 1309              		.cfi_startproc
 1310              		@ args = 0, pretend = 0, frame = 8
 1311              		@ frame_needed = 1, uses_anonymous_args = 0
 1312              		@ link register save eliminated.
 1313 0000 80B4     		push	{r7}
 1314              		.cfi_def_cfa_offset 4
 1315              		.cfi_offset 7, -4
 1316 0002 83B0     		sub	sp, sp, #12
 1317              		.cfi_def_cfa_offset 16
 1318 0004 00AF     		add	r7, sp, #0
 1319              		.cfi_def_cfa_register 7
 1320 0006 7860     		str	r0, [r7, #4]
 1321 0008 0B46     		mov	r3, r1
 1322 000a FB70     		strb	r3, [r7, #3]
 446:C:/Users/leonardo/Desktop/Code/Github/DawnGBC/Libraries/FWLIB/src\gd32f4xx_spi.c ****     switch(spi_i2s_int){
 1323              		.loc 1 446 5
 1324 000c FB78     		ldrb	r3, [r7, #3]	@ zero_extendqisi2
 1325 000e 062B     		cmp	r3, #6
 1326 0010 18D0     		beq	.L50
 1327 0012 062B     		cmp	r3, #6
 1328 0014 1FDC     		bgt	.L55
 1329 0016 002B     		cmp	r3, #0
 1330 0018 02D0     		beq	.L52
 1331 001a 012B     		cmp	r3, #1
 1332 001c 09D0     		beq	.L53
 447:C:/Users/leonardo/Desktop/Code/Github/DawnGBC/Libraries/FWLIB/src\gd32f4xx_spi.c ****     /* SPI/I2S transmit buffer empty interrupt */
 448:C:/Users/leonardo/Desktop/Code/Github/DawnGBC/Libraries/FWLIB/src\gd32f4xx_spi.c ****     case SPI_I2S_INT_TBE:
 449:C:/Users/leonardo/Desktop/Code/Github/DawnGBC/Libraries/FWLIB/src\gd32f4xx_spi.c ****         SPI_CTL1(spi_periph) |= (uint32_t)SPI_CTL1_TBEIE;
 450:C:/Users/leonardo/Desktop/Code/Github/DawnGBC/Libraries/FWLIB/src\gd32f4xx_spi.c ****         break;
 451:C:/Users/leonardo/Desktop/Code/Github/DawnGBC/Libraries/FWLIB/src\gd32f4xx_spi.c ****     /* SPI/I2S receive buffer not empty interrupt */
 452:C:/Users/leonardo/Desktop/Code/Github/DawnGBC/Libraries/FWLIB/src\gd32f4xx_spi.c ****     case SPI_I2S_INT_RBNE:
 453:C:/Users/leonardo/Desktop/Code/Github/DawnGBC/Libraries/FWLIB/src\gd32f4xx_spi.c ****         SPI_CTL1(spi_periph) |= (uint32_t)SPI_CTL1_RBNEIE;
 454:C:/Users/leonardo/Desktop/Code/Github/DawnGBC/Libraries/FWLIB/src\gd32f4xx_spi.c ****         break;
 455:C:/Users/leonardo/Desktop/Code/Github/DawnGBC/Libraries/FWLIB/src\gd32f4xx_spi.c ****     /* SPI/I2S error */
 456:C:/Users/leonardo/Desktop/Code/Github/DawnGBC/Libraries/FWLIB/src\gd32f4xx_spi.c ****     case SPI_I2S_INT_ERR:
 457:C:/Users/leonardo/Desktop/Code/Github/DawnGBC/Libraries/FWLIB/src\gd32f4xx_spi.c ****         SPI_CTL1(spi_periph) |= (uint32_t)SPI_CTL1_ERRIE;
 458:C:/Users/leonardo/Desktop/Code/Github/DawnGBC/Libraries/FWLIB/src\gd32f4xx_spi.c ****         break;
 459:C:/Users/leonardo/Desktop/Code/Github/DawnGBC/Libraries/FWLIB/src\gd32f4xx_spi.c ****     default:
 460:C:/Users/leonardo/Desktop/Code/Github/DawnGBC/Libraries/FWLIB/src\gd32f4xx_spi.c ****         break;
 1333              		.loc 1 460 9
 1334 001e 1AE0     		b	.L55
 1335              	.L52:
 449:C:/Users/leonardo/Desktop/Code/Github/DawnGBC/Libraries/FWLIB/src\gd32f4xx_spi.c ****         break;
 1336              		.loc 1 449 30
 1337 0020 7B68     		ldr	r3, [r7, #4]
 1338 0022 0433     		adds	r3, r3, #4
 1339 0024 1B68     		ldr	r3, [r3]
 1340 0026 7A68     		ldr	r2, [r7, #4]
 1341 0028 0432     		adds	r2, r2, #4
 1342 002a 43F08003 		orr	r3, r3, #128
 1343 002e 1360     		str	r3, [r2]
 450:C:/Users/leonardo/Desktop/Code/Github/DawnGBC/Libraries/FWLIB/src\gd32f4xx_spi.c ****     /* SPI/I2S receive buffer not empty interrupt */
 1344              		.loc 1 450 9
 1345 0030 12E0     		b	.L54
 1346              	.L53:
 453:C:/Users/leonardo/Desktop/Code/Github/DawnGBC/Libraries/FWLIB/src\gd32f4xx_spi.c ****         break;
 1347              		.loc 1 453 30
 1348 0032 7B68     		ldr	r3, [r7, #4]
 1349 0034 0433     		adds	r3, r3, #4
 1350 0036 1B68     		ldr	r3, [r3]
 1351 0038 7A68     		ldr	r2, [r7, #4]
 1352 003a 0432     		adds	r2, r2, #4
 1353 003c 43F04003 		orr	r3, r3, #64
 1354 0040 1360     		str	r3, [r2]
 454:C:/Users/leonardo/Desktop/Code/Github/DawnGBC/Libraries/FWLIB/src\gd32f4xx_spi.c ****     /* SPI/I2S error */
 1355              		.loc 1 454 9
 1356 0042 09E0     		b	.L54
 1357              	.L50:
 457:C:/Users/leonardo/Desktop/Code/Github/DawnGBC/Libraries/FWLIB/src\gd32f4xx_spi.c ****         break;
 1358              		.loc 1 457 30
 1359 0044 7B68     		ldr	r3, [r7, #4]
 1360 0046 0433     		adds	r3, r3, #4
 1361 0048 1B68     		ldr	r3, [r3]
 1362 004a 7A68     		ldr	r2, [r7, #4]
 1363 004c 0432     		adds	r2, r2, #4
 1364 004e 43F02003 		orr	r3, r3, #32
 1365 0052 1360     		str	r3, [r2]
 458:C:/Users/leonardo/Desktop/Code/Github/DawnGBC/Libraries/FWLIB/src\gd32f4xx_spi.c ****     default:
 1366              		.loc 1 458 9
 1367 0054 00E0     		b	.L54
 1368              	.L55:
 1369              		.loc 1 460 9
 1370 0056 00BF     		nop
 1371              	.L54:
 461:C:/Users/leonardo/Desktop/Code/Github/DawnGBC/Libraries/FWLIB/src\gd32f4xx_spi.c ****     }
 462:C:/Users/leonardo/Desktop/Code/Github/DawnGBC/Libraries/FWLIB/src\gd32f4xx_spi.c **** }
 1372              		.loc 1 462 1
 1373 0058 00BF     		nop
 1374 005a 0C37     		adds	r7, r7, #12
 1375              		.cfi_def_cfa_offset 4
 1376 005c BD46     		mov	sp, r7
 1377              		.cfi_def_cfa_register 13
 1378              		@ sp needed
 1379 005e 80BC     		pop	{r7}
 1380              		.cfi_restore 7
 1381              		.cfi_def_cfa_offset 0
 1382 0060 7047     		bx	lr
 1383              		.cfi_endproc
 1384              	.LFE141:
 1386              		.section	.text.spi_i2s_interrupt_disable,"ax",%progbits
 1387              		.align	1
 1388              		.global	spi_i2s_interrupt_disable
 1389              		.syntax unified
 1390              		.thumb
 1391              		.thumb_func
 1392              		.fpu softvfp
 1394              	spi_i2s_interrupt_disable:
 1395              	.LFB142:
 463:C:/Users/leonardo/Desktop/Code/Github/DawnGBC/Libraries/FWLIB/src\gd32f4xx_spi.c **** 
 464:C:/Users/leonardo/Desktop/Code/Github/DawnGBC/Libraries/FWLIB/src\gd32f4xx_spi.c **** /*!
 465:C:/Users/leonardo/Desktop/Code/Github/DawnGBC/Libraries/FWLIB/src\gd32f4xx_spi.c ****     \brief      disable SPI and I2S interrupt 
 466:C:/Users/leonardo/Desktop/Code/Github/DawnGBC/Libraries/FWLIB/src\gd32f4xx_spi.c ****     \param[in]  spi_periph: SPIx(x=0,1,2,3,4,5)
 467:C:/Users/leonardo/Desktop/Code/Github/DawnGBC/Libraries/FWLIB/src\gd32f4xx_spi.c ****     \param[in]  spi_i2s_int: SPI/I2S interrupt
 468:C:/Users/leonardo/Desktop/Code/Github/DawnGBC/Libraries/FWLIB/src\gd32f4xx_spi.c ****       \arg        SPI_I2S_INT_TBE: transmit buffer empty interrupt
 469:C:/Users/leonardo/Desktop/Code/Github/DawnGBC/Libraries/FWLIB/src\gd32f4xx_spi.c ****       \arg        SPI_I2S_INT_RBNE: receive buffer not empty interrupt
 470:C:/Users/leonardo/Desktop/Code/Github/DawnGBC/Libraries/FWLIB/src\gd32f4xx_spi.c ****       \arg        SPI_I2S_INT_ERR: CRC error,configuration error,reception overrun error,
 471:C:/Users/leonardo/Desktop/Code/Github/DawnGBC/Libraries/FWLIB/src\gd32f4xx_spi.c ****                                    transmission underrun error and format error interrupt
 472:C:/Users/leonardo/Desktop/Code/Github/DawnGBC/Libraries/FWLIB/src\gd32f4xx_spi.c ****     \param[out] none
 473:C:/Users/leonardo/Desktop/Code/Github/DawnGBC/Libraries/FWLIB/src\gd32f4xx_spi.c ****     \retval     none
 474:C:/Users/leonardo/Desktop/Code/Github/DawnGBC/Libraries/FWLIB/src\gd32f4xx_spi.c **** */
 475:C:/Users/leonardo/Desktop/Code/Github/DawnGBC/Libraries/FWLIB/src\gd32f4xx_spi.c **** void spi_i2s_interrupt_disable(uint32_t spi_periph, uint8_t spi_i2s_int)
 476:C:/Users/leonardo/Desktop/Code/Github/DawnGBC/Libraries/FWLIB/src\gd32f4xx_spi.c **** {
 1396              		.loc 1 476 1
 1397              		.cfi_startproc
 1398              		@ args = 0, pretend = 0, frame = 8
 1399              		@ frame_needed = 1, uses_anonymous_args = 0
 1400              		@ link register save eliminated.
 1401 0000 80B4     		push	{r7}
 1402              		.cfi_def_cfa_offset 4
 1403              		.cfi_offset 7, -4
 1404 0002 83B0     		sub	sp, sp, #12
 1405              		.cfi_def_cfa_offset 16
 1406 0004 00AF     		add	r7, sp, #0
 1407              		.cfi_def_cfa_register 7
 1408 0006 7860     		str	r0, [r7, #4]
 1409 0008 0B46     		mov	r3, r1
 1410 000a FB70     		strb	r3, [r7, #3]
 477:C:/Users/leonardo/Desktop/Code/Github/DawnGBC/Libraries/FWLIB/src\gd32f4xx_spi.c ****     switch(spi_i2s_int){
 1411              		.loc 1 477 5
 1412 000c FB78     		ldrb	r3, [r7, #3]	@ zero_extendqisi2
 1413 000e 062B     		cmp	r3, #6
 1414 0010 18D0     		beq	.L57
 1415 0012 062B     		cmp	r3, #6
 1416 0014 1FDC     		bgt	.L62
 1417 0016 002B     		cmp	r3, #0
 1418 0018 02D0     		beq	.L59
 1419 001a 012B     		cmp	r3, #1
 1420 001c 09D0     		beq	.L60
 478:C:/Users/leonardo/Desktop/Code/Github/DawnGBC/Libraries/FWLIB/src\gd32f4xx_spi.c ****     /* SPI/I2S transmit buffer empty interrupt */
 479:C:/Users/leonardo/Desktop/Code/Github/DawnGBC/Libraries/FWLIB/src\gd32f4xx_spi.c ****     case SPI_I2S_INT_TBE :
 480:C:/Users/leonardo/Desktop/Code/Github/DawnGBC/Libraries/FWLIB/src\gd32f4xx_spi.c ****         SPI_CTL1(spi_periph) &= (uint32_t)(~SPI_CTL1_TBEIE);
 481:C:/Users/leonardo/Desktop/Code/Github/DawnGBC/Libraries/FWLIB/src\gd32f4xx_spi.c ****         break;
 482:C:/Users/leonardo/Desktop/Code/Github/DawnGBC/Libraries/FWLIB/src\gd32f4xx_spi.c ****     /* SPI/I2S receive buffer not empty interrupt */
 483:C:/Users/leonardo/Desktop/Code/Github/DawnGBC/Libraries/FWLIB/src\gd32f4xx_spi.c ****     case SPI_I2S_INT_RBNE :
 484:C:/Users/leonardo/Desktop/Code/Github/DawnGBC/Libraries/FWLIB/src\gd32f4xx_spi.c ****         SPI_CTL1(spi_periph) &= (uint32_t)(~SPI_CTL1_RBNEIE);
 485:C:/Users/leonardo/Desktop/Code/Github/DawnGBC/Libraries/FWLIB/src\gd32f4xx_spi.c ****         break;
 486:C:/Users/leonardo/Desktop/Code/Github/DawnGBC/Libraries/FWLIB/src\gd32f4xx_spi.c ****     /* SPI/I2S error */
 487:C:/Users/leonardo/Desktop/Code/Github/DawnGBC/Libraries/FWLIB/src\gd32f4xx_spi.c ****     case SPI_I2S_INT_ERR :
 488:C:/Users/leonardo/Desktop/Code/Github/DawnGBC/Libraries/FWLIB/src\gd32f4xx_spi.c ****         SPI_CTL1(spi_periph) &= (uint32_t)(~SPI_CTL1_ERRIE);
 489:C:/Users/leonardo/Desktop/Code/Github/DawnGBC/Libraries/FWLIB/src\gd32f4xx_spi.c ****         break;
 490:C:/Users/leonardo/Desktop/Code/Github/DawnGBC/Libraries/FWLIB/src\gd32f4xx_spi.c ****     default :
 491:C:/Users/leonardo/Desktop/Code/Github/DawnGBC/Libraries/FWLIB/src\gd32f4xx_spi.c ****         break;
 1421              		.loc 1 491 9
 1422 001e 1AE0     		b	.L62
 1423              	.L59:
 480:C:/Users/leonardo/Desktop/Code/Github/DawnGBC/Libraries/FWLIB/src\gd32f4xx_spi.c ****         break;
 1424              		.loc 1 480 30
 1425 0020 7B68     		ldr	r3, [r7, #4]
 1426 0022 0433     		adds	r3, r3, #4
 1427 0024 1B68     		ldr	r3, [r3]
 1428 0026 7A68     		ldr	r2, [r7, #4]
 1429 0028 0432     		adds	r2, r2, #4
 1430 002a 23F08003 		bic	r3, r3, #128
 1431 002e 1360     		str	r3, [r2]
 481:C:/Users/leonardo/Desktop/Code/Github/DawnGBC/Libraries/FWLIB/src\gd32f4xx_spi.c ****     /* SPI/I2S receive buffer not empty interrupt */
 1432              		.loc 1 481 9
 1433 0030 12E0     		b	.L61
 1434              	.L60:
 484:C:/Users/leonardo/Desktop/Code/Github/DawnGBC/Libraries/FWLIB/src\gd32f4xx_spi.c ****         break;
 1435              		.loc 1 484 30
 1436 0032 7B68     		ldr	r3, [r7, #4]
 1437 0034 0433     		adds	r3, r3, #4
 1438 0036 1B68     		ldr	r3, [r3]
 1439 0038 7A68     		ldr	r2, [r7, #4]
 1440 003a 0432     		adds	r2, r2, #4
 1441 003c 23F04003 		bic	r3, r3, #64
 1442 0040 1360     		str	r3, [r2]
 485:C:/Users/leonardo/Desktop/Code/Github/DawnGBC/Libraries/FWLIB/src\gd32f4xx_spi.c ****     /* SPI/I2S error */
 1443              		.loc 1 485 9
 1444 0042 09E0     		b	.L61
 1445              	.L57:
 488:C:/Users/leonardo/Desktop/Code/Github/DawnGBC/Libraries/FWLIB/src\gd32f4xx_spi.c ****         break;
 1446              		.loc 1 488 30
 1447 0044 7B68     		ldr	r3, [r7, #4]
 1448 0046 0433     		adds	r3, r3, #4
 1449 0048 1B68     		ldr	r3, [r3]
 1450 004a 7A68     		ldr	r2, [r7, #4]
 1451 004c 0432     		adds	r2, r2, #4
 1452 004e 23F02003 		bic	r3, r3, #32
 1453 0052 1360     		str	r3, [r2]
 489:C:/Users/leonardo/Desktop/Code/Github/DawnGBC/Libraries/FWLIB/src\gd32f4xx_spi.c ****     default :
 1454              		.loc 1 489 9
 1455 0054 00E0     		b	.L61
 1456              	.L62:
 1457              		.loc 1 491 9
 1458 0056 00BF     		nop
 1459              	.L61:
 492:C:/Users/leonardo/Desktop/Code/Github/DawnGBC/Libraries/FWLIB/src\gd32f4xx_spi.c ****     }
 493:C:/Users/leonardo/Desktop/Code/Github/DawnGBC/Libraries/FWLIB/src\gd32f4xx_spi.c **** }
 1460              		.loc 1 493 1
 1461 0058 00BF     		nop
 1462 005a 0C37     		adds	r7, r7, #12
 1463              		.cfi_def_cfa_offset 4
 1464 005c BD46     		mov	sp, r7
 1465              		.cfi_def_cfa_register 13
 1466              		@ sp needed
 1467 005e 80BC     		pop	{r7}
 1468              		.cfi_restore 7
 1469              		.cfi_def_cfa_offset 0
 1470 0060 7047     		bx	lr
 1471              		.cfi_endproc
 1472              	.LFE142:
 1474              		.section	.text.spi_i2s_interrupt_flag_get,"ax",%progbits
 1475              		.align	1
 1476              		.global	spi_i2s_interrupt_flag_get
 1477              		.syntax unified
 1478              		.thumb
 1479              		.thumb_func
 1480              		.fpu softvfp
 1482              	spi_i2s_interrupt_flag_get:
 1483              	.LFB143:
 494:C:/Users/leonardo/Desktop/Code/Github/DawnGBC/Libraries/FWLIB/src\gd32f4xx_spi.c **** 
 495:C:/Users/leonardo/Desktop/Code/Github/DawnGBC/Libraries/FWLIB/src\gd32f4xx_spi.c **** /*!
 496:C:/Users/leonardo/Desktop/Code/Github/DawnGBC/Libraries/FWLIB/src\gd32f4xx_spi.c ****     \brief      get SPI and I2S interrupt flag status
 497:C:/Users/leonardo/Desktop/Code/Github/DawnGBC/Libraries/FWLIB/src\gd32f4xx_spi.c ****     \param[in]  spi_periph: SPIx(x=0,1,2,3,4,5)
 498:C:/Users/leonardo/Desktop/Code/Github/DawnGBC/Libraries/FWLIB/src\gd32f4xx_spi.c ****     \param[in]  spi_i2s_int: SPI/I2S interrupt flag status
 499:C:/Users/leonardo/Desktop/Code/Github/DawnGBC/Libraries/FWLIB/src\gd32f4xx_spi.c ****       \arg        SPI_I2S_INT_TBE: transmit buffer empty interrupt
 500:C:/Users/leonardo/Desktop/Code/Github/DawnGBC/Libraries/FWLIB/src\gd32f4xx_spi.c ****       \arg        SPI_I2S_INT_RBNE: receive buffer not empty interrupt
 501:C:/Users/leonardo/Desktop/Code/Github/DawnGBC/Libraries/FWLIB/src\gd32f4xx_spi.c ****       \arg        SPI_I2S_INT_RXORERR: overrun interrupt
 502:C:/Users/leonardo/Desktop/Code/Github/DawnGBC/Libraries/FWLIB/src\gd32f4xx_spi.c ****       \arg        SPI_INT_CONFERR: config error interrupt
 503:C:/Users/leonardo/Desktop/Code/Github/DawnGBC/Libraries/FWLIB/src\gd32f4xx_spi.c ****       \arg        SPI_INT_CRCERR: CRC error interrupt
 504:C:/Users/leonardo/Desktop/Code/Github/DawnGBC/Libraries/FWLIB/src\gd32f4xx_spi.c ****       \arg        I2S_INT_TXURERR: underrun error interrupt
 505:C:/Users/leonardo/Desktop/Code/Github/DawnGBC/Libraries/FWLIB/src\gd32f4xx_spi.c ****       \arg        SPI_I2S_INT_FERR: format error interrupt
 506:C:/Users/leonardo/Desktop/Code/Github/DawnGBC/Libraries/FWLIB/src\gd32f4xx_spi.c ****     \param[out] none
 507:C:/Users/leonardo/Desktop/Code/Github/DawnGBC/Libraries/FWLIB/src\gd32f4xx_spi.c ****     \retval     FlagStatus: SET or RESET
 508:C:/Users/leonardo/Desktop/Code/Github/DawnGBC/Libraries/FWLIB/src\gd32f4xx_spi.c **** */
 509:C:/Users/leonardo/Desktop/Code/Github/DawnGBC/Libraries/FWLIB/src\gd32f4xx_spi.c **** FlagStatus spi_i2s_interrupt_flag_get(uint32_t spi_periph, uint8_t spi_i2s_int)
 510:C:/Users/leonardo/Desktop/Code/Github/DawnGBC/Libraries/FWLIB/src\gd32f4xx_spi.c **** {
 1484              		.loc 1 510 1
 1485              		.cfi_startproc
 1486              		@ args = 0, pretend = 0, frame = 16
 1487              		@ frame_needed = 1, uses_anonymous_args = 0
 1488              		@ link register save eliminated.
 1489 0000 80B4     		push	{r7}
 1490              		.cfi_def_cfa_offset 4
 1491              		.cfi_offset 7, -4
 1492 0002 85B0     		sub	sp, sp, #20
 1493              		.cfi_def_cfa_offset 24
 1494 0004 00AF     		add	r7, sp, #0
 1495              		.cfi_def_cfa_register 7
 1496 0006 7860     		str	r0, [r7, #4]
 1497 0008 0B46     		mov	r3, r1
 1498 000a FB70     		strb	r3, [r7, #3]
 511:C:/Users/leonardo/Desktop/Code/Github/DawnGBC/Libraries/FWLIB/src\gd32f4xx_spi.c ****     uint32_t reg1 = SPI_STAT(spi_periph);
 1499              		.loc 1 511 21
 1500 000c 7B68     		ldr	r3, [r7, #4]
 1501 000e 0833     		adds	r3, r3, #8
 1502              		.loc 1 511 14
 1503 0010 1B68     		ldr	r3, [r3]
 1504 0012 FB60     		str	r3, [r7, #12]
 512:C:/Users/leonardo/Desktop/Code/Github/DawnGBC/Libraries/FWLIB/src\gd32f4xx_spi.c ****     uint32_t reg2 = SPI_CTL1(spi_periph);
 1505              		.loc 1 512 21
 1506 0014 7B68     		ldr	r3, [r7, #4]
 1507 0016 0433     		adds	r3, r3, #4
 1508              		.loc 1 512 14
 1509 0018 1B68     		ldr	r3, [r3]
 1510 001a BB60     		str	r3, [r7, #8]
 513:C:/Users/leonardo/Desktop/Code/Github/DawnGBC/Libraries/FWLIB/src\gd32f4xx_spi.c **** 
 514:C:/Users/leonardo/Desktop/Code/Github/DawnGBC/Libraries/FWLIB/src\gd32f4xx_spi.c ****     switch(spi_i2s_int){
 1511              		.loc 1 514 5
 1512 001c FB78     		ldrb	r3, [r7, #3]	@ zero_extendqisi2
 1513 001e 072B     		cmp	r3, #7
 1514 0020 51D8     		bhi	.L76
 1515 0022 01A2     		adr	r2, .L66
 1516 0024 52F823F0 		ldr	pc, [r2, r3, lsl #2]
 1517              		.p2align 2
 1518              	.L66:
 1519 0028 49000000 		.word	.L72+1
 1520 002c 5B000000 		.word	.L71+1
 1521 0030 6D000000 		.word	.L70+1
 1522 0034 7F000000 		.word	.L69+1
 1523 0038 91000000 		.word	.L68+1
 1524 003c A3000000 		.word	.L67+1
 1525 0040 C7000000 		.word	.L76+1
 1526 0044 B5000000 		.word	.L65+1
 1527              		.p2align 1
 1528              	.L72:
 515:C:/Users/leonardo/Desktop/Code/Github/DawnGBC/Libraries/FWLIB/src\gd32f4xx_spi.c ****     /* SPI/I2S transmit buffer empty interrupt */
 516:C:/Users/leonardo/Desktop/Code/Github/DawnGBC/Libraries/FWLIB/src\gd32f4xx_spi.c ****     case SPI_I2S_INT_TBE :
 517:C:/Users/leonardo/Desktop/Code/Github/DawnGBC/Libraries/FWLIB/src\gd32f4xx_spi.c ****         reg1 = reg1 & SPI_STAT_TBE;
 1529              		.loc 1 517 14
 1530 0048 FB68     		ldr	r3, [r7, #12]
 1531 004a 03F00203 		and	r3, r3, #2
 1532 004e FB60     		str	r3, [r7, #12]
 518:C:/Users/leonardo/Desktop/Code/Github/DawnGBC/Libraries/FWLIB/src\gd32f4xx_spi.c ****         reg2 = reg2 & SPI_CTL1_TBEIE;
 1533              		.loc 1 518 14
 1534 0050 BB68     		ldr	r3, [r7, #8]
 1535 0052 03F08003 		and	r3, r3, #128
 1536 0056 BB60     		str	r3, [r7, #8]
 519:C:/Users/leonardo/Desktop/Code/Github/DawnGBC/Libraries/FWLIB/src\gd32f4xx_spi.c ****         break;
 1537              		.loc 1 519 9
 1538 0058 36E0     		b	.L73
 1539              	.L71:
 520:C:/Users/leonardo/Desktop/Code/Github/DawnGBC/Libraries/FWLIB/src\gd32f4xx_spi.c ****     /* SPI/I2S receive buffer not empty interrupt */
 521:C:/Users/leonardo/Desktop/Code/Github/DawnGBC/Libraries/FWLIB/src\gd32f4xx_spi.c ****     case SPI_I2S_INT_RBNE :
 522:C:/Users/leonardo/Desktop/Code/Github/DawnGBC/Libraries/FWLIB/src\gd32f4xx_spi.c ****         reg1 = reg1 & SPI_STAT_RBNE;
 1540              		.loc 1 522 14
 1541 005a FB68     		ldr	r3, [r7, #12]
 1542 005c 03F00103 		and	r3, r3, #1
 1543 0060 FB60     		str	r3, [r7, #12]
 523:C:/Users/leonardo/Desktop/Code/Github/DawnGBC/Libraries/FWLIB/src\gd32f4xx_spi.c ****         reg2 = reg2 & SPI_CTL1_RBNEIE;
 1544              		.loc 1 523 14
 1545 0062 BB68     		ldr	r3, [r7, #8]
 1546 0064 03F04003 		and	r3, r3, #64
 1547 0068 BB60     		str	r3, [r7, #8]
 524:C:/Users/leonardo/Desktop/Code/Github/DawnGBC/Libraries/FWLIB/src\gd32f4xx_spi.c ****         break;
 1548              		.loc 1 524 9
 1549 006a 2DE0     		b	.L73
 1550              	.L70:
 525:C:/Users/leonardo/Desktop/Code/Github/DawnGBC/Libraries/FWLIB/src\gd32f4xx_spi.c ****     /* SPI/I2S overrun interrupt */
 526:C:/Users/leonardo/Desktop/Code/Github/DawnGBC/Libraries/FWLIB/src\gd32f4xx_spi.c ****     case SPI_I2S_INT_RXORERR :
 527:C:/Users/leonardo/Desktop/Code/Github/DawnGBC/Libraries/FWLIB/src\gd32f4xx_spi.c ****         reg1 = reg1 & SPI_STAT_RXORERR;
 1551              		.loc 1 527 14
 1552 006c FB68     		ldr	r3, [r7, #12]
 1553 006e 03F04003 		and	r3, r3, #64
 1554 0072 FB60     		str	r3, [r7, #12]
 528:C:/Users/leonardo/Desktop/Code/Github/DawnGBC/Libraries/FWLIB/src\gd32f4xx_spi.c ****         reg2 = reg2 & SPI_CTL1_ERRIE;
 1555              		.loc 1 528 14
 1556 0074 BB68     		ldr	r3, [r7, #8]
 1557 0076 03F02003 		and	r3, r3, #32
 1558 007a BB60     		str	r3, [r7, #8]
 529:C:/Users/leonardo/Desktop/Code/Github/DawnGBC/Libraries/FWLIB/src\gd32f4xx_spi.c ****         break;
 1559              		.loc 1 529 9
 1560 007c 24E0     		b	.L73
 1561              	.L69:
 530:C:/Users/leonardo/Desktop/Code/Github/DawnGBC/Libraries/FWLIB/src\gd32f4xx_spi.c ****     /* SPI config error interrupt */
 531:C:/Users/leonardo/Desktop/Code/Github/DawnGBC/Libraries/FWLIB/src\gd32f4xx_spi.c ****     case SPI_INT_CONFERR :
 532:C:/Users/leonardo/Desktop/Code/Github/DawnGBC/Libraries/FWLIB/src\gd32f4xx_spi.c ****         reg1 = reg1 & SPI_STAT_CONFERR;
 1562              		.loc 1 532 14
 1563 007e FB68     		ldr	r3, [r7, #12]
 1564 0080 03F02003 		and	r3, r3, #32
 1565 0084 FB60     		str	r3, [r7, #12]
 533:C:/Users/leonardo/Desktop/Code/Github/DawnGBC/Libraries/FWLIB/src\gd32f4xx_spi.c ****         reg2 = reg2 & SPI_CTL1_ERRIE;
 1566              		.loc 1 533 14
 1567 0086 BB68     		ldr	r3, [r7, #8]
 1568 0088 03F02003 		and	r3, r3, #32
 1569 008c BB60     		str	r3, [r7, #8]
 534:C:/Users/leonardo/Desktop/Code/Github/DawnGBC/Libraries/FWLIB/src\gd32f4xx_spi.c ****         break;
 1570              		.loc 1 534 9
 1571 008e 1BE0     		b	.L73
 1572              	.L68:
 535:C:/Users/leonardo/Desktop/Code/Github/DawnGBC/Libraries/FWLIB/src\gd32f4xx_spi.c ****     /* SPI CRC error interrupt */
 536:C:/Users/leonardo/Desktop/Code/Github/DawnGBC/Libraries/FWLIB/src\gd32f4xx_spi.c ****     case SPI_INT_CRCERR :
 537:C:/Users/leonardo/Desktop/Code/Github/DawnGBC/Libraries/FWLIB/src\gd32f4xx_spi.c ****         reg1 = reg1 & SPI_STAT_CRCERR;
 1573              		.loc 1 537 14
 1574 0090 FB68     		ldr	r3, [r7, #12]
 1575 0092 03F01003 		and	r3, r3, #16
 1576 0096 FB60     		str	r3, [r7, #12]
 538:C:/Users/leonardo/Desktop/Code/Github/DawnGBC/Libraries/FWLIB/src\gd32f4xx_spi.c ****         reg2 = reg2 & SPI_CTL1_ERRIE;
 1577              		.loc 1 538 14
 1578 0098 BB68     		ldr	r3, [r7, #8]
 1579 009a 03F02003 		and	r3, r3, #32
 1580 009e BB60     		str	r3, [r7, #8]
 539:C:/Users/leonardo/Desktop/Code/Github/DawnGBC/Libraries/FWLIB/src\gd32f4xx_spi.c ****         break;
 1581              		.loc 1 539 9
 1582 00a0 12E0     		b	.L73
 1583              	.L67:
 540:C:/Users/leonardo/Desktop/Code/Github/DawnGBC/Libraries/FWLIB/src\gd32f4xx_spi.c ****     /* I2S underrun error interrupt */
 541:C:/Users/leonardo/Desktop/Code/Github/DawnGBC/Libraries/FWLIB/src\gd32f4xx_spi.c ****     case I2S_INT_TXURERR :
 542:C:/Users/leonardo/Desktop/Code/Github/DawnGBC/Libraries/FWLIB/src\gd32f4xx_spi.c ****         reg1 = reg1 & SPI_STAT_TXURERR;
 1584              		.loc 1 542 14
 1585 00a2 FB68     		ldr	r3, [r7, #12]
 1586 00a4 03F00803 		and	r3, r3, #8
 1587 00a8 FB60     		str	r3, [r7, #12]
 543:C:/Users/leonardo/Desktop/Code/Github/DawnGBC/Libraries/FWLIB/src\gd32f4xx_spi.c ****         reg2 = reg2 & SPI_CTL1_ERRIE;
 1588              		.loc 1 543 14
 1589 00aa BB68     		ldr	r3, [r7, #8]
 1590 00ac 03F02003 		and	r3, r3, #32
 1591 00b0 BB60     		str	r3, [r7, #8]
 544:C:/Users/leonardo/Desktop/Code/Github/DawnGBC/Libraries/FWLIB/src\gd32f4xx_spi.c ****         break;
 1592              		.loc 1 544 9
 1593 00b2 09E0     		b	.L73
 1594              	.L65:
 545:C:/Users/leonardo/Desktop/Code/Github/DawnGBC/Libraries/FWLIB/src\gd32f4xx_spi.c ****     /* SPI/I2S format error interrupt */
 546:C:/Users/leonardo/Desktop/Code/Github/DawnGBC/Libraries/FWLIB/src\gd32f4xx_spi.c ****     case SPI_I2S_INT_FERR :
 547:C:/Users/leonardo/Desktop/Code/Github/DawnGBC/Libraries/FWLIB/src\gd32f4xx_spi.c ****         reg1 = reg1 & SPI_STAT_FERR;
 1595              		.loc 1 547 14
 1596 00b4 FB68     		ldr	r3, [r7, #12]
 1597 00b6 03F48073 		and	r3, r3, #256
 1598 00ba FB60     		str	r3, [r7, #12]
 548:C:/Users/leonardo/Desktop/Code/Github/DawnGBC/Libraries/FWLIB/src\gd32f4xx_spi.c ****         reg2 = reg2 & SPI_CTL1_ERRIE;
 1599              		.loc 1 548 14
 1600 00bc BB68     		ldr	r3, [r7, #8]
 1601 00be 03F02003 		and	r3, r3, #32
 1602 00c2 BB60     		str	r3, [r7, #8]
 549:C:/Users/leonardo/Desktop/Code/Github/DawnGBC/Libraries/FWLIB/src\gd32f4xx_spi.c ****         break;
 1603              		.loc 1 549 9
 1604 00c4 00E0     		b	.L73
 1605              	.L76:
 550:C:/Users/leonardo/Desktop/Code/Github/DawnGBC/Libraries/FWLIB/src\gd32f4xx_spi.c ****     default :
 551:C:/Users/leonardo/Desktop/Code/Github/DawnGBC/Libraries/FWLIB/src\gd32f4xx_spi.c ****         break;
 1606              		.loc 1 551 9
 1607 00c6 00BF     		nop
 1608              	.L73:
 552:C:/Users/leonardo/Desktop/Code/Github/DawnGBC/Libraries/FWLIB/src\gd32f4xx_spi.c ****     }
 553:C:/Users/leonardo/Desktop/Code/Github/DawnGBC/Libraries/FWLIB/src\gd32f4xx_spi.c ****     /*get SPI/I2S interrupt flag status */
 554:C:/Users/leonardo/Desktop/Code/Github/DawnGBC/Libraries/FWLIB/src\gd32f4xx_spi.c ****     if(reg1 && reg2){
 1609              		.loc 1 554 7
 1610 00c8 FB68     		ldr	r3, [r7, #12]
 1611 00ca 002B     		cmp	r3, #0
 1612 00cc 04D0     		beq	.L74
 1613              		.loc 1 554 13 discriminator 1
 1614 00ce BB68     		ldr	r3, [r7, #8]
 1615 00d0 002B     		cmp	r3, #0
 1616 00d2 01D0     		beq	.L74
 555:C:/Users/leonardo/Desktop/Code/Github/DawnGBC/Libraries/FWLIB/src\gd32f4xx_spi.c ****         return SET;
 1617              		.loc 1 555 16
 1618 00d4 0123     		movs	r3, #1
 1619 00d6 00E0     		b	.L75
 1620              	.L74:
 556:C:/Users/leonardo/Desktop/Code/Github/DawnGBC/Libraries/FWLIB/src\gd32f4xx_spi.c ****     }else{
 557:C:/Users/leonardo/Desktop/Code/Github/DawnGBC/Libraries/FWLIB/src\gd32f4xx_spi.c ****         return RESET;
 1621              		.loc 1 557 16
 1622 00d8 0023     		movs	r3, #0
 1623              	.L75:
 558:C:/Users/leonardo/Desktop/Code/Github/DawnGBC/Libraries/FWLIB/src\gd32f4xx_spi.c ****     }
 559:C:/Users/leonardo/Desktop/Code/Github/DawnGBC/Libraries/FWLIB/src\gd32f4xx_spi.c **** }
 1624              		.loc 1 559 1
 1625 00da 1846     		mov	r0, r3
 1626 00dc 1437     		adds	r7, r7, #20
 1627              		.cfi_def_cfa_offset 4
 1628 00de BD46     		mov	sp, r7
 1629              		.cfi_def_cfa_register 13
 1630              		@ sp needed
 1631 00e0 80BC     		pop	{r7}
 1632              		.cfi_restore 7
 1633              		.cfi_def_cfa_offset 0
 1634 00e2 7047     		bx	lr
 1635              		.cfi_endproc
 1636              	.LFE143:
 1638              		.section	.text.spi_i2s_flag_get,"ax",%progbits
 1639              		.align	1
 1640              		.global	spi_i2s_flag_get
 1641              		.syntax unified
 1642              		.thumb
 1643              		.thumb_func
 1644              		.fpu softvfp
 1646              	spi_i2s_flag_get:
 1647              	.LFB144:
 560:C:/Users/leonardo/Desktop/Code/Github/DawnGBC/Libraries/FWLIB/src\gd32f4xx_spi.c **** 
 561:C:/Users/leonardo/Desktop/Code/Github/DawnGBC/Libraries/FWLIB/src\gd32f4xx_spi.c **** /*!
 562:C:/Users/leonardo/Desktop/Code/Github/DawnGBC/Libraries/FWLIB/src\gd32f4xx_spi.c ****     \brief      get SPI and I2S flag status
 563:C:/Users/leonardo/Desktop/Code/Github/DawnGBC/Libraries/FWLIB/src\gd32f4xx_spi.c ****     \param[in]  spi_periph: SPIx(x=0,1,2,3,4,5)
 564:C:/Users/leonardo/Desktop/Code/Github/DawnGBC/Libraries/FWLIB/src\gd32f4xx_spi.c ****     \param[in]  spi_i2s_flag: SPI/I2S flag status
 565:C:/Users/leonardo/Desktop/Code/Github/DawnGBC/Libraries/FWLIB/src\gd32f4xx_spi.c ****       \arg        SPI_FLAG_TBE: transmit buffer empty flag
 566:C:/Users/leonardo/Desktop/Code/Github/DawnGBC/Libraries/FWLIB/src\gd32f4xx_spi.c ****       \arg        SPI_FLAG_RBNE: receive buffer not empty flag
 567:C:/Users/leonardo/Desktop/Code/Github/DawnGBC/Libraries/FWLIB/src\gd32f4xx_spi.c ****       \arg        SPI_FLAG_TRANS: transmit on-going flag
 568:C:/Users/leonardo/Desktop/Code/Github/DawnGBC/Libraries/FWLIB/src\gd32f4xx_spi.c ****       \arg        SPI_FLAG_RXORERR: receive overrun error flag
 569:C:/Users/leonardo/Desktop/Code/Github/DawnGBC/Libraries/FWLIB/src\gd32f4xx_spi.c ****       \arg        SPI_FLAG_CONFERR: mode config error flag
 570:C:/Users/leonardo/Desktop/Code/Github/DawnGBC/Libraries/FWLIB/src\gd32f4xx_spi.c ****       \arg        SPI_FLAG_CRCERR: CRC error flag
 571:C:/Users/leonardo/Desktop/Code/Github/DawnGBC/Libraries/FWLIB/src\gd32f4xx_spi.c ****       \arg        SPI_FLAG_FERR: format error interrupt flag
 572:C:/Users/leonardo/Desktop/Code/Github/DawnGBC/Libraries/FWLIB/src\gd32f4xx_spi.c ****       \arg        I2S_FLAG_TBE: transmit buffer empty flag
 573:C:/Users/leonardo/Desktop/Code/Github/DawnGBC/Libraries/FWLIB/src\gd32f4xx_spi.c ****       \arg        I2S_FLAG_RBNE: receive buffer not empty flag
 574:C:/Users/leonardo/Desktop/Code/Github/DawnGBC/Libraries/FWLIB/src\gd32f4xx_spi.c ****       \arg        I2S_FLAG_TRANS: transmit on-going flag
 575:C:/Users/leonardo/Desktop/Code/Github/DawnGBC/Libraries/FWLIB/src\gd32f4xx_spi.c ****       \arg        I2S_FLAG_RXORERR: overrun error flag
 576:C:/Users/leonardo/Desktop/Code/Github/DawnGBC/Libraries/FWLIB/src\gd32f4xx_spi.c ****       \arg        I2S_FLAG_TXURERR: underrun error flag
 577:C:/Users/leonardo/Desktop/Code/Github/DawnGBC/Libraries/FWLIB/src\gd32f4xx_spi.c ****       \arg        I2S_FLAG_CH: channel side flag
 578:C:/Users/leonardo/Desktop/Code/Github/DawnGBC/Libraries/FWLIB/src\gd32f4xx_spi.c ****       \arg        I2S_FLAG_FERR: format error interrupt flag
 579:C:/Users/leonardo/Desktop/Code/Github/DawnGBC/Libraries/FWLIB/src\gd32f4xx_spi.c ****     \param[out] none
 580:C:/Users/leonardo/Desktop/Code/Github/DawnGBC/Libraries/FWLIB/src\gd32f4xx_spi.c ****     \retval     FlagStatus: SET or RESET
 581:C:/Users/leonardo/Desktop/Code/Github/DawnGBC/Libraries/FWLIB/src\gd32f4xx_spi.c **** */
 582:C:/Users/leonardo/Desktop/Code/Github/DawnGBC/Libraries/FWLIB/src\gd32f4xx_spi.c **** FlagStatus spi_i2s_flag_get(uint32_t spi_periph, uint32_t spi_i2s_flag)
 583:C:/Users/leonardo/Desktop/Code/Github/DawnGBC/Libraries/FWLIB/src\gd32f4xx_spi.c **** {
 1648              		.loc 1 583 1
 1649              		.cfi_startproc
 1650              		@ args = 0, pretend = 0, frame = 8
 1651              		@ frame_needed = 1, uses_anonymous_args = 0
 1652              		@ link register save eliminated.
 1653 0000 80B4     		push	{r7}
 1654              		.cfi_def_cfa_offset 4
 1655              		.cfi_offset 7, -4
 1656 0002 83B0     		sub	sp, sp, #12
 1657              		.cfi_def_cfa_offset 16
 1658 0004 00AF     		add	r7, sp, #0
 1659              		.cfi_def_cfa_register 7
 1660 0006 7860     		str	r0, [r7, #4]
 1661 0008 3960     		str	r1, [r7]
 584:C:/Users/leonardo/Desktop/Code/Github/DawnGBC/Libraries/FWLIB/src\gd32f4xx_spi.c ****     if(SPI_STAT(spi_periph) & spi_i2s_flag){
 1662              		.loc 1 584 8
 1663 000a 7B68     		ldr	r3, [r7, #4]
 1664 000c 0833     		adds	r3, r3, #8
 1665 000e 1A68     		ldr	r2, [r3]
 1666              		.loc 1 584 29
 1667 0010 3B68     		ldr	r3, [r7]
 1668 0012 1340     		ands	r3, r3, r2
 1669              		.loc 1 584 7
 1670 0014 002B     		cmp	r3, #0
 1671 0016 01D0     		beq	.L78
 585:C:/Users/leonardo/Desktop/Code/Github/DawnGBC/Libraries/FWLIB/src\gd32f4xx_spi.c ****         return SET;
 1672              		.loc 1 585 16
 1673 0018 0123     		movs	r3, #1
 1674 001a 00E0     		b	.L79
 1675              	.L78:
 586:C:/Users/leonardo/Desktop/Code/Github/DawnGBC/Libraries/FWLIB/src\gd32f4xx_spi.c ****     }else{
 587:C:/Users/leonardo/Desktop/Code/Github/DawnGBC/Libraries/FWLIB/src\gd32f4xx_spi.c ****         return RESET;
 1676              		.loc 1 587 16
 1677 001c 0023     		movs	r3, #0
 1678              	.L79:
 588:C:/Users/leonardo/Desktop/Code/Github/DawnGBC/Libraries/FWLIB/src\gd32f4xx_spi.c ****     }
 589:C:/Users/leonardo/Desktop/Code/Github/DawnGBC/Libraries/FWLIB/src\gd32f4xx_spi.c **** }
 1679              		.loc 1 589 1
 1680 001e 1846     		mov	r0, r3
 1681 0020 0C37     		adds	r7, r7, #12
 1682              		.cfi_def_cfa_offset 4
 1683 0022 BD46     		mov	sp, r7
 1684              		.cfi_def_cfa_register 13
 1685              		@ sp needed
 1686 0024 80BC     		pop	{r7}
 1687              		.cfi_restore 7
 1688              		.cfi_def_cfa_offset 0
 1689 0026 7047     		bx	lr
 1690              		.cfi_endproc
 1691              	.LFE144:
 1693              		.section	.text.spi_crc_error_clear,"ax",%progbits
 1694              		.align	1
 1695              		.global	spi_crc_error_clear
 1696              		.syntax unified
 1697              		.thumb
 1698              		.thumb_func
 1699              		.fpu softvfp
 1701              	spi_crc_error_clear:
 1702              	.LFB145:
 590:C:/Users/leonardo/Desktop/Code/Github/DawnGBC/Libraries/FWLIB/src\gd32f4xx_spi.c **** 
 591:C:/Users/leonardo/Desktop/Code/Github/DawnGBC/Libraries/FWLIB/src\gd32f4xx_spi.c **** /*!
 592:C:/Users/leonardo/Desktop/Code/Github/DawnGBC/Libraries/FWLIB/src\gd32f4xx_spi.c ****     \brief      clear SPI CRC error flag status
 593:C:/Users/leonardo/Desktop/Code/Github/DawnGBC/Libraries/FWLIB/src\gd32f4xx_spi.c ****     \param[in]  spi_periph: SPIx(x=0,1,2,3,4,5)
 594:C:/Users/leonardo/Desktop/Code/Github/DawnGBC/Libraries/FWLIB/src\gd32f4xx_spi.c ****     \param[out] none
 595:C:/Users/leonardo/Desktop/Code/Github/DawnGBC/Libraries/FWLIB/src\gd32f4xx_spi.c ****     \retval     none
 596:C:/Users/leonardo/Desktop/Code/Github/DawnGBC/Libraries/FWLIB/src\gd32f4xx_spi.c **** */
 597:C:/Users/leonardo/Desktop/Code/Github/DawnGBC/Libraries/FWLIB/src\gd32f4xx_spi.c **** void spi_crc_error_clear(uint32_t spi_periph)
 598:C:/Users/leonardo/Desktop/Code/Github/DawnGBC/Libraries/FWLIB/src\gd32f4xx_spi.c **** {
 1703              		.loc 1 598 1
 1704              		.cfi_startproc
 1705              		@ args = 0, pretend = 0, frame = 8
 1706              		@ frame_needed = 1, uses_anonymous_args = 0
 1707              		@ link register save eliminated.
 1708 0000 80B4     		push	{r7}
 1709              		.cfi_def_cfa_offset 4
 1710              		.cfi_offset 7, -4
 1711 0002 83B0     		sub	sp, sp, #12
 1712              		.cfi_def_cfa_offset 16
 1713 0004 00AF     		add	r7, sp, #0
 1714              		.cfi_def_cfa_register 7
 1715 0006 7860     		str	r0, [r7, #4]
 599:C:/Users/leonardo/Desktop/Code/Github/DawnGBC/Libraries/FWLIB/src\gd32f4xx_spi.c ****     SPI_STAT(spi_periph) &= (uint32_t)(~SPI_FLAG_CRCERR);
 1716              		.loc 1 599 26
 1717 0008 7B68     		ldr	r3, [r7, #4]
 1718 000a 0833     		adds	r3, r3, #8
 1719 000c 1B68     		ldr	r3, [r3]
 1720 000e 7A68     		ldr	r2, [r7, #4]
 1721 0010 0832     		adds	r2, r2, #8
 1722 0012 23F01003 		bic	r3, r3, #16
 1723 0016 1360     		str	r3, [r2]
 600:C:/Users/leonardo/Desktop/Code/Github/DawnGBC/Libraries/FWLIB/src\gd32f4xx_spi.c **** }
 1724              		.loc 1 600 1
 1725 0018 00BF     		nop
 1726 001a 0C37     		adds	r7, r7, #12
 1727              		.cfi_def_cfa_offset 4
 1728 001c BD46     		mov	sp, r7
 1729              		.cfi_def_cfa_register 13
 1730              		@ sp needed
 1731 001e 80BC     		pop	{r7}
 1732              		.cfi_restore 7
 1733              		.cfi_def_cfa_offset 0
 1734 0020 7047     		bx	lr
 1735              		.cfi_endproc
 1736              	.LFE145:
 1738              		.section	.text.spi_crc_on,"ax",%progbits
 1739              		.align	1
 1740              		.global	spi_crc_on
 1741              		.syntax unified
 1742              		.thumb
 1743              		.thumb_func
 1744              		.fpu softvfp
 1746              	spi_crc_on:
 1747              	.LFB146:
 601:C:/Users/leonardo/Desktop/Code/Github/DawnGBC/Libraries/FWLIB/src\gd32f4xx_spi.c **** 
 602:C:/Users/leonardo/Desktop/Code/Github/DawnGBC/Libraries/FWLIB/src\gd32f4xx_spi.c **** /*!
 603:C:/Users/leonardo/Desktop/Code/Github/DawnGBC/Libraries/FWLIB/src\gd32f4xx_spi.c ****     \brief      turn on CRC function 
 604:C:/Users/leonardo/Desktop/Code/Github/DawnGBC/Libraries/FWLIB/src\gd32f4xx_spi.c ****     \param[in]  spi_periph: SPIx(x=0,1,2,3,4,5)
 605:C:/Users/leonardo/Desktop/Code/Github/DawnGBC/Libraries/FWLIB/src\gd32f4xx_spi.c ****     \param[out] none
 606:C:/Users/leonardo/Desktop/Code/Github/DawnGBC/Libraries/FWLIB/src\gd32f4xx_spi.c ****     \retval     none
 607:C:/Users/leonardo/Desktop/Code/Github/DawnGBC/Libraries/FWLIB/src\gd32f4xx_spi.c **** */
 608:C:/Users/leonardo/Desktop/Code/Github/DawnGBC/Libraries/FWLIB/src\gd32f4xx_spi.c **** void spi_crc_on(uint32_t spi_periph)
 609:C:/Users/leonardo/Desktop/Code/Github/DawnGBC/Libraries/FWLIB/src\gd32f4xx_spi.c **** {
 1748              		.loc 1 609 1
 1749              		.cfi_startproc
 1750              		@ args = 0, pretend = 0, frame = 8
 1751              		@ frame_needed = 1, uses_anonymous_args = 0
 1752              		@ link register save eliminated.
 1753 0000 80B4     		push	{r7}
 1754              		.cfi_def_cfa_offset 4
 1755              		.cfi_offset 7, -4
 1756 0002 83B0     		sub	sp, sp, #12
 1757              		.cfi_def_cfa_offset 16
 1758 0004 00AF     		add	r7, sp, #0
 1759              		.cfi_def_cfa_register 7
 1760 0006 7860     		str	r0, [r7, #4]
 610:C:/Users/leonardo/Desktop/Code/Github/DawnGBC/Libraries/FWLIB/src\gd32f4xx_spi.c ****     SPI_CTL0(spi_periph) |= (uint32_t)SPI_CTL0_CRCEN;
 1761              		.loc 1 610 26
 1762 0008 7B68     		ldr	r3, [r7, #4]
 1763 000a 1A68     		ldr	r2, [r3]
 1764 000c 7B68     		ldr	r3, [r7, #4]
 1765 000e 42F40052 		orr	r2, r2, #8192
 1766 0012 1A60     		str	r2, [r3]
 611:C:/Users/leonardo/Desktop/Code/Github/DawnGBC/Libraries/FWLIB/src\gd32f4xx_spi.c **** }
 1767              		.loc 1 611 1
 1768 0014 00BF     		nop
 1769 0016 0C37     		adds	r7, r7, #12
 1770              		.cfi_def_cfa_offset 4
 1771 0018 BD46     		mov	sp, r7
 1772              		.cfi_def_cfa_register 13
 1773              		@ sp needed
 1774 001a 80BC     		pop	{r7}
 1775              		.cfi_restore 7
 1776              		.cfi_def_cfa_offset 0
 1777 001c 7047     		bx	lr
 1778              		.cfi_endproc
 1779              	.LFE146:
 1781              		.section	.text.spi_crc_off,"ax",%progbits
 1782              		.align	1
 1783              		.global	spi_crc_off
 1784              		.syntax unified
 1785              		.thumb
 1786              		.thumb_func
 1787              		.fpu softvfp
 1789              	spi_crc_off:
 1790              	.LFB147:
 612:C:/Users/leonardo/Desktop/Code/Github/DawnGBC/Libraries/FWLIB/src\gd32f4xx_spi.c **** 
 613:C:/Users/leonardo/Desktop/Code/Github/DawnGBC/Libraries/FWLIB/src\gd32f4xx_spi.c **** /*!
 614:C:/Users/leonardo/Desktop/Code/Github/DawnGBC/Libraries/FWLIB/src\gd32f4xx_spi.c ****     \brief      turn off CRC function 
 615:C:/Users/leonardo/Desktop/Code/Github/DawnGBC/Libraries/FWLIB/src\gd32f4xx_spi.c ****     \param[in]  spi_periph: SPIx(x=0,1,2,3,4,5)
 616:C:/Users/leonardo/Desktop/Code/Github/DawnGBC/Libraries/FWLIB/src\gd32f4xx_spi.c ****     \param[out] none
 617:C:/Users/leonardo/Desktop/Code/Github/DawnGBC/Libraries/FWLIB/src\gd32f4xx_spi.c ****     \retval     none
 618:C:/Users/leonardo/Desktop/Code/Github/DawnGBC/Libraries/FWLIB/src\gd32f4xx_spi.c **** */
 619:C:/Users/leonardo/Desktop/Code/Github/DawnGBC/Libraries/FWLIB/src\gd32f4xx_spi.c **** void spi_crc_off(uint32_t spi_periph)
 620:C:/Users/leonardo/Desktop/Code/Github/DawnGBC/Libraries/FWLIB/src\gd32f4xx_spi.c **** {
 1791              		.loc 1 620 1
 1792              		.cfi_startproc
 1793              		@ args = 0, pretend = 0, frame = 8
 1794              		@ frame_needed = 1, uses_anonymous_args = 0
 1795              		@ link register save eliminated.
 1796 0000 80B4     		push	{r7}
 1797              		.cfi_def_cfa_offset 4
 1798              		.cfi_offset 7, -4
 1799 0002 83B0     		sub	sp, sp, #12
 1800              		.cfi_def_cfa_offset 16
 1801 0004 00AF     		add	r7, sp, #0
 1802              		.cfi_def_cfa_register 7
 1803 0006 7860     		str	r0, [r7, #4]
 621:C:/Users/leonardo/Desktop/Code/Github/DawnGBC/Libraries/FWLIB/src\gd32f4xx_spi.c ****     SPI_CTL0(spi_periph) &= (uint32_t)(~SPI_CTL0_CRCEN);
 1804              		.loc 1 621 26
 1805 0008 7B68     		ldr	r3, [r7, #4]
 1806 000a 1A68     		ldr	r2, [r3]
 1807 000c 7B68     		ldr	r3, [r7, #4]
 1808 000e 22F40052 		bic	r2, r2, #8192
 1809 0012 1A60     		str	r2, [r3]
 622:C:/Users/leonardo/Desktop/Code/Github/DawnGBC/Libraries/FWLIB/src\gd32f4xx_spi.c **** }
 1810              		.loc 1 622 1
 1811 0014 00BF     		nop
 1812 0016 0C37     		adds	r7, r7, #12
 1813              		.cfi_def_cfa_offset 4
 1814 0018 BD46     		mov	sp, r7
 1815              		.cfi_def_cfa_register 13
 1816              		@ sp needed
 1817 001a 80BC     		pop	{r7}
 1818              		.cfi_restore 7
 1819              		.cfi_def_cfa_offset 0
 1820 001c 7047     		bx	lr
 1821              		.cfi_endproc
 1822              	.LFE147:
 1824              		.section	.text.spi_crc_polynomial_set,"ax",%progbits
 1825              		.align	1
 1826              		.global	spi_crc_polynomial_set
 1827              		.syntax unified
 1828              		.thumb
 1829              		.thumb_func
 1830              		.fpu softvfp
 1832              	spi_crc_polynomial_set:
 1833              	.LFB148:
 623:C:/Users/leonardo/Desktop/Code/Github/DawnGBC/Libraries/FWLIB/src\gd32f4xx_spi.c **** 
 624:C:/Users/leonardo/Desktop/Code/Github/DawnGBC/Libraries/FWLIB/src\gd32f4xx_spi.c **** /*!
 625:C:/Users/leonardo/Desktop/Code/Github/DawnGBC/Libraries/FWLIB/src\gd32f4xx_spi.c ****     \brief      set CRC polynomial 
 626:C:/Users/leonardo/Desktop/Code/Github/DawnGBC/Libraries/FWLIB/src\gd32f4xx_spi.c ****     \param[in]  spi_periph: SPIx(x=0,1,2,3,4,5)
 627:C:/Users/leonardo/Desktop/Code/Github/DawnGBC/Libraries/FWLIB/src\gd32f4xx_spi.c ****     \param[in]  crc_poly: CRC polynomial value
 628:C:/Users/leonardo/Desktop/Code/Github/DawnGBC/Libraries/FWLIB/src\gd32f4xx_spi.c ****     \param[out] none
 629:C:/Users/leonardo/Desktop/Code/Github/DawnGBC/Libraries/FWLIB/src\gd32f4xx_spi.c ****     \retval     none
 630:C:/Users/leonardo/Desktop/Code/Github/DawnGBC/Libraries/FWLIB/src\gd32f4xx_spi.c **** */
 631:C:/Users/leonardo/Desktop/Code/Github/DawnGBC/Libraries/FWLIB/src\gd32f4xx_spi.c **** void spi_crc_polynomial_set(uint32_t spi_periph,uint16_t crc_poly)
 632:C:/Users/leonardo/Desktop/Code/Github/DawnGBC/Libraries/FWLIB/src\gd32f4xx_spi.c **** {
 1834              		.loc 1 632 1
 1835              		.cfi_startproc
 1836              		@ args = 0, pretend = 0, frame = 8
 1837              		@ frame_needed = 1, uses_anonymous_args = 0
 1838              		@ link register save eliminated.
 1839 0000 80B4     		push	{r7}
 1840              		.cfi_def_cfa_offset 4
 1841              		.cfi_offset 7, -4
 1842 0002 83B0     		sub	sp, sp, #12
 1843              		.cfi_def_cfa_offset 16
 1844 0004 00AF     		add	r7, sp, #0
 1845              		.cfi_def_cfa_register 7
 1846 0006 7860     		str	r0, [r7, #4]
 1847 0008 0B46     		mov	r3, r1
 1848 000a 7B80     		strh	r3, [r7, #2]	@ movhi
 633:C:/Users/leonardo/Desktop/Code/Github/DawnGBC/Libraries/FWLIB/src\gd32f4xx_spi.c ****     /* enable SPI CRC */
 634:C:/Users/leonardo/Desktop/Code/Github/DawnGBC/Libraries/FWLIB/src\gd32f4xx_spi.c ****     SPI_CTL0(spi_periph) |= (uint32_t)SPI_CTL0_CRCEN;
 1849              		.loc 1 634 26
 1850 000c 7B68     		ldr	r3, [r7, #4]
 1851 000e 1A68     		ldr	r2, [r3]
 1852 0010 7B68     		ldr	r3, [r7, #4]
 1853 0012 42F40052 		orr	r2, r2, #8192
 1854 0016 1A60     		str	r2, [r3]
 635:C:/Users/leonardo/Desktop/Code/Github/DawnGBC/Libraries/FWLIB/src\gd32f4xx_spi.c **** 
 636:C:/Users/leonardo/Desktop/Code/Github/DawnGBC/Libraries/FWLIB/src\gd32f4xx_spi.c ****     /* set SPI CRC polynomial */
 637:C:/Users/leonardo/Desktop/Code/Github/DawnGBC/Libraries/FWLIB/src\gd32f4xx_spi.c ****     SPI_CRCPOLY(spi_periph) = (uint32_t)crc_poly;
 1855              		.loc 1 637 5
 1856 0018 7B68     		ldr	r3, [r7, #4]
 1857 001a 1033     		adds	r3, r3, #16
 1858 001c 1A46     		mov	r2, r3
 1859              		.loc 1 637 31
 1860 001e 7B88     		ldrh	r3, [r7, #2]
 1861              		.loc 1 637 29
 1862 0020 1360     		str	r3, [r2]
 638:C:/Users/leonardo/Desktop/Code/Github/DawnGBC/Libraries/FWLIB/src\gd32f4xx_spi.c **** }
 1863              		.loc 1 638 1
 1864 0022 00BF     		nop
 1865 0024 0C37     		adds	r7, r7, #12
 1866              		.cfi_def_cfa_offset 4
 1867 0026 BD46     		mov	sp, r7
 1868              		.cfi_def_cfa_register 13
 1869              		@ sp needed
 1870 0028 80BC     		pop	{r7}
 1871              		.cfi_restore 7
 1872              		.cfi_def_cfa_offset 0
 1873 002a 7047     		bx	lr
 1874              		.cfi_endproc
 1875              	.LFE148:
 1877              		.section	.text.spi_crc_polynomial_get,"ax",%progbits
 1878              		.align	1
 1879              		.global	spi_crc_polynomial_get
 1880              		.syntax unified
 1881              		.thumb
 1882              		.thumb_func
 1883              		.fpu softvfp
 1885              	spi_crc_polynomial_get:
 1886              	.LFB149:
 639:C:/Users/leonardo/Desktop/Code/Github/DawnGBC/Libraries/FWLIB/src\gd32f4xx_spi.c **** 
 640:C:/Users/leonardo/Desktop/Code/Github/DawnGBC/Libraries/FWLIB/src\gd32f4xx_spi.c **** /*!
 641:C:/Users/leonardo/Desktop/Code/Github/DawnGBC/Libraries/FWLIB/src\gd32f4xx_spi.c ****     \brief      get SPI CRC polynomial 
 642:C:/Users/leonardo/Desktop/Code/Github/DawnGBC/Libraries/FWLIB/src\gd32f4xx_spi.c ****     \param[in]  spi_periph: SPIx(x=0,1,2,3,4,5)
 643:C:/Users/leonardo/Desktop/Code/Github/DawnGBC/Libraries/FWLIB/src\gd32f4xx_spi.c ****     \param[out] none
 644:C:/Users/leonardo/Desktop/Code/Github/DawnGBC/Libraries/FWLIB/src\gd32f4xx_spi.c ****     \retval     16-bit CRC polynomial
 645:C:/Users/leonardo/Desktop/Code/Github/DawnGBC/Libraries/FWLIB/src\gd32f4xx_spi.c **** */
 646:C:/Users/leonardo/Desktop/Code/Github/DawnGBC/Libraries/FWLIB/src\gd32f4xx_spi.c **** uint16_t spi_crc_polynomial_get(uint32_t spi_periph)
 647:C:/Users/leonardo/Desktop/Code/Github/DawnGBC/Libraries/FWLIB/src\gd32f4xx_spi.c **** {
 1887              		.loc 1 647 1
 1888              		.cfi_startproc
 1889              		@ args = 0, pretend = 0, frame = 8
 1890              		@ frame_needed = 1, uses_anonymous_args = 0
 1891              		@ link register save eliminated.
 1892 0000 80B4     		push	{r7}
 1893              		.cfi_def_cfa_offset 4
 1894              		.cfi_offset 7, -4
 1895 0002 83B0     		sub	sp, sp, #12
 1896              		.cfi_def_cfa_offset 16
 1897 0004 00AF     		add	r7, sp, #0
 1898              		.cfi_def_cfa_register 7
 1899 0006 7860     		str	r0, [r7, #4]
 648:C:/Users/leonardo/Desktop/Code/Github/DawnGBC/Libraries/FWLIB/src\gd32f4xx_spi.c ****     return ((uint16_t)SPI_CRCPOLY(spi_periph));
 1900              		.loc 1 648 23
 1901 0008 7B68     		ldr	r3, [r7, #4]
 1902 000a 1033     		adds	r3, r3, #16
 1903 000c 1B68     		ldr	r3, [r3]
 1904              		.loc 1 648 13
 1905 000e 9BB2     		uxth	r3, r3
 649:C:/Users/leonardo/Desktop/Code/Github/DawnGBC/Libraries/FWLIB/src\gd32f4xx_spi.c **** }
 1906              		.loc 1 649 1
 1907 0010 1846     		mov	r0, r3
 1908 0012 0C37     		adds	r7, r7, #12
 1909              		.cfi_def_cfa_offset 4
 1910 0014 BD46     		mov	sp, r7
 1911              		.cfi_def_cfa_register 13
 1912              		@ sp needed
 1913 0016 80BC     		pop	{r7}
 1914              		.cfi_restore 7
 1915              		.cfi_def_cfa_offset 0
 1916 0018 7047     		bx	lr
 1917              		.cfi_endproc
 1918              	.LFE149:
 1920              		.section	.text.spi_crc_next,"ax",%progbits
 1921              		.align	1
 1922              		.global	spi_crc_next
 1923              		.syntax unified
 1924              		.thumb
 1925              		.thumb_func
 1926              		.fpu softvfp
 1928              	spi_crc_next:
 1929              	.LFB150:
 650:C:/Users/leonardo/Desktop/Code/Github/DawnGBC/Libraries/FWLIB/src\gd32f4xx_spi.c **** 
 651:C:/Users/leonardo/Desktop/Code/Github/DawnGBC/Libraries/FWLIB/src\gd32f4xx_spi.c **** /*!
 652:C:/Users/leonardo/Desktop/Code/Github/DawnGBC/Libraries/FWLIB/src\gd32f4xx_spi.c ****     \brief      SPI next data is CRC value
 653:C:/Users/leonardo/Desktop/Code/Github/DawnGBC/Libraries/FWLIB/src\gd32f4xx_spi.c ****     \param[in]  spi_periph: SPIx(x=0,1,2,3,4,5)
 654:C:/Users/leonardo/Desktop/Code/Github/DawnGBC/Libraries/FWLIB/src\gd32f4xx_spi.c ****     \param[out] none
 655:C:/Users/leonardo/Desktop/Code/Github/DawnGBC/Libraries/FWLIB/src\gd32f4xx_spi.c ****     \retval     none
 656:C:/Users/leonardo/Desktop/Code/Github/DawnGBC/Libraries/FWLIB/src\gd32f4xx_spi.c **** */
 657:C:/Users/leonardo/Desktop/Code/Github/DawnGBC/Libraries/FWLIB/src\gd32f4xx_spi.c **** void spi_crc_next(uint32_t spi_periph)
 658:C:/Users/leonardo/Desktop/Code/Github/DawnGBC/Libraries/FWLIB/src\gd32f4xx_spi.c **** {
 1930              		.loc 1 658 1
 1931              		.cfi_startproc
 1932              		@ args = 0, pretend = 0, frame = 8
 1933              		@ frame_needed = 1, uses_anonymous_args = 0
 1934              		@ link register save eliminated.
 1935 0000 80B4     		push	{r7}
 1936              		.cfi_def_cfa_offset 4
 1937              		.cfi_offset 7, -4
 1938 0002 83B0     		sub	sp, sp, #12
 1939              		.cfi_def_cfa_offset 16
 1940 0004 00AF     		add	r7, sp, #0
 1941              		.cfi_def_cfa_register 7
 1942 0006 7860     		str	r0, [r7, #4]
 659:C:/Users/leonardo/Desktop/Code/Github/DawnGBC/Libraries/FWLIB/src\gd32f4xx_spi.c ****     SPI_CTL0(spi_periph) |= (uint32_t)SPI_CTL0_CRCNT;
 1943              		.loc 1 659 26
 1944 0008 7B68     		ldr	r3, [r7, #4]
 1945 000a 1A68     		ldr	r2, [r3]
 1946 000c 7B68     		ldr	r3, [r7, #4]
 1947 000e 42F48052 		orr	r2, r2, #4096
 1948 0012 1A60     		str	r2, [r3]
 660:C:/Users/leonardo/Desktop/Code/Github/DawnGBC/Libraries/FWLIB/src\gd32f4xx_spi.c **** }
 1949              		.loc 1 660 1
 1950 0014 00BF     		nop
 1951 0016 0C37     		adds	r7, r7, #12
 1952              		.cfi_def_cfa_offset 4
 1953 0018 BD46     		mov	sp, r7
 1954              		.cfi_def_cfa_register 13
 1955              		@ sp needed
 1956 001a 80BC     		pop	{r7}
 1957              		.cfi_restore 7
 1958              		.cfi_def_cfa_offset 0
 1959 001c 7047     		bx	lr
 1960              		.cfi_endproc
 1961              	.LFE150:
 1963              		.section	.text.spi_crc_get,"ax",%progbits
 1964              		.align	1
 1965              		.global	spi_crc_get
 1966              		.syntax unified
 1967              		.thumb
 1968              		.thumb_func
 1969              		.fpu softvfp
 1971              	spi_crc_get:
 1972              	.LFB151:
 661:C:/Users/leonardo/Desktop/Code/Github/DawnGBC/Libraries/FWLIB/src\gd32f4xx_spi.c **** 
 662:C:/Users/leonardo/Desktop/Code/Github/DawnGBC/Libraries/FWLIB/src\gd32f4xx_spi.c **** /*!
 663:C:/Users/leonardo/Desktop/Code/Github/DawnGBC/Libraries/FWLIB/src\gd32f4xx_spi.c ****     \brief      get SPI CRC send value or receive value
 664:C:/Users/leonardo/Desktop/Code/Github/DawnGBC/Libraries/FWLIB/src\gd32f4xx_spi.c ****     \param[in]  spi_periph: SPIx(x=0,1,2,3,4,5)
 665:C:/Users/leonardo/Desktop/Code/Github/DawnGBC/Libraries/FWLIB/src\gd32f4xx_spi.c ****     \param[in]  spi_crc: SPI crc value
 666:C:/Users/leonardo/Desktop/Code/Github/DawnGBC/Libraries/FWLIB/src\gd32f4xx_spi.c ****       \arg        SPI_CRC_TX: get transmit crc value
 667:C:/Users/leonardo/Desktop/Code/Github/DawnGBC/Libraries/FWLIB/src\gd32f4xx_spi.c ****       \arg        SPI_CRC_RX: get receive crc value
 668:C:/Users/leonardo/Desktop/Code/Github/DawnGBC/Libraries/FWLIB/src\gd32f4xx_spi.c ****     \param[out] none
 669:C:/Users/leonardo/Desktop/Code/Github/DawnGBC/Libraries/FWLIB/src\gd32f4xx_spi.c ****     \retval     16-bit CRC value
 670:C:/Users/leonardo/Desktop/Code/Github/DawnGBC/Libraries/FWLIB/src\gd32f4xx_spi.c **** */
 671:C:/Users/leonardo/Desktop/Code/Github/DawnGBC/Libraries/FWLIB/src\gd32f4xx_spi.c **** uint16_t spi_crc_get(uint32_t spi_periph,uint8_t spi_crc)
 672:C:/Users/leonardo/Desktop/Code/Github/DawnGBC/Libraries/FWLIB/src\gd32f4xx_spi.c **** {
 1973              		.loc 1 672 1
 1974              		.cfi_startproc
 1975              		@ args = 0, pretend = 0, frame = 8
 1976              		@ frame_needed = 1, uses_anonymous_args = 0
 1977              		@ link register save eliminated.
 1978 0000 80B4     		push	{r7}
 1979              		.cfi_def_cfa_offset 4
 1980              		.cfi_offset 7, -4
 1981 0002 83B0     		sub	sp, sp, #12
 1982              		.cfi_def_cfa_offset 16
 1983 0004 00AF     		add	r7, sp, #0
 1984              		.cfi_def_cfa_register 7
 1985 0006 7860     		str	r0, [r7, #4]
 1986 0008 0B46     		mov	r3, r1
 1987 000a FB70     		strb	r3, [r7, #3]
 673:C:/Users/leonardo/Desktop/Code/Github/DawnGBC/Libraries/FWLIB/src\gd32f4xx_spi.c ****     if(SPI_CRC_TX == spi_crc){
 1988              		.loc 1 673 7
 1989 000c FB78     		ldrb	r3, [r7, #3]	@ zero_extendqisi2
 1990 000e 002B     		cmp	r3, #0
 1991 0010 04D1     		bne	.L88
 674:C:/Users/leonardo/Desktop/Code/Github/DawnGBC/Libraries/FWLIB/src\gd32f4xx_spi.c ****         return ((uint16_t)(SPI_TCRC(spi_periph)));
 1992              		.loc 1 674 28
 1993 0012 7B68     		ldr	r3, [r7, #4]
 1994 0014 1833     		adds	r3, r3, #24
 1995 0016 1B68     		ldr	r3, [r3]
 1996              		.loc 1 674 17
 1997 0018 9BB2     		uxth	r3, r3
 1998 001a 03E0     		b	.L89
 1999              	.L88:
 675:C:/Users/leonardo/Desktop/Code/Github/DawnGBC/Libraries/FWLIB/src\gd32f4xx_spi.c ****     }else{
 676:C:/Users/leonardo/Desktop/Code/Github/DawnGBC/Libraries/FWLIB/src\gd32f4xx_spi.c ****         return ((uint16_t)(SPI_RCRC(spi_periph)));
 2000              		.loc 1 676 28
 2001 001c 7B68     		ldr	r3, [r7, #4]
 2002 001e 1433     		adds	r3, r3, #20
 2003 0020 1B68     		ldr	r3, [r3]
 2004              		.loc 1 676 17
 2005 0022 9BB2     		uxth	r3, r3
 2006              	.L89:
 677:C:/Users/leonardo/Desktop/Code/Github/DawnGBC/Libraries/FWLIB/src\gd32f4xx_spi.c ****     }
 678:C:/Users/leonardo/Desktop/Code/Github/DawnGBC/Libraries/FWLIB/src\gd32f4xx_spi.c **** }
 2007              		.loc 1 678 1
 2008 0024 1846     		mov	r0, r3
 2009 0026 0C37     		adds	r7, r7, #12
 2010              		.cfi_def_cfa_offset 4
 2011 0028 BD46     		mov	sp, r7
 2012              		.cfi_def_cfa_register 13
 2013              		@ sp needed
 2014 002a 80BC     		pop	{r7}
 2015              		.cfi_restore 7
 2016              		.cfi_def_cfa_offset 0
 2017 002c 7047     		bx	lr
 2018              		.cfi_endproc
 2019              	.LFE151:
 2021              		.section	.text.spi_ti_mode_enable,"ax",%progbits
 2022              		.align	1
 2023              		.global	spi_ti_mode_enable
 2024              		.syntax unified
 2025              		.thumb
 2026              		.thumb_func
 2027              		.fpu softvfp
 2029              	spi_ti_mode_enable:
 2030              	.LFB152:
 679:C:/Users/leonardo/Desktop/Code/Github/DawnGBC/Libraries/FWLIB/src\gd32f4xx_spi.c **** 
 680:C:/Users/leonardo/Desktop/Code/Github/DawnGBC/Libraries/FWLIB/src\gd32f4xx_spi.c **** /*!
 681:C:/Users/leonardo/Desktop/Code/Github/DawnGBC/Libraries/FWLIB/src\gd32f4xx_spi.c ****     \brief      enable SPI TI mode
 682:C:/Users/leonardo/Desktop/Code/Github/DawnGBC/Libraries/FWLIB/src\gd32f4xx_spi.c ****     \param[in]  spi_periph: SPIx(x=0,1,2,3,4,5)
 683:C:/Users/leonardo/Desktop/Code/Github/DawnGBC/Libraries/FWLIB/src\gd32f4xx_spi.c ****     \param[out] none
 684:C:/Users/leonardo/Desktop/Code/Github/DawnGBC/Libraries/FWLIB/src\gd32f4xx_spi.c ****     \retval     none
 685:C:/Users/leonardo/Desktop/Code/Github/DawnGBC/Libraries/FWLIB/src\gd32f4xx_spi.c **** */
 686:C:/Users/leonardo/Desktop/Code/Github/DawnGBC/Libraries/FWLIB/src\gd32f4xx_spi.c **** void spi_ti_mode_enable(uint32_t spi_periph)
 687:C:/Users/leonardo/Desktop/Code/Github/DawnGBC/Libraries/FWLIB/src\gd32f4xx_spi.c **** {
 2031              		.loc 1 687 1
 2032              		.cfi_startproc
 2033              		@ args = 0, pretend = 0, frame = 8
 2034              		@ frame_needed = 1, uses_anonymous_args = 0
 2035              		@ link register save eliminated.
 2036 0000 80B4     		push	{r7}
 2037              		.cfi_def_cfa_offset 4
 2038              		.cfi_offset 7, -4
 2039 0002 83B0     		sub	sp, sp, #12
 2040              		.cfi_def_cfa_offset 16
 2041 0004 00AF     		add	r7, sp, #0
 2042              		.cfi_def_cfa_register 7
 2043 0006 7860     		str	r0, [r7, #4]
 688:C:/Users/leonardo/Desktop/Code/Github/DawnGBC/Libraries/FWLIB/src\gd32f4xx_spi.c ****     SPI_CTL1(spi_periph) |= (uint32_t)SPI_CTL1_TMOD;
 2044              		.loc 1 688 26
 2045 0008 7B68     		ldr	r3, [r7, #4]
 2046 000a 0433     		adds	r3, r3, #4
 2047 000c 1B68     		ldr	r3, [r3]
 2048 000e 7A68     		ldr	r2, [r7, #4]
 2049 0010 0432     		adds	r2, r2, #4
 2050 0012 43F01003 		orr	r3, r3, #16
 2051 0016 1360     		str	r3, [r2]
 689:C:/Users/leonardo/Desktop/Code/Github/DawnGBC/Libraries/FWLIB/src\gd32f4xx_spi.c **** }
 2052              		.loc 1 689 1
 2053 0018 00BF     		nop
 2054 001a 0C37     		adds	r7, r7, #12
 2055              		.cfi_def_cfa_offset 4
 2056 001c BD46     		mov	sp, r7
 2057              		.cfi_def_cfa_register 13
 2058              		@ sp needed
 2059 001e 80BC     		pop	{r7}
 2060              		.cfi_restore 7
 2061              		.cfi_def_cfa_offset 0
 2062 0020 7047     		bx	lr
 2063              		.cfi_endproc
 2064              	.LFE152:
 2066              		.section	.text.spi_ti_mode_disable,"ax",%progbits
 2067              		.align	1
 2068              		.global	spi_ti_mode_disable
 2069              		.syntax unified
 2070              		.thumb
 2071              		.thumb_func
 2072              		.fpu softvfp
 2074              	spi_ti_mode_disable:
 2075              	.LFB153:
 690:C:/Users/leonardo/Desktop/Code/Github/DawnGBC/Libraries/FWLIB/src\gd32f4xx_spi.c **** 
 691:C:/Users/leonardo/Desktop/Code/Github/DawnGBC/Libraries/FWLIB/src\gd32f4xx_spi.c **** /*!
 692:C:/Users/leonardo/Desktop/Code/Github/DawnGBC/Libraries/FWLIB/src\gd32f4xx_spi.c ****     \brief      disable SPI TI mode
 693:C:/Users/leonardo/Desktop/Code/Github/DawnGBC/Libraries/FWLIB/src\gd32f4xx_spi.c ****     \param[in]  spi_periph: SPIx(x=0,1,2,3,4,5)
 694:C:/Users/leonardo/Desktop/Code/Github/DawnGBC/Libraries/FWLIB/src\gd32f4xx_spi.c ****     \param[out] none
 695:C:/Users/leonardo/Desktop/Code/Github/DawnGBC/Libraries/FWLIB/src\gd32f4xx_spi.c ****     \retval     none
 696:C:/Users/leonardo/Desktop/Code/Github/DawnGBC/Libraries/FWLIB/src\gd32f4xx_spi.c **** */
 697:C:/Users/leonardo/Desktop/Code/Github/DawnGBC/Libraries/FWLIB/src\gd32f4xx_spi.c **** void spi_ti_mode_disable(uint32_t spi_periph)
 698:C:/Users/leonardo/Desktop/Code/Github/DawnGBC/Libraries/FWLIB/src\gd32f4xx_spi.c **** {
 2076              		.loc 1 698 1
 2077              		.cfi_startproc
 2078              		@ args = 0, pretend = 0, frame = 8
 2079              		@ frame_needed = 1, uses_anonymous_args = 0
 2080              		@ link register save eliminated.
 2081 0000 80B4     		push	{r7}
 2082              		.cfi_def_cfa_offset 4
 2083              		.cfi_offset 7, -4
 2084 0002 83B0     		sub	sp, sp, #12
 2085              		.cfi_def_cfa_offset 16
 2086 0004 00AF     		add	r7, sp, #0
 2087              		.cfi_def_cfa_register 7
 2088 0006 7860     		str	r0, [r7, #4]
 699:C:/Users/leonardo/Desktop/Code/Github/DawnGBC/Libraries/FWLIB/src\gd32f4xx_spi.c ****     SPI_CTL1(spi_periph) &= (uint32_t)(~SPI_CTL1_TMOD);
 2089              		.loc 1 699 26
 2090 0008 7B68     		ldr	r3, [r7, #4]
 2091 000a 0433     		adds	r3, r3, #4
 2092 000c 1B68     		ldr	r3, [r3]
 2093 000e 7A68     		ldr	r2, [r7, #4]
 2094 0010 0432     		adds	r2, r2, #4
 2095 0012 23F01003 		bic	r3, r3, #16
 2096 0016 1360     		str	r3, [r2]
 700:C:/Users/leonardo/Desktop/Code/Github/DawnGBC/Libraries/FWLIB/src\gd32f4xx_spi.c **** }
 2097              		.loc 1 700 1
 2098 0018 00BF     		nop
 2099 001a 0C37     		adds	r7, r7, #12
 2100              		.cfi_def_cfa_offset 4
 2101 001c BD46     		mov	sp, r7
 2102              		.cfi_def_cfa_register 13
 2103              		@ sp needed
 2104 001e 80BC     		pop	{r7}
 2105              		.cfi_restore 7
 2106              		.cfi_def_cfa_offset 0
 2107 0020 7047     		bx	lr
 2108              		.cfi_endproc
 2109              	.LFE153:
 2111              		.section	.text.i2s_full_duplex_mode_config,"ax",%progbits
 2112              		.align	1
 2113              		.global	i2s_full_duplex_mode_config
 2114              		.syntax unified
 2115              		.thumb
 2116              		.thumb_func
 2117              		.fpu softvfp
 2119              	i2s_full_duplex_mode_config:
 2120              	.LFB154:
 701:C:/Users/leonardo/Desktop/Code/Github/DawnGBC/Libraries/FWLIB/src\gd32f4xx_spi.c **** 
 702:C:/Users/leonardo/Desktop/Code/Github/DawnGBC/Libraries/FWLIB/src\gd32f4xx_spi.c **** /*!
 703:C:/Users/leonardo/Desktop/Code/Github/DawnGBC/Libraries/FWLIB/src\gd32f4xx_spi.c ****     \brief      configure i2s full duplex mode
 704:C:/Users/leonardo/Desktop/Code/Github/DawnGBC/Libraries/FWLIB/src\gd32f4xx_spi.c ****     \param[in]  i2s_add_periph: I2Sx_ADD(x=1,2)
 705:C:/Users/leonardo/Desktop/Code/Github/DawnGBC/Libraries/FWLIB/src\gd32f4xx_spi.c ****     \param[in]  i2s_mode: 
 706:C:/Users/leonardo/Desktop/Code/Github/DawnGBC/Libraries/FWLIB/src\gd32f4xx_spi.c ****       \arg        I2S_MODE_SLAVETX : I2S slave transmit mode
 707:C:/Users/leonardo/Desktop/Code/Github/DawnGBC/Libraries/FWLIB/src\gd32f4xx_spi.c ****       \arg        I2S_MODE_SLAVERX : I2S slave receive mode
 708:C:/Users/leonardo/Desktop/Code/Github/DawnGBC/Libraries/FWLIB/src\gd32f4xx_spi.c ****       \arg        I2S_MODE_MASTERTX : I2S master transmit mode
 709:C:/Users/leonardo/Desktop/Code/Github/DawnGBC/Libraries/FWLIB/src\gd32f4xx_spi.c ****       \arg        I2S_MODE_MASTERRX : I2S master receive mode
 710:C:/Users/leonardo/Desktop/Code/Github/DawnGBC/Libraries/FWLIB/src\gd32f4xx_spi.c ****     \param[in]  i2s_standard: 
 711:C:/Users/leonardo/Desktop/Code/Github/DawnGBC/Libraries/FWLIB/src\gd32f4xx_spi.c ****       \arg        I2S_STD_PHILLIPS : I2S phillips standard
 712:C:/Users/leonardo/Desktop/Code/Github/DawnGBC/Libraries/FWLIB/src\gd32f4xx_spi.c ****       \arg        I2S_STD_MSB : I2S MSB standard
 713:C:/Users/leonardo/Desktop/Code/Github/DawnGBC/Libraries/FWLIB/src\gd32f4xx_spi.c ****       \arg        I2S_STD_LSB : I2S LSB standard
 714:C:/Users/leonardo/Desktop/Code/Github/DawnGBC/Libraries/FWLIB/src\gd32f4xx_spi.c ****       \arg        I2S_STD_PCMSHORT : I2S PCM short standard
 715:C:/Users/leonardo/Desktop/Code/Github/DawnGBC/Libraries/FWLIB/src\gd32f4xx_spi.c ****       \arg        I2S_STD_PCMLONG : I2S PCM long standard
 716:C:/Users/leonardo/Desktop/Code/Github/DawnGBC/Libraries/FWLIB/src\gd32f4xx_spi.c ****     \param[in]  i2s_ckpl: 
 717:C:/Users/leonardo/Desktop/Code/Github/DawnGBC/Libraries/FWLIB/src\gd32f4xx_spi.c ****       \arg        I2S_CKPL_LOW : I2S clock polarity low level
 718:C:/Users/leonardo/Desktop/Code/Github/DawnGBC/Libraries/FWLIB/src\gd32f4xx_spi.c ****       \arg        I2S_CKPL_HIGH : I2S clock polarity high level
 719:C:/Users/leonardo/Desktop/Code/Github/DawnGBC/Libraries/FWLIB/src\gd32f4xx_spi.c ****     \param[in]  i2s_frameformat:
 720:C:/Users/leonardo/Desktop/Code/Github/DawnGBC/Libraries/FWLIB/src\gd32f4xx_spi.c ****       \arg        I2S_FRAMEFORMAT_DT16B_CH16B: I2S data length is 16 bit and channel length is 16 b
 721:C:/Users/leonardo/Desktop/Code/Github/DawnGBC/Libraries/FWLIB/src\gd32f4xx_spi.c ****       \arg        I2S_FRAMEFORMAT_DT16B_CH32B: I2S data length is 16 bit and channel length is 32 b
 722:C:/Users/leonardo/Desktop/Code/Github/DawnGBC/Libraries/FWLIB/src\gd32f4xx_spi.c ****       \arg        I2S_FRAMEFORMAT_DT24B_CH32B: I2S data length is 24 bit and channel length is 32 b
 723:C:/Users/leonardo/Desktop/Code/Github/DawnGBC/Libraries/FWLIB/src\gd32f4xx_spi.c ****       \arg        I2S_FRAMEFORMAT_DT32B_CH32B: I2S data length is 32 bit and channel length is 32 b
 724:C:/Users/leonardo/Desktop/Code/Github/DawnGBC/Libraries/FWLIB/src\gd32f4xx_spi.c ****     \param[out] none
 725:C:/Users/leonardo/Desktop/Code/Github/DawnGBC/Libraries/FWLIB/src\gd32f4xx_spi.c ****     \retval     none
 726:C:/Users/leonardo/Desktop/Code/Github/DawnGBC/Libraries/FWLIB/src\gd32f4xx_spi.c **** */
 727:C:/Users/leonardo/Desktop/Code/Github/DawnGBC/Libraries/FWLIB/src\gd32f4xx_spi.c **** void i2s_full_duplex_mode_config(uint32_t i2s_add_periph, uint32_t i2s_mode, uint32_t i2s_standard,
 728:C:/Users/leonardo/Desktop/Code/Github/DawnGBC/Libraries/FWLIB/src\gd32f4xx_spi.c ****                                  uint32_t i2s_ckpl, uint32_t i2s_frameformat)
 729:C:/Users/leonardo/Desktop/Code/Github/DawnGBC/Libraries/FWLIB/src\gd32f4xx_spi.c **** {
 2121              		.loc 1 729 1
 2122              		.cfi_startproc
 2123              		@ args = 4, pretend = 0, frame = 24
 2124              		@ frame_needed = 1, uses_anonymous_args = 0
 2125              		@ link register save eliminated.
 2126 0000 80B4     		push	{r7}
 2127              		.cfi_def_cfa_offset 4
 2128              		.cfi_offset 7, -4
 2129 0002 87B0     		sub	sp, sp, #28
 2130              		.cfi_def_cfa_offset 32
 2131 0004 00AF     		add	r7, sp, #0
 2132              		.cfi_def_cfa_register 7
 2133 0006 F860     		str	r0, [r7, #12]
 2134 0008 B960     		str	r1, [r7, #8]
 2135 000a 7A60     		str	r2, [r7, #4]
 2136 000c 3B60     		str	r3, [r7]
 730:C:/Users/leonardo/Desktop/Code/Github/DawnGBC/Libraries/FWLIB/src\gd32f4xx_spi.c ****     uint32_t reg = 0U, tmp = 0U;
 2137              		.loc 1 730 14
 2138 000e 0023     		movs	r3, #0
 2139 0010 3B61     		str	r3, [r7, #16]
 2140              		.loc 1 730 24
 2141 0012 0023     		movs	r3, #0
 2142 0014 7B61     		str	r3, [r7, #20]
 731:C:/Users/leonardo/Desktop/Code/Github/DawnGBC/Libraries/FWLIB/src\gd32f4xx_spi.c **** 
 732:C:/Users/leonardo/Desktop/Code/Github/DawnGBC/Libraries/FWLIB/src\gd32f4xx_spi.c ****     reg = I2S_ADD_I2SCTL(i2s_add_periph);
 2143              		.loc 1 732 11
 2144 0016 FB68     		ldr	r3, [r7, #12]
 2145 0018 1C33     		adds	r3, r3, #28
 2146              		.loc 1 732 9
 2147 001a 1B68     		ldr	r3, [r3]
 2148 001c 3B61     		str	r3, [r7, #16]
 733:C:/Users/leonardo/Desktop/Code/Github/DawnGBC/Libraries/FWLIB/src\gd32f4xx_spi.c ****     reg &= I2S_FULL_DUPLEX_MASK;  
 2149              		.loc 1 733 9
 2150 001e 3A69     		ldr	r2, [r7, #16]
 2151 0020 4FF24003 		movw	r3, #61504
 2152 0024 1340     		ands	r3, r3, r2
 2153 0026 3B61     		str	r3, [r7, #16]
 734:C:/Users/leonardo/Desktop/Code/Github/DawnGBC/Libraries/FWLIB/src\gd32f4xx_spi.c **** 
 735:C:/Users/leonardo/Desktop/Code/Github/DawnGBC/Libraries/FWLIB/src\gd32f4xx_spi.c ****     /* get the mode of the extra I2S module I2Sx_ADD */
 736:C:/Users/leonardo/Desktop/Code/Github/DawnGBC/Libraries/FWLIB/src\gd32f4xx_spi.c ****     if((I2S_MODE_MASTERTX == i2s_mode) || (I2S_MODE_SLAVETX == i2s_mode)){
 2154              		.loc 1 736 7
 2155 0028 BB68     		ldr	r3, [r7, #8]
 2156 002a B3F5007F 		cmp	r3, #512
 2157 002e 02D0     		beq	.L93
 2158              		.loc 1 736 40 discriminator 1
 2159 0030 BB68     		ldr	r3, [r7, #8]
 2160 0032 002B     		cmp	r3, #0
 2161 0034 03D1     		bne	.L94
 2162              	.L93:
 737:C:/Users/leonardo/Desktop/Code/Github/DawnGBC/Libraries/FWLIB/src\gd32f4xx_spi.c ****         tmp = I2S_MODE_SLAVERX;
 2163              		.loc 1 737 13
 2164 0036 4FF48073 		mov	r3, #256
 2165 003a 7B61     		str	r3, [r7, #20]
 2166 003c 01E0     		b	.L95
 2167              	.L94:
 738:C:/Users/leonardo/Desktop/Code/Github/DawnGBC/Libraries/FWLIB/src\gd32f4xx_spi.c ****     }else{
 739:C:/Users/leonardo/Desktop/Code/Github/DawnGBC/Libraries/FWLIB/src\gd32f4xx_spi.c ****         tmp = I2S_MODE_SLAVETX;
 2168              		.loc 1 739 13
 2169 003e 0023     		movs	r3, #0
 2170 0040 7B61     		str	r3, [r7, #20]
 2171              	.L95:
 740:C:/Users/leonardo/Desktop/Code/Github/DawnGBC/Libraries/FWLIB/src\gd32f4xx_spi.c ****     }
 741:C:/Users/leonardo/Desktop/Code/Github/DawnGBC/Libraries/FWLIB/src\gd32f4xx_spi.c **** 
 742:C:/Users/leonardo/Desktop/Code/Github/DawnGBC/Libraries/FWLIB/src\gd32f4xx_spi.c ****     /* enable I2S mode */
 743:C:/Users/leonardo/Desktop/Code/Github/DawnGBC/Libraries/FWLIB/src\gd32f4xx_spi.c ****     reg |= (uint32_t)SPI_I2SCTL_I2SSEL; 
 2172              		.loc 1 743 9
 2173 0042 3B69     		ldr	r3, [r7, #16]
 2174 0044 43F40063 		orr	r3, r3, #2048
 2175 0048 3B61     		str	r3, [r7, #16]
 744:C:/Users/leonardo/Desktop/Code/Github/DawnGBC/Libraries/FWLIB/src\gd32f4xx_spi.c ****     /* select I2S mode */
 745:C:/Users/leonardo/Desktop/Code/Github/DawnGBC/Libraries/FWLIB/src\gd32f4xx_spi.c ****     reg |= (uint32_t)tmp;
 2176              		.loc 1 745 9
 2177 004a 3A69     		ldr	r2, [r7, #16]
 2178 004c 7B69     		ldr	r3, [r7, #20]
 2179 004e 1343     		orrs	r3, r3, r2
 2180 0050 3B61     		str	r3, [r7, #16]
 746:C:/Users/leonardo/Desktop/Code/Github/DawnGBC/Libraries/FWLIB/src\gd32f4xx_spi.c ****     /* select I2S standard */
 747:C:/Users/leonardo/Desktop/Code/Github/DawnGBC/Libraries/FWLIB/src\gd32f4xx_spi.c ****     reg |= (uint32_t)i2s_standard;
 2181              		.loc 1 747 9
 2182 0052 3A69     		ldr	r2, [r7, #16]
 2183 0054 7B68     		ldr	r3, [r7, #4]
 2184 0056 1343     		orrs	r3, r3, r2
 2185 0058 3B61     		str	r3, [r7, #16]
 748:C:/Users/leonardo/Desktop/Code/Github/DawnGBC/Libraries/FWLIB/src\gd32f4xx_spi.c ****     /* select I2S polarity */
 749:C:/Users/leonardo/Desktop/Code/Github/DawnGBC/Libraries/FWLIB/src\gd32f4xx_spi.c ****     reg |= (uint32_t)i2s_ckpl;
 2186              		.loc 1 749 9
 2187 005a 3A69     		ldr	r2, [r7, #16]
 2188 005c 3B68     		ldr	r3, [r7]
 2189 005e 1343     		orrs	r3, r3, r2
 2190 0060 3B61     		str	r3, [r7, #16]
 750:C:/Users/leonardo/Desktop/Code/Github/DawnGBC/Libraries/FWLIB/src\gd32f4xx_spi.c ****     /* configure data frame format */
 751:C:/Users/leonardo/Desktop/Code/Github/DawnGBC/Libraries/FWLIB/src\gd32f4xx_spi.c ****     reg |= (uint32_t)i2s_frameformat;
 2191              		.loc 1 751 9
 2192 0062 3A69     		ldr	r2, [r7, #16]
 2193 0064 3B6A     		ldr	r3, [r7, #32]
 2194 0066 1343     		orrs	r3, r3, r2
 2195 0068 3B61     		str	r3, [r7, #16]
 752:C:/Users/leonardo/Desktop/Code/Github/DawnGBC/Libraries/FWLIB/src\gd32f4xx_spi.c **** 
 753:C:/Users/leonardo/Desktop/Code/Github/DawnGBC/Libraries/FWLIB/src\gd32f4xx_spi.c ****     /* write to SPI_I2SCTL register */
 754:C:/Users/leonardo/Desktop/Code/Github/DawnGBC/Libraries/FWLIB/src\gd32f4xx_spi.c ****     I2S_ADD_I2SCTL(i2s_add_periph) = (uint32_t)reg;
 2196              		.loc 1 754 5
 2197 006a FB68     		ldr	r3, [r7, #12]
 2198 006c 1C33     		adds	r3, r3, #28
 2199 006e 1A46     		mov	r2, r3
 2200              		.loc 1 754 36
 2201 0070 3B69     		ldr	r3, [r7, #16]
 2202 0072 1360     		str	r3, [r2]
 755:C:/Users/leonardo/Desktop/Code/Github/DawnGBC/Libraries/FWLIB/src\gd32f4xx_spi.c **** }
 2203              		.loc 1 755 1
 2204 0074 00BF     		nop
 2205 0076 1C37     		adds	r7, r7, #28
 2206              		.cfi_def_cfa_offset 4
 2207 0078 BD46     		mov	sp, r7
 2208              		.cfi_def_cfa_register 13
 2209              		@ sp needed
 2210 007a 80BC     		pop	{r7}
 2211              		.cfi_restore 7
 2212              		.cfi_def_cfa_offset 0
 2213 007c 7047     		bx	lr
 2214              		.cfi_endproc
 2215              	.LFE154:
 2217              		.section	.text.qspi_enable,"ax",%progbits
 2218              		.align	1
 2219              		.global	qspi_enable
 2220              		.syntax unified
 2221              		.thumb
 2222              		.thumb_func
 2223              		.fpu softvfp
 2225              	qspi_enable:
 2226              	.LFB155:
 756:C:/Users/leonardo/Desktop/Code/Github/DawnGBC/Libraries/FWLIB/src\gd32f4xx_spi.c **** 
 757:C:/Users/leonardo/Desktop/Code/Github/DawnGBC/Libraries/FWLIB/src\gd32f4xx_spi.c **** /*!
 758:C:/Users/leonardo/Desktop/Code/Github/DawnGBC/Libraries/FWLIB/src\gd32f4xx_spi.c ****     \brief      enable quad wire SPI  
 759:C:/Users/leonardo/Desktop/Code/Github/DawnGBC/Libraries/FWLIB/src\gd32f4xx_spi.c ****     \param[in]  spi_periph: SPIx(only x=5)
 760:C:/Users/leonardo/Desktop/Code/Github/DawnGBC/Libraries/FWLIB/src\gd32f4xx_spi.c ****     \param[out] none
 761:C:/Users/leonardo/Desktop/Code/Github/DawnGBC/Libraries/FWLIB/src\gd32f4xx_spi.c ****     \retval     none
 762:C:/Users/leonardo/Desktop/Code/Github/DawnGBC/Libraries/FWLIB/src\gd32f4xx_spi.c **** */
 763:C:/Users/leonardo/Desktop/Code/Github/DawnGBC/Libraries/FWLIB/src\gd32f4xx_spi.c **** void qspi_enable(uint32_t spi_periph)
 764:C:/Users/leonardo/Desktop/Code/Github/DawnGBC/Libraries/FWLIB/src\gd32f4xx_spi.c **** {
 2227              		.loc 1 764 1
 2228              		.cfi_startproc
 2229              		@ args = 0, pretend = 0, frame = 8
 2230              		@ frame_needed = 1, uses_anonymous_args = 0
 2231              		@ link register save eliminated.
 2232 0000 80B4     		push	{r7}
 2233              		.cfi_def_cfa_offset 4
 2234              		.cfi_offset 7, -4
 2235 0002 83B0     		sub	sp, sp, #12
 2236              		.cfi_def_cfa_offset 16
 2237 0004 00AF     		add	r7, sp, #0
 2238              		.cfi_def_cfa_register 7
 2239 0006 7860     		str	r0, [r7, #4]
 765:C:/Users/leonardo/Desktop/Code/Github/DawnGBC/Libraries/FWLIB/src\gd32f4xx_spi.c ****     SPI_QCTL(spi_periph) |= (uint32_t)SPI_QCTL_QMOD;
 2240              		.loc 1 765 26
 2241 0008 7B68     		ldr	r3, [r7, #4]
 2242 000a 8033     		adds	r3, r3, #128
 2243 000c 1B68     		ldr	r3, [r3]
 2244 000e 7A68     		ldr	r2, [r7, #4]
 2245 0010 8032     		adds	r2, r2, #128
 2246 0012 43F00103 		orr	r3, r3, #1
 2247 0016 1360     		str	r3, [r2]
 766:C:/Users/leonardo/Desktop/Code/Github/DawnGBC/Libraries/FWLIB/src\gd32f4xx_spi.c **** }
 2248              		.loc 1 766 1
 2249 0018 00BF     		nop
 2250 001a 0C37     		adds	r7, r7, #12
 2251              		.cfi_def_cfa_offset 4
 2252 001c BD46     		mov	sp, r7
 2253              		.cfi_def_cfa_register 13
 2254              		@ sp needed
 2255 001e 80BC     		pop	{r7}
 2256              		.cfi_restore 7
 2257              		.cfi_def_cfa_offset 0
 2258 0020 7047     		bx	lr
 2259              		.cfi_endproc
 2260              	.LFE155:
 2262              		.section	.text.qspi_disable,"ax",%progbits
 2263              		.align	1
 2264              		.global	qspi_disable
 2265              		.syntax unified
 2266              		.thumb
 2267              		.thumb_func
 2268              		.fpu softvfp
 2270              	qspi_disable:
 2271              	.LFB156:
 767:C:/Users/leonardo/Desktop/Code/Github/DawnGBC/Libraries/FWLIB/src\gd32f4xx_spi.c **** 
 768:C:/Users/leonardo/Desktop/Code/Github/DawnGBC/Libraries/FWLIB/src\gd32f4xx_spi.c **** /*!
 769:C:/Users/leonardo/Desktop/Code/Github/DawnGBC/Libraries/FWLIB/src\gd32f4xx_spi.c ****     \brief      disable quad wire SPI 
 770:C:/Users/leonardo/Desktop/Code/Github/DawnGBC/Libraries/FWLIB/src\gd32f4xx_spi.c ****     \param[in]  spi_periph: SPIx(only x=5)
 771:C:/Users/leonardo/Desktop/Code/Github/DawnGBC/Libraries/FWLIB/src\gd32f4xx_spi.c ****     \param[out] none
 772:C:/Users/leonardo/Desktop/Code/Github/DawnGBC/Libraries/FWLIB/src\gd32f4xx_spi.c ****     \retval     none
 773:C:/Users/leonardo/Desktop/Code/Github/DawnGBC/Libraries/FWLIB/src\gd32f4xx_spi.c **** */
 774:C:/Users/leonardo/Desktop/Code/Github/DawnGBC/Libraries/FWLIB/src\gd32f4xx_spi.c **** void qspi_disable(uint32_t spi_periph)
 775:C:/Users/leonardo/Desktop/Code/Github/DawnGBC/Libraries/FWLIB/src\gd32f4xx_spi.c **** {
 2272              		.loc 1 775 1
 2273              		.cfi_startproc
 2274              		@ args = 0, pretend = 0, frame = 8
 2275              		@ frame_needed = 1, uses_anonymous_args = 0
 2276              		@ link register save eliminated.
 2277 0000 80B4     		push	{r7}
 2278              		.cfi_def_cfa_offset 4
 2279              		.cfi_offset 7, -4
 2280 0002 83B0     		sub	sp, sp, #12
 2281              		.cfi_def_cfa_offset 16
 2282 0004 00AF     		add	r7, sp, #0
 2283              		.cfi_def_cfa_register 7
 2284 0006 7860     		str	r0, [r7, #4]
 776:C:/Users/leonardo/Desktop/Code/Github/DawnGBC/Libraries/FWLIB/src\gd32f4xx_spi.c ****     SPI_QCTL(spi_periph) &= (uint32_t)(~SPI_QCTL_QMOD);
 2285              		.loc 1 776 26
 2286 0008 7B68     		ldr	r3, [r7, #4]
 2287 000a 8033     		adds	r3, r3, #128
 2288 000c 1B68     		ldr	r3, [r3]
 2289 000e 7A68     		ldr	r2, [r7, #4]
 2290 0010 8032     		adds	r2, r2, #128
 2291 0012 23F00103 		bic	r3, r3, #1
 2292 0016 1360     		str	r3, [r2]
 777:C:/Users/leonardo/Desktop/Code/Github/DawnGBC/Libraries/FWLIB/src\gd32f4xx_spi.c **** }
 2293              		.loc 1 777 1
 2294 0018 00BF     		nop
 2295 001a 0C37     		adds	r7, r7, #12
 2296              		.cfi_def_cfa_offset 4
 2297 001c BD46     		mov	sp, r7
 2298              		.cfi_def_cfa_register 13
 2299              		@ sp needed
 2300 001e 80BC     		pop	{r7}
 2301              		.cfi_restore 7
 2302              		.cfi_def_cfa_offset 0
 2303 0020 7047     		bx	lr
 2304              		.cfi_endproc
 2305              	.LFE156:
 2307              		.section	.text.qspi_write_enable,"ax",%progbits
 2308              		.align	1
 2309              		.global	qspi_write_enable
 2310              		.syntax unified
 2311              		.thumb
 2312              		.thumb_func
 2313              		.fpu softvfp
 2315              	qspi_write_enable:
 2316              	.LFB157:
 778:C:/Users/leonardo/Desktop/Code/Github/DawnGBC/Libraries/FWLIB/src\gd32f4xx_spi.c **** 
 779:C:/Users/leonardo/Desktop/Code/Github/DawnGBC/Libraries/FWLIB/src\gd32f4xx_spi.c **** /*!
 780:C:/Users/leonardo/Desktop/Code/Github/DawnGBC/Libraries/FWLIB/src\gd32f4xx_spi.c ****     \brief      enable quad wire SPI write 
 781:C:/Users/leonardo/Desktop/Code/Github/DawnGBC/Libraries/FWLIB/src\gd32f4xx_spi.c ****     \param[in]  spi_periph: SPIx(only x=5)
 782:C:/Users/leonardo/Desktop/Code/Github/DawnGBC/Libraries/FWLIB/src\gd32f4xx_spi.c ****     \param[out] none
 783:C:/Users/leonardo/Desktop/Code/Github/DawnGBC/Libraries/FWLIB/src\gd32f4xx_spi.c ****     \retval     none
 784:C:/Users/leonardo/Desktop/Code/Github/DawnGBC/Libraries/FWLIB/src\gd32f4xx_spi.c **** */
 785:C:/Users/leonardo/Desktop/Code/Github/DawnGBC/Libraries/FWLIB/src\gd32f4xx_spi.c **** void qspi_write_enable(uint32_t spi_periph)
 786:C:/Users/leonardo/Desktop/Code/Github/DawnGBC/Libraries/FWLIB/src\gd32f4xx_spi.c **** {
 2317              		.loc 1 786 1
 2318              		.cfi_startproc
 2319              		@ args = 0, pretend = 0, frame = 8
 2320              		@ frame_needed = 1, uses_anonymous_args = 0
 2321              		@ link register save eliminated.
 2322 0000 80B4     		push	{r7}
 2323              		.cfi_def_cfa_offset 4
 2324              		.cfi_offset 7, -4
 2325 0002 83B0     		sub	sp, sp, #12
 2326              		.cfi_def_cfa_offset 16
 2327 0004 00AF     		add	r7, sp, #0
 2328              		.cfi_def_cfa_register 7
 2329 0006 7860     		str	r0, [r7, #4]
 787:C:/Users/leonardo/Desktop/Code/Github/DawnGBC/Libraries/FWLIB/src\gd32f4xx_spi.c ****     SPI_QCTL(spi_periph) &= (uint32_t)(~SPI_QCTL_QRD);
 2330              		.loc 1 787 26
 2331 0008 7B68     		ldr	r3, [r7, #4]
 2332 000a 8033     		adds	r3, r3, #128
 2333 000c 1B68     		ldr	r3, [r3]
 2334 000e 7A68     		ldr	r2, [r7, #4]
 2335 0010 8032     		adds	r2, r2, #128
 2336 0012 23F00203 		bic	r3, r3, #2
 2337 0016 1360     		str	r3, [r2]
 788:C:/Users/leonardo/Desktop/Code/Github/DawnGBC/Libraries/FWLIB/src\gd32f4xx_spi.c **** }
 2338              		.loc 1 788 1
 2339 0018 00BF     		nop
 2340 001a 0C37     		adds	r7, r7, #12
 2341              		.cfi_def_cfa_offset 4
 2342 001c BD46     		mov	sp, r7
 2343              		.cfi_def_cfa_register 13
 2344              		@ sp needed
 2345 001e 80BC     		pop	{r7}
 2346              		.cfi_restore 7
 2347              		.cfi_def_cfa_offset 0
 2348 0020 7047     		bx	lr
 2349              		.cfi_endproc
 2350              	.LFE157:
 2352              		.section	.text.qspi_read_enable,"ax",%progbits
 2353              		.align	1
 2354              		.global	qspi_read_enable
 2355              		.syntax unified
 2356              		.thumb
 2357              		.thumb_func
 2358              		.fpu softvfp
 2360              	qspi_read_enable:
 2361              	.LFB158:
 789:C:/Users/leonardo/Desktop/Code/Github/DawnGBC/Libraries/FWLIB/src\gd32f4xx_spi.c **** 
 790:C:/Users/leonardo/Desktop/Code/Github/DawnGBC/Libraries/FWLIB/src\gd32f4xx_spi.c **** /*!
 791:C:/Users/leonardo/Desktop/Code/Github/DawnGBC/Libraries/FWLIB/src\gd32f4xx_spi.c ****     \brief      enable quad wire SPI read 
 792:C:/Users/leonardo/Desktop/Code/Github/DawnGBC/Libraries/FWLIB/src\gd32f4xx_spi.c ****     \param[in]  spi_periph: SPIx(only x=5)
 793:C:/Users/leonardo/Desktop/Code/Github/DawnGBC/Libraries/FWLIB/src\gd32f4xx_spi.c ****     \param[out] none
 794:C:/Users/leonardo/Desktop/Code/Github/DawnGBC/Libraries/FWLIB/src\gd32f4xx_spi.c ****     \retval     none
 795:C:/Users/leonardo/Desktop/Code/Github/DawnGBC/Libraries/FWLIB/src\gd32f4xx_spi.c **** */
 796:C:/Users/leonardo/Desktop/Code/Github/DawnGBC/Libraries/FWLIB/src\gd32f4xx_spi.c **** void qspi_read_enable(uint32_t spi_periph)
 797:C:/Users/leonardo/Desktop/Code/Github/DawnGBC/Libraries/FWLIB/src\gd32f4xx_spi.c **** {
 2362              		.loc 1 797 1
 2363              		.cfi_startproc
 2364              		@ args = 0, pretend = 0, frame = 8
 2365              		@ frame_needed = 1, uses_anonymous_args = 0
 2366              		@ link register save eliminated.
 2367 0000 80B4     		push	{r7}
 2368              		.cfi_def_cfa_offset 4
 2369              		.cfi_offset 7, -4
 2370 0002 83B0     		sub	sp, sp, #12
 2371              		.cfi_def_cfa_offset 16
 2372 0004 00AF     		add	r7, sp, #0
 2373              		.cfi_def_cfa_register 7
 2374 0006 7860     		str	r0, [r7, #4]
 798:C:/Users/leonardo/Desktop/Code/Github/DawnGBC/Libraries/FWLIB/src\gd32f4xx_spi.c ****     SPI_QCTL(spi_periph) |= (uint32_t)SPI_QCTL_QRD;
 2375              		.loc 1 798 26
 2376 0008 7B68     		ldr	r3, [r7, #4]
 2377 000a 8033     		adds	r3, r3, #128
 2378 000c 1B68     		ldr	r3, [r3]
 2379 000e 7A68     		ldr	r2, [r7, #4]
 2380 0010 8032     		adds	r2, r2, #128
 2381 0012 43F00203 		orr	r3, r3, #2
 2382 0016 1360     		str	r3, [r2]
 799:C:/Users/leonardo/Desktop/Code/Github/DawnGBC/Libraries/FWLIB/src\gd32f4xx_spi.c **** }
 2383              		.loc 1 799 1
 2384 0018 00BF     		nop
 2385 001a 0C37     		adds	r7, r7, #12
 2386              		.cfi_def_cfa_offset 4
 2387 001c BD46     		mov	sp, r7
 2388              		.cfi_def_cfa_register 13
 2389              		@ sp needed
 2390 001e 80BC     		pop	{r7}
 2391              		.cfi_restore 7
 2392              		.cfi_def_cfa_offset 0
 2393 0020 7047     		bx	lr
 2394              		.cfi_endproc
 2395              	.LFE158:
 2397              		.section	.text.qspi_io23_output_enable,"ax",%progbits
 2398              		.align	1
 2399              		.global	qspi_io23_output_enable
 2400              		.syntax unified
 2401              		.thumb
 2402              		.thumb_func
 2403              		.fpu softvfp
 2405              	qspi_io23_output_enable:
 2406              	.LFB159:
 800:C:/Users/leonardo/Desktop/Code/Github/DawnGBC/Libraries/FWLIB/src\gd32f4xx_spi.c **** 
 801:C:/Users/leonardo/Desktop/Code/Github/DawnGBC/Libraries/FWLIB/src\gd32f4xx_spi.c **** /*!
 802:C:/Users/leonardo/Desktop/Code/Github/DawnGBC/Libraries/FWLIB/src\gd32f4xx_spi.c ****     \brief      enable SPI_IO2 and SPI_IO3 pin output 
 803:C:/Users/leonardo/Desktop/Code/Github/DawnGBC/Libraries/FWLIB/src\gd32f4xx_spi.c ****     \param[in]  spi_periph: SPIx(only x=5)
 804:C:/Users/leonardo/Desktop/Code/Github/DawnGBC/Libraries/FWLIB/src\gd32f4xx_spi.c ****     \param[out] none
 805:C:/Users/leonardo/Desktop/Code/Github/DawnGBC/Libraries/FWLIB/src\gd32f4xx_spi.c ****     \retval     none
 806:C:/Users/leonardo/Desktop/Code/Github/DawnGBC/Libraries/FWLIB/src\gd32f4xx_spi.c **** */
 807:C:/Users/leonardo/Desktop/Code/Github/DawnGBC/Libraries/FWLIB/src\gd32f4xx_spi.c **** void qspi_io23_output_enable(uint32_t spi_periph)
 808:C:/Users/leonardo/Desktop/Code/Github/DawnGBC/Libraries/FWLIB/src\gd32f4xx_spi.c **** {
 2407              		.loc 1 808 1
 2408              		.cfi_startproc
 2409              		@ args = 0, pretend = 0, frame = 8
 2410              		@ frame_needed = 1, uses_anonymous_args = 0
 2411              		@ link register save eliminated.
 2412 0000 80B4     		push	{r7}
 2413              		.cfi_def_cfa_offset 4
 2414              		.cfi_offset 7, -4
 2415 0002 83B0     		sub	sp, sp, #12
 2416              		.cfi_def_cfa_offset 16
 2417 0004 00AF     		add	r7, sp, #0
 2418              		.cfi_def_cfa_register 7
 2419 0006 7860     		str	r0, [r7, #4]
 809:C:/Users/leonardo/Desktop/Code/Github/DawnGBC/Libraries/FWLIB/src\gd32f4xx_spi.c ****     SPI_QCTL(spi_periph) |= (uint32_t)SPI_QCTL_IO23_DRV;
 2420              		.loc 1 809 26
 2421 0008 7B68     		ldr	r3, [r7, #4]
 2422 000a 8033     		adds	r3, r3, #128
 2423 000c 1B68     		ldr	r3, [r3]
 2424 000e 7A68     		ldr	r2, [r7, #4]
 2425 0010 8032     		adds	r2, r2, #128
 2426 0012 43F00403 		orr	r3, r3, #4
 2427 0016 1360     		str	r3, [r2]
 810:C:/Users/leonardo/Desktop/Code/Github/DawnGBC/Libraries/FWLIB/src\gd32f4xx_spi.c **** }
 2428              		.loc 1 810 1
 2429 0018 00BF     		nop
 2430 001a 0C37     		adds	r7, r7, #12
 2431              		.cfi_def_cfa_offset 4
 2432 001c BD46     		mov	sp, r7
 2433              		.cfi_def_cfa_register 13
 2434              		@ sp needed
 2435 001e 80BC     		pop	{r7}
 2436              		.cfi_restore 7
 2437              		.cfi_def_cfa_offset 0
 2438 0020 7047     		bx	lr
 2439              		.cfi_endproc
 2440              	.LFE159:
 2442              		.section	.text.qspi_io23_output_disable,"ax",%progbits
 2443              		.align	1
 2444              		.global	qspi_io23_output_disable
 2445              		.syntax unified
 2446              		.thumb
 2447              		.thumb_func
 2448              		.fpu softvfp
 2450              	qspi_io23_output_disable:
 2451              	.LFB160:
 811:C:/Users/leonardo/Desktop/Code/Github/DawnGBC/Libraries/FWLIB/src\gd32f4xx_spi.c **** 
 812:C:/Users/leonardo/Desktop/Code/Github/DawnGBC/Libraries/FWLIB/src\gd32f4xx_spi.c ****  /*!
 813:C:/Users/leonardo/Desktop/Code/Github/DawnGBC/Libraries/FWLIB/src\gd32f4xx_spi.c ****     \brief      disable SPI_IO2 and SPI_IO3 pin output 
 814:C:/Users/leonardo/Desktop/Code/Github/DawnGBC/Libraries/FWLIB/src\gd32f4xx_spi.c ****     \param[in]  spi_periph: SPIx(only x=5)
 815:C:/Users/leonardo/Desktop/Code/Github/DawnGBC/Libraries/FWLIB/src\gd32f4xx_spi.c ****     \param[out] none
 816:C:/Users/leonardo/Desktop/Code/Github/DawnGBC/Libraries/FWLIB/src\gd32f4xx_spi.c ****     \retval     none
 817:C:/Users/leonardo/Desktop/Code/Github/DawnGBC/Libraries/FWLIB/src\gd32f4xx_spi.c **** */
 818:C:/Users/leonardo/Desktop/Code/Github/DawnGBC/Libraries/FWLIB/src\gd32f4xx_spi.c ****  void qspi_io23_output_disable(uint32_t spi_periph)
 819:C:/Users/leonardo/Desktop/Code/Github/DawnGBC/Libraries/FWLIB/src\gd32f4xx_spi.c **** {
 2452              		.loc 1 819 1
 2453              		.cfi_startproc
 2454              		@ args = 0, pretend = 0, frame = 8
 2455              		@ frame_needed = 1, uses_anonymous_args = 0
 2456              		@ link register save eliminated.
 2457 0000 80B4     		push	{r7}
 2458              		.cfi_def_cfa_offset 4
 2459              		.cfi_offset 7, -4
 2460 0002 83B0     		sub	sp, sp, #12
 2461              		.cfi_def_cfa_offset 16
 2462 0004 00AF     		add	r7, sp, #0
 2463              		.cfi_def_cfa_register 7
 2464 0006 7860     		str	r0, [r7, #4]
 820:C:/Users/leonardo/Desktop/Code/Github/DawnGBC/Libraries/FWLIB/src\gd32f4xx_spi.c ****     SPI_QCTL(spi_periph) &= (uint32_t)(~SPI_QCTL_IO23_DRV);
 2465              		.loc 1 820 26
 2466 0008 7B68     		ldr	r3, [r7, #4]
 2467 000a 8033     		adds	r3, r3, #128
 2468 000c 1B68     		ldr	r3, [r3]
 2469 000e 7A68     		ldr	r2, [r7, #4]
 2470 0010 8032     		adds	r2, r2, #128
 2471 0012 23F00403 		bic	r3, r3, #4
 2472 0016 1360     		str	r3, [r2]
 821:C:/Users/leonardo/Desktop/Code/Github/DawnGBC/Libraries/FWLIB/src\gd32f4xx_spi.c **** }
 2473              		.loc 1 821 1
 2474 0018 00BF     		nop
 2475 001a 0C37     		adds	r7, r7, #12
 2476              		.cfi_def_cfa_offset 4
 2477 001c BD46     		mov	sp, r7
 2478              		.cfi_def_cfa_register 13
 2479              		@ sp needed
 2480 001e 80BC     		pop	{r7}
 2481              		.cfi_restore 7
 2482              		.cfi_def_cfa_offset 0
 2483 0020 7047     		bx	lr
 2484              		.cfi_endproc
 2485              	.LFE160:
 2487              		.text
 2488              	.Letext0:
 2489              		.file 2 "c:\\users\\leonardo\\desktop\\gd32embeddedbuilder_v1.5.6_rel\\tools\\gnu tools arm embedd
 2490              		.file 3 "c:\\users\\leonardo\\desktop\\gd32embeddedbuilder_v1.5.6_rel\\tools\\gnu tools arm embedd
 2491              		.file 4 "../../CMSIS/DSP/Include/core_cm4.h"
 2492              		.file 5 "../../CMSIS/system_gd32f4xx.h"
 2493              		.file 6 "../../CMSIS/gd32f4xx.h"
 2494              		.file 7 "../../Libraries/FWLIB/inc/gd32f4xx_rcu.h"
 2495              		.file 8 "../../Libraries/FWLIB/inc/gd32f4xx_spi.h"