   1              		.cpu cortex-m4
   2              		.eabi_attribute 20, 1
   3              		.eabi_attribute 21, 1
   4              		.eabi_attribute 23, 3
   5              		.eabi_attribute 24, 1
   6              		.eabi_attribute 25, 1
   7              		.eabi_attribute 26, 1
   8              		.eabi_attribute 30, 6
   9              		.eabi_attribute 34, 1
  10              		.eabi_attribute 18, 4
  11              		.file	"timebase.c"
  12              		.text
  13              	.Ltext0:
  14              		.cfi_sections	.debug_frame
  15              		.comm	TimeOutArray,18,4
  16              		.section	.text.TimeBaseInit,"ax",%progbits
  17              		.align	1
  18              		.global	TimeBaseInit
  19              		.arch armv7e-m
  20              		.syntax unified
  21              		.thumb
  22              		.thumb_func
  23              		.fpu softvfp
  25              	TimeBaseInit:
  26              	.LFB156:
  27              		.file 1 "C:/Users/leonardo/Desktop/Code/Github/DawnGBC/Dawn/DawnBsp/timebase.c"
   1:C:/Users/leonardo/Desktop/Code/Github/DawnGBC/Dawn/DawnBsp\timebase.c **** /*
   2:C:/Users/leonardo/Desktop/Code/Github/DawnGBC/Dawn/DawnBsp\timebase.c ****  * DawnBGC - Open Source Brushless Gimbal Controller
   3:C:/Users/leonardo/Desktop/Code/Github/DawnGBC/Dawn/DawnBsp\timebase.c ****  *
   4:C:/Users/leonardo/Desktop/Code/Github/DawnGBC/Dawn/DawnBsp\timebase.c ****  * Copyright (c) 2025 MarsDawn
   5:C:/Users/leonardo/Desktop/Code/Github/DawnGBC/Dawn/DawnBsp\timebase.c ****  *
   6:C:/Users/leonardo/Desktop/Code/Github/DawnGBC/Dawn/DawnBsp\timebase.c ****  * Project repository:
   7:C:/Users/leonardo/Desktop/Code/Github/DawnGBC/Dawn/DawnBsp\timebase.c ****  *     https://github.com/MarsDawn
   8:C:/Users/leonardo/Desktop/Code/Github/DawnGBC/Dawn/DawnBsp\timebase.c ****  *
   9:C:/Users/leonardo/Desktop/Code/Github/DawnGBC/Dawn/DawnBsp\timebase.c ****  * This file is part of the DawnBGC project.
  10:C:/Users/leonardo/Desktop/Code/Github/DawnGBC/Dawn/DawnBsp\timebase.c ****  *
  11:C:/Users/leonardo/Desktop/Code/Github/DawnGBC/Dawn/DawnBsp\timebase.c ****  * Redistribution and use in source or binary forms, with or without
  12:C:/Users/leonardo/Desktop/Code/Github/DawnGBC/Dawn/DawnBsp\timebase.c ****  * modification, are permitted under the MIT License, provided that
  13:C:/Users/leonardo/Desktop/Code/Github/DawnGBC/Dawn/DawnBsp\timebase.c ****  * this copyright notice and this permission notice are retained.
  14:C:/Users/leonardo/Desktop/Code/Github/DawnGBC/Dawn/DawnBsp\timebase.c ****  *
  15:C:/Users/leonardo/Desktop/Code/Github/DawnGBC/Dawn/DawnBsp\timebase.c ****  * Licensed under the MIT License.
  16:C:/Users/leonardo/Desktop/Code/Github/DawnGBC/Dawn/DawnBsp\timebase.c ****  * You may obtain a copy of the License at:
  17:C:/Users/leonardo/Desktop/Code/Github/DawnGBC/Dawn/DawnBsp\timebase.c ****  *
  18:C:/Users/leonardo/Desktop/Code/Github/DawnGBC/Dawn/DawnBsp\timebase.c ****  *     https://opensource.org/licenses/MIT
  19:C:/Users/leonardo/Desktop/Code/Github/DawnGBC/Dawn/DawnBsp\timebase.c ****  *
  20:C:/Users/leonardo/Desktop/Code/Github/DawnGBC/Dawn/DawnBsp\timebase.c ****  * THE SOFTWARE IS PROVIDED "AS IS", WITHOUT WARRANTY OF ANY KIND.
  21:C:/Users/leonardo/Desktop/Code/Github/DawnGBC/Dawn/DawnBsp\timebase.c ****  */
  22:C:/Users/leonardo/Desktop/Code/Github/DawnGBC/Dawn/DawnBsp\timebase.c **** 
  23:C:/Users/leonardo/Desktop/Code/Github/DawnGBC/Dawn/DawnBsp\timebase.c **** 
  24:C:/Users/leonardo/Desktop/Code/Github/DawnGBC/Dawn/DawnBsp\timebase.c **** #include "includes.h"
  25:C:/Users/leonardo/Desktop/Code/Github/DawnGBC/Dawn/DawnBsp\timebase.c **** TimeBaseTimeOut_struct TimeOutArray[TOTAL_TIMEOUT_MODULE];
  26:C:/Users/leonardo/Desktop/Code/Github/DawnGBC/Dawn/DawnBsp\timebase.c **** 
  27:C:/Users/leonardo/Desktop/Code/Github/DawnGBC/Dawn/DawnBsp\timebase.c **** void TimeBaseInit(void)
  28:C:/Users/leonardo/Desktop/Code/Github/DawnGBC/Dawn/DawnBsp\timebase.c **** {
  28              		.loc 1 28 1
  29              		.cfi_startproc
  30              		@ args = 0, pretend = 0, frame = 16
  31              		@ frame_needed = 1, uses_anonymous_args = 0
  32 0000 80B5     		push	{r7, lr}
  33              		.cfi_def_cfa_offset 8
  34              		.cfi_offset 7, -8
  35              		.cfi_offset 14, -4
  36 0002 84B0     		sub	sp, sp, #16
  37              		.cfi_def_cfa_offset 24
  38 0004 00AF     		add	r7, sp, #0
  39              		.cfi_def_cfa_register 7
  29:C:/Users/leonardo/Desktop/Code/Github/DawnGBC/Dawn/DawnBsp\timebase.c ****     timer_parameter_struct timer_initpara;
  30:C:/Users/leonardo/Desktop/Code/Github/DawnGBC/Dawn/DawnBsp\timebase.c **** 
  31:C:/Users/leonardo/Desktop/Code/Github/DawnGBC/Dawn/DawnBsp\timebase.c ****     rcu_periph_clock_enable(RCU_TIMER13);
  40              		.loc 1 31 5
  41 0006 41F20800 		movw	r0, #4104
  42 000a FFF7FEFF 		bl	rcu_periph_clock_enable
  32:C:/Users/leonardo/Desktop/Code/Github/DawnGBC/Dawn/DawnBsp\timebase.c ****     rcu_timer_clock_prescaler_config(RCU_TIMER_PSC_MUL4);
  43              		.loc 1 32 5
  44 000e 4FF08070 		mov	r0, #16777216
  45 0012 FFF7FEFF 		bl	rcu_timer_clock_prescaler_config
  33:C:/Users/leonardo/Desktop/Code/Github/DawnGBC/Dawn/DawnBsp\timebase.c ****     
  34:C:/Users/leonardo/Desktop/Code/Github/DawnGBC/Dawn/DawnBsp\timebase.c ****     timer_deinit(TIMER13);
  46              		.loc 1 34 5
  47 0016 1648     		ldr	r0, .L2
  48 0018 FFF7FEFF 		bl	timer_deinit
  35:C:/Users/leonardo/Desktop/Code/Github/DawnGBC/Dawn/DawnBsp\timebase.c ****     timer_initpara.prescaler = TIMEBASE_PRSC;
  49              		.loc 1 35 30
  50 001c 0423     		movs	r3, #4
  51 001e 3B80     		strh	r3, [r7]	@ movhi
  36:C:/Users/leonardo/Desktop/Code/Github/DawnGBC/Dawn/DawnBsp\timebase.c ****     timer_initpara.alignedmode = TIMER_COUNTER_EDGE;
  52              		.loc 1 36 32
  53 0020 0023     		movs	r3, #0
  54 0022 7B80     		strh	r3, [r7, #2]	@ movhi
  37:C:/Users/leonardo/Desktop/Code/Github/DawnGBC/Dawn/DawnBsp\timebase.c ****     timer_initpara.counterdirection = TIMER_COUNTER_UP;
  55              		.loc 1 37 37
  56 0024 0023     		movs	r3, #0
  57 0026 BB80     		strh	r3, [r7, #4]	@ movhi
  38:C:/Users/leonardo/Desktop/Code/Github/DawnGBC/Dawn/DawnBsp\timebase.c ****     timer_initpara.period = TIMEBASE_PERIOD - 1;
  58              		.loc 1 38 27
  59 0028 42F20F73 		movw	r3, #9999
  60 002c BB60     		str	r3, [r7, #8]
  39:C:/Users/leonardo/Desktop/Code/Github/DawnGBC/Dawn/DawnBsp\timebase.c ****     timer_initpara.clockdivision = TIMER_CKDIV_DIV1;
  61              		.loc 1 39 34
  62 002e 0023     		movs	r3, #0
  63 0030 BB81     		strh	r3, [r7, #12]	@ movhi
  40:C:/Users/leonardo/Desktop/Code/Github/DawnGBC/Dawn/DawnBsp\timebase.c ****     timer_initpara.repetitioncounter = 0;
  64              		.loc 1 40 38
  65 0032 0023     		movs	r3, #0
  66 0034 BB73     		strb	r3, [r7, #14]
  41:C:/Users/leonardo/Desktop/Code/Github/DawnGBC/Dawn/DawnBsp\timebase.c ****     timer_init(TIMER13, &timer_initpara);
  67              		.loc 1 41 5
  68 0036 3B46     		mov	r3, r7
  69 0038 1946     		mov	r1, r3
  70 003a 0D48     		ldr	r0, .L2
  71 003c FFF7FEFF 		bl	timer_init
  42:C:/Users/leonardo/Desktop/Code/Github/DawnGBC/Dawn/DawnBsp\timebase.c ****     
  43:C:/Users/leonardo/Desktop/Code/Github/DawnGBC/Dawn/DawnBsp\timebase.c ****     nvic_irq_enable(TIMER7_TRG_CMT_TIMER13_IRQn, TIMEBASE_PRE_PRIORITY, TIMEBASE_SUB_PRIORITY);
  72              		.loc 1 43 5
  73 0040 0322     		movs	r2, #3
  74 0042 0321     		movs	r1, #3
  75 0044 2D20     		movs	r0, #45
  76 0046 FFF7FEFF 		bl	nvic_irq_enable
  44:C:/Users/leonardo/Desktop/Code/Github/DawnGBC/Dawn/DawnBsp\timebase.c ****     timer_interrupt_enable(TIMER13, TIMER_INT_UP);
  77              		.loc 1 44 5
  78 004a 0121     		movs	r1, #1
  79 004c 0848     		ldr	r0, .L2
  80 004e FFF7FEFF 		bl	timer_interrupt_enable
  45:C:/Users/leonardo/Desktop/Code/Github/DawnGBC/Dawn/DawnBsp\timebase.c ****     timer_counter_value_config(TIMER13 , 0);
  81              		.loc 1 45 5
  82 0052 0021     		movs	r1, #0
  83 0054 0648     		ldr	r0, .L2
  84 0056 FFF7FEFF 		bl	timer_counter_value_config
  46:C:/Users/leonardo/Desktop/Code/Github/DawnGBC/Dawn/DawnBsp\timebase.c ****     timer_enable(TIMER13);
  85              		.loc 1 46 5
  86 005a 0548     		ldr	r0, .L2
  87 005c FFF7FEFF 		bl	timer_enable
  47:C:/Users/leonardo/Desktop/Code/Github/DawnGBC/Dawn/DawnBsp\timebase.c ****     
  48:C:/Users/leonardo/Desktop/Code/Github/DawnGBC/Dawn/DawnBsp\timebase.c ****     TimeOutArray[FREE_TIMEOUT_MODULE].en = TRUE;
  88              		.loc 1 48 42
  89 0060 044B     		ldr	r3, .L2+4
  90 0062 0122     		movs	r2, #1
  91 0064 1A70     		strb	r2, [r3]
  49:C:/Users/leonardo/Desktop/Code/Github/DawnGBC/Dawn/DawnBsp\timebase.c **** }
  92              		.loc 1 49 1
  93 0066 00BF     		nop
  94 0068 1037     		adds	r7, r7, #16
  95              		.cfi_def_cfa_offset 8
  96 006a BD46     		mov	sp, r7
  97              		.cfi_def_cfa_register 13
  98              		@ sp needed
  99 006c 80BD     		pop	{r7, pc}
 100              	.L3:
 101 006e 00BF     		.align	2
 102              	.L2:
 103 0070 00200040 		.word	1073750016
 104 0074 00000000 		.word	TimeOutArray
 105              		.cfi_endproc
 106              	.LFE156:
 108              		.section	.text.TimeBaseStart,"ax",%progbits
 109              		.align	1
 110              		.global	TimeBaseStart
 111              		.syntax unified
 112              		.thumb
 113              		.thumb_func
 114              		.fpu softvfp
 116              	TimeBaseStart:
 117              	.LFB157:
  50:C:/Users/leonardo/Desktop/Code/Github/DawnGBC/Dawn/DawnBsp\timebase.c **** 
  51:C:/Users/leonardo/Desktop/Code/Github/DawnGBC/Dawn/DawnBsp\timebase.c **** void TimeBaseStart(uint16_t period, TimeBaseTimeOut_struct *time_out)
  52:C:/Users/leonardo/Desktop/Code/Github/DawnGBC/Dawn/DawnBsp\timebase.c **** {
 118              		.loc 1 52 1
 119              		.cfi_startproc
 120              		@ args = 0, pretend = 0, frame = 8
 121              		@ frame_needed = 1, uses_anonymous_args = 0
 122              		@ link register save eliminated.
 123 0000 80B4     		push	{r7}
 124              		.cfi_def_cfa_offset 4
 125              		.cfi_offset 7, -4
 126 0002 83B0     		sub	sp, sp, #12
 127              		.cfi_def_cfa_offset 16
 128 0004 00AF     		add	r7, sp, #0
 129              		.cfi_def_cfa_register 7
 130 0006 0346     		mov	r3, r0
 131 0008 3960     		str	r1, [r7]
 132 000a FB80     		strh	r3, [r7, #6]	@ movhi
  53:C:/Users/leonardo/Desktop/Code/Github/DawnGBC/Dawn/DawnBsp\timebase.c ****     time_out->cnt = 0;
 133              		.loc 1 53 19
 134 000c 3B68     		ldr	r3, [r7]
 135 000e 0022     		movs	r2, #0
 136 0010 5A80     		strh	r2, [r3, #2]	@ movhi
  54:C:/Users/leonardo/Desktop/Code/Github/DawnGBC/Dawn/DawnBsp\timebase.c ****     time_out->period = period;
 137              		.loc 1 54 22
 138 0012 3B68     		ldr	r3, [r7]
 139 0014 FA88     		ldrh	r2, [r7, #6]	@ movhi
 140 0016 9A80     		strh	r2, [r3, #4]	@ movhi
  55:C:/Users/leonardo/Desktop/Code/Github/DawnGBC/Dawn/DawnBsp\timebase.c ****     time_out->en = TRUE;
 141              		.loc 1 55 18
 142 0018 3B68     		ldr	r3, [r7]
 143 001a 0122     		movs	r2, #1
 144 001c 1A70     		strb	r2, [r3]
  56:C:/Users/leonardo/Desktop/Code/Github/DawnGBC/Dawn/DawnBsp\timebase.c **** }
 145              		.loc 1 56 1
 146 001e 00BF     		nop
 147 0020 0C37     		adds	r7, r7, #12
 148              		.cfi_def_cfa_offset 4
 149 0022 BD46     		mov	sp, r7
 150              		.cfi_def_cfa_register 13
 151              		@ sp needed
 152 0024 80BC     		pop	{r7}
 153              		.cfi_restore 7
 154              		.cfi_def_cfa_offset 0
 155 0026 7047     		bx	lr
 156              		.cfi_endproc
 157              	.LFE157:
 159              		.section	.text.TimeBaseStop,"ax",%progbits
 160              		.align	1
 161              		.global	TimeBaseStop
 162              		.syntax unified
 163              		.thumb
 164              		.thumb_func
 165              		.fpu softvfp
 167              	TimeBaseStop:
 168              	.LFB158:
  57:C:/Users/leonardo/Desktop/Code/Github/DawnGBC/Dawn/DawnBsp\timebase.c **** 
  58:C:/Users/leonardo/Desktop/Code/Github/DawnGBC/Dawn/DawnBsp\timebase.c **** void TimeBaseStop(TimeBaseTimeOut_struct *time_out)
  59:C:/Users/leonardo/Desktop/Code/Github/DawnGBC/Dawn/DawnBsp\timebase.c **** {
 169              		.loc 1 59 1
 170              		.cfi_startproc
 171              		@ args = 0, pretend = 0, frame = 8
 172              		@ frame_needed = 1, uses_anonymous_args = 0
 173              		@ link register save eliminated.
 174 0000 80B4     		push	{r7}
 175              		.cfi_def_cfa_offset 4
 176              		.cfi_offset 7, -4
 177 0002 83B0     		sub	sp, sp, #12
 178              		.cfi_def_cfa_offset 16
 179 0004 00AF     		add	r7, sp, #0
 180              		.cfi_def_cfa_register 7
 181 0006 7860     		str	r0, [r7, #4]
  60:C:/Users/leonardo/Desktop/Code/Github/DawnGBC/Dawn/DawnBsp\timebase.c ****     time_out->en = FALSE;    
 182              		.loc 1 60 18
 183 0008 7B68     		ldr	r3, [r7, #4]
 184 000a 0022     		movs	r2, #0
 185 000c 1A70     		strb	r2, [r3]
  61:C:/Users/leonardo/Desktop/Code/Github/DawnGBC/Dawn/DawnBsp\timebase.c ****     time_out->cnt = 0;
 186              		.loc 1 61 19
 187 000e 7B68     		ldr	r3, [r7, #4]
 188 0010 0022     		movs	r2, #0
 189 0012 5A80     		strh	r2, [r3, #2]	@ movhi
  62:C:/Users/leonardo/Desktop/Code/Github/DawnGBC/Dawn/DawnBsp\timebase.c **** }
 190              		.loc 1 62 1
 191 0014 00BF     		nop
 192 0016 0C37     		adds	r7, r7, #12
 193              		.cfi_def_cfa_offset 4
 194 0018 BD46     		mov	sp, r7
 195              		.cfi_def_cfa_register 13
 196              		@ sp needed
 197 001a 80BC     		pop	{r7}
 198              		.cfi_restore 7
 199              		.cfi_def_cfa_offset 0
 200 001c 7047     		bx	lr
 201              		.cfi_endproc
 202              	.LFE158:
 204              		.section	.text.TimeBaseTimeOut,"ax",%progbits
 205              		.align	1
 206              		.global	TimeBaseTimeOut
 207              		.syntax unified
 208              		.thumb
 209              		.thumb_func
 210              		.fpu softvfp
 212              	TimeBaseTimeOut:
 213              	.LFB159:
  63:C:/Users/leonardo/Desktop/Code/Github/DawnGBC/Dawn/DawnBsp\timebase.c **** 
  64:C:/Users/leonardo/Desktop/Code/Github/DawnGBC/Dawn/DawnBsp\timebase.c **** uint8_t TimeBaseTimeOut(TimeBaseTimeOut_struct *time_out)
  65:C:/Users/leonardo/Desktop/Code/Github/DawnGBC/Dawn/DawnBsp\timebase.c **** {
 214              		.loc 1 65 1
 215              		.cfi_startproc
 216              		@ args = 0, pretend = 0, frame = 8
 217              		@ frame_needed = 1, uses_anonymous_args = 0
 218              		@ link register save eliminated.
 219 0000 80B4     		push	{r7}
 220              		.cfi_def_cfa_offset 4
 221              		.cfi_offset 7, -4
 222 0002 83B0     		sub	sp, sp, #12
 223              		.cfi_def_cfa_offset 16
 224 0004 00AF     		add	r7, sp, #0
 225              		.cfi_def_cfa_register 7
 226 0006 7860     		str	r0, [r7, #4]
  66:C:/Users/leonardo/Desktop/Code/Github/DawnGBC/Dawn/DawnBsp\timebase.c ****     if((time_out->cnt) > (time_out->period))
 227              		.loc 1 66 17
 228 0008 7B68     		ldr	r3, [r7, #4]
 229 000a 5A88     		ldrh	r2, [r3, #2]
 230              		.loc 1 66 35
 231 000c 7B68     		ldr	r3, [r7, #4]
 232 000e 9B88     		ldrh	r3, [r3, #4]
 233              		.loc 1 66 7
 234 0010 9A42     		cmp	r2, r3
 235 0012 01D9     		bls	.L7
  67:C:/Users/leonardo/Desktop/Code/Github/DawnGBC/Dawn/DawnBsp\timebase.c ****     {
  68:C:/Users/leonardo/Desktop/Code/Github/DawnGBC/Dawn/DawnBsp\timebase.c ****         return TRUE;
 236              		.loc 1 68 16
 237 0014 0123     		movs	r3, #1
 238 0016 00E0     		b	.L8
 239              	.L7:
  69:C:/Users/leonardo/Desktop/Code/Github/DawnGBC/Dawn/DawnBsp\timebase.c ****     }
  70:C:/Users/leonardo/Desktop/Code/Github/DawnGBC/Dawn/DawnBsp\timebase.c ****     else
  71:C:/Users/leonardo/Desktop/Code/Github/DawnGBC/Dawn/DawnBsp\timebase.c ****     {
  72:C:/Users/leonardo/Desktop/Code/Github/DawnGBC/Dawn/DawnBsp\timebase.c ****         return FALSE;
 240              		.loc 1 72 16
 241 0018 0023     		movs	r3, #0
 242              	.L8:
  73:C:/Users/leonardo/Desktop/Code/Github/DawnGBC/Dawn/DawnBsp\timebase.c ****     }
  74:C:/Users/leonardo/Desktop/Code/Github/DawnGBC/Dawn/DawnBsp\timebase.c **** }
 243              		.loc 1 74 1
 244 001a 1846     		mov	r0, r3
 245 001c 0C37     		adds	r7, r7, #12
 246              		.cfi_def_cfa_offset 4
 247 001e BD46     		mov	sp, r7
 248              		.cfi_def_cfa_register 13
 249              		@ sp needed
 250 0020 80BC     		pop	{r7}
 251              		.cfi_restore 7
 252              		.cfi_def_cfa_offset 0
 253 0022 7047     		bx	lr
 254              		.cfi_endproc
 255              	.LFE159:
 257              		.section	.text.TIMER7_TRG_CMT_TIMER13_IRQHandler,"ax",%progbits
 258              		.align	1
 259              		.global	TIMER7_TRG_CMT_TIMER13_IRQHandler
 260              		.syntax unified
 261              		.thumb
 262              		.thumb_func
 263              		.fpu softvfp
 265              	TIMER7_TRG_CMT_TIMER13_IRQHandler:
 266              	.LFB160:
  75:C:/Users/leonardo/Desktop/Code/Github/DawnGBC/Dawn/DawnBsp\timebase.c **** 
  76:C:/Users/leonardo/Desktop/Code/Github/DawnGBC/Dawn/DawnBsp\timebase.c **** void TIMER7_TRG_CMT_TIMER13_IRQHandler(void)
  77:C:/Users/leonardo/Desktop/Code/Github/DawnGBC/Dawn/DawnBsp\timebase.c **** {
 267              		.loc 1 77 1
 268              		.cfi_startproc
 269              		@ args = 0, pretend = 0, frame = 8
 270              		@ frame_needed = 1, uses_anonymous_args = 0
 271 0000 80B5     		push	{r7, lr}
 272              		.cfi_def_cfa_offset 8
 273              		.cfi_offset 7, -8
 274              		.cfi_offset 14, -4
 275 0002 82B0     		sub	sp, sp, #8
 276              		.cfi_def_cfa_offset 16
 277 0004 00AF     		add	r7, sp, #0
 278              		.cfi_def_cfa_register 7
  78:C:/Users/leonardo/Desktop/Code/Github/DawnGBC/Dawn/DawnBsp\timebase.c ****     static uint8_t isr_cnt = 0;
  79:C:/Users/leonardo/Desktop/Code/Github/DawnGBC/Dawn/DawnBsp\timebase.c ****     uint8_t i = 0;
 279              		.loc 1 79 13
 280 0006 0023     		movs	r3, #0
 281 0008 FB71     		strb	r3, [r7, #7]
  80:C:/Users/leonardo/Desktop/Code/Github/DawnGBC/Dawn/DawnBsp\timebase.c ****     
  81:C:/Users/leonardo/Desktop/Code/Github/DawnGBC/Dawn/DawnBsp\timebase.c ****     if(timer_interrupt_flag_get(TIMER13, TIMER_INT_UP))
 282              		.loc 1 81 8
 283 000a 0121     		movs	r1, #1
 284 000c 2048     		ldr	r0, .L15
 285 000e FFF7FEFF 		bl	timer_interrupt_flag_get
 286 0012 0346     		mov	r3, r0
 287              		.loc 1 81 7
 288 0014 002B     		cmp	r3, #0
 289 0016 37D0     		beq	.L14
  82:C:/Users/leonardo/Desktop/Code/Github/DawnGBC/Dawn/DawnBsp\timebase.c ****     {
  83:C:/Users/leonardo/Desktop/Code/Github/DawnGBC/Dawn/DawnBsp\timebase.c ****         timer_interrupt_flag_clear(TIMER13, TIMER_INT_UP);
 290              		.loc 1 83 9
 291 0018 0121     		movs	r1, #1
 292 001a 1D48     		ldr	r0, .L15
 293 001c FFF7FEFF 		bl	timer_interrupt_flag_clear
  84:C:/Users/leonardo/Desktop/Code/Github/DawnGBC/Dawn/DawnBsp\timebase.c **** 
  85:C:/Users/leonardo/Desktop/Code/Github/DawnGBC/Dawn/DawnBsp\timebase.c ****         isr_cnt++;
 294              		.loc 1 85 16
 295 0020 1C4B     		ldr	r3, .L15+4
 296 0022 1B78     		ldrb	r3, [r3]	@ zero_extendqisi2
 297 0024 0133     		adds	r3, r3, #1
 298 0026 DAB2     		uxtb	r2, r3
 299 0028 1A4B     		ldr	r3, .L15+4
 300 002a 1A70     		strb	r2, [r3]
  86:C:/Users/leonardo/Desktop/Code/Github/DawnGBC/Dawn/DawnBsp\timebase.c ****         if(isr_cnt > ((TIMEBASE_FREQ / 1000) - 1))
 301              		.loc 1 86 20
 302 002c 194B     		ldr	r3, .L15+4
 303 002e 1B78     		ldrb	r3, [r3]	@ zero_extendqisi2
 304              		.loc 1 86 11
 305 0030 032B     		cmp	r3, #3
 306 0032 29D9     		bls	.L14
  87:C:/Users/leonardo/Desktop/Code/Github/DawnGBC/Dawn/DawnBsp\timebase.c ****         {
  88:C:/Users/leonardo/Desktop/Code/Github/DawnGBC/Dawn/DawnBsp\timebase.c ****             isr_cnt = 0;
 307              		.loc 1 88 21
 308 0034 174B     		ldr	r3, .L15+4
 309 0036 0022     		movs	r2, #0
 310 0038 1A70     		strb	r2, [r3]
  89:C:/Users/leonardo/Desktop/Code/Github/DawnGBC/Dawn/DawnBsp\timebase.c ****             for(i = 0; i < TOTAL_TIMEOUT_MODULE; i++)
 311              		.loc 1 89 19
 312 003a 0023     		movs	r3, #0
 313 003c FB71     		strb	r3, [r7, #7]
 314              		.loc 1 89 13
 315 003e 20E0     		b	.L11
 316              	.L13:
  90:C:/Users/leonardo/Desktop/Code/Github/DawnGBC/Dawn/DawnBsp\timebase.c ****             {
  91:C:/Users/leonardo/Desktop/Code/Github/DawnGBC/Dawn/DawnBsp\timebase.c ****                 if(TimeOutArray[i].en)
 317              		.loc 1 91 35
 318 0040 FA79     		ldrb	r2, [r7, #7]	@ zero_extendqisi2
 319 0042 1549     		ldr	r1, .L15+8
 320 0044 1346     		mov	r3, r2
 321 0046 5B00     		lsls	r3, r3, #1
 322 0048 1344     		add	r3, r3, r2
 323 004a 5B00     		lsls	r3, r3, #1
 324 004c 0B44     		add	r3, r3, r1
 325 004e 1B78     		ldrb	r3, [r3]	@ zero_extendqisi2
 326              		.loc 1 91 19
 327 0050 002B     		cmp	r3, #0
 328 0052 13D0     		beq	.L12
  92:C:/Users/leonardo/Desktop/Code/Github/DawnGBC/Dawn/DawnBsp\timebase.c ****                 {
  93:C:/Users/leonardo/Desktop/Code/Github/DawnGBC/Dawn/DawnBsp\timebase.c ****                     TimeOutArray[i].cnt++;
 329              		.loc 1 93 36
 330 0054 FA79     		ldrb	r2, [r7, #7]	@ zero_extendqisi2
 331 0056 1049     		ldr	r1, .L15+8
 332 0058 1346     		mov	r3, r2
 333 005a 5B00     		lsls	r3, r3, #1
 334 005c 1344     		add	r3, r3, r2
 335 005e 5B00     		lsls	r3, r3, #1
 336 0060 0B44     		add	r3, r3, r1
 337 0062 0233     		adds	r3, r3, #2
 338 0064 1B88     		ldrh	r3, [r3]
 339              		.loc 1 93 40
 340 0066 0133     		adds	r3, r3, #1
 341 0068 98B2     		uxth	r0, r3
 342 006a 0B49     		ldr	r1, .L15+8
 343 006c 1346     		mov	r3, r2
 344 006e 5B00     		lsls	r3, r3, #1
 345 0070 1344     		add	r3, r3, r2
 346 0072 5B00     		lsls	r3, r3, #1
 347 0074 0B44     		add	r3, r3, r1
 348 0076 0233     		adds	r3, r3, #2
 349 0078 0246     		mov	r2, r0	@ movhi
 350 007a 1A80     		strh	r2, [r3]	@ movhi
 351              	.L12:
  89:C:/Users/leonardo/Desktop/Code/Github/DawnGBC/Dawn/DawnBsp\timebase.c ****             {
 352              		.loc 1 89 51 discriminator 2
 353 007c FB79     		ldrb	r3, [r7, #7]	@ zero_extendqisi2
 354 007e 0133     		adds	r3, r3, #1
 355 0080 FB71     		strb	r3, [r7, #7]
 356              	.L11:
  89:C:/Users/leonardo/Desktop/Code/Github/DawnGBC/Dawn/DawnBsp\timebase.c ****             {
 357              		.loc 1 89 13 discriminator 1
 358 0082 FB79     		ldrb	r3, [r7, #7]	@ zero_extendqisi2
 359 0084 022B     		cmp	r3, #2
 360 0086 DBD9     		bls	.L13
 361              	.L14:
  94:C:/Users/leonardo/Desktop/Code/Github/DawnGBC/Dawn/DawnBsp\timebase.c ****                 }
  95:C:/Users/leonardo/Desktop/Code/Github/DawnGBC/Dawn/DawnBsp\timebase.c ****             }
  96:C:/Users/leonardo/Desktop/Code/Github/DawnGBC/Dawn/DawnBsp\timebase.c ****         }
  97:C:/Users/leonardo/Desktop/Code/Github/DawnGBC/Dawn/DawnBsp\timebase.c ****     }
  98:C:/Users/leonardo/Desktop/Code/Github/DawnGBC/Dawn/DawnBsp\timebase.c **** }
 362              		.loc 1 98 1
 363 0088 00BF     		nop
 364 008a 0837     		adds	r7, r7, #8
 365              		.cfi_def_cfa_offset 8
 366 008c BD46     		mov	sp, r7
 367              		.cfi_def_cfa_register 13
 368              		@ sp needed
 369 008e 80BD     		pop	{r7, pc}
 370              	.L16:
 371              		.align	2
 372              	.L15:
 373 0090 00200040 		.word	1073750016
 374 0094 00000000 		.word	isr_cnt.11230
 375 0098 00000000 		.word	TimeOutArray
 376              		.cfi_endproc
 377              	.LFE160:
 379              		.section	.bss.isr_cnt.11230,"aw",%nobits
 382              	isr_cnt.11230:
 383 0000 00       		.space	1
 384              		.text
 385              	.Letext0:
 386              		.file 2 "c:\\users\\leonardo\\desktop\\gd32embeddedbuilder_v1.5.6_rel\\tools\\gnu tools arm embedd
 387              		.file 3 "c:\\users\\leonardo\\desktop\\gd32embeddedbuilder_v1.5.6_rel\\tools\\gnu tools arm embedd
 388              		.file 4 "c:\\users\\leonardo\\desktop\\gd32embeddedbuilder_v1.5.6_rel\\tools\\gnu tools arm embedd
 389              		.file 5 "c:\\users\\leonardo\\desktop\\gd32embeddedbuilder_v1.5.6_rel\\tools\\gnu tools arm embedd
 390              		.file 6 "c:\\users\\leonardo\\desktop\\gd32embeddedbuilder_v1.5.6_rel\\tools\\gnu tools arm embedd
 391              		.file 7 "c:\\users\\leonardo\\desktop\\gd32embeddedbuilder_v1.5.6_rel\\tools\\gnu tools arm embedd
 392              		.file 8 "c:\\users\\leonardo\\desktop\\gd32embeddedbuilder_v1.5.6_rel\\tools\\gnu tools arm embedd
 393              		.file 9 "c:\\users\\leonardo\\desktop\\gd32embeddedbuilder_v1.5.6_rel\\tools\\gnu tools arm embedd
 394              		.file 10 "../../CMSIS/gd32f4xx.h"
 395              		.file 11 "../../CMSIS/DSP/Include/core_cm4.h"
 396              		.file 12 "../../CMSIS/system_gd32f4xx.h"
 397              		.file 13 "../../Libraries/FWLIB/inc/gd32f4xx_rcu.h"
 398              		.file 14 "../../Libraries/FWLIB/inc/gd32f4xx_timer.h"
 399              		.file 15 "../../Dawn/DawnBLDC/dawn_bldc_math.h"
 400              		.file 16 "../../Dawn/DawnLib/dawn_lib.h"
 401              		.file 17 "../../Dawn/DawnBsp/timebase.h"
 402              		.file 18 "../../Dawn/DawnCom/unpack.h"
 403              		.file 19 "../../Dawn/DawnDevice/icm206xx.h"
 404              		.file 20 "../../Dawn/DawnGimbal/dawn_gimbal_math.h"
 405              		.file 21 "../../Dawn/DawnGimbal/dawn_gimbal_system.h"
 406              		.file 22 "../../Dawn/DawnMain/dawn_function.h"
 407              		.file 23 "../../Dawn/DawnBsp/gpio.h"