   1              		.cpu cortex-m4
   2              		.eabi_attribute 20, 1
   3              		.eabi_attribute 21, 1
   4              		.eabi_attribute 23, 3
   5              		.eabi_attribute 24, 1
   6              		.eabi_attribute 25, 1
   7              		.eabi_attribute 26, 1
   8              		.eabi_attribute 30, 6
   9              		.eabi_attribute 34, 1
  10              		.eabi_attribute 18, 4
  11              		.file	"gd32f4xx_dma.c"
  12              		.text
  13              	.Ltext0:
  14              		.cfi_sections	.debug_frame
  15              		.section	.text.dma_deinit,"ax",%progbits
  16              		.align	1
  17              		.global	dma_deinit
  18              		.arch armv7e-m
  19              		.syntax unified
  20              		.thumb
  21              		.thumb_func
  22              		.fpu softvfp
  24              	dma_deinit:
  25              	.LFB123:
  26              		.file 1 "C:/Users/leonardo/Desktop/Code/Github/DawnGBC/Libraries/FWLIB/src/gd32f4xx_dma.c"
   1:C:/Users/leonardo/Desktop/Code/Github/DawnGBC/Libraries/FWLIB/src\gd32f4xx_dma.c **** /*!
   2:C:/Users/leonardo/Desktop/Code/Github/DawnGBC/Libraries/FWLIB/src\gd32f4xx_dma.c ****     \file  gd32f4xx_dma.c
   3:C:/Users/leonardo/Desktop/Code/Github/DawnGBC/Libraries/FWLIB/src\gd32f4xx_dma.c ****     \brief DMA driver
   4:C:/Users/leonardo/Desktop/Code/Github/DawnGBC/Libraries/FWLIB/src\gd32f4xx_dma.c **** */
   5:C:/Users/leonardo/Desktop/Code/Github/DawnGBC/Libraries/FWLIB/src\gd32f4xx_dma.c **** 
   6:C:/Users/leonardo/Desktop/Code/Github/DawnGBC/Libraries/FWLIB/src\gd32f4xx_dma.c **** /*
   7:C:/Users/leonardo/Desktop/Code/Github/DawnGBC/Libraries/FWLIB/src\gd32f4xx_dma.c ****     Copyright (C) 2016 GigaDevice
   8:C:/Users/leonardo/Desktop/Code/Github/DawnGBC/Libraries/FWLIB/src\gd32f4xx_dma.c **** 
   9:C:/Users/leonardo/Desktop/Code/Github/DawnGBC/Libraries/FWLIB/src\gd32f4xx_dma.c ****     2016-08-15, V1.0.1, firmware for GD32F4xx		
  10:C:/Users/leonardo/Desktop/Code/Github/DawnGBC/Libraries/FWLIB/src\gd32f4xx_dma.c **** */
  11:C:/Users/leonardo/Desktop/Code/Github/DawnGBC/Libraries/FWLIB/src\gd32f4xx_dma.c **** 
  12:C:/Users/leonardo/Desktop/Code/Github/DawnGBC/Libraries/FWLIB/src\gd32f4xx_dma.c **** #include "gd32f4xx_dma.h"
  13:C:/Users/leonardo/Desktop/Code/Github/DawnGBC/Libraries/FWLIB/src\gd32f4xx_dma.c **** 
  14:C:/Users/leonardo/Desktop/Code/Github/DawnGBC/Libraries/FWLIB/src\gd32f4xx_dma.c **** /*  DMA register bit offset */
  15:C:/Users/leonardo/Desktop/Code/Github/DawnGBC/Libraries/FWLIB/src\gd32f4xx_dma.c **** #define CHXCTL_PERIEN_OFFSET            ((uint32_t)25U)
  16:C:/Users/leonardo/Desktop/Code/Github/DawnGBC/Libraries/FWLIB/src\gd32f4xx_dma.c **** 
  17:C:/Users/leonardo/Desktop/Code/Github/DawnGBC/Libraries/FWLIB/src\gd32f4xx_dma.c **** /*!
  18:C:/Users/leonardo/Desktop/Code/Github/DawnGBC/Libraries/FWLIB/src\gd32f4xx_dma.c ****     \brief      deinitialize DMA a channel registers
  19:C:/Users/leonardo/Desktop/Code/Github/DawnGBC/Libraries/FWLIB/src\gd32f4xx_dma.c ****     \param[in]  dma_periph: DMAx(x=0,1)
  20:C:/Users/leonardo/Desktop/Code/Github/DawnGBC/Libraries/FWLIB/src\gd32f4xx_dma.c ****       \arg        DMAx(x=0,1)
  21:C:/Users/leonardo/Desktop/Code/Github/DawnGBC/Libraries/FWLIB/src\gd32f4xx_dma.c ****     \param[in]  channelx: specify which DMA channel is deinitialized
  22:C:/Users/leonardo/Desktop/Code/Github/DawnGBC/Libraries/FWLIB/src\gd32f4xx_dma.c ****       \arg        DMA_CHx(x=0..7)
  23:C:/Users/leonardo/Desktop/Code/Github/DawnGBC/Libraries/FWLIB/src\gd32f4xx_dma.c ****     \param[out] none
  24:C:/Users/leonardo/Desktop/Code/Github/DawnGBC/Libraries/FWLIB/src\gd32f4xx_dma.c ****     \retval     none
  25:C:/Users/leonardo/Desktop/Code/Github/DawnGBC/Libraries/FWLIB/src\gd32f4xx_dma.c **** */
  26:C:/Users/leonardo/Desktop/Code/Github/DawnGBC/Libraries/FWLIB/src\gd32f4xx_dma.c **** void dma_deinit(uint32_t dma_periph,dma_channel_enum channelx)
  27:C:/Users/leonardo/Desktop/Code/Github/DawnGBC/Libraries/FWLIB/src\gd32f4xx_dma.c **** {
  27              		.loc 1 27 1
  28              		.cfi_startproc
  29              		@ args = 0, pretend = 0, frame = 8
  30              		@ frame_needed = 1, uses_anonymous_args = 0
  31              		@ link register save eliminated.
  32 0000 80B4     		push	{r7}
  33              		.cfi_def_cfa_offset 4
  34              		.cfi_offset 7, -4
  35 0002 83B0     		sub	sp, sp, #12
  36              		.cfi_def_cfa_offset 16
  37 0004 00AF     		add	r7, sp, #0
  38              		.cfi_def_cfa_register 7
  39 0006 7860     		str	r0, [r7, #4]
  40 0008 0B46     		mov	r3, r1
  41 000a FB70     		strb	r3, [r7, #3]
  28:C:/Users/leonardo/Desktop/Code/Github/DawnGBC/Libraries/FWLIB/src\gd32f4xx_dma.c ****     /* disable DMA a channel */
  29:C:/Users/leonardo/Desktop/Code/Github/DawnGBC/Libraries/FWLIB/src\gd32f4xx_dma.c ****     DMA_CHCTL(dma_periph,channelx) &= ~DMA_CHXCTL_CHEN;
  42              		.loc 1 29 36
  43 000c FA78     		ldrb	r2, [r7, #3]	@ zero_extendqisi2
  44 000e 1346     		mov	r3, r2
  45 0010 5B00     		lsls	r3, r3, #1
  46 0012 1344     		add	r3, r3, r2
  47 0014 DB00     		lsls	r3, r3, #3
  48 0016 1A46     		mov	r2, r3
  49 0018 7B68     		ldr	r3, [r7, #4]
  50 001a 1344     		add	r3, r3, r2
  51 001c 1033     		adds	r3, r3, #16
  52 001e 1968     		ldr	r1, [r3]
  53 0020 FA78     		ldrb	r2, [r7, #3]	@ zero_extendqisi2
  54 0022 1346     		mov	r3, r2
  55 0024 5B00     		lsls	r3, r3, #1
  56 0026 1344     		add	r3, r3, r2
  57 0028 DB00     		lsls	r3, r3, #3
  58 002a 1A46     		mov	r2, r3
  59 002c 7B68     		ldr	r3, [r7, #4]
  60 002e 1344     		add	r3, r3, r2
  61 0030 1033     		adds	r3, r3, #16
  62 0032 1A46     		mov	r2, r3
  63 0034 21F00103 		bic	r3, r1, #1
  64 0038 1360     		str	r3, [r2]
  30:C:/Users/leonardo/Desktop/Code/Github/DawnGBC/Libraries/FWLIB/src\gd32f4xx_dma.c ****     /* reset DMA channel registers */
  31:C:/Users/leonardo/Desktop/Code/Github/DawnGBC/Libraries/FWLIB/src\gd32f4xx_dma.c ****     DMA_CHCTL(dma_periph,channelx) = DMA_CHCTL_RESET_VALUE;
  65              		.loc 1 31 5
  66 003a FA78     		ldrb	r2, [r7, #3]	@ zero_extendqisi2
  67 003c 1346     		mov	r3, r2
  68 003e 5B00     		lsls	r3, r3, #1
  69 0040 1344     		add	r3, r3, r2
  70 0042 DB00     		lsls	r3, r3, #3
  71 0044 1A46     		mov	r2, r3
  72 0046 7B68     		ldr	r3, [r7, #4]
  73 0048 1344     		add	r3, r3, r2
  74 004a 1033     		adds	r3, r3, #16
  75 004c 1A46     		mov	r2, r3
  76              		.loc 1 31 36
  77 004e 0023     		movs	r3, #0
  78 0050 1360     		str	r3, [r2]
  32:C:/Users/leonardo/Desktop/Code/Github/DawnGBC/Libraries/FWLIB/src\gd32f4xx_dma.c ****     DMA_CHCNT(dma_periph,channelx) = DMA_CHCNT_RESET_VALUE;
  79              		.loc 1 32 5
  80 0052 FA78     		ldrb	r2, [r7, #3]	@ zero_extendqisi2
  81 0054 1346     		mov	r3, r2
  82 0056 5B00     		lsls	r3, r3, #1
  83 0058 1344     		add	r3, r3, r2
  84 005a DB00     		lsls	r3, r3, #3
  85 005c 1A46     		mov	r2, r3
  86 005e 7B68     		ldr	r3, [r7, #4]
  87 0060 1344     		add	r3, r3, r2
  88 0062 1433     		adds	r3, r3, #20
  89 0064 1A46     		mov	r2, r3
  90              		.loc 1 32 36
  91 0066 0023     		movs	r3, #0
  92 0068 1360     		str	r3, [r2]
  33:C:/Users/leonardo/Desktop/Code/Github/DawnGBC/Libraries/FWLIB/src\gd32f4xx_dma.c ****     DMA_CHPADDR(dma_periph,channelx) = DMA_CHPADDR_RESET_VALUE;
  93              		.loc 1 33 5
  94 006a FA78     		ldrb	r2, [r7, #3]	@ zero_extendqisi2
  95 006c 1346     		mov	r3, r2
  96 006e 5B00     		lsls	r3, r3, #1
  97 0070 1344     		add	r3, r3, r2
  98 0072 DB00     		lsls	r3, r3, #3
  99 0074 1A46     		mov	r2, r3
 100 0076 7B68     		ldr	r3, [r7, #4]
 101 0078 1344     		add	r3, r3, r2
 102 007a 1833     		adds	r3, r3, #24
 103 007c 1A46     		mov	r2, r3
 104              		.loc 1 33 38
 105 007e 0023     		movs	r3, #0
 106 0080 1360     		str	r3, [r2]
  34:C:/Users/leonardo/Desktop/Code/Github/DawnGBC/Libraries/FWLIB/src\gd32f4xx_dma.c ****     DMA_CHM0ADDR(dma_periph,channelx) = DMA_CHMADDR_RESET_VALUE;
 107              		.loc 1 34 5
 108 0082 FA78     		ldrb	r2, [r7, #3]	@ zero_extendqisi2
 109 0084 1346     		mov	r3, r2
 110 0086 5B00     		lsls	r3, r3, #1
 111 0088 1344     		add	r3, r3, r2
 112 008a DB00     		lsls	r3, r3, #3
 113 008c 1A46     		mov	r2, r3
 114 008e 7B68     		ldr	r3, [r7, #4]
 115 0090 1344     		add	r3, r3, r2
 116 0092 1C33     		adds	r3, r3, #28
 117 0094 1A46     		mov	r2, r3
 118              		.loc 1 34 39
 119 0096 0023     		movs	r3, #0
 120 0098 1360     		str	r3, [r2]
  35:C:/Users/leonardo/Desktop/Code/Github/DawnGBC/Libraries/FWLIB/src\gd32f4xx_dma.c ****     DMA_CHM1ADDR(dma_periph,channelx) = DMA_CHMADDR_RESET_VALUE;
 121              		.loc 1 35 5
 122 009a FA78     		ldrb	r2, [r7, #3]	@ zero_extendqisi2
 123 009c 1346     		mov	r3, r2
 124 009e 5B00     		lsls	r3, r3, #1
 125 00a0 1344     		add	r3, r3, r2
 126 00a2 DB00     		lsls	r3, r3, #3
 127 00a4 1A46     		mov	r2, r3
 128 00a6 7B68     		ldr	r3, [r7, #4]
 129 00a8 1344     		add	r3, r3, r2
 130 00aa 2033     		adds	r3, r3, #32
 131 00ac 1A46     		mov	r2, r3
 132              		.loc 1 35 39
 133 00ae 0023     		movs	r3, #0
 134 00b0 1360     		str	r3, [r2]
  36:C:/Users/leonardo/Desktop/Code/Github/DawnGBC/Libraries/FWLIB/src\gd32f4xx_dma.c ****     DMA_CHFCTL(dma_periph,channelx) = DMA_CHFCTL_RESET_VALUE;
 135              		.loc 1 36 5
 136 00b2 FA78     		ldrb	r2, [r7, #3]	@ zero_extendqisi2
 137 00b4 1346     		mov	r3, r2
 138 00b6 5B00     		lsls	r3, r3, #1
 139 00b8 1344     		add	r3, r3, r2
 140 00ba DB00     		lsls	r3, r3, #3
 141 00bc 1A46     		mov	r2, r3
 142 00be 7B68     		ldr	r3, [r7, #4]
 143 00c0 1344     		add	r3, r3, r2
 144 00c2 2433     		adds	r3, r3, #36
 145 00c4 1A46     		mov	r2, r3
 146              		.loc 1 36 37
 147 00c6 0023     		movs	r3, #0
 148 00c8 1360     		str	r3, [r2]
  37:C:/Users/leonardo/Desktop/Code/Github/DawnGBC/Libraries/FWLIB/src\gd32f4xx_dma.c ****     if(channelx < DMA_CH4){
 149              		.loc 1 37 7
 150 00ca FB78     		ldrb	r3, [r7, #3]	@ zero_extendqisi2
 151 00cc 032B     		cmp	r3, #3
 152 00ce 17D8     		bhi	.L2
  38:C:/Users/leonardo/Desktop/Code/Github/DawnGBC/Libraries/FWLIB/src\gd32f4xx_dma.c ****         DMA_INTC0(dma_periph) |= DMA_FLAG_ADD(DMA_CHINTF_RESET_VALUE,channelx);
 153              		.loc 1 38 31
 154 00d0 7B68     		ldr	r3, [r7, #4]
 155 00d2 0833     		adds	r3, r3, #8
 156 00d4 1968     		ldr	r1, [r3]
 157              		.loc 1 38 34
 158 00d6 FA78     		ldrb	r2, [r7, #3]	@ zero_extendqisi2
 159 00d8 1346     		mov	r3, r2
 160 00da 5B00     		lsls	r3, r3, #1
 161 00dc 1344     		add	r3, r3, r2
 162 00de 5B00     		lsls	r3, r3, #1
 163 00e0 1A46     		mov	r2, r3
 164 00e2 FB78     		ldrb	r3, [r7, #3]	@ zero_extendqisi2
 165 00e4 5B08     		lsrs	r3, r3, #1
 166 00e6 DBB2     		uxtb	r3, r3
 167 00e8 03F00103 		and	r3, r3, #1
 168 00ec 9B00     		lsls	r3, r3, #2
 169 00ee 1344     		add	r3, r3, r2
 170 00f0 3D22     		movs	r2, #61
 171 00f2 02FA03F3 		lsl	r3, r2, r3
 172              		.loc 1 38 31
 173 00f6 7A68     		ldr	r2, [r7, #4]
 174 00f8 0832     		adds	r2, r2, #8
 175 00fa 0B43     		orrs	r3, r3, r1
 176 00fc 1360     		str	r3, [r2]
  39:C:/Users/leonardo/Desktop/Code/Github/DawnGBC/Libraries/FWLIB/src\gd32f4xx_dma.c ****     }else{
  40:C:/Users/leonardo/Desktop/Code/Github/DawnGBC/Libraries/FWLIB/src\gd32f4xx_dma.c ****         channelx -= (dma_channel_enum)4;
  41:C:/Users/leonardo/Desktop/Code/Github/DawnGBC/Libraries/FWLIB/src\gd32f4xx_dma.c ****         DMA_INTC1(dma_periph) |= DMA_FLAG_ADD(DMA_CHINTF_RESET_VALUE,channelx);
  42:C:/Users/leonardo/Desktop/Code/Github/DawnGBC/Libraries/FWLIB/src\gd32f4xx_dma.c ****     }
  43:C:/Users/leonardo/Desktop/Code/Github/DawnGBC/Libraries/FWLIB/src\gd32f4xx_dma.c **** }
 177              		.loc 1 43 1
 178 00fe 19E0     		b	.L4
 179              	.L2:
  40:C:/Users/leonardo/Desktop/Code/Github/DawnGBC/Libraries/FWLIB/src\gd32f4xx_dma.c ****         DMA_INTC1(dma_periph) |= DMA_FLAG_ADD(DMA_CHINTF_RESET_VALUE,channelx);
 180              		.loc 1 40 18
 181 0100 FB78     		ldrb	r3, [r7, #3]
 182 0102 043B     		subs	r3, r3, #4
 183 0104 FB70     		strb	r3, [r7, #3]
  41:C:/Users/leonardo/Desktop/Code/Github/DawnGBC/Libraries/FWLIB/src\gd32f4xx_dma.c ****     }
 184              		.loc 1 41 31
 185 0106 7B68     		ldr	r3, [r7, #4]
 186 0108 0C33     		adds	r3, r3, #12
 187 010a 1968     		ldr	r1, [r3]
  41:C:/Users/leonardo/Desktop/Code/Github/DawnGBC/Libraries/FWLIB/src\gd32f4xx_dma.c ****     }
 188              		.loc 1 41 34
 189 010c FA78     		ldrb	r2, [r7, #3]	@ zero_extendqisi2
 190 010e 1346     		mov	r3, r2
 191 0110 5B00     		lsls	r3, r3, #1
 192 0112 1344     		add	r3, r3, r2
 193 0114 5B00     		lsls	r3, r3, #1
 194 0116 1A46     		mov	r2, r3
 195 0118 FB78     		ldrb	r3, [r7, #3]	@ zero_extendqisi2
 196 011a 5B08     		lsrs	r3, r3, #1
 197 011c DBB2     		uxtb	r3, r3
 198 011e 03F00103 		and	r3, r3, #1
 199 0122 9B00     		lsls	r3, r3, #2
 200 0124 1344     		add	r3, r3, r2
 201 0126 3D22     		movs	r2, #61
 202 0128 02FA03F3 		lsl	r3, r2, r3
  41:C:/Users/leonardo/Desktop/Code/Github/DawnGBC/Libraries/FWLIB/src\gd32f4xx_dma.c ****     }
 203              		.loc 1 41 31
 204 012c 7A68     		ldr	r2, [r7, #4]
 205 012e 0C32     		adds	r2, r2, #12
 206 0130 0B43     		orrs	r3, r3, r1
 207 0132 1360     		str	r3, [r2]
 208              	.L4:
 209              		.loc 1 43 1
 210 0134 00BF     		nop
 211 0136 0C37     		adds	r7, r7, #12
 212              		.cfi_def_cfa_offset 4
 213 0138 BD46     		mov	sp, r7
 214              		.cfi_def_cfa_register 13
 215              		@ sp needed
 216 013a 80BC     		pop	{r7}
 217              		.cfi_restore 7
 218              		.cfi_def_cfa_offset 0
 219 013c 7047     		bx	lr
 220              		.cfi_endproc
 221              	.LFE123:
 223              		.section	.text.dma_single_data_mode_init,"ax",%progbits
 224              		.align	1
 225              		.global	dma_single_data_mode_init
 226              		.syntax unified
 227              		.thumb
 228              		.thumb_func
 229              		.fpu softvfp
 231              	dma_single_data_mode_init:
 232              	.LFB124:
  44:C:/Users/leonardo/Desktop/Code/Github/DawnGBC/Libraries/FWLIB/src\gd32f4xx_dma.c **** 
  45:C:/Users/leonardo/Desktop/Code/Github/DawnGBC/Libraries/FWLIB/src\gd32f4xx_dma.c **** /*!
  46:C:/Users/leonardo/Desktop/Code/Github/DawnGBC/Libraries/FWLIB/src\gd32f4xx_dma.c ****     \brief      initialize DMA single data mode
  47:C:/Users/leonardo/Desktop/Code/Github/DawnGBC/Libraries/FWLIB/src\gd32f4xx_dma.c ****     \param[in]  dma_periph: DMAx(x=0,1)
  48:C:/Users/leonardo/Desktop/Code/Github/DawnGBC/Libraries/FWLIB/src\gd32f4xx_dma.c ****       \arg        DMAx(x=0,1)
  49:C:/Users/leonardo/Desktop/Code/Github/DawnGBC/Libraries/FWLIB/src\gd32f4xx_dma.c ****     \param[in]  channelx: specify which DMA channel is initialized
  50:C:/Users/leonardo/Desktop/Code/Github/DawnGBC/Libraries/FWLIB/src\gd32f4xx_dma.c ****       \arg        DMA_CHx(x=0..7)
  51:C:/Users/leonardo/Desktop/Code/Github/DawnGBC/Libraries/FWLIB/src\gd32f4xx_dma.c ****     \param[in]  init_struct: the data needed to initialize DMA single data mode
  52:C:/Users/leonardo/Desktop/Code/Github/DawnGBC/Libraries/FWLIB/src\gd32f4xx_dma.c ****                   periph_addr: peripheral base address
  53:C:/Users/leonardo/Desktop/Code/Github/DawnGBC/Libraries/FWLIB/src\gd32f4xx_dma.c ****                   periph_memory_width: DMA_PERIPH_WIDTH_8BIT,DMA_PERIPH_WIDTH_16BIT,DMA_PERIPH_WIDT
  54:C:/Users/leonardo/Desktop/Code/Github/DawnGBC/Libraries/FWLIB/src\gd32f4xx_dma.c ****                   periph_inc: DMA_PERIPH_INCREASE_ENABLE,DMA_PERIPH_INCREASE_DISABLE,DMA_PERIPH_INC
  55:C:/Users/leonardo/Desktop/Code/Github/DawnGBC/Libraries/FWLIB/src\gd32f4xx_dma.c ****                   memory0_addr: memory base address
  56:C:/Users/leonardo/Desktop/Code/Github/DawnGBC/Libraries/FWLIB/src\gd32f4xx_dma.c ****                   memory_inc: DMA_MEMORY_INCREASE_ENABLE,DMA_MEMORY_INCREASE_DISABLE
  57:C:/Users/leonardo/Desktop/Code/Github/DawnGBC/Libraries/FWLIB/src\gd32f4xx_dma.c ****                   direction: DMA_PERIPH_TO_MEMORY,DMA_MEMORY_TO_PERIPH,DMA_MEMORY_TO_MEMORY
  58:C:/Users/leonardo/Desktop/Code/Github/DawnGBC/Libraries/FWLIB/src\gd32f4xx_dma.c ****                   number: the number of remaining data to be transferred by the DMA
  59:C:/Users/leonardo/Desktop/Code/Github/DawnGBC/Libraries/FWLIB/src\gd32f4xx_dma.c ****                   priority: DMA_PRIORITY_LOW,DMA_PRIORITY_MEDIUM,DMA_PRIORITY_HIGH,DMA_PRIORITY_ULT
  60:C:/Users/leonardo/Desktop/Code/Github/DawnGBC/Libraries/FWLIB/src\gd32f4xx_dma.c ****                   circular_mode: DMA_CIRCULAR_MODE_ENABLE,DMA_CIRCULAR_MODE_DISABLE
  61:C:/Users/leonardo/Desktop/Code/Github/DawnGBC/Libraries/FWLIB/src\gd32f4xx_dma.c ****     \param[out] none
  62:C:/Users/leonardo/Desktop/Code/Github/DawnGBC/Libraries/FWLIB/src\gd32f4xx_dma.c ****     \retval     none
  63:C:/Users/leonardo/Desktop/Code/Github/DawnGBC/Libraries/FWLIB/src\gd32f4xx_dma.c **** */
  64:C:/Users/leonardo/Desktop/Code/Github/DawnGBC/Libraries/FWLIB/src\gd32f4xx_dma.c **** void dma_single_data_mode_init(uint32_t dma_periph,dma_channel_enum channelx,dma_single_data_parame
  65:C:/Users/leonardo/Desktop/Code/Github/DawnGBC/Libraries/FWLIB/src\gd32f4xx_dma.c **** {
 233              		.loc 1 65 1
 234              		.cfi_startproc
 235              		@ args = 36, pretend = 8, frame = 16
 236              		@ frame_needed = 1, uses_anonymous_args = 0
 237              		@ link register save eliminated.
 238 0000 82B0     		sub	sp, sp, #8
 239              		.cfi_def_cfa_offset 8
 240 0002 80B4     		push	{r7}
 241              		.cfi_def_cfa_offset 12
 242              		.cfi_offset 7, -12
 243 0004 85B0     		sub	sp, sp, #20
 244              		.cfi_def_cfa_offset 32
 245 0006 00AF     		add	r7, sp, #0
 246              		.cfi_def_cfa_register 7
 247 0008 7860     		str	r0, [r7, #4]
 248 000a 07F11800 		add	r0, r7, #24
 249 000e 80E80C00 		stm	r0, {r2, r3}
 250 0012 0B46     		mov	r3, r1
 251 0014 FB70     		strb	r3, [r7, #3]
  66:C:/Users/leonardo/Desktop/Code/Github/DawnGBC/Libraries/FWLIB/src\gd32f4xx_dma.c ****     uint32_t ctl;
  67:C:/Users/leonardo/Desktop/Code/Github/DawnGBC/Libraries/FWLIB/src\gd32f4xx_dma.c ****     
  68:C:/Users/leonardo/Desktop/Code/Github/DawnGBC/Libraries/FWLIB/src\gd32f4xx_dma.c ****     /* select single data mode */
  69:C:/Users/leonardo/Desktop/Code/Github/DawnGBC/Libraries/FWLIB/src\gd32f4xx_dma.c ****     DMA_CHFCTL(dma_periph,channelx) &= ~DMA_CHXFCTL_MDMEN;
 252              		.loc 1 69 37
 253 0016 FA78     		ldrb	r2, [r7, #3]	@ zero_extendqisi2
 254 0018 1346     		mov	r3, r2
 255 001a 5B00     		lsls	r3, r3, #1
 256 001c 1344     		add	r3, r3, r2
 257 001e DB00     		lsls	r3, r3, #3
 258 0020 1A46     		mov	r2, r3
 259 0022 7B68     		ldr	r3, [r7, #4]
 260 0024 1344     		add	r3, r3, r2
 261 0026 2433     		adds	r3, r3, #36
 262 0028 1968     		ldr	r1, [r3]
 263 002a FA78     		ldrb	r2, [r7, #3]	@ zero_extendqisi2
 264 002c 1346     		mov	r3, r2
 265 002e 5B00     		lsls	r3, r3, #1
 266 0030 1344     		add	r3, r3, r2
 267 0032 DB00     		lsls	r3, r3, #3
 268 0034 1A46     		mov	r2, r3
 269 0036 7B68     		ldr	r3, [r7, #4]
 270 0038 1344     		add	r3, r3, r2
 271 003a 2433     		adds	r3, r3, #36
 272 003c 1A46     		mov	r2, r3
 273 003e 21F00403 		bic	r3, r1, #4
 274 0042 1360     		str	r3, [r2]
  70:C:/Users/leonardo/Desktop/Code/Github/DawnGBC/Libraries/FWLIB/src\gd32f4xx_dma.c ****     
  71:C:/Users/leonardo/Desktop/Code/Github/DawnGBC/Libraries/FWLIB/src\gd32f4xx_dma.c ****     /* configure peripheral base address */
  72:C:/Users/leonardo/Desktop/Code/Github/DawnGBC/Libraries/FWLIB/src\gd32f4xx_dma.c ****     DMA_CHPADDR(dma_periph,channelx) = init_struct.periph_addr;
 275              		.loc 1 72 5
 276 0044 FA78     		ldrb	r2, [r7, #3]	@ zero_extendqisi2
 277 0046 1346     		mov	r3, r2
 278 0048 5B00     		lsls	r3, r3, #1
 279 004a 1344     		add	r3, r3, r2
 280 004c DB00     		lsls	r3, r3, #3
 281 004e 1A46     		mov	r2, r3
 282 0050 7B68     		ldr	r3, [r7, #4]
 283 0052 1344     		add	r3, r3, r2
 284 0054 1833     		adds	r3, r3, #24
 285 0056 1A46     		mov	r2, r3
 286              		.loc 1 72 51
 287 0058 BB69     		ldr	r3, [r7, #24]
 288              		.loc 1 72 38
 289 005a 1360     		str	r3, [r2]
  73:C:/Users/leonardo/Desktop/Code/Github/DawnGBC/Libraries/FWLIB/src\gd32f4xx_dma.c ****     
  74:C:/Users/leonardo/Desktop/Code/Github/DawnGBC/Libraries/FWLIB/src\gd32f4xx_dma.c ****     /* configure memory base address */
  75:C:/Users/leonardo/Desktop/Code/Github/DawnGBC/Libraries/FWLIB/src\gd32f4xx_dma.c ****     DMA_CHM0ADDR(dma_periph,channelx) = init_struct.memory0_addr;
 290              		.loc 1 75 5
 291 005c FA78     		ldrb	r2, [r7, #3]	@ zero_extendqisi2
 292 005e 1346     		mov	r3, r2
 293 0060 5B00     		lsls	r3, r3, #1
 294 0062 1344     		add	r3, r3, r2
 295 0064 DB00     		lsls	r3, r3, #3
 296 0066 1A46     		mov	r2, r3
 297 0068 7B68     		ldr	r3, [r7, #4]
 298 006a 1344     		add	r3, r3, r2
 299 006c 1C33     		adds	r3, r3, #28
 300 006e 1A46     		mov	r2, r3
 301              		.loc 1 75 52
 302 0070 3B6A     		ldr	r3, [r7, #32]
 303              		.loc 1 75 39
 304 0072 1360     		str	r3, [r2]
  76:C:/Users/leonardo/Desktop/Code/Github/DawnGBC/Libraries/FWLIB/src\gd32f4xx_dma.c ****     
  77:C:/Users/leonardo/Desktop/Code/Github/DawnGBC/Libraries/FWLIB/src\gd32f4xx_dma.c ****     /* configure the number of remaining data to be transferred */
  78:C:/Users/leonardo/Desktop/Code/Github/DawnGBC/Libraries/FWLIB/src\gd32f4xx_dma.c ****     DMA_CHCNT(dma_periph,channelx) = init_struct.number;
 305              		.loc 1 78 5
 306 0074 FA78     		ldrb	r2, [r7, #3]	@ zero_extendqisi2
 307 0076 1346     		mov	r3, r2
 308 0078 5B00     		lsls	r3, r3, #1
 309 007a 1344     		add	r3, r3, r2
 310 007c DB00     		lsls	r3, r3, #3
 311 007e 1A46     		mov	r2, r3
 312 0080 7B68     		ldr	r3, [r7, #4]
 313 0082 1344     		add	r3, r3, r2
 314 0084 1433     		adds	r3, r3, #20
 315 0086 1A46     		mov	r2, r3
 316              		.loc 1 78 49
 317 0088 7B6B     		ldr	r3, [r7, #52]
 318              		.loc 1 78 36
 319 008a 1360     		str	r3, [r2]
  79:C:/Users/leonardo/Desktop/Code/Github/DawnGBC/Libraries/FWLIB/src\gd32f4xx_dma.c ****     
  80:C:/Users/leonardo/Desktop/Code/Github/DawnGBC/Libraries/FWLIB/src\gd32f4xx_dma.c ****     /* configure peripheral and memory transfer width,channel priotity,transfer mode */
  81:C:/Users/leonardo/Desktop/Code/Github/DawnGBC/Libraries/FWLIB/src\gd32f4xx_dma.c ****     ctl = DMA_CHCTL(dma_periph,channelx);
 320              		.loc 1 81 11
 321 008c FA78     		ldrb	r2, [r7, #3]	@ zero_extendqisi2
 322 008e 1346     		mov	r3, r2
 323 0090 5B00     		lsls	r3, r3, #1
 324 0092 1344     		add	r3, r3, r2
 325 0094 DB00     		lsls	r3, r3, #3
 326 0096 1A46     		mov	r2, r3
 327 0098 7B68     		ldr	r3, [r7, #4]
 328 009a 1344     		add	r3, r3, r2
 329 009c 1033     		adds	r3, r3, #16
 330              		.loc 1 81 9
 331 009e 1B68     		ldr	r3, [r3]
 332 00a0 FB60     		str	r3, [r7, #12]
  82:C:/Users/leonardo/Desktop/Code/Github/DawnGBC/Libraries/FWLIB/src\gd32f4xx_dma.c ****     ctl &= ~(DMA_CHXCTL_PWIDTH | DMA_CHXCTL_MWIDTH | DMA_CHXCTL_PRIO | DMA_CHXCTL_TM);
 333              		.loc 1 82 9
 334 00a2 FB68     		ldr	r3, [r7, #12]
 335 00a4 23F45E33 		bic	r3, r3, #227328
 336 00a8 23F0C003 		bic	r3, r3, #192
 337 00ac FB60     		str	r3, [r7, #12]
  83:C:/Users/leonardo/Desktop/Code/Github/DawnGBC/Libraries/FWLIB/src\gd32f4xx_dma.c ****     ctl |= (init_struct.periph_memory_width | (init_struct.periph_memory_width << 2) | init_struct.
 338              		.loc 1 83 24
 339 00ae BA6A     		ldr	r2, [r7, #40]
 340              		.loc 1 83 59
 341 00b0 BB6A     		ldr	r3, [r7, #40]
 342              		.loc 1 83 80
 343 00b2 9B00     		lsls	r3, r3, #2
 344              		.loc 1 83 45
 345 00b4 1A43     		orrs	r2, r2, r3
 346              		.loc 1 83 99
 347 00b6 BB6B     		ldr	r3, [r7, #56]
 348              		.loc 1 83 86
 349 00b8 1A43     		orrs	r2, r2, r3
 350              		.loc 1 83 122
 351 00ba 3B6B     		ldr	r3, [r7, #48]
 352              		.loc 1 83 109
 353 00bc 1343     		orrs	r3, r3, r2
 354              		.loc 1 83 9
 355 00be FA68     		ldr	r2, [r7, #12]
 356 00c0 1343     		orrs	r3, r3, r2
 357 00c2 FB60     		str	r3, [r7, #12]
  84:C:/Users/leonardo/Desktop/Code/Github/DawnGBC/Libraries/FWLIB/src\gd32f4xx_dma.c ****     DMA_CHCTL(dma_periph,channelx) = ctl;
 358              		.loc 1 84 5
 359 00c4 FA78     		ldrb	r2, [r7, #3]	@ zero_extendqisi2
 360 00c6 1346     		mov	r3, r2
 361 00c8 5B00     		lsls	r3, r3, #1
 362 00ca 1344     		add	r3, r3, r2
 363 00cc DB00     		lsls	r3, r3, #3
 364 00ce 1A46     		mov	r2, r3
 365 00d0 7B68     		ldr	r3, [r7, #4]
 366 00d2 1344     		add	r3, r3, r2
 367 00d4 1033     		adds	r3, r3, #16
 368 00d6 1A46     		mov	r2, r3
 369              		.loc 1 84 36
 370 00d8 FB68     		ldr	r3, [r7, #12]
 371 00da 1360     		str	r3, [r2]
  85:C:/Users/leonardo/Desktop/Code/Github/DawnGBC/Libraries/FWLIB/src\gd32f4xx_dma.c **** 
  86:C:/Users/leonardo/Desktop/Code/Github/DawnGBC/Libraries/FWLIB/src\gd32f4xx_dma.c ****     /* configure peripheral increasing mode */
  87:C:/Users/leonardo/Desktop/Code/Github/DawnGBC/Libraries/FWLIB/src\gd32f4xx_dma.c ****     if(DMA_PERIPH_INCREASE_ENABLE == init_struct.periph_inc){
 372              		.loc 1 87 49
 373 00dc FB69     		ldr	r3, [r7, #28]
 374              		.loc 1 87 7
 375 00de 002B     		cmp	r3, #0
 376 00e0 17D1     		bne	.L6
  88:C:/Users/leonardo/Desktop/Code/Github/DawnGBC/Libraries/FWLIB/src\gd32f4xx_dma.c ****         DMA_CHCTL(dma_periph,channelx) |= DMA_CHXCTL_PNAGA;
 377              		.loc 1 88 40
 378 00e2 FA78     		ldrb	r2, [r7, #3]	@ zero_extendqisi2
 379 00e4 1346     		mov	r3, r2
 380 00e6 5B00     		lsls	r3, r3, #1
 381 00e8 1344     		add	r3, r3, r2
 382 00ea DB00     		lsls	r3, r3, #3
 383 00ec 1A46     		mov	r2, r3
 384 00ee 7B68     		ldr	r3, [r7, #4]
 385 00f0 1344     		add	r3, r3, r2
 386 00f2 1033     		adds	r3, r3, #16
 387 00f4 1968     		ldr	r1, [r3]
 388 00f6 FA78     		ldrb	r2, [r7, #3]	@ zero_extendqisi2
 389 00f8 1346     		mov	r3, r2
 390 00fa 5B00     		lsls	r3, r3, #1
 391 00fc 1344     		add	r3, r3, r2
 392 00fe DB00     		lsls	r3, r3, #3
 393 0100 1A46     		mov	r2, r3
 394 0102 7B68     		ldr	r3, [r7, #4]
 395 0104 1344     		add	r3, r3, r2
 396 0106 1033     		adds	r3, r3, #16
 397 0108 1A46     		mov	r2, r3
 398 010a 41F40073 		orr	r3, r1, #512
 399 010e 1360     		str	r3, [r2]
 400 0110 31E0     		b	.L7
 401              	.L6:
  89:C:/Users/leonardo/Desktop/Code/Github/DawnGBC/Libraries/FWLIB/src\gd32f4xx_dma.c ****     }else if(DMA_PERIPH_INCREASE_DISABLE == init_struct.periph_inc){
 402              		.loc 1 89 56
 403 0112 FB69     		ldr	r3, [r7, #28]
 404              		.loc 1 89 13
 405 0114 012B     		cmp	r3, #1
 406 0116 17D1     		bne	.L8
  90:C:/Users/leonardo/Desktop/Code/Github/DawnGBC/Libraries/FWLIB/src\gd32f4xx_dma.c ****         DMA_CHCTL(dma_periph,channelx) &= ~DMA_CHXCTL_PNAGA;
 407              		.loc 1 90 40
 408 0118 FA78     		ldrb	r2, [r7, #3]	@ zero_extendqisi2
 409 011a 1346     		mov	r3, r2
 410 011c 5B00     		lsls	r3, r3, #1
 411 011e 1344     		add	r3, r3, r2
 412 0120 DB00     		lsls	r3, r3, #3
 413 0122 1A46     		mov	r2, r3
 414 0124 7B68     		ldr	r3, [r7, #4]
 415 0126 1344     		add	r3, r3, r2
 416 0128 1033     		adds	r3, r3, #16
 417 012a 1968     		ldr	r1, [r3]
 418 012c FA78     		ldrb	r2, [r7, #3]	@ zero_extendqisi2
 419 012e 1346     		mov	r3, r2
 420 0130 5B00     		lsls	r3, r3, #1
 421 0132 1344     		add	r3, r3, r2
 422 0134 DB00     		lsls	r3, r3, #3
 423 0136 1A46     		mov	r2, r3
 424 0138 7B68     		ldr	r3, [r7, #4]
 425 013a 1344     		add	r3, r3, r2
 426 013c 1033     		adds	r3, r3, #16
 427 013e 1A46     		mov	r2, r3
 428 0140 21F40073 		bic	r3, r1, #512
 429 0144 1360     		str	r3, [r2]
 430 0146 16E0     		b	.L7
 431              	.L8:
  91:C:/Users/leonardo/Desktop/Code/Github/DawnGBC/Libraries/FWLIB/src\gd32f4xx_dma.c ****     }else{
  92:C:/Users/leonardo/Desktop/Code/Github/DawnGBC/Libraries/FWLIB/src\gd32f4xx_dma.c ****         DMA_CHCTL(dma_periph,channelx) |= DMA_CHXCTL_PAIF;
 432              		.loc 1 92 40
 433 0148 FA78     		ldrb	r2, [r7, #3]	@ zero_extendqisi2
 434 014a 1346     		mov	r3, r2
 435 014c 5B00     		lsls	r3, r3, #1
 436 014e 1344     		add	r3, r3, r2
 437 0150 DB00     		lsls	r3, r3, #3
 438 0152 1A46     		mov	r2, r3
 439 0154 7B68     		ldr	r3, [r7, #4]
 440 0156 1344     		add	r3, r3, r2
 441 0158 1033     		adds	r3, r3, #16
 442 015a 1968     		ldr	r1, [r3]
 443 015c FA78     		ldrb	r2, [r7, #3]	@ zero_extendqisi2
 444 015e 1346     		mov	r3, r2
 445 0160 5B00     		lsls	r3, r3, #1
 446 0162 1344     		add	r3, r3, r2
 447 0164 DB00     		lsls	r3, r3, #3
 448 0166 1A46     		mov	r2, r3
 449 0168 7B68     		ldr	r3, [r7, #4]
 450 016a 1344     		add	r3, r3, r2
 451 016c 1033     		adds	r3, r3, #16
 452 016e 1A46     		mov	r2, r3
 453 0170 41F40043 		orr	r3, r1, #32768
 454 0174 1360     		str	r3, [r2]
 455              	.L7:
  93:C:/Users/leonardo/Desktop/Code/Github/DawnGBC/Libraries/FWLIB/src\gd32f4xx_dma.c ****     }
  94:C:/Users/leonardo/Desktop/Code/Github/DawnGBC/Libraries/FWLIB/src\gd32f4xx_dma.c **** 
  95:C:/Users/leonardo/Desktop/Code/Github/DawnGBC/Libraries/FWLIB/src\gd32f4xx_dma.c ****     /* configure memory increasing mode */
  96:C:/Users/leonardo/Desktop/Code/Github/DawnGBC/Libraries/FWLIB/src\gd32f4xx_dma.c ****     if(DMA_MEMORY_INCREASE_ENABLE == init_struct.memory_inc){
 456              		.loc 1 96 49
 457 0176 7B6A     		ldr	r3, [r7, #36]
 458              		.loc 1 96 7
 459 0178 002B     		cmp	r3, #0
 460 017a 17D1     		bne	.L9
  97:C:/Users/leonardo/Desktop/Code/Github/DawnGBC/Libraries/FWLIB/src\gd32f4xx_dma.c ****         DMA_CHCTL(dma_periph,channelx) |= DMA_CHXCTL_MNAGA;
 461              		.loc 1 97 40
 462 017c FA78     		ldrb	r2, [r7, #3]	@ zero_extendqisi2
 463 017e 1346     		mov	r3, r2
 464 0180 5B00     		lsls	r3, r3, #1
 465 0182 1344     		add	r3, r3, r2
 466 0184 DB00     		lsls	r3, r3, #3
 467 0186 1A46     		mov	r2, r3
 468 0188 7B68     		ldr	r3, [r7, #4]
 469 018a 1344     		add	r3, r3, r2
 470 018c 1033     		adds	r3, r3, #16
 471 018e 1968     		ldr	r1, [r3]
 472 0190 FA78     		ldrb	r2, [r7, #3]	@ zero_extendqisi2
 473 0192 1346     		mov	r3, r2
 474 0194 5B00     		lsls	r3, r3, #1
 475 0196 1344     		add	r3, r3, r2
 476 0198 DB00     		lsls	r3, r3, #3
 477 019a 1A46     		mov	r2, r3
 478 019c 7B68     		ldr	r3, [r7, #4]
 479 019e 1344     		add	r3, r3, r2
 480 01a0 1033     		adds	r3, r3, #16
 481 01a2 1A46     		mov	r2, r3
 482 01a4 41F48063 		orr	r3, r1, #1024
 483 01a8 1360     		str	r3, [r2]
 484 01aa 16E0     		b	.L10
 485              	.L9:
  98:C:/Users/leonardo/Desktop/Code/Github/DawnGBC/Libraries/FWLIB/src\gd32f4xx_dma.c ****     }else{
  99:C:/Users/leonardo/Desktop/Code/Github/DawnGBC/Libraries/FWLIB/src\gd32f4xx_dma.c ****         DMA_CHCTL(dma_periph,channelx) &= ~DMA_CHXCTL_MNAGA;
 486              		.loc 1 99 40
 487 01ac FA78     		ldrb	r2, [r7, #3]	@ zero_extendqisi2
 488 01ae 1346     		mov	r3, r2
 489 01b0 5B00     		lsls	r3, r3, #1
 490 01b2 1344     		add	r3, r3, r2
 491 01b4 DB00     		lsls	r3, r3, #3
 492 01b6 1A46     		mov	r2, r3
 493 01b8 7B68     		ldr	r3, [r7, #4]
 494 01ba 1344     		add	r3, r3, r2
 495 01bc 1033     		adds	r3, r3, #16
 496 01be 1968     		ldr	r1, [r3]
 497 01c0 FA78     		ldrb	r2, [r7, #3]	@ zero_extendqisi2
 498 01c2 1346     		mov	r3, r2
 499 01c4 5B00     		lsls	r3, r3, #1
 500 01c6 1344     		add	r3, r3, r2
 501 01c8 DB00     		lsls	r3, r3, #3
 502 01ca 1A46     		mov	r2, r3
 503 01cc 7B68     		ldr	r3, [r7, #4]
 504 01ce 1344     		add	r3, r3, r2
 505 01d0 1033     		adds	r3, r3, #16
 506 01d2 1A46     		mov	r2, r3
 507 01d4 21F48063 		bic	r3, r1, #1024
 508 01d8 1360     		str	r3, [r2]
 509              	.L10:
 100:C:/Users/leonardo/Desktop/Code/Github/DawnGBC/Libraries/FWLIB/src\gd32f4xx_dma.c ****     }
 101:C:/Users/leonardo/Desktop/Code/Github/DawnGBC/Libraries/FWLIB/src\gd32f4xx_dma.c **** 
 102:C:/Users/leonardo/Desktop/Code/Github/DawnGBC/Libraries/FWLIB/src\gd32f4xx_dma.c ****     /* configure DMA circular mode */
 103:C:/Users/leonardo/Desktop/Code/Github/DawnGBC/Libraries/FWLIB/src\gd32f4xx_dma.c ****     if(DMA_CIRCULAR_MODE_ENABLE == init_struct.circular_mode){
 510              		.loc 1 103 47
 511 01da FB6A     		ldr	r3, [r7, #44]
 512              		.loc 1 103 7
 513 01dc 002B     		cmp	r3, #0
 514 01de 17D1     		bne	.L11
 104:C:/Users/leonardo/Desktop/Code/Github/DawnGBC/Libraries/FWLIB/src\gd32f4xx_dma.c ****         DMA_CHCTL(dma_periph,channelx) |= DMA_CHXCTL_CMEN;
 515              		.loc 1 104 40
 516 01e0 FA78     		ldrb	r2, [r7, #3]	@ zero_extendqisi2
 517 01e2 1346     		mov	r3, r2
 518 01e4 5B00     		lsls	r3, r3, #1
 519 01e6 1344     		add	r3, r3, r2
 520 01e8 DB00     		lsls	r3, r3, #3
 521 01ea 1A46     		mov	r2, r3
 522 01ec 7B68     		ldr	r3, [r7, #4]
 523 01ee 1344     		add	r3, r3, r2
 524 01f0 1033     		adds	r3, r3, #16
 525 01f2 1968     		ldr	r1, [r3]
 526 01f4 FA78     		ldrb	r2, [r7, #3]	@ zero_extendqisi2
 527 01f6 1346     		mov	r3, r2
 528 01f8 5B00     		lsls	r3, r3, #1
 529 01fa 1344     		add	r3, r3, r2
 530 01fc DB00     		lsls	r3, r3, #3
 531 01fe 1A46     		mov	r2, r3
 532 0200 7B68     		ldr	r3, [r7, #4]
 533 0202 1344     		add	r3, r3, r2
 534 0204 1033     		adds	r3, r3, #16
 535 0206 1A46     		mov	r2, r3
 536 0208 41F48073 		orr	r3, r1, #256
 537 020c 1360     		str	r3, [r2]
 105:C:/Users/leonardo/Desktop/Code/Github/DawnGBC/Libraries/FWLIB/src\gd32f4xx_dma.c ****     }else{
 106:C:/Users/leonardo/Desktop/Code/Github/DawnGBC/Libraries/FWLIB/src\gd32f4xx_dma.c ****         DMA_CHCTL(dma_periph,channelx) &= ~DMA_CHXCTL_CMEN;
 107:C:/Users/leonardo/Desktop/Code/Github/DawnGBC/Libraries/FWLIB/src\gd32f4xx_dma.c ****     }
 108:C:/Users/leonardo/Desktop/Code/Github/DawnGBC/Libraries/FWLIB/src\gd32f4xx_dma.c **** }
 538              		.loc 1 108 1
 539 020e 16E0     		b	.L13
 540              	.L11:
 106:C:/Users/leonardo/Desktop/Code/Github/DawnGBC/Libraries/FWLIB/src\gd32f4xx_dma.c ****     }
 541              		.loc 1 106 40
 542 0210 FA78     		ldrb	r2, [r7, #3]	@ zero_extendqisi2
 543 0212 1346     		mov	r3, r2
 544 0214 5B00     		lsls	r3, r3, #1
 545 0216 1344     		add	r3, r3, r2
 546 0218 DB00     		lsls	r3, r3, #3
 547 021a 1A46     		mov	r2, r3
 548 021c 7B68     		ldr	r3, [r7, #4]
 549 021e 1344     		add	r3, r3, r2
 550 0220 1033     		adds	r3, r3, #16
 551 0222 1968     		ldr	r1, [r3]
 552 0224 FA78     		ldrb	r2, [r7, #3]	@ zero_extendqisi2
 553 0226 1346     		mov	r3, r2
 554 0228 5B00     		lsls	r3, r3, #1
 555 022a 1344     		add	r3, r3, r2
 556 022c DB00     		lsls	r3, r3, #3
 557 022e 1A46     		mov	r2, r3
 558 0230 7B68     		ldr	r3, [r7, #4]
 559 0232 1344     		add	r3, r3, r2
 560 0234 1033     		adds	r3, r3, #16
 561 0236 1A46     		mov	r2, r3
 562 0238 21F48073 		bic	r3, r1, #256
 563 023c 1360     		str	r3, [r2]
 564              	.L13:
 565              		.loc 1 108 1
 566 023e 00BF     		nop
 567 0240 1437     		adds	r7, r7, #20
 568              		.cfi_def_cfa_offset 12
 569 0242 BD46     		mov	sp, r7
 570              		.cfi_def_cfa_register 13
 571              		@ sp needed
 572 0244 80BC     		pop	{r7}
 573              		.cfi_restore 7
 574              		.cfi_def_cfa_offset 8
 575 0246 02B0     		add	sp, sp, #8
 576              		.cfi_def_cfa_offset 0
 577 0248 7047     		bx	lr
 578              		.cfi_endproc
 579              	.LFE124:
 581              		.section	.text.dma_multi_data_mode_init,"ax",%progbits
 582              		.align	1
 583              		.global	dma_multi_data_mode_init
 584              		.syntax unified
 585              		.thumb
 586              		.thumb_func
 587              		.fpu softvfp
 589              	dma_multi_data_mode_init:
 590              	.LFB125:
 109:C:/Users/leonardo/Desktop/Code/Github/DawnGBC/Libraries/FWLIB/src\gd32f4xx_dma.c **** 
 110:C:/Users/leonardo/Desktop/Code/Github/DawnGBC/Libraries/FWLIB/src\gd32f4xx_dma.c **** /*!
 111:C:/Users/leonardo/Desktop/Code/Github/DawnGBC/Libraries/FWLIB/src\gd32f4xx_dma.c ****     \brief      initialize DMA multi data mode
 112:C:/Users/leonardo/Desktop/Code/Github/DawnGBC/Libraries/FWLIB/src\gd32f4xx_dma.c ****     \param[in]  dma_periph: DMAx(x=0,1)
 113:C:/Users/leonardo/Desktop/Code/Github/DawnGBC/Libraries/FWLIB/src\gd32f4xx_dma.c ****       \arg        DMAx(x=0,1)
 114:C:/Users/leonardo/Desktop/Code/Github/DawnGBC/Libraries/FWLIB/src\gd32f4xx_dma.c ****     \param[in]  channelx: specify which DMA channel is initialized
 115:C:/Users/leonardo/Desktop/Code/Github/DawnGBC/Libraries/FWLIB/src\gd32f4xx_dma.c ****       \arg        DMA_CHx(x=0..7)
 116:C:/Users/leonardo/Desktop/Code/Github/DawnGBC/Libraries/FWLIB/src\gd32f4xx_dma.c ****     \param[in]  dma_multi_data_parameter_struct: the data needed to initialize DMA multi data mode
 117:C:/Users/leonardo/Desktop/Code/Github/DawnGBC/Libraries/FWLIB/src\gd32f4xx_dma.c ****                   periph_addr: peripheral base address
 118:C:/Users/leonardo/Desktop/Code/Github/DawnGBC/Libraries/FWLIB/src\gd32f4xx_dma.c ****                   periph_width: DMA_PERIPH_WIDTH_8BIT,DMA_PERIPH_WIDTH_16BIT,DMA_PERIPH_WIDTH_32BIT
 119:C:/Users/leonardo/Desktop/Code/Github/DawnGBC/Libraries/FWLIB/src\gd32f4xx_dma.c ****                   periph_inc: DMA_PERIPH_INCREASE_ENABLE,DMA_PERIPH_INCREASE_DISABLE,DMA_PERIPH_INC
 120:C:/Users/leonardo/Desktop/Code/Github/DawnGBC/Libraries/FWLIB/src\gd32f4xx_dma.c ****                   memory0_addr: memory0 base address
 121:C:/Users/leonardo/Desktop/Code/Github/DawnGBC/Libraries/FWLIB/src\gd32f4xx_dma.c ****                   memory_width: DMA_MEMORY_WIDTH_8BIT,DMA_MEMORY_WIDTH_16BIT,DMA_MEMORY_WIDTH_32BIT
 122:C:/Users/leonardo/Desktop/Code/Github/DawnGBC/Libraries/FWLIB/src\gd32f4xx_dma.c ****                   memory_inc: DMA_MEMORY_INCREASE_ENABLE,DMA_MEMORY_INCREASE_DISABLE
 123:C:/Users/leonardo/Desktop/Code/Github/DawnGBC/Libraries/FWLIB/src\gd32f4xx_dma.c ****                   direction: DMA_PERIPH_TO_MEMORY,DMA_MEMORY_TO_PERIPH,DMA_MEMORY_TO_MEMORY
 124:C:/Users/leonardo/Desktop/Code/Github/DawnGBC/Libraries/FWLIB/src\gd32f4xx_dma.c ****                   number: the number of remaining data to be transferred by the DMA
 125:C:/Users/leonardo/Desktop/Code/Github/DawnGBC/Libraries/FWLIB/src\gd32f4xx_dma.c ****                   priority: DMA_PRIORITY_LOW,DMA_PRIORITY_MEDIUM,DMA_PRIORITY_HIGH,DMA_PRIORITY_ULT
 126:C:/Users/leonardo/Desktop/Code/Github/DawnGBC/Libraries/FWLIB/src\gd32f4xx_dma.c ****                   circular_mode: DMA_CIRCULAR_MODE_ENABLE,DMA_CIRCULAR_MODE_DISABLE
 127:C:/Users/leonardo/Desktop/Code/Github/DawnGBC/Libraries/FWLIB/src\gd32f4xx_dma.c ****                   memory_burst_width: DMA_MEMORY_BURST_SINGLE,DMA_MEMORY_BURST_4_BEAT,DMA_MEMORY_BU
 128:C:/Users/leonardo/Desktop/Code/Github/DawnGBC/Libraries/FWLIB/src\gd32f4xx_dma.c ****                   periph_burst_width: DMA_PERIPH_BURST_SINGLE,DMA_PERIPH_BURST_4_BEAT,DMA_PERIPH_BU
 129:C:/Users/leonardo/Desktop/Code/Github/DawnGBC/Libraries/FWLIB/src\gd32f4xx_dma.c ****                   critical_value: DMA_FIFO_1_WORD,DMA_FIFO_2_WORD,DMA_FIFO_3_WORD,DMA_FIFO_4_WORD
 130:C:/Users/leonardo/Desktop/Code/Github/DawnGBC/Libraries/FWLIB/src\gd32f4xx_dma.c ****     \param[out] none
 131:C:/Users/leonardo/Desktop/Code/Github/DawnGBC/Libraries/FWLIB/src\gd32f4xx_dma.c ****     \retval     none
 132:C:/Users/leonardo/Desktop/Code/Github/DawnGBC/Libraries/FWLIB/src\gd32f4xx_dma.c **** */
 133:C:/Users/leonardo/Desktop/Code/Github/DawnGBC/Libraries/FWLIB/src\gd32f4xx_dma.c **** void dma_multi_data_mode_init(uint32_t dma_periph,dma_channel_enum channelx,dma_multi_data_paramete
 134:C:/Users/leonardo/Desktop/Code/Github/DawnGBC/Libraries/FWLIB/src\gd32f4xx_dma.c **** {
 591              		.loc 1 134 1
 592              		.cfi_startproc
 593              		@ args = 52, pretend = 8, frame = 16
 594              		@ frame_needed = 1, uses_anonymous_args = 0
 595              		@ link register save eliminated.
 596 0000 82B0     		sub	sp, sp, #8
 597              		.cfi_def_cfa_offset 8
 598 0002 80B4     		push	{r7}
 599              		.cfi_def_cfa_offset 12
 600              		.cfi_offset 7, -12
 601 0004 85B0     		sub	sp, sp, #20
 602              		.cfi_def_cfa_offset 32
 603 0006 00AF     		add	r7, sp, #0
 604              		.cfi_def_cfa_register 7
 605 0008 7860     		str	r0, [r7, #4]
 606 000a 07F11800 		add	r0, r7, #24
 607 000e 80E80C00 		stm	r0, {r2, r3}
 608 0012 0B46     		mov	r3, r1
 609 0014 FB70     		strb	r3, [r7, #3]
 135:C:/Users/leonardo/Desktop/Code/Github/DawnGBC/Libraries/FWLIB/src\gd32f4xx_dma.c ****     uint32_t ctl;
 136:C:/Users/leonardo/Desktop/Code/Github/DawnGBC/Libraries/FWLIB/src\gd32f4xx_dma.c ****     
 137:C:/Users/leonardo/Desktop/Code/Github/DawnGBC/Libraries/FWLIB/src\gd32f4xx_dma.c ****     /* select multi data mode and configure FIFO critical value */
 138:C:/Users/leonardo/Desktop/Code/Github/DawnGBC/Libraries/FWLIB/src\gd32f4xx_dma.c ****     DMA_CHFCTL(dma_periph,channelx) |= (DMA_CHXFCTL_MDMEN | init_struct.critical_value);
 610              		.loc 1 138 37
 611 0016 FA78     		ldrb	r2, [r7, #3]	@ zero_extendqisi2
 612 0018 1346     		mov	r3, r2
 613 001a 5B00     		lsls	r3, r3, #1
 614 001c 1344     		add	r3, r3, r2
 615 001e DB00     		lsls	r3, r3, #3
 616 0020 1A46     		mov	r2, r3
 617 0022 7B68     		ldr	r3, [r7, #4]
 618 0024 1344     		add	r3, r3, r2
 619 0026 2433     		adds	r3, r3, #36
 620 0028 1A68     		ldr	r2, [r3]
 621              		.loc 1 138 72
 622 002a BB6B     		ldr	r3, [r7, #56]
 623              		.loc 1 138 37
 624 002c 42EA0301 		orr	r1, r2, r3
 625 0030 FA78     		ldrb	r2, [r7, #3]	@ zero_extendqisi2
 626 0032 1346     		mov	r3, r2
 627 0034 5B00     		lsls	r3, r3, #1
 628 0036 1344     		add	r3, r3, r2
 629 0038 DB00     		lsls	r3, r3, #3
 630 003a 1A46     		mov	r2, r3
 631 003c 7B68     		ldr	r3, [r7, #4]
 632 003e 1344     		add	r3, r3, r2
 633 0040 2433     		adds	r3, r3, #36
 634 0042 1A46     		mov	r2, r3
 635 0044 41F00403 		orr	r3, r1, #4
 636 0048 1360     		str	r3, [r2]
 139:C:/Users/leonardo/Desktop/Code/Github/DawnGBC/Libraries/FWLIB/src\gd32f4xx_dma.c ****     
 140:C:/Users/leonardo/Desktop/Code/Github/DawnGBC/Libraries/FWLIB/src\gd32f4xx_dma.c ****     /* configure peripheral base address */
 141:C:/Users/leonardo/Desktop/Code/Github/DawnGBC/Libraries/FWLIB/src\gd32f4xx_dma.c ****     DMA_CHPADDR(dma_periph,channelx) = init_struct.periph_addr;
 637              		.loc 1 141 5
 638 004a FA78     		ldrb	r2, [r7, #3]	@ zero_extendqisi2
 639 004c 1346     		mov	r3, r2
 640 004e 5B00     		lsls	r3, r3, #1
 641 0050 1344     		add	r3, r3, r2
 642 0052 DB00     		lsls	r3, r3, #3
 643 0054 1A46     		mov	r2, r3
 644 0056 7B68     		ldr	r3, [r7, #4]
 645 0058 1344     		add	r3, r3, r2
 646 005a 1833     		adds	r3, r3, #24
 647 005c 1A46     		mov	r2, r3
 648              		.loc 1 141 51
 649 005e BB69     		ldr	r3, [r7, #24]
 650              		.loc 1 141 38
 651 0060 1360     		str	r3, [r2]
 142:C:/Users/leonardo/Desktop/Code/Github/DawnGBC/Libraries/FWLIB/src\gd32f4xx_dma.c ****     
 143:C:/Users/leonardo/Desktop/Code/Github/DawnGBC/Libraries/FWLIB/src\gd32f4xx_dma.c ****     /* configure memory base address */
 144:C:/Users/leonardo/Desktop/Code/Github/DawnGBC/Libraries/FWLIB/src\gd32f4xx_dma.c ****     DMA_CHM0ADDR(dma_periph,channelx) = init_struct.memory0_addr;
 652              		.loc 1 144 5
 653 0062 FA78     		ldrb	r2, [r7, #3]	@ zero_extendqisi2
 654 0064 1346     		mov	r3, r2
 655 0066 5B00     		lsls	r3, r3, #1
 656 0068 1344     		add	r3, r3, r2
 657 006a DB00     		lsls	r3, r3, #3
 658 006c 1A46     		mov	r2, r3
 659 006e 7B68     		ldr	r3, [r7, #4]
 660 0070 1344     		add	r3, r3, r2
 661 0072 1C33     		adds	r3, r3, #28
 662 0074 1A46     		mov	r2, r3
 663              		.loc 1 144 52
 664 0076 7B6A     		ldr	r3, [r7, #36]
 665              		.loc 1 144 39
 666 0078 1360     		str	r3, [r2]
 145:C:/Users/leonardo/Desktop/Code/Github/DawnGBC/Libraries/FWLIB/src\gd32f4xx_dma.c ****     
 146:C:/Users/leonardo/Desktop/Code/Github/DawnGBC/Libraries/FWLIB/src\gd32f4xx_dma.c ****     /* configure the number of remaining data to be transferred */
 147:C:/Users/leonardo/Desktop/Code/Github/DawnGBC/Libraries/FWLIB/src\gd32f4xx_dma.c ****     DMA_CHCNT(dma_periph,channelx) = init_struct.number;
 667              		.loc 1 147 5
 668 007a FA78     		ldrb	r2, [r7, #3]	@ zero_extendqisi2
 669 007c 1346     		mov	r3, r2
 670 007e 5B00     		lsls	r3, r3, #1
 671 0080 1344     		add	r3, r3, r2
 672 0082 DB00     		lsls	r3, r3, #3
 673 0084 1A46     		mov	r2, r3
 674 0086 7B68     		ldr	r3, [r7, #4]
 675 0088 1344     		add	r3, r3, r2
 676 008a 1433     		adds	r3, r3, #20
 677 008c 1A46     		mov	r2, r3
 678              		.loc 1 147 49
 679 008e 7B6C     		ldr	r3, [r7, #68]
 680              		.loc 1 147 36
 681 0090 1360     		str	r3, [r2]
 148:C:/Users/leonardo/Desktop/Code/Github/DawnGBC/Libraries/FWLIB/src\gd32f4xx_dma.c ****     
 149:C:/Users/leonardo/Desktop/Code/Github/DawnGBC/Libraries/FWLIB/src\gd32f4xx_dma.c ****     /* configure peripheral and memory transfer width,channel priotity,transfer mode,peripheral and
 150:C:/Users/leonardo/Desktop/Code/Github/DawnGBC/Libraries/FWLIB/src\gd32f4xx_dma.c ****     ctl = DMA_CHCTL(dma_periph,channelx);
 682              		.loc 1 150 11
 683 0092 FA78     		ldrb	r2, [r7, #3]	@ zero_extendqisi2
 684 0094 1346     		mov	r3, r2
 685 0096 5B00     		lsls	r3, r3, #1
 686 0098 1344     		add	r3, r3, r2
 687 009a DB00     		lsls	r3, r3, #3
 688 009c 1A46     		mov	r2, r3
 689 009e 7B68     		ldr	r3, [r7, #4]
 690 00a0 1344     		add	r3, r3, r2
 691 00a2 1033     		adds	r3, r3, #16
 692              		.loc 1 150 9
 693 00a4 1B68     		ldr	r3, [r3]
 694 00a6 FB60     		str	r3, [r7, #12]
 151:C:/Users/leonardo/Desktop/Code/Github/DawnGBC/Libraries/FWLIB/src\gd32f4xx_dma.c ****     ctl &= ~(DMA_CHXCTL_PWIDTH | DMA_CHXCTL_MWIDTH | DMA_CHXCTL_PRIO | DMA_CHXCTL_TM | DMA_CHXCTL_P
 695              		.loc 1 151 9
 696 00a8 FA68     		ldr	r2, [r7, #12]
 697 00aa 6A4B     		ldr	r3, .L23
 698 00ac 1340     		ands	r3, r3, r2
 699 00ae FB60     		str	r3, [r7, #12]
 152:C:/Users/leonardo/Desktop/Code/Github/DawnGBC/Libraries/FWLIB/src\gd32f4xx_dma.c ****     ctl |= (init_struct.periph_width | (init_struct.memory_width ) | init_struct.priority | init_st
 700              		.loc 1 152 24
 701 00b0 FA69     		ldr	r2, [r7, #28]
 702              		.loc 1 152 52
 703 00b2 BB6A     		ldr	r3, [r7, #40]
 704              		.loc 1 152 38
 705 00b4 1A43     		orrs	r2, r2, r3
 706              		.loc 1 152 81
 707 00b6 BB6C     		ldr	r3, [r7, #72]
 708              		.loc 1 152 68
 709 00b8 1A43     		orrs	r2, r2, r3
 710              		.loc 1 152 104
 711 00ba 3B6C     		ldr	r3, [r7, #64]
 712              		.loc 1 152 91
 713 00bc 1A43     		orrs	r2, r2, r3
 714              		.loc 1 152 128
 715 00be 3B6B     		ldr	r3, [r7, #48]
 716              		.loc 1 152 115
 717 00c0 1A43     		orrs	r2, r2, r3
 718              		.loc 1 152 161
 719 00c2 7B6B     		ldr	r3, [r7, #52]
 720              		.loc 1 152 148
 721 00c4 1343     		orrs	r3, r3, r2
 722              		.loc 1 152 9
 723 00c6 FA68     		ldr	r2, [r7, #12]
 724 00c8 1343     		orrs	r3, r3, r2
 725 00ca FB60     		str	r3, [r7, #12]
 153:C:/Users/leonardo/Desktop/Code/Github/DawnGBC/Libraries/FWLIB/src\gd32f4xx_dma.c ****     DMA_CHCTL(dma_periph,channelx) = ctl;
 726              		.loc 1 153 5
 727 00cc FA78     		ldrb	r2, [r7, #3]	@ zero_extendqisi2
 728 00ce 1346     		mov	r3, r2
 729 00d0 5B00     		lsls	r3, r3, #1
 730 00d2 1344     		add	r3, r3, r2
 731 00d4 DB00     		lsls	r3, r3, #3
 732 00d6 1A46     		mov	r2, r3
 733 00d8 7B68     		ldr	r3, [r7, #4]
 734 00da 1344     		add	r3, r3, r2
 735 00dc 1033     		adds	r3, r3, #16
 736 00de 1A46     		mov	r2, r3
 737              		.loc 1 153 36
 738 00e0 FB68     		ldr	r3, [r7, #12]
 739 00e2 1360     		str	r3, [r2]
 154:C:/Users/leonardo/Desktop/Code/Github/DawnGBC/Libraries/FWLIB/src\gd32f4xx_dma.c **** 
 155:C:/Users/leonardo/Desktop/Code/Github/DawnGBC/Libraries/FWLIB/src\gd32f4xx_dma.c ****     /* configure peripheral increasing mode */
 156:C:/Users/leonardo/Desktop/Code/Github/DawnGBC/Libraries/FWLIB/src\gd32f4xx_dma.c ****     if(DMA_PERIPH_INCREASE_ENABLE == init_struct.periph_inc){
 740              		.loc 1 156 49
 741 00e4 3B6A     		ldr	r3, [r7, #32]
 742              		.loc 1 156 7
 743 00e6 002B     		cmp	r3, #0
 744 00e8 17D1     		bne	.L15
 157:C:/Users/leonardo/Desktop/Code/Github/DawnGBC/Libraries/FWLIB/src\gd32f4xx_dma.c ****         DMA_CHCTL(dma_periph,channelx) |= DMA_CHXCTL_PNAGA;
 745              		.loc 1 157 40
 746 00ea FA78     		ldrb	r2, [r7, #3]	@ zero_extendqisi2
 747 00ec 1346     		mov	r3, r2
 748 00ee 5B00     		lsls	r3, r3, #1
 749 00f0 1344     		add	r3, r3, r2
 750 00f2 DB00     		lsls	r3, r3, #3
 751 00f4 1A46     		mov	r2, r3
 752 00f6 7B68     		ldr	r3, [r7, #4]
 753 00f8 1344     		add	r3, r3, r2
 754 00fa 1033     		adds	r3, r3, #16
 755 00fc 1968     		ldr	r1, [r3]
 756 00fe FA78     		ldrb	r2, [r7, #3]	@ zero_extendqisi2
 757 0100 1346     		mov	r3, r2
 758 0102 5B00     		lsls	r3, r3, #1
 759 0104 1344     		add	r3, r3, r2
 760 0106 DB00     		lsls	r3, r3, #3
 761 0108 1A46     		mov	r2, r3
 762 010a 7B68     		ldr	r3, [r7, #4]
 763 010c 1344     		add	r3, r3, r2
 764 010e 1033     		adds	r3, r3, #16
 765 0110 1A46     		mov	r2, r3
 766 0112 41F40073 		orr	r3, r1, #512
 767 0116 1360     		str	r3, [r2]
 768 0118 31E0     		b	.L16
 769              	.L15:
 158:C:/Users/leonardo/Desktop/Code/Github/DawnGBC/Libraries/FWLIB/src\gd32f4xx_dma.c ****     }else if(DMA_PERIPH_INCREASE_DISABLE == init_struct.periph_inc){
 770              		.loc 1 158 56
 771 011a 3B6A     		ldr	r3, [r7, #32]
 772              		.loc 1 158 13
 773 011c 012B     		cmp	r3, #1
 774 011e 17D1     		bne	.L17
 159:C:/Users/leonardo/Desktop/Code/Github/DawnGBC/Libraries/FWLIB/src\gd32f4xx_dma.c ****         DMA_CHCTL(dma_periph,channelx) &= ~DMA_CHXCTL_PNAGA;
 775              		.loc 1 159 40
 776 0120 FA78     		ldrb	r2, [r7, #3]	@ zero_extendqisi2
 777 0122 1346     		mov	r3, r2
 778 0124 5B00     		lsls	r3, r3, #1
 779 0126 1344     		add	r3, r3, r2
 780 0128 DB00     		lsls	r3, r3, #3
 781 012a 1A46     		mov	r2, r3
 782 012c 7B68     		ldr	r3, [r7, #4]
 783 012e 1344     		add	r3, r3, r2
 784 0130 1033     		adds	r3, r3, #16
 785 0132 1968     		ldr	r1, [r3]
 786 0134 FA78     		ldrb	r2, [r7, #3]	@ zero_extendqisi2
 787 0136 1346     		mov	r3, r2
 788 0138 5B00     		lsls	r3, r3, #1
 789 013a 1344     		add	r3, r3, r2
 790 013c DB00     		lsls	r3, r3, #3
 791 013e 1A46     		mov	r2, r3
 792 0140 7B68     		ldr	r3, [r7, #4]
 793 0142 1344     		add	r3, r3, r2
 794 0144 1033     		adds	r3, r3, #16
 795 0146 1A46     		mov	r2, r3
 796 0148 21F40073 		bic	r3, r1, #512
 797 014c 1360     		str	r3, [r2]
 798 014e 16E0     		b	.L16
 799              	.L17:
 160:C:/Users/leonardo/Desktop/Code/Github/DawnGBC/Libraries/FWLIB/src\gd32f4xx_dma.c ****     }else{
 161:C:/Users/leonardo/Desktop/Code/Github/DawnGBC/Libraries/FWLIB/src\gd32f4xx_dma.c ****         DMA_CHCTL(dma_periph,channelx) |= DMA_CHXCTL_PAIF;
 800              		.loc 1 161 40
 801 0150 FA78     		ldrb	r2, [r7, #3]	@ zero_extendqisi2
 802 0152 1346     		mov	r3, r2
 803 0154 5B00     		lsls	r3, r3, #1
 804 0156 1344     		add	r3, r3, r2
 805 0158 DB00     		lsls	r3, r3, #3
 806 015a 1A46     		mov	r2, r3
 807 015c 7B68     		ldr	r3, [r7, #4]
 808 015e 1344     		add	r3, r3, r2
 809 0160 1033     		adds	r3, r3, #16
 810 0162 1968     		ldr	r1, [r3]
 811 0164 FA78     		ldrb	r2, [r7, #3]	@ zero_extendqisi2
 812 0166 1346     		mov	r3, r2
 813 0168 5B00     		lsls	r3, r3, #1
 814 016a 1344     		add	r3, r3, r2
 815 016c DB00     		lsls	r3, r3, #3
 816 016e 1A46     		mov	r2, r3
 817 0170 7B68     		ldr	r3, [r7, #4]
 818 0172 1344     		add	r3, r3, r2
 819 0174 1033     		adds	r3, r3, #16
 820 0176 1A46     		mov	r2, r3
 821 0178 41F40043 		orr	r3, r1, #32768
 822 017c 1360     		str	r3, [r2]
 823              	.L16:
 162:C:/Users/leonardo/Desktop/Code/Github/DawnGBC/Libraries/FWLIB/src\gd32f4xx_dma.c ****     }
 163:C:/Users/leonardo/Desktop/Code/Github/DawnGBC/Libraries/FWLIB/src\gd32f4xx_dma.c **** 
 164:C:/Users/leonardo/Desktop/Code/Github/DawnGBC/Libraries/FWLIB/src\gd32f4xx_dma.c ****     /* configure memory increasing mode */
 165:C:/Users/leonardo/Desktop/Code/Github/DawnGBC/Libraries/FWLIB/src\gd32f4xx_dma.c ****     if(DMA_MEMORY_INCREASE_ENABLE == init_struct.memory_inc){
 824              		.loc 1 165 49
 825 017e FB6A     		ldr	r3, [r7, #44]
 826              		.loc 1 165 7
 827 0180 002B     		cmp	r3, #0
 828 0182 17D1     		bne	.L18
 166:C:/Users/leonardo/Desktop/Code/Github/DawnGBC/Libraries/FWLIB/src\gd32f4xx_dma.c ****         DMA_CHCTL(dma_periph,channelx) |= DMA_CHXCTL_MNAGA;
 829              		.loc 1 166 40
 830 0184 FA78     		ldrb	r2, [r7, #3]	@ zero_extendqisi2
 831 0186 1346     		mov	r3, r2
 832 0188 5B00     		lsls	r3, r3, #1
 833 018a 1344     		add	r3, r3, r2
 834 018c DB00     		lsls	r3, r3, #3
 835 018e 1A46     		mov	r2, r3
 836 0190 7B68     		ldr	r3, [r7, #4]
 837 0192 1344     		add	r3, r3, r2
 838 0194 1033     		adds	r3, r3, #16
 839 0196 1968     		ldr	r1, [r3]
 840 0198 FA78     		ldrb	r2, [r7, #3]	@ zero_extendqisi2
 841 019a 1346     		mov	r3, r2
 842 019c 5B00     		lsls	r3, r3, #1
 843 019e 1344     		add	r3, r3, r2
 844 01a0 DB00     		lsls	r3, r3, #3
 845 01a2 1A46     		mov	r2, r3
 846 01a4 7B68     		ldr	r3, [r7, #4]
 847 01a6 1344     		add	r3, r3, r2
 848 01a8 1033     		adds	r3, r3, #16
 849 01aa 1A46     		mov	r2, r3
 850 01ac 41F48063 		orr	r3, r1, #1024
 851 01b0 1360     		str	r3, [r2]
 852 01b2 16E0     		b	.L19
 853              	.L18:
 167:C:/Users/leonardo/Desktop/Code/Github/DawnGBC/Libraries/FWLIB/src\gd32f4xx_dma.c ****     }else{
 168:C:/Users/leonardo/Desktop/Code/Github/DawnGBC/Libraries/FWLIB/src\gd32f4xx_dma.c ****         DMA_CHCTL(dma_periph,channelx) &= ~DMA_CHXCTL_MNAGA;
 854              		.loc 1 168 40
 855 01b4 FA78     		ldrb	r2, [r7, #3]	@ zero_extendqisi2
 856 01b6 1346     		mov	r3, r2
 857 01b8 5B00     		lsls	r3, r3, #1
 858 01ba 1344     		add	r3, r3, r2
 859 01bc DB00     		lsls	r3, r3, #3
 860 01be 1A46     		mov	r2, r3
 861 01c0 7B68     		ldr	r3, [r7, #4]
 862 01c2 1344     		add	r3, r3, r2
 863 01c4 1033     		adds	r3, r3, #16
 864 01c6 1968     		ldr	r1, [r3]
 865 01c8 FA78     		ldrb	r2, [r7, #3]	@ zero_extendqisi2
 866 01ca 1346     		mov	r3, r2
 867 01cc 5B00     		lsls	r3, r3, #1
 868 01ce 1344     		add	r3, r3, r2
 869 01d0 DB00     		lsls	r3, r3, #3
 870 01d2 1A46     		mov	r2, r3
 871 01d4 7B68     		ldr	r3, [r7, #4]
 872 01d6 1344     		add	r3, r3, r2
 873 01d8 1033     		adds	r3, r3, #16
 874 01da 1A46     		mov	r2, r3
 875 01dc 21F48063 		bic	r3, r1, #1024
 876 01e0 1360     		str	r3, [r2]
 877              	.L19:
 169:C:/Users/leonardo/Desktop/Code/Github/DawnGBC/Libraries/FWLIB/src\gd32f4xx_dma.c ****     }
 170:C:/Users/leonardo/Desktop/Code/Github/DawnGBC/Libraries/FWLIB/src\gd32f4xx_dma.c **** 
 171:C:/Users/leonardo/Desktop/Code/Github/DawnGBC/Libraries/FWLIB/src\gd32f4xx_dma.c ****     /* configure DMA circular mode */
 172:C:/Users/leonardo/Desktop/Code/Github/DawnGBC/Libraries/FWLIB/src\gd32f4xx_dma.c ****     if(DMA_CIRCULAR_MODE_ENABLE == init_struct.circular_mode){
 878              		.loc 1 172 47
 879 01e2 FB6B     		ldr	r3, [r7, #60]
 880              		.loc 1 172 7
 881 01e4 002B     		cmp	r3, #0
 882 01e6 17D1     		bne	.L20
 173:C:/Users/leonardo/Desktop/Code/Github/DawnGBC/Libraries/FWLIB/src\gd32f4xx_dma.c ****         DMA_CHCTL(dma_periph,channelx) |= DMA_CHXCTL_CMEN;
 883              		.loc 1 173 40
 884 01e8 FA78     		ldrb	r2, [r7, #3]	@ zero_extendqisi2
 885 01ea 1346     		mov	r3, r2
 886 01ec 5B00     		lsls	r3, r3, #1
 887 01ee 1344     		add	r3, r3, r2
 888 01f0 DB00     		lsls	r3, r3, #3
 889 01f2 1A46     		mov	r2, r3
 890 01f4 7B68     		ldr	r3, [r7, #4]
 891 01f6 1344     		add	r3, r3, r2
 892 01f8 1033     		adds	r3, r3, #16
 893 01fa 1968     		ldr	r1, [r3]
 894 01fc FA78     		ldrb	r2, [r7, #3]	@ zero_extendqisi2
 895 01fe 1346     		mov	r3, r2
 896 0200 5B00     		lsls	r3, r3, #1
 897 0202 1344     		add	r3, r3, r2
 898 0204 DB00     		lsls	r3, r3, #3
 899 0206 1A46     		mov	r2, r3
 900 0208 7B68     		ldr	r3, [r7, #4]
 901 020a 1344     		add	r3, r3, r2
 902 020c 1033     		adds	r3, r3, #16
 903 020e 1A46     		mov	r2, r3
 904 0210 41F48073 		orr	r3, r1, #256
 905 0214 1360     		str	r3, [r2]
 174:C:/Users/leonardo/Desktop/Code/Github/DawnGBC/Libraries/FWLIB/src\gd32f4xx_dma.c ****     }else{
 175:C:/Users/leonardo/Desktop/Code/Github/DawnGBC/Libraries/FWLIB/src\gd32f4xx_dma.c ****         DMA_CHCTL(dma_periph,channelx) &= ~DMA_CHXCTL_CMEN;
 176:C:/Users/leonardo/Desktop/Code/Github/DawnGBC/Libraries/FWLIB/src\gd32f4xx_dma.c ****     }
 177:C:/Users/leonardo/Desktop/Code/Github/DawnGBC/Libraries/FWLIB/src\gd32f4xx_dma.c **** }
 906              		.loc 1 177 1
 907 0216 16E0     		b	.L22
 908              	.L20:
 175:C:/Users/leonardo/Desktop/Code/Github/DawnGBC/Libraries/FWLIB/src\gd32f4xx_dma.c ****     }
 909              		.loc 1 175 40
 910 0218 FA78     		ldrb	r2, [r7, #3]	@ zero_extendqisi2
 911 021a 1346     		mov	r3, r2
 912 021c 5B00     		lsls	r3, r3, #1
 913 021e 1344     		add	r3, r3, r2
 914 0220 DB00     		lsls	r3, r3, #3
 915 0222 1A46     		mov	r2, r3
 916 0224 7B68     		ldr	r3, [r7, #4]
 917 0226 1344     		add	r3, r3, r2
 918 0228 1033     		adds	r3, r3, #16
 919 022a 1968     		ldr	r1, [r3]
 920 022c FA78     		ldrb	r2, [r7, #3]	@ zero_extendqisi2
 921 022e 1346     		mov	r3, r2
 922 0230 5B00     		lsls	r3, r3, #1
 923 0232 1344     		add	r3, r3, r2
 924 0234 DB00     		lsls	r3, r3, #3
 925 0236 1A46     		mov	r2, r3
 926 0238 7B68     		ldr	r3, [r7, #4]
 927 023a 1344     		add	r3, r3, r2
 928 023c 1033     		adds	r3, r3, #16
 929 023e 1A46     		mov	r2, r3
 930 0240 21F48073 		bic	r3, r1, #256
 931 0244 1360     		str	r3, [r2]
 932              	.L22:
 933              		.loc 1 177 1
 934 0246 00BF     		nop
 935 0248 1437     		adds	r7, r7, #20
 936              		.cfi_def_cfa_offset 12
 937 024a BD46     		mov	sp, r7
 938              		.cfi_def_cfa_register 13
 939              		@ sp needed
 940 024c 80BC     		pop	{r7}
 941              		.cfi_restore 7
 942              		.cfi_def_cfa_offset 8
 943 024e 02B0     		add	sp, sp, #8
 944              		.cfi_def_cfa_offset 0
 945 0250 7047     		bx	lr
 946              	.L24:
 947 0252 00BF     		.align	2
 948              	.L23:
 949 0254 3F871CFE 		.word	-31684801
 950              		.cfi_endproc
 951              	.LFE125:
 953              		.section	.text.dma_flag_get,"ax",%progbits
 954              		.align	1
 955              		.global	dma_flag_get
 956              		.syntax unified
 957              		.thumb
 958              		.thumb_func
 959              		.fpu softvfp
 961              	dma_flag_get:
 962              	.LFB126:
 178:C:/Users/leonardo/Desktop/Code/Github/DawnGBC/Libraries/FWLIB/src\gd32f4xx_dma.c **** 
 179:C:/Users/leonardo/Desktop/Code/Github/DawnGBC/Libraries/FWLIB/src\gd32f4xx_dma.c **** /*!
 180:C:/Users/leonardo/Desktop/Code/Github/DawnGBC/Libraries/FWLIB/src\gd32f4xx_dma.c ****     \brief      get DMA flag is set or not 
 181:C:/Users/leonardo/Desktop/Code/Github/DawnGBC/Libraries/FWLIB/src\gd32f4xx_dma.c ****     \param[in]  dma_periph: DMAx(x=0,1)
 182:C:/Users/leonardo/Desktop/Code/Github/DawnGBC/Libraries/FWLIB/src\gd32f4xx_dma.c ****       \arg        DMAx(x=0,1)
 183:C:/Users/leonardo/Desktop/Code/Github/DawnGBC/Libraries/FWLIB/src\gd32f4xx_dma.c ****     \param[in]  channelx: specify which DMA channel to get flag
 184:C:/Users/leonardo/Desktop/Code/Github/DawnGBC/Libraries/FWLIB/src\gd32f4xx_dma.c ****       \arg        DMA_CHx(x=0..7)
 185:C:/Users/leonardo/Desktop/Code/Github/DawnGBC/Libraries/FWLIB/src\gd32f4xx_dma.c ****     \param[in]  flag: specify get which flag
 186:C:/Users/leonardo/Desktop/Code/Github/DawnGBC/Libraries/FWLIB/src\gd32f4xx_dma.c ****       \arg        DMA_INTF_FEEIF: FIFO error and exception flag
 187:C:/Users/leonardo/Desktop/Code/Github/DawnGBC/Libraries/FWLIB/src\gd32f4xx_dma.c ****       \arg        DMA_INTF_SDEIF: single data mode exception flag
 188:C:/Users/leonardo/Desktop/Code/Github/DawnGBC/Libraries/FWLIB/src\gd32f4xx_dma.c ****       \arg        DMA_INTF_TAEIF: transfer access error flag
 189:C:/Users/leonardo/Desktop/Code/Github/DawnGBC/Libraries/FWLIB/src\gd32f4xx_dma.c ****       \arg        DMA_INTF_HTFIF: half transfer finish flag
 190:C:/Users/leonardo/Desktop/Code/Github/DawnGBC/Libraries/FWLIB/src\gd32f4xx_dma.c ****       \arg        DMA_INTF_FTFIF: full transger finish flag
 191:C:/Users/leonardo/Desktop/Code/Github/DawnGBC/Libraries/FWLIB/src\gd32f4xx_dma.c ****     \param[out] none
 192:C:/Users/leonardo/Desktop/Code/Github/DawnGBC/Libraries/FWLIB/src\gd32f4xx_dma.c ****     \retval     FlagStatus: SET or RESET
 193:C:/Users/leonardo/Desktop/Code/Github/DawnGBC/Libraries/FWLIB/src\gd32f4xx_dma.c **** */
 194:C:/Users/leonardo/Desktop/Code/Github/DawnGBC/Libraries/FWLIB/src\gd32f4xx_dma.c **** FlagStatus dma_flag_get(uint32_t dma_periph,dma_channel_enum channelx,uint32_t flag)
 195:C:/Users/leonardo/Desktop/Code/Github/DawnGBC/Libraries/FWLIB/src\gd32f4xx_dma.c **** {
 963              		.loc 1 195 1
 964              		.cfi_startproc
 965              		@ args = 0, pretend = 0, frame = 16
 966              		@ frame_needed = 1, uses_anonymous_args = 0
 967              		@ link register save eliminated.
 968 0000 80B4     		push	{r7}
 969              		.cfi_def_cfa_offset 4
 970              		.cfi_offset 7, -4
 971 0002 85B0     		sub	sp, sp, #20
 972              		.cfi_def_cfa_offset 24
 973 0004 00AF     		add	r7, sp, #0
 974              		.cfi_def_cfa_register 7
 975 0006 F860     		str	r0, [r7, #12]
 976 0008 0B46     		mov	r3, r1
 977 000a 7A60     		str	r2, [r7, #4]
 978 000c FB72     		strb	r3, [r7, #11]
 196:C:/Users/leonardo/Desktop/Code/Github/DawnGBC/Libraries/FWLIB/src\gd32f4xx_dma.c ****     if(channelx < DMA_CH4){
 979              		.loc 1 196 7
 980 000e FB7A     		ldrb	r3, [r7, #11]	@ zero_extendqisi2
 981 0010 032B     		cmp	r3, #3
 982 0012 18D8     		bhi	.L26
 197:C:/Users/leonardo/Desktop/Code/Github/DawnGBC/Libraries/FWLIB/src\gd32f4xx_dma.c ****         if(DMA_INTF0(dma_periph) & DMA_FLAG_ADD(flag,channelx)){
 983              		.loc 1 197 12
 984 0014 FB68     		ldr	r3, [r7, #12]
 985 0016 1968     		ldr	r1, [r3]
 986              		.loc 1 197 36
 987 0018 FA7A     		ldrb	r2, [r7, #11]	@ zero_extendqisi2
 988 001a 1346     		mov	r3, r2
 989 001c 5B00     		lsls	r3, r3, #1
 990 001e 1344     		add	r3, r3, r2
 991 0020 5B00     		lsls	r3, r3, #1
 992 0022 1A46     		mov	r2, r3
 993 0024 FB7A     		ldrb	r3, [r7, #11]	@ zero_extendqisi2
 994 0026 5B08     		lsrs	r3, r3, #1
 995 0028 DBB2     		uxtb	r3, r3
 996 002a 03F00103 		and	r3, r3, #1
 997 002e 9B00     		lsls	r3, r3, #2
 998 0030 1344     		add	r3, r3, r2
 999 0032 7A68     		ldr	r2, [r7, #4]
 1000 0034 02FA03F3 		lsl	r3, r2, r3
 1001              		.loc 1 197 34
 1002 0038 0B40     		ands	r3, r3, r1
 1003              		.loc 1 197 11
 1004 003a 002B     		cmp	r3, #0
 1005 003c 01D0     		beq	.L27
 198:C:/Users/leonardo/Desktop/Code/Github/DawnGBC/Libraries/FWLIB/src\gd32f4xx_dma.c ****             return SET;
 1006              		.loc 1 198 20
 1007 003e 0123     		movs	r3, #1
 1008 0040 1DE0     		b	.L28
 1009              	.L27:
 199:C:/Users/leonardo/Desktop/Code/Github/DawnGBC/Libraries/FWLIB/src\gd32f4xx_dma.c ****         }else{
 200:C:/Users/leonardo/Desktop/Code/Github/DawnGBC/Libraries/FWLIB/src\gd32f4xx_dma.c ****             return RESET;
 1010              		.loc 1 200 20
 1011 0042 0023     		movs	r3, #0
 1012 0044 1BE0     		b	.L28
 1013              	.L26:
 201:C:/Users/leonardo/Desktop/Code/Github/DawnGBC/Libraries/FWLIB/src\gd32f4xx_dma.c ****         }
 202:C:/Users/leonardo/Desktop/Code/Github/DawnGBC/Libraries/FWLIB/src\gd32f4xx_dma.c ****     }else{
 203:C:/Users/leonardo/Desktop/Code/Github/DawnGBC/Libraries/FWLIB/src\gd32f4xx_dma.c ****         channelx -= (dma_channel_enum)4;
 1014              		.loc 1 203 18
 1015 0046 FB7A     		ldrb	r3, [r7, #11]
 1016 0048 043B     		subs	r3, r3, #4
 1017 004a FB72     		strb	r3, [r7, #11]
 204:C:/Users/leonardo/Desktop/Code/Github/DawnGBC/Libraries/FWLIB/src\gd32f4xx_dma.c ****         if(DMA_INTF1(dma_periph) & DMA_FLAG_ADD(flag,channelx)){
 1018              		.loc 1 204 12
 1019 004c FB68     		ldr	r3, [r7, #12]
 1020 004e 0433     		adds	r3, r3, #4
 1021 0050 1968     		ldr	r1, [r3]
 1022              		.loc 1 204 36
 1023 0052 FA7A     		ldrb	r2, [r7, #11]	@ zero_extendqisi2
 1024 0054 1346     		mov	r3, r2
 1025 0056 5B00     		lsls	r3, r3, #1
 1026 0058 1344     		add	r3, r3, r2
 1027 005a 5B00     		lsls	r3, r3, #1
 1028 005c 1A46     		mov	r2, r3
 1029 005e FB7A     		ldrb	r3, [r7, #11]	@ zero_extendqisi2
 1030 0060 5B08     		lsrs	r3, r3, #1
 1031 0062 DBB2     		uxtb	r3, r3
 1032 0064 03F00103 		and	r3, r3, #1
 1033 0068 9B00     		lsls	r3, r3, #2
 1034 006a 1344     		add	r3, r3, r2
 1035 006c 7A68     		ldr	r2, [r7, #4]
 1036 006e 02FA03F3 		lsl	r3, r2, r3
 1037              		.loc 1 204 34
 1038 0072 0B40     		ands	r3, r3, r1
 1039              		.loc 1 204 11
 1040 0074 002B     		cmp	r3, #0
 1041 0076 01D0     		beq	.L29
 205:C:/Users/leonardo/Desktop/Code/Github/DawnGBC/Libraries/FWLIB/src\gd32f4xx_dma.c ****             return SET;
 1042              		.loc 1 205 20
 1043 0078 0123     		movs	r3, #1
 1044 007a 00E0     		b	.L28
 1045              	.L29:
 206:C:/Users/leonardo/Desktop/Code/Github/DawnGBC/Libraries/FWLIB/src\gd32f4xx_dma.c ****         }else{
 207:C:/Users/leonardo/Desktop/Code/Github/DawnGBC/Libraries/FWLIB/src\gd32f4xx_dma.c ****             return RESET;
 1046              		.loc 1 207 20
 1047 007c 0023     		movs	r3, #0
 1048              	.L28:
 208:C:/Users/leonardo/Desktop/Code/Github/DawnGBC/Libraries/FWLIB/src\gd32f4xx_dma.c ****         }
 209:C:/Users/leonardo/Desktop/Code/Github/DawnGBC/Libraries/FWLIB/src\gd32f4xx_dma.c ****     }
 210:C:/Users/leonardo/Desktop/Code/Github/DawnGBC/Libraries/FWLIB/src\gd32f4xx_dma.c **** }
 1049              		.loc 1 210 1
 1050 007e 1846     		mov	r0, r3
 1051 0080 1437     		adds	r7, r7, #20
 1052              		.cfi_def_cfa_offset 4
 1053 0082 BD46     		mov	sp, r7
 1054              		.cfi_def_cfa_register 13
 1055              		@ sp needed
 1056 0084 80BC     		pop	{r7}
 1057              		.cfi_restore 7
 1058              		.cfi_def_cfa_offset 0
 1059 0086 7047     		bx	lr
 1060              		.cfi_endproc
 1061              	.LFE126:
 1063              		.section	.text.dma_flag_clear,"ax",%progbits
 1064              		.align	1
 1065              		.global	dma_flag_clear
 1066              		.syntax unified
 1067              		.thumb
 1068              		.thumb_func
 1069              		.fpu softvfp
 1071              	dma_flag_clear:
 1072              	.LFB127:
 211:C:/Users/leonardo/Desktop/Code/Github/DawnGBC/Libraries/FWLIB/src\gd32f4xx_dma.c **** 
 212:C:/Users/leonardo/Desktop/Code/Github/DawnGBC/Libraries/FWLIB/src\gd32f4xx_dma.c **** /*!
 213:C:/Users/leonardo/Desktop/Code/Github/DawnGBC/Libraries/FWLIB/src\gd32f4xx_dma.c ****     \brief      clear DMA a channel flag
 214:C:/Users/leonardo/Desktop/Code/Github/DawnGBC/Libraries/FWLIB/src\gd32f4xx_dma.c ****     \param[in]  dma_periph: DMAx(x=0,1)
 215:C:/Users/leonardo/Desktop/Code/Github/DawnGBC/Libraries/FWLIB/src\gd32f4xx_dma.c ****       \arg        DMAx(x=0,1)
 216:C:/Users/leonardo/Desktop/Code/Github/DawnGBC/Libraries/FWLIB/src\gd32f4xx_dma.c ****     \param[in]  channelx: specify which DMA channel to get flag
 217:C:/Users/leonardo/Desktop/Code/Github/DawnGBC/Libraries/FWLIB/src\gd32f4xx_dma.c ****       \arg        DMA_CHx(x=0..7)
 218:C:/Users/leonardo/Desktop/Code/Github/DawnGBC/Libraries/FWLIB/src\gd32f4xx_dma.c ****     \param[in]  flag: specify get which flag
 219:C:/Users/leonardo/Desktop/Code/Github/DawnGBC/Libraries/FWLIB/src\gd32f4xx_dma.c ****       \arg        DMA_INTF_FEEIF: FIFO error and exception flag
 220:C:/Users/leonardo/Desktop/Code/Github/DawnGBC/Libraries/FWLIB/src\gd32f4xx_dma.c ****       \arg        DMA_INTF_SDEIF: single data mode exception flag
 221:C:/Users/leonardo/Desktop/Code/Github/DawnGBC/Libraries/FWLIB/src\gd32f4xx_dma.c ****       \arg        DMA_INTF_TAEIF: transfer access error flag
 222:C:/Users/leonardo/Desktop/Code/Github/DawnGBC/Libraries/FWLIB/src\gd32f4xx_dma.c ****       \arg        DMA_INTF_HTFIF: half transfer finish flag
 223:C:/Users/leonardo/Desktop/Code/Github/DawnGBC/Libraries/FWLIB/src\gd32f4xx_dma.c ****       \arg        DMA_INTF_FTFIF: full transger finish flag
 224:C:/Users/leonardo/Desktop/Code/Github/DawnGBC/Libraries/FWLIB/src\gd32f4xx_dma.c ****     \param[out] none
 225:C:/Users/leonardo/Desktop/Code/Github/DawnGBC/Libraries/FWLIB/src\gd32f4xx_dma.c ****     \retval     none
 226:C:/Users/leonardo/Desktop/Code/Github/DawnGBC/Libraries/FWLIB/src\gd32f4xx_dma.c **** */
 227:C:/Users/leonardo/Desktop/Code/Github/DawnGBC/Libraries/FWLIB/src\gd32f4xx_dma.c **** void dma_flag_clear(uint32_t dma_periph,dma_channel_enum channelx,uint32_t flag)
 228:C:/Users/leonardo/Desktop/Code/Github/DawnGBC/Libraries/FWLIB/src\gd32f4xx_dma.c **** {
 1073              		.loc 1 228 1
 1074              		.cfi_startproc
 1075              		@ args = 0, pretend = 0, frame = 16
 1076              		@ frame_needed = 1, uses_anonymous_args = 0
 1077              		@ link register save eliminated.
 1078 0000 80B4     		push	{r7}
 1079              		.cfi_def_cfa_offset 4
 1080              		.cfi_offset 7, -4
 1081 0002 85B0     		sub	sp, sp, #20
 1082              		.cfi_def_cfa_offset 24
 1083 0004 00AF     		add	r7, sp, #0
 1084              		.cfi_def_cfa_register 7
 1085 0006 F860     		str	r0, [r7, #12]
 1086 0008 0B46     		mov	r3, r1
 1087 000a 7A60     		str	r2, [r7, #4]
 1088 000c FB72     		strb	r3, [r7, #11]
 229:C:/Users/leonardo/Desktop/Code/Github/DawnGBC/Libraries/FWLIB/src\gd32f4xx_dma.c ****     if(channelx < DMA_CH4){
 1089              		.loc 1 229 7
 1090 000e FB7A     		ldrb	r3, [r7, #11]	@ zero_extendqisi2
 1091 0010 032B     		cmp	r3, #3
 1092 0012 17D8     		bhi	.L31
 230:C:/Users/leonardo/Desktop/Code/Github/DawnGBC/Libraries/FWLIB/src\gd32f4xx_dma.c ****         DMA_INTC0(dma_periph) |= DMA_FLAG_ADD(flag,channelx);
 1093              		.loc 1 230 31
 1094 0014 FB68     		ldr	r3, [r7, #12]
 1095 0016 0833     		adds	r3, r3, #8
 1096 0018 1968     		ldr	r1, [r3]
 1097              		.loc 1 230 34
 1098 001a FA7A     		ldrb	r2, [r7, #11]	@ zero_extendqisi2
 1099 001c 1346     		mov	r3, r2
 1100 001e 5B00     		lsls	r3, r3, #1
 1101 0020 1344     		add	r3, r3, r2
 1102 0022 5B00     		lsls	r3, r3, #1
 1103 0024 1A46     		mov	r2, r3
 1104 0026 FB7A     		ldrb	r3, [r7, #11]	@ zero_extendqisi2
 1105 0028 5B08     		lsrs	r3, r3, #1
 1106 002a DBB2     		uxtb	r3, r3
 1107 002c 03F00103 		and	r3, r3, #1
 1108 0030 9B00     		lsls	r3, r3, #2
 1109 0032 1344     		add	r3, r3, r2
 1110 0034 7A68     		ldr	r2, [r7, #4]
 1111 0036 02FA03F3 		lsl	r3, r2, r3
 1112              		.loc 1 230 31
 1113 003a FA68     		ldr	r2, [r7, #12]
 1114 003c 0832     		adds	r2, r2, #8
 1115 003e 0B43     		orrs	r3, r3, r1
 1116 0040 1360     		str	r3, [r2]
 231:C:/Users/leonardo/Desktop/Code/Github/DawnGBC/Libraries/FWLIB/src\gd32f4xx_dma.c ****     }else{
 232:C:/Users/leonardo/Desktop/Code/Github/DawnGBC/Libraries/FWLIB/src\gd32f4xx_dma.c ****         channelx -= (dma_channel_enum)4;
 233:C:/Users/leonardo/Desktop/Code/Github/DawnGBC/Libraries/FWLIB/src\gd32f4xx_dma.c ****         DMA_INTC1(dma_periph) |= DMA_FLAG_ADD(flag,channelx);
 234:C:/Users/leonardo/Desktop/Code/Github/DawnGBC/Libraries/FWLIB/src\gd32f4xx_dma.c ****     }
 235:C:/Users/leonardo/Desktop/Code/Github/DawnGBC/Libraries/FWLIB/src\gd32f4xx_dma.c **** }
 1117              		.loc 1 235 1
 1118 0042 19E0     		b	.L33
 1119              	.L31:
 232:C:/Users/leonardo/Desktop/Code/Github/DawnGBC/Libraries/FWLIB/src\gd32f4xx_dma.c ****         DMA_INTC1(dma_periph) |= DMA_FLAG_ADD(flag,channelx);
 1120              		.loc 1 232 18
 1121 0044 FB7A     		ldrb	r3, [r7, #11]
 1122 0046 043B     		subs	r3, r3, #4
 1123 0048 FB72     		strb	r3, [r7, #11]
 233:C:/Users/leonardo/Desktop/Code/Github/DawnGBC/Libraries/FWLIB/src\gd32f4xx_dma.c ****     }
 1124              		.loc 1 233 31
 1125 004a FB68     		ldr	r3, [r7, #12]
 1126 004c 0C33     		adds	r3, r3, #12
 1127 004e 1968     		ldr	r1, [r3]
 233:C:/Users/leonardo/Desktop/Code/Github/DawnGBC/Libraries/FWLIB/src\gd32f4xx_dma.c ****     }
 1128              		.loc 1 233 34
 1129 0050 FA7A     		ldrb	r2, [r7, #11]	@ zero_extendqisi2
 1130 0052 1346     		mov	r3, r2
 1131 0054 5B00     		lsls	r3, r3, #1
 1132 0056 1344     		add	r3, r3, r2
 1133 0058 5B00     		lsls	r3, r3, #1
 1134 005a 1A46     		mov	r2, r3
 1135 005c FB7A     		ldrb	r3, [r7, #11]	@ zero_extendqisi2
 1136 005e 5B08     		lsrs	r3, r3, #1
 1137 0060 DBB2     		uxtb	r3, r3
 1138 0062 03F00103 		and	r3, r3, #1
 1139 0066 9B00     		lsls	r3, r3, #2
 1140 0068 1344     		add	r3, r3, r2
 1141 006a 7A68     		ldr	r2, [r7, #4]
 1142 006c 02FA03F3 		lsl	r3, r2, r3
 233:C:/Users/leonardo/Desktop/Code/Github/DawnGBC/Libraries/FWLIB/src\gd32f4xx_dma.c ****     }
 1143              		.loc 1 233 31
 1144 0070 FA68     		ldr	r2, [r7, #12]
 1145 0072 0C32     		adds	r2, r2, #12
 1146 0074 0B43     		orrs	r3, r3, r1
 1147 0076 1360     		str	r3, [r2]
 1148              	.L33:
 1149              		.loc 1 235 1
 1150 0078 00BF     		nop
 1151 007a 1437     		adds	r7, r7, #20
 1152              		.cfi_def_cfa_offset 4
 1153 007c BD46     		mov	sp, r7
 1154              		.cfi_def_cfa_register 13
 1155              		@ sp needed
 1156 007e 80BC     		pop	{r7}
 1157              		.cfi_restore 7
 1158              		.cfi_def_cfa_offset 0
 1159 0080 7047     		bx	lr
 1160              		.cfi_endproc
 1161              	.LFE127:
 1163              		.section	.text.dma_interrupt_flag_get,"ax",%progbits
 1164              		.align	1
 1165              		.global	dma_interrupt_flag_get
 1166              		.syntax unified
 1167              		.thumb
 1168              		.thumb_func
 1169              		.fpu softvfp
 1171              	dma_interrupt_flag_get:
 1172              	.LFB128:
 236:C:/Users/leonardo/Desktop/Code/Github/DawnGBC/Libraries/FWLIB/src\gd32f4xx_dma.c **** 
 237:C:/Users/leonardo/Desktop/Code/Github/DawnGBC/Libraries/FWLIB/src\gd32f4xx_dma.c **** /*!
 238:C:/Users/leonardo/Desktop/Code/Github/DawnGBC/Libraries/FWLIB/src\gd32f4xx_dma.c ****     \brief      get DMA interrupt flag is set or not 
 239:C:/Users/leonardo/Desktop/Code/Github/DawnGBC/Libraries/FWLIB/src\gd32f4xx_dma.c ****     \param[in]  dma_periph: DMAx(x=0,1)
 240:C:/Users/leonardo/Desktop/Code/Github/DawnGBC/Libraries/FWLIB/src\gd32f4xx_dma.c ****       \arg        DMAx(x=0,1)
 241:C:/Users/leonardo/Desktop/Code/Github/DawnGBC/Libraries/FWLIB/src\gd32f4xx_dma.c ****     \param[in]  channelx: specify which DMA channel to get interrupt flag
 242:C:/Users/leonardo/Desktop/Code/Github/DawnGBC/Libraries/FWLIB/src\gd32f4xx_dma.c ****       \arg        DMA_CHx(x=0..7)
 243:C:/Users/leonardo/Desktop/Code/Github/DawnGBC/Libraries/FWLIB/src\gd32f4xx_dma.c ****     \param[in]  interrupt: specify get which flag
 244:C:/Users/leonardo/Desktop/Code/Github/DawnGBC/Libraries/FWLIB/src\gd32f4xx_dma.c ****       \arg        DMA_INTF_FEEIF: FIFO error and exception flag
 245:C:/Users/leonardo/Desktop/Code/Github/DawnGBC/Libraries/FWLIB/src\gd32f4xx_dma.c ****       \arg        DMA_INTF_SDEIF: single data mode exception flag
 246:C:/Users/leonardo/Desktop/Code/Github/DawnGBC/Libraries/FWLIB/src\gd32f4xx_dma.c ****       \arg        DMA_INTF_TAEIF: transfer access error flag
 247:C:/Users/leonardo/Desktop/Code/Github/DawnGBC/Libraries/FWLIB/src\gd32f4xx_dma.c ****       \arg        DMA_INTF_HTFIF: half transfer finish flag
 248:C:/Users/leonardo/Desktop/Code/Github/DawnGBC/Libraries/FWLIB/src\gd32f4xx_dma.c ****       \arg        DMA_INTF_FTFIF: full transger finish flag
 249:C:/Users/leonardo/Desktop/Code/Github/DawnGBC/Libraries/FWLIB/src\gd32f4xx_dma.c ****     \param[out] none
 250:C:/Users/leonardo/Desktop/Code/Github/DawnGBC/Libraries/FWLIB/src\gd32f4xx_dma.c ****     \retval     FlagStatus: SET or RESET
 251:C:/Users/leonardo/Desktop/Code/Github/DawnGBC/Libraries/FWLIB/src\gd32f4xx_dma.c **** */
 252:C:/Users/leonardo/Desktop/Code/Github/DawnGBC/Libraries/FWLIB/src\gd32f4xx_dma.c **** FlagStatus dma_interrupt_flag_get(uint32_t dma_periph,dma_channel_enum channelx,uint32_t interrupt)
 253:C:/Users/leonardo/Desktop/Code/Github/DawnGBC/Libraries/FWLIB/src\gd32f4xx_dma.c **** {
 1173              		.loc 1 253 1
 1174              		.cfi_startproc
 1175              		@ args = 0, pretend = 0, frame = 32
 1176              		@ frame_needed = 1, uses_anonymous_args = 0
 1177              		@ link register save eliminated.
 1178 0000 80B4     		push	{r7}
 1179              		.cfi_def_cfa_offset 4
 1180              		.cfi_offset 7, -4
 1181 0002 89B0     		sub	sp, sp, #36
 1182              		.cfi_def_cfa_offset 40
 1183 0004 00AF     		add	r7, sp, #0
 1184              		.cfi_def_cfa_register 7
 1185 0006 F860     		str	r0, [r7, #12]
 1186 0008 0B46     		mov	r3, r1
 1187 000a 7A60     		str	r2, [r7, #4]
 1188 000c FB72     		strb	r3, [r7, #11]
 254:C:/Users/leonardo/Desktop/Code/Github/DawnGBC/Libraries/FWLIB/src\gd32f4xx_dma.c ****     uint32_t interrupt_enable = 0U,interrupt_flag = 0U;
 1189              		.loc 1 254 14
 1190 000e 0023     		movs	r3, #0
 1191 0010 FB61     		str	r3, [r7, #28]
 1192              		.loc 1 254 36
 1193 0012 0023     		movs	r3, #0
 1194 0014 BB61     		str	r3, [r7, #24]
 255:C:/Users/leonardo/Desktop/Code/Github/DawnGBC/Libraries/FWLIB/src\gd32f4xx_dma.c ****     dma_channel_enum channel_flag_offset = channelx;
 1195              		.loc 1 255 22
 1196 0016 FB7A     		ldrb	r3, [r7, #11]
 1197 0018 FB75     		strb	r3, [r7, #23]
 256:C:/Users/leonardo/Desktop/Code/Github/DawnGBC/Libraries/FWLIB/src\gd32f4xx_dma.c ****     if(channelx < DMA_CH4){
 1198              		.loc 1 256 7
 1199 001a FB7A     		ldrb	r3, [r7, #11]	@ zero_extendqisi2
 1200 001c 032B     		cmp	r3, #3
 1201 001e 00F2F380 		bhi	.L35
 1202 0022 7B68     		ldr	r3, [r7, #4]
 1203 0024 013B     		subs	r3, r3, #1
 1204 0026 1F2B     		cmp	r3, #31
 1205 0028 00F2E981 		bhi	.L54
 1206 002c 01A2     		adr	r2, .L38
 1207 002e 52F823F0 		ldr	pc, [r2, r3, lsl #2]
 1208 0032 00BF     		.p2align 2
 1209              	.L38:
 1210 0034 B5000000 		.word	.L42+1
 1211 0038 FF030000 		.word	.L54+1
 1212 003c FF030000 		.word	.L54+1
 1213 0040 F9000000 		.word	.L41+1
 1214 0044 FF030000 		.word	.L54+1
 1215 0048 FF030000 		.word	.L54+1
 1216 004c FF030000 		.word	.L54+1
 1217 0050 3D010000 		.word	.L40+1
 1218 0054 FF030000 		.word	.L54+1
 1219 0058 FF030000 		.word	.L54+1
 1220 005c FF030000 		.word	.L54+1
 1221 0060 FF030000 		.word	.L54+1
 1222 0064 FF030000 		.word	.L54+1
 1223 0068 FF030000 		.word	.L54+1
 1224 006c FF030000 		.word	.L54+1
 1225 0070 81010000 		.word	.L39+1
 1226 0074 FF030000 		.word	.L54+1
 1227 0078 FF030000 		.word	.L54+1
 1228 007c FF030000 		.word	.L54+1
 1229 0080 FF030000 		.word	.L54+1
 1230 0084 FF030000 		.word	.L54+1
 1231 0088 FF030000 		.word	.L54+1
 1232 008c FF030000 		.word	.L54+1
 1233 0090 FF030000 		.word	.L54+1
 1234 0094 FF030000 		.word	.L54+1
 1235 0098 FF030000 		.word	.L54+1
 1236 009c FF030000 		.word	.L54+1
 1237 00a0 FF030000 		.word	.L54+1
 1238 00a4 FF030000 		.word	.L54+1
 1239 00a8 FF030000 		.word	.L54+1
 1240 00ac FF030000 		.word	.L54+1
 1241 00b0 C5010000 		.word	.L37+1
 1242              		.p2align 1
 1243              	.L42:
 257:C:/Users/leonardo/Desktop/Code/Github/DawnGBC/Libraries/FWLIB/src\gd32f4xx_dma.c ****         switch(interrupt){
 258:C:/Users/leonardo/Desktop/Code/Github/DawnGBC/Libraries/FWLIB/src\gd32f4xx_dma.c ****         case DMA_INTF_FEEIF:
 259:C:/Users/leonardo/Desktop/Code/Github/DawnGBC/Libraries/FWLIB/src\gd32f4xx_dma.c ****             interrupt_flag = DMA_INTF0(dma_periph) & DMA_FLAG_ADD(interrupt,channelx);
 1244              		.loc 1 259 30
 1245 00b4 FB68     		ldr	r3, [r7, #12]
 1246 00b6 1968     		ldr	r1, [r3]
 1247              		.loc 1 259 54
 1248 00b8 FA7A     		ldrb	r2, [r7, #11]	@ zero_extendqisi2
 1249 00ba 1346     		mov	r3, r2
 1250 00bc 5B00     		lsls	r3, r3, #1
 1251 00be 1344     		add	r3, r3, r2
 1252 00c0 5B00     		lsls	r3, r3, #1
 1253 00c2 1A46     		mov	r2, r3
 1254 00c4 FB7A     		ldrb	r3, [r7, #11]	@ zero_extendqisi2
 1255 00c6 5B08     		lsrs	r3, r3, #1
 1256 00c8 DBB2     		uxtb	r3, r3
 1257 00ca 03F00103 		and	r3, r3, #1
 1258 00ce 9B00     		lsls	r3, r3, #2
 1259 00d0 1344     		add	r3, r3, r2
 1260 00d2 7A68     		ldr	r2, [r7, #4]
 1261 00d4 02FA03F3 		lsl	r3, r2, r3
 1262              		.loc 1 259 28
 1263 00d8 0B40     		ands	r3, r3, r1
 1264 00da BB61     		str	r3, [r7, #24]
 260:C:/Users/leonardo/Desktop/Code/Github/DawnGBC/Libraries/FWLIB/src\gd32f4xx_dma.c ****             interrupt_enable = DMA_CHFCTL(dma_periph,channelx) & DMA_CHXFCTL_FEEIE;
 1265              		.loc 1 260 32
 1266 00dc FA7A     		ldrb	r2, [r7, #11]	@ zero_extendqisi2
 1267 00de 1346     		mov	r3, r2
 1268 00e0 5B00     		lsls	r3, r3, #1
 1269 00e2 1344     		add	r3, r3, r2
 1270 00e4 DB00     		lsls	r3, r3, #3
 1271 00e6 1A46     		mov	r2, r3
 1272 00e8 FB68     		ldr	r3, [r7, #12]
 1273 00ea 1344     		add	r3, r3, r2
 1274 00ec 2433     		adds	r3, r3, #36
 1275 00ee 1B68     		ldr	r3, [r3]
 1276              		.loc 1 260 30
 1277 00f0 03F08003 		and	r3, r3, #128
 1278 00f4 FB61     		str	r3, [r7, #28]
 261:C:/Users/leonardo/Desktop/Code/Github/DawnGBC/Libraries/FWLIB/src\gd32f4xx_dma.c ****             break;
 1279              		.loc 1 261 13
 1280 00f6 85E1     		b	.L44
 1281              	.L41:
 262:C:/Users/leonardo/Desktop/Code/Github/DawnGBC/Libraries/FWLIB/src\gd32f4xx_dma.c ****         case DMA_INTF_SDEIF:
 263:C:/Users/leonardo/Desktop/Code/Github/DawnGBC/Libraries/FWLIB/src\gd32f4xx_dma.c ****             interrupt_flag = DMA_INTF0(dma_periph) & DMA_FLAG_ADD(interrupt,channelx);
 1282              		.loc 1 263 30
 1283 00f8 FB68     		ldr	r3, [r7, #12]
 1284 00fa 1968     		ldr	r1, [r3]
 1285              		.loc 1 263 54
 1286 00fc FA7A     		ldrb	r2, [r7, #11]	@ zero_extendqisi2
 1287 00fe 1346     		mov	r3, r2
 1288 0100 5B00     		lsls	r3, r3, #1
 1289 0102 1344     		add	r3, r3, r2
 1290 0104 5B00     		lsls	r3, r3, #1
 1291 0106 1A46     		mov	r2, r3
 1292 0108 FB7A     		ldrb	r3, [r7, #11]	@ zero_extendqisi2
 1293 010a 5B08     		lsrs	r3, r3, #1
 1294 010c DBB2     		uxtb	r3, r3
 1295 010e 03F00103 		and	r3, r3, #1
 1296 0112 9B00     		lsls	r3, r3, #2
 1297 0114 1344     		add	r3, r3, r2
 1298 0116 7A68     		ldr	r2, [r7, #4]
 1299 0118 02FA03F3 		lsl	r3, r2, r3
 1300              		.loc 1 263 28
 1301 011c 0B40     		ands	r3, r3, r1
 1302 011e BB61     		str	r3, [r7, #24]
 264:C:/Users/leonardo/Desktop/Code/Github/DawnGBC/Libraries/FWLIB/src\gd32f4xx_dma.c ****             interrupt_enable = DMA_CHCTL(dma_periph,channelx) & DMA_CHXCTL_SDEIE;
 1303              		.loc 1 264 32
 1304 0120 FA7A     		ldrb	r2, [r7, #11]	@ zero_extendqisi2
 1305 0122 1346     		mov	r3, r2
 1306 0124 5B00     		lsls	r3, r3, #1
 1307 0126 1344     		add	r3, r3, r2
 1308 0128 DB00     		lsls	r3, r3, #3
 1309 012a 1A46     		mov	r2, r3
 1310 012c FB68     		ldr	r3, [r7, #12]
 1311 012e 1344     		add	r3, r3, r2
 1312 0130 1033     		adds	r3, r3, #16
 1313 0132 1B68     		ldr	r3, [r3]
 1314              		.loc 1 264 30
 1315 0134 03F00203 		and	r3, r3, #2
 1316 0138 FB61     		str	r3, [r7, #28]
 265:C:/Users/leonardo/Desktop/Code/Github/DawnGBC/Libraries/FWLIB/src\gd32f4xx_dma.c ****             break;
 1317              		.loc 1 265 13
 1318 013a 63E1     		b	.L44
 1319              	.L40:
 266:C:/Users/leonardo/Desktop/Code/Github/DawnGBC/Libraries/FWLIB/src\gd32f4xx_dma.c ****         case DMA_INTF_TAEIF:
 267:C:/Users/leonardo/Desktop/Code/Github/DawnGBC/Libraries/FWLIB/src\gd32f4xx_dma.c ****             interrupt_flag = DMA_INTF0(dma_periph) & DMA_FLAG_ADD(interrupt,channelx);
 1320              		.loc 1 267 30
 1321 013c FB68     		ldr	r3, [r7, #12]
 1322 013e 1968     		ldr	r1, [r3]
 1323              		.loc 1 267 54
 1324 0140 FA7A     		ldrb	r2, [r7, #11]	@ zero_extendqisi2
 1325 0142 1346     		mov	r3, r2
 1326 0144 5B00     		lsls	r3, r3, #1
 1327 0146 1344     		add	r3, r3, r2
 1328 0148 5B00     		lsls	r3, r3, #1
 1329 014a 1A46     		mov	r2, r3
 1330 014c FB7A     		ldrb	r3, [r7, #11]	@ zero_extendqisi2
 1331 014e 5B08     		lsrs	r3, r3, #1
 1332 0150 DBB2     		uxtb	r3, r3
 1333 0152 03F00103 		and	r3, r3, #1
 1334 0156 9B00     		lsls	r3, r3, #2
 1335 0158 1344     		add	r3, r3, r2
 1336 015a 7A68     		ldr	r2, [r7, #4]
 1337 015c 02FA03F3 		lsl	r3, r2, r3
 1338              		.loc 1 267 28
 1339 0160 0B40     		ands	r3, r3, r1
 1340 0162 BB61     		str	r3, [r7, #24]
 268:C:/Users/leonardo/Desktop/Code/Github/DawnGBC/Libraries/FWLIB/src\gd32f4xx_dma.c ****             interrupt_enable = DMA_CHCTL(dma_periph,channelx) & DMA_CHXCTL_TAEIE;
 1341              		.loc 1 268 32
 1342 0164 FA7A     		ldrb	r2, [r7, #11]	@ zero_extendqisi2
 1343 0166 1346     		mov	r3, r2
 1344 0168 5B00     		lsls	r3, r3, #1
 1345 016a 1344     		add	r3, r3, r2
 1346 016c DB00     		lsls	r3, r3, #3
 1347 016e 1A46     		mov	r2, r3
 1348 0170 FB68     		ldr	r3, [r7, #12]
 1349 0172 1344     		add	r3, r3, r2
 1350 0174 1033     		adds	r3, r3, #16
 1351 0176 1B68     		ldr	r3, [r3]
 1352              		.loc 1 268 30
 1353 0178 03F00403 		and	r3, r3, #4
 1354 017c FB61     		str	r3, [r7, #28]
 269:C:/Users/leonardo/Desktop/Code/Github/DawnGBC/Libraries/FWLIB/src\gd32f4xx_dma.c ****             break;
 1355              		.loc 1 269 13
 1356 017e 41E1     		b	.L44
 1357              	.L39:
 270:C:/Users/leonardo/Desktop/Code/Github/DawnGBC/Libraries/FWLIB/src\gd32f4xx_dma.c ****         case DMA_INTF_HTFIF:
 271:C:/Users/leonardo/Desktop/Code/Github/DawnGBC/Libraries/FWLIB/src\gd32f4xx_dma.c ****             interrupt_flag = DMA_INTF0(dma_periph) & DMA_FLAG_ADD(interrupt,channelx);
 1358              		.loc 1 271 30
 1359 0180 FB68     		ldr	r3, [r7, #12]
 1360 0182 1968     		ldr	r1, [r3]
 1361              		.loc 1 271 54
 1362 0184 FA7A     		ldrb	r2, [r7, #11]	@ zero_extendqisi2
 1363 0186 1346     		mov	r3, r2
 1364 0188 5B00     		lsls	r3, r3, #1
 1365 018a 1344     		add	r3, r3, r2
 1366 018c 5B00     		lsls	r3, r3, #1
 1367 018e 1A46     		mov	r2, r3
 1368 0190 FB7A     		ldrb	r3, [r7, #11]	@ zero_extendqisi2
 1369 0192 5B08     		lsrs	r3, r3, #1
 1370 0194 DBB2     		uxtb	r3, r3
 1371 0196 03F00103 		and	r3, r3, #1
 1372 019a 9B00     		lsls	r3, r3, #2
 1373 019c 1344     		add	r3, r3, r2
 1374 019e 7A68     		ldr	r2, [r7, #4]
 1375 01a0 02FA03F3 		lsl	r3, r2, r3
 1376              		.loc 1 271 28
 1377 01a4 0B40     		ands	r3, r3, r1
 1378 01a6 BB61     		str	r3, [r7, #24]
 272:C:/Users/leonardo/Desktop/Code/Github/DawnGBC/Libraries/FWLIB/src\gd32f4xx_dma.c ****             interrupt_enable = DMA_CHCTL(dma_periph,channelx) & DMA_CHXCTL_HTFIE;
 1379              		.loc 1 272 32
 1380 01a8 FA7A     		ldrb	r2, [r7, #11]	@ zero_extendqisi2
 1381 01aa 1346     		mov	r3, r2
 1382 01ac 5B00     		lsls	r3, r3, #1
 1383 01ae 1344     		add	r3, r3, r2
 1384 01b0 DB00     		lsls	r3, r3, #3
 1385 01b2 1A46     		mov	r2, r3
 1386 01b4 FB68     		ldr	r3, [r7, #12]
 1387 01b6 1344     		add	r3, r3, r2
 1388 01b8 1033     		adds	r3, r3, #16
 1389 01ba 1B68     		ldr	r3, [r3]
 1390              		.loc 1 272 30
 1391 01bc 03F00803 		and	r3, r3, #8
 1392 01c0 FB61     		str	r3, [r7, #28]
 273:C:/Users/leonardo/Desktop/Code/Github/DawnGBC/Libraries/FWLIB/src\gd32f4xx_dma.c ****             break;
 1393              		.loc 1 273 13
 1394 01c2 1FE1     		b	.L44
 1395              	.L37:
 274:C:/Users/leonardo/Desktop/Code/Github/DawnGBC/Libraries/FWLIB/src\gd32f4xx_dma.c ****         case DMA_INTF_FTFIF:
 275:C:/Users/leonardo/Desktop/Code/Github/DawnGBC/Libraries/FWLIB/src\gd32f4xx_dma.c ****             interrupt_flag = (DMA_INTF0(dma_periph) & DMA_FLAG_ADD(interrupt,channelx));
 1396              		.loc 1 275 31
 1397 01c4 FB68     		ldr	r3, [r7, #12]
 1398 01c6 1968     		ldr	r1, [r3]
 1399              		.loc 1 275 55
 1400 01c8 FA7A     		ldrb	r2, [r7, #11]	@ zero_extendqisi2
 1401 01ca 1346     		mov	r3, r2
 1402 01cc 5B00     		lsls	r3, r3, #1
 1403 01ce 1344     		add	r3, r3, r2
 1404 01d0 5B00     		lsls	r3, r3, #1
 1405 01d2 1A46     		mov	r2, r3
 1406 01d4 FB7A     		ldrb	r3, [r7, #11]	@ zero_extendqisi2
 1407 01d6 5B08     		lsrs	r3, r3, #1
 1408 01d8 DBB2     		uxtb	r3, r3
 1409 01da 03F00103 		and	r3, r3, #1
 1410 01de 9B00     		lsls	r3, r3, #2
 1411 01e0 1344     		add	r3, r3, r2
 1412 01e2 7A68     		ldr	r2, [r7, #4]
 1413 01e4 02FA03F3 		lsl	r3, r2, r3
 1414              		.loc 1 275 28
 1415 01e8 0B40     		ands	r3, r3, r1
 1416 01ea BB61     		str	r3, [r7, #24]
 276:C:/Users/leonardo/Desktop/Code/Github/DawnGBC/Libraries/FWLIB/src\gd32f4xx_dma.c ****             interrupt_enable = (DMA_CHCTL(dma_periph,channelx) & DMA_CHXCTL_FTFIE);
 1417              		.loc 1 276 33
 1418 01ec FA7A     		ldrb	r2, [r7, #11]	@ zero_extendqisi2
 1419 01ee 1346     		mov	r3, r2
 1420 01f0 5B00     		lsls	r3, r3, #1
 1421 01f2 1344     		add	r3, r3, r2
 1422 01f4 DB00     		lsls	r3, r3, #3
 1423 01f6 1A46     		mov	r2, r3
 1424 01f8 FB68     		ldr	r3, [r7, #12]
 1425 01fa 1344     		add	r3, r3, r2
 1426 01fc 1033     		adds	r3, r3, #16
 1427 01fe 1B68     		ldr	r3, [r3]
 1428              		.loc 1 276 30
 1429 0200 03F01003 		and	r3, r3, #16
 1430 0204 FB61     		str	r3, [r7, #28]
 277:C:/Users/leonardo/Desktop/Code/Github/DawnGBC/Libraries/FWLIB/src\gd32f4xx_dma.c ****             break;
 1431              		.loc 1 277 13
 1432 0206 FDE0     		b	.L44
 1433              	.L35:
 278:C:/Users/leonardo/Desktop/Code/Github/DawnGBC/Libraries/FWLIB/src\gd32f4xx_dma.c ****         default:
 279:C:/Users/leonardo/Desktop/Code/Github/DawnGBC/Libraries/FWLIB/src\gd32f4xx_dma.c ****             break;
 280:C:/Users/leonardo/Desktop/Code/Github/DawnGBC/Libraries/FWLIB/src\gd32f4xx_dma.c ****         }
 281:C:/Users/leonardo/Desktop/Code/Github/DawnGBC/Libraries/FWLIB/src\gd32f4xx_dma.c ****     }else{
 282:C:/Users/leonardo/Desktop/Code/Github/DawnGBC/Libraries/FWLIB/src\gd32f4xx_dma.c ****         channel_flag_offset -= (dma_channel_enum)4;
 1434              		.loc 1 282 29
 1435 0208 FB7D     		ldrb	r3, [r7, #23]
 1436 020a 043B     		subs	r3, r3, #4
 1437 020c FB75     		strb	r3, [r7, #23]
 1438 020e 7B68     		ldr	r3, [r7, #4]
 1439 0210 013B     		subs	r3, r3, #1
 1440 0212 1F2B     		cmp	r3, #31
 1441 0214 00F2F580 		bhi	.L55
 1442 0218 01A2     		adr	r2, .L47
 1443 021a 52F823F0 		ldr	pc, [r2, r3, lsl #2]
 1444 021e 00BF     		.p2align 2
 1445              	.L47:
 1446 0220 A1020000 		.word	.L51+1
 1447 0224 03040000 		.word	.L55+1
 1448 0228 03040000 		.word	.L55+1
 1449 022c E7020000 		.word	.L50+1
 1450 0230 03040000 		.word	.L55+1
 1451 0234 03040000 		.word	.L55+1
 1452 0238 03040000 		.word	.L55+1
 1453 023c 2D030000 		.word	.L49+1
 1454 0240 03040000 		.word	.L55+1
 1455 0244 03040000 		.word	.L55+1
 1456 0248 03040000 		.word	.L55+1
 1457 024c 03040000 		.word	.L55+1
 1458 0250 03040000 		.word	.L55+1
 1459 0254 03040000 		.word	.L55+1
 1460 0258 03040000 		.word	.L55+1
 1461 025c 73030000 		.word	.L48+1
 1462 0260 03040000 		.word	.L55+1
 1463 0264 03040000 		.word	.L55+1
 1464 0268 03040000 		.word	.L55+1
 1465 026c 03040000 		.word	.L55+1
 1466 0270 03040000 		.word	.L55+1
 1467 0274 03040000 		.word	.L55+1
 1468 0278 03040000 		.word	.L55+1
 1469 027c 03040000 		.word	.L55+1
 1470 0280 03040000 		.word	.L55+1
 1471 0284 03040000 		.word	.L55+1
 1472 0288 03040000 		.word	.L55+1
 1473 028c 03040000 		.word	.L55+1
 1474 0290 03040000 		.word	.L55+1
 1475 0294 03040000 		.word	.L55+1
 1476 0298 03040000 		.word	.L55+1
 1477 029c B9030000 		.word	.L46+1
 1478              		.p2align 1
 1479              	.L51:
 283:C:/Users/leonardo/Desktop/Code/Github/DawnGBC/Libraries/FWLIB/src\gd32f4xx_dma.c ****         switch(interrupt){
 284:C:/Users/leonardo/Desktop/Code/Github/DawnGBC/Libraries/FWLIB/src\gd32f4xx_dma.c ****         case DMA_INTF_FEEIF:
 285:C:/Users/leonardo/Desktop/Code/Github/DawnGBC/Libraries/FWLIB/src\gd32f4xx_dma.c ****             interrupt_flag = DMA_INTF1(dma_periph) & DMA_FLAG_ADD(interrupt,channel_flag_offset);
 1480              		.loc 1 285 30
 1481 02a0 FB68     		ldr	r3, [r7, #12]
 1482 02a2 0433     		adds	r3, r3, #4
 1483 02a4 1968     		ldr	r1, [r3]
 1484              		.loc 1 285 54
 1485 02a6 FA7D     		ldrb	r2, [r7, #23]	@ zero_extendqisi2
 1486 02a8 1346     		mov	r3, r2
 1487 02aa 5B00     		lsls	r3, r3, #1
 1488 02ac 1344     		add	r3, r3, r2
 1489 02ae 5B00     		lsls	r3, r3, #1
 1490 02b0 1A46     		mov	r2, r3
 1491 02b2 FB7D     		ldrb	r3, [r7, #23]	@ zero_extendqisi2
 1492 02b4 5B08     		lsrs	r3, r3, #1
 1493 02b6 DBB2     		uxtb	r3, r3
 1494 02b8 03F00103 		and	r3, r3, #1
 1495 02bc 9B00     		lsls	r3, r3, #2
 1496 02be 1344     		add	r3, r3, r2
 1497 02c0 7A68     		ldr	r2, [r7, #4]
 1498 02c2 02FA03F3 		lsl	r3, r2, r3
 1499              		.loc 1 285 28
 1500 02c6 0B40     		ands	r3, r3, r1
 1501 02c8 BB61     		str	r3, [r7, #24]
 286:C:/Users/leonardo/Desktop/Code/Github/DawnGBC/Libraries/FWLIB/src\gd32f4xx_dma.c ****             interrupt_enable = DMA_CHFCTL(dma_periph,channelx) & DMA_CHXFCTL_FEEIE;
 1502              		.loc 1 286 32
 1503 02ca FA7A     		ldrb	r2, [r7, #11]	@ zero_extendqisi2
 1504 02cc 1346     		mov	r3, r2
 1505 02ce 5B00     		lsls	r3, r3, #1
 1506 02d0 1344     		add	r3, r3, r2
 1507 02d2 DB00     		lsls	r3, r3, #3
 1508 02d4 1A46     		mov	r2, r3
 1509 02d6 FB68     		ldr	r3, [r7, #12]
 1510 02d8 1344     		add	r3, r3, r2
 1511 02da 2433     		adds	r3, r3, #36
 1512 02dc 1B68     		ldr	r3, [r3]
 1513              		.loc 1 286 30
 1514 02de 03F08003 		and	r3, r3, #128
 1515 02e2 FB61     		str	r3, [r7, #28]
 287:C:/Users/leonardo/Desktop/Code/Github/DawnGBC/Libraries/FWLIB/src\gd32f4xx_dma.c ****             break;
 1516              		.loc 1 287 13
 1517 02e4 8EE0     		b	.L44
 1518              	.L50:
 288:C:/Users/leonardo/Desktop/Code/Github/DawnGBC/Libraries/FWLIB/src\gd32f4xx_dma.c ****         case DMA_INTF_SDEIF:
 289:C:/Users/leonardo/Desktop/Code/Github/DawnGBC/Libraries/FWLIB/src\gd32f4xx_dma.c ****             interrupt_flag = DMA_INTF1(dma_periph) & DMA_FLAG_ADD(interrupt,channel_flag_offset);
 1519              		.loc 1 289 30
 1520 02e6 FB68     		ldr	r3, [r7, #12]
 1521 02e8 0433     		adds	r3, r3, #4
 1522 02ea 1968     		ldr	r1, [r3]
 1523              		.loc 1 289 54
 1524 02ec FA7D     		ldrb	r2, [r7, #23]	@ zero_extendqisi2
 1525 02ee 1346     		mov	r3, r2
 1526 02f0 5B00     		lsls	r3, r3, #1
 1527 02f2 1344     		add	r3, r3, r2
 1528 02f4 5B00     		lsls	r3, r3, #1
 1529 02f6 1A46     		mov	r2, r3
 1530 02f8 FB7D     		ldrb	r3, [r7, #23]	@ zero_extendqisi2
 1531 02fa 5B08     		lsrs	r3, r3, #1
 1532 02fc DBB2     		uxtb	r3, r3
 1533 02fe 03F00103 		and	r3, r3, #1
 1534 0302 9B00     		lsls	r3, r3, #2
 1535 0304 1344     		add	r3, r3, r2
 1536 0306 7A68     		ldr	r2, [r7, #4]
 1537 0308 02FA03F3 		lsl	r3, r2, r3
 1538              		.loc 1 289 28
 1539 030c 0B40     		ands	r3, r3, r1
 1540 030e BB61     		str	r3, [r7, #24]
 290:C:/Users/leonardo/Desktop/Code/Github/DawnGBC/Libraries/FWLIB/src\gd32f4xx_dma.c ****             interrupt_enable = DMA_CHCTL(dma_periph,channelx) & DMA_CHXCTL_SDEIE;
 1541              		.loc 1 290 32
 1542 0310 FA7A     		ldrb	r2, [r7, #11]	@ zero_extendqisi2
 1543 0312 1346     		mov	r3, r2
 1544 0314 5B00     		lsls	r3, r3, #1
 1545 0316 1344     		add	r3, r3, r2
 1546 0318 DB00     		lsls	r3, r3, #3
 1547 031a 1A46     		mov	r2, r3
 1548 031c FB68     		ldr	r3, [r7, #12]
 1549 031e 1344     		add	r3, r3, r2
 1550 0320 1033     		adds	r3, r3, #16
 1551 0322 1B68     		ldr	r3, [r3]
 1552              		.loc 1 290 30
 1553 0324 03F00203 		and	r3, r3, #2
 1554 0328 FB61     		str	r3, [r7, #28]
 291:C:/Users/leonardo/Desktop/Code/Github/DawnGBC/Libraries/FWLIB/src\gd32f4xx_dma.c ****             break;
 1555              		.loc 1 291 13
 1556 032a 6BE0     		b	.L44
 1557              	.L49:
 292:C:/Users/leonardo/Desktop/Code/Github/DawnGBC/Libraries/FWLIB/src\gd32f4xx_dma.c ****         case DMA_INTF_TAEIF:
 293:C:/Users/leonardo/Desktop/Code/Github/DawnGBC/Libraries/FWLIB/src\gd32f4xx_dma.c ****             interrupt_flag = DMA_INTF1(dma_periph) & DMA_FLAG_ADD(interrupt,channel_flag_offset);
 1558              		.loc 1 293 30
 1559 032c FB68     		ldr	r3, [r7, #12]
 1560 032e 0433     		adds	r3, r3, #4
 1561 0330 1968     		ldr	r1, [r3]
 1562              		.loc 1 293 54
 1563 0332 FA7D     		ldrb	r2, [r7, #23]	@ zero_extendqisi2
 1564 0334 1346     		mov	r3, r2
 1565 0336 5B00     		lsls	r3, r3, #1
 1566 0338 1344     		add	r3, r3, r2
 1567 033a 5B00     		lsls	r3, r3, #1
 1568 033c 1A46     		mov	r2, r3
 1569 033e FB7D     		ldrb	r3, [r7, #23]	@ zero_extendqisi2
 1570 0340 5B08     		lsrs	r3, r3, #1
 1571 0342 DBB2     		uxtb	r3, r3
 1572 0344 03F00103 		and	r3, r3, #1
 1573 0348 9B00     		lsls	r3, r3, #2
 1574 034a 1344     		add	r3, r3, r2
 1575 034c 7A68     		ldr	r2, [r7, #4]
 1576 034e 02FA03F3 		lsl	r3, r2, r3
 1577              		.loc 1 293 28
 1578 0352 0B40     		ands	r3, r3, r1
 1579 0354 BB61     		str	r3, [r7, #24]
 294:C:/Users/leonardo/Desktop/Code/Github/DawnGBC/Libraries/FWLIB/src\gd32f4xx_dma.c ****             interrupt_enable = DMA_CHCTL(dma_periph,channelx) & DMA_CHXCTL_TAEIE;
 1580              		.loc 1 294 32
 1581 0356 FA7A     		ldrb	r2, [r7, #11]	@ zero_extendqisi2
 1582 0358 1346     		mov	r3, r2
 1583 035a 5B00     		lsls	r3, r3, #1
 1584 035c 1344     		add	r3, r3, r2
 1585 035e DB00     		lsls	r3, r3, #3
 1586 0360 1A46     		mov	r2, r3
 1587 0362 FB68     		ldr	r3, [r7, #12]
 1588 0364 1344     		add	r3, r3, r2
 1589 0366 1033     		adds	r3, r3, #16
 1590 0368 1B68     		ldr	r3, [r3]
 1591              		.loc 1 294 30
 1592 036a 03F00403 		and	r3, r3, #4
 1593 036e FB61     		str	r3, [r7, #28]
 295:C:/Users/leonardo/Desktop/Code/Github/DawnGBC/Libraries/FWLIB/src\gd32f4xx_dma.c ****             break;
 1594              		.loc 1 295 13
 1595 0370 48E0     		b	.L44
 1596              	.L48:
 296:C:/Users/leonardo/Desktop/Code/Github/DawnGBC/Libraries/FWLIB/src\gd32f4xx_dma.c ****         case DMA_INTF_HTFIF:
 297:C:/Users/leonardo/Desktop/Code/Github/DawnGBC/Libraries/FWLIB/src\gd32f4xx_dma.c ****             interrupt_flag = DMA_INTF1(dma_periph) & DMA_FLAG_ADD(interrupt,channel_flag_offset);
 1597              		.loc 1 297 30
 1598 0372 FB68     		ldr	r3, [r7, #12]
 1599 0374 0433     		adds	r3, r3, #4
 1600 0376 1968     		ldr	r1, [r3]
 1601              		.loc 1 297 54
 1602 0378 FA7D     		ldrb	r2, [r7, #23]	@ zero_extendqisi2
 1603 037a 1346     		mov	r3, r2
 1604 037c 5B00     		lsls	r3, r3, #1
 1605 037e 1344     		add	r3, r3, r2
 1606 0380 5B00     		lsls	r3, r3, #1
 1607 0382 1A46     		mov	r2, r3
 1608 0384 FB7D     		ldrb	r3, [r7, #23]	@ zero_extendqisi2
 1609 0386 5B08     		lsrs	r3, r3, #1
 1610 0388 DBB2     		uxtb	r3, r3
 1611 038a 03F00103 		and	r3, r3, #1
 1612 038e 9B00     		lsls	r3, r3, #2
 1613 0390 1344     		add	r3, r3, r2
 1614 0392 7A68     		ldr	r2, [r7, #4]
 1615 0394 02FA03F3 		lsl	r3, r2, r3
 1616              		.loc 1 297 28
 1617 0398 0B40     		ands	r3, r3, r1
 1618 039a BB61     		str	r3, [r7, #24]
 298:C:/Users/leonardo/Desktop/Code/Github/DawnGBC/Libraries/FWLIB/src\gd32f4xx_dma.c ****             interrupt_enable = DMA_CHCTL(dma_periph,channelx) & DMA_CHXCTL_HTFIE;
 1619              		.loc 1 298 32
 1620 039c FA7A     		ldrb	r2, [r7, #11]	@ zero_extendqisi2
 1621 039e 1346     		mov	r3, r2
 1622 03a0 5B00     		lsls	r3, r3, #1
 1623 03a2 1344     		add	r3, r3, r2
 1624 03a4 DB00     		lsls	r3, r3, #3
 1625 03a6 1A46     		mov	r2, r3
 1626 03a8 FB68     		ldr	r3, [r7, #12]
 1627 03aa 1344     		add	r3, r3, r2
 1628 03ac 1033     		adds	r3, r3, #16
 1629 03ae 1B68     		ldr	r3, [r3]
 1630              		.loc 1 298 30
 1631 03b0 03F00803 		and	r3, r3, #8
 1632 03b4 FB61     		str	r3, [r7, #28]
 299:C:/Users/leonardo/Desktop/Code/Github/DawnGBC/Libraries/FWLIB/src\gd32f4xx_dma.c ****             break;
 1633              		.loc 1 299 13
 1634 03b6 25E0     		b	.L44
 1635              	.L46:
 300:C:/Users/leonardo/Desktop/Code/Github/DawnGBC/Libraries/FWLIB/src\gd32f4xx_dma.c ****         case DMA_INTF_FTFIF:
 301:C:/Users/leonardo/Desktop/Code/Github/DawnGBC/Libraries/FWLIB/src\gd32f4xx_dma.c ****             interrupt_flag = DMA_INTF1(dma_periph) & DMA_FLAG_ADD(interrupt,channel_flag_offset);
 1636              		.loc 1 301 30
 1637 03b8 FB68     		ldr	r3, [r7, #12]
 1638 03ba 0433     		adds	r3, r3, #4
 1639 03bc 1968     		ldr	r1, [r3]
 1640              		.loc 1 301 54
 1641 03be FA7D     		ldrb	r2, [r7, #23]	@ zero_extendqisi2
 1642 03c0 1346     		mov	r3, r2
 1643 03c2 5B00     		lsls	r3, r3, #1
 1644 03c4 1344     		add	r3, r3, r2
 1645 03c6 5B00     		lsls	r3, r3, #1
 1646 03c8 1A46     		mov	r2, r3
 1647 03ca FB7D     		ldrb	r3, [r7, #23]	@ zero_extendqisi2
 1648 03cc 5B08     		lsrs	r3, r3, #1
 1649 03ce DBB2     		uxtb	r3, r3
 1650 03d0 03F00103 		and	r3, r3, #1
 1651 03d4 9B00     		lsls	r3, r3, #2
 1652 03d6 1344     		add	r3, r3, r2
 1653 03d8 7A68     		ldr	r2, [r7, #4]
 1654 03da 02FA03F3 		lsl	r3, r2, r3
 1655              		.loc 1 301 28
 1656 03de 0B40     		ands	r3, r3, r1
 1657 03e0 BB61     		str	r3, [r7, #24]
 302:C:/Users/leonardo/Desktop/Code/Github/DawnGBC/Libraries/FWLIB/src\gd32f4xx_dma.c ****             interrupt_enable = DMA_CHCTL(dma_periph,channelx) & DMA_CHXCTL_FTFIE;
 1658              		.loc 1 302 32
 1659 03e2 FA7A     		ldrb	r2, [r7, #11]	@ zero_extendqisi2
 1660 03e4 1346     		mov	r3, r2
 1661 03e6 5B00     		lsls	r3, r3, #1
 1662 03e8 1344     		add	r3, r3, r2
 1663 03ea DB00     		lsls	r3, r3, #3
 1664 03ec 1A46     		mov	r2, r3
 1665 03ee FB68     		ldr	r3, [r7, #12]
 1666 03f0 1344     		add	r3, r3, r2
 1667 03f2 1033     		adds	r3, r3, #16
 1668 03f4 1B68     		ldr	r3, [r3]
 1669              		.loc 1 302 30
 1670 03f6 03F01003 		and	r3, r3, #16
 1671 03fa FB61     		str	r3, [r7, #28]
 303:C:/Users/leonardo/Desktop/Code/Github/DawnGBC/Libraries/FWLIB/src\gd32f4xx_dma.c ****             break;
 1672              		.loc 1 303 13
 1673 03fc 02E0     		b	.L44
 1674              	.L54:
 279:C:/Users/leonardo/Desktop/Code/Github/DawnGBC/Libraries/FWLIB/src\gd32f4xx_dma.c ****         }
 1675              		.loc 1 279 13
 1676 03fe 00BF     		nop
 1677 0400 00E0     		b	.L44
 1678              	.L55:
 304:C:/Users/leonardo/Desktop/Code/Github/DawnGBC/Libraries/FWLIB/src\gd32f4xx_dma.c ****         default:
 305:C:/Users/leonardo/Desktop/Code/Github/DawnGBC/Libraries/FWLIB/src\gd32f4xx_dma.c ****             break;
 1679              		.loc 1 305 13
 1680 0402 00BF     		nop
 1681              	.L44:
 306:C:/Users/leonardo/Desktop/Code/Github/DawnGBC/Libraries/FWLIB/src\gd32f4xx_dma.c ****         }
 307:C:/Users/leonardo/Desktop/Code/Github/DawnGBC/Libraries/FWLIB/src\gd32f4xx_dma.c ****     }
 308:C:/Users/leonardo/Desktop/Code/Github/DawnGBC/Libraries/FWLIB/src\gd32f4xx_dma.c ****     
 309:C:/Users/leonardo/Desktop/Code/Github/DawnGBC/Libraries/FWLIB/src\gd32f4xx_dma.c ****     if(interrupt_flag && interrupt_enable){
 1682              		.loc 1 309 7
 1683 0404 BB69     		ldr	r3, [r7, #24]
 1684 0406 002B     		cmp	r3, #0
 1685 0408 04D0     		beq	.L52
 1686              		.loc 1 309 23 discriminator 1
 1687 040a FB69     		ldr	r3, [r7, #28]
 1688 040c 002B     		cmp	r3, #0
 1689 040e 01D0     		beq	.L52
 310:C:/Users/leonardo/Desktop/Code/Github/DawnGBC/Libraries/FWLIB/src\gd32f4xx_dma.c ****         return SET;
 1690              		.loc 1 310 16
 1691 0410 0123     		movs	r3, #1
 1692 0412 00E0     		b	.L53
 1693              	.L52:
 311:C:/Users/leonardo/Desktop/Code/Github/DawnGBC/Libraries/FWLIB/src\gd32f4xx_dma.c ****     }else{
 312:C:/Users/leonardo/Desktop/Code/Github/DawnGBC/Libraries/FWLIB/src\gd32f4xx_dma.c ****         return RESET;
 1694              		.loc 1 312 16
 1695 0414 0023     		movs	r3, #0
 1696              	.L53:
 313:C:/Users/leonardo/Desktop/Code/Github/DawnGBC/Libraries/FWLIB/src\gd32f4xx_dma.c ****     }
 314:C:/Users/leonardo/Desktop/Code/Github/DawnGBC/Libraries/FWLIB/src\gd32f4xx_dma.c **** }
 1697              		.loc 1 314 1
 1698 0416 1846     		mov	r0, r3
 1699 0418 2437     		adds	r7, r7, #36
 1700              		.cfi_def_cfa_offset 4
 1701 041a BD46     		mov	sp, r7
 1702              		.cfi_def_cfa_register 13
 1703              		@ sp needed
 1704 041c 80BC     		pop	{r7}
 1705              		.cfi_restore 7
 1706              		.cfi_def_cfa_offset 0
 1707 041e 7047     		bx	lr
 1708              		.cfi_endproc
 1709              	.LFE128:
 1711              		.section	.text.dma_interrupt_flag_clear,"ax",%progbits
 1712              		.align	1
 1713              		.global	dma_interrupt_flag_clear
 1714              		.syntax unified
 1715              		.thumb
 1716              		.thumb_func
 1717              		.fpu softvfp
 1719              	dma_interrupt_flag_clear:
 1720              	.LFB129:
 315:C:/Users/leonardo/Desktop/Code/Github/DawnGBC/Libraries/FWLIB/src\gd32f4xx_dma.c **** 
 316:C:/Users/leonardo/Desktop/Code/Github/DawnGBC/Libraries/FWLIB/src\gd32f4xx_dma.c **** /*!
 317:C:/Users/leonardo/Desktop/Code/Github/DawnGBC/Libraries/FWLIB/src\gd32f4xx_dma.c ****     \brief      clear DMA a channel interrupt flag
 318:C:/Users/leonardo/Desktop/Code/Github/DawnGBC/Libraries/FWLIB/src\gd32f4xx_dma.c ****     \param[in]  dma_periph: DMAx(x=0,1)
 319:C:/Users/leonardo/Desktop/Code/Github/DawnGBC/Libraries/FWLIB/src\gd32f4xx_dma.c ****       \arg        DMAx(x=0,1)
 320:C:/Users/leonardo/Desktop/Code/Github/DawnGBC/Libraries/FWLIB/src\gd32f4xx_dma.c ****     \param[in]  channelx: specify which DMA channel to clear interrupt flag
 321:C:/Users/leonardo/Desktop/Code/Github/DawnGBC/Libraries/FWLIB/src\gd32f4xx_dma.c ****       \arg        DMA_CHx(x=0..7)
 322:C:/Users/leonardo/Desktop/Code/Github/DawnGBC/Libraries/FWLIB/src\gd32f4xx_dma.c ****     \param[in]  interrupt: specify get which flag
 323:C:/Users/leonardo/Desktop/Code/Github/DawnGBC/Libraries/FWLIB/src\gd32f4xx_dma.c ****       \arg        DMA_INTC_FEEIFC: clear FIFO error and exception flag
 324:C:/Users/leonardo/Desktop/Code/Github/DawnGBC/Libraries/FWLIB/src\gd32f4xx_dma.c ****       \arg        DMA_INTC_SDEIFC: clear single data mode exception flag
 325:C:/Users/leonardo/Desktop/Code/Github/DawnGBC/Libraries/FWLIB/src\gd32f4xx_dma.c ****       \arg        DMA_INTC_TAEIFC: clear transfer access error flag
 326:C:/Users/leonardo/Desktop/Code/Github/DawnGBC/Libraries/FWLIB/src\gd32f4xx_dma.c ****       \arg        DMA_INTC_HTFIFC: clear half transfer finish flag
 327:C:/Users/leonardo/Desktop/Code/Github/DawnGBC/Libraries/FWLIB/src\gd32f4xx_dma.c ****       \arg        DMA_INTC_FTFIFC: clear full transger finish flag
 328:C:/Users/leonardo/Desktop/Code/Github/DawnGBC/Libraries/FWLIB/src\gd32f4xx_dma.c ****     \param[out] none
 329:C:/Users/leonardo/Desktop/Code/Github/DawnGBC/Libraries/FWLIB/src\gd32f4xx_dma.c ****     \retval     none
 330:C:/Users/leonardo/Desktop/Code/Github/DawnGBC/Libraries/FWLIB/src\gd32f4xx_dma.c **** */
 331:C:/Users/leonardo/Desktop/Code/Github/DawnGBC/Libraries/FWLIB/src\gd32f4xx_dma.c **** void dma_interrupt_flag_clear(uint32_t dma_periph,dma_channel_enum channelx,uint32_t interrupt)
 332:C:/Users/leonardo/Desktop/Code/Github/DawnGBC/Libraries/FWLIB/src\gd32f4xx_dma.c **** {
 1721              		.loc 1 332 1
 1722              		.cfi_startproc
 1723              		@ args = 0, pretend = 0, frame = 16
 1724              		@ frame_needed = 1, uses_anonymous_args = 0
 1725              		@ link register save eliminated.
 1726 0000 80B4     		push	{r7}
 1727              		.cfi_def_cfa_offset 4
 1728              		.cfi_offset 7, -4
 1729 0002 85B0     		sub	sp, sp, #20
 1730              		.cfi_def_cfa_offset 24
 1731 0004 00AF     		add	r7, sp, #0
 1732              		.cfi_def_cfa_register 7
 1733 0006 F860     		str	r0, [r7, #12]
 1734 0008 0B46     		mov	r3, r1
 1735 000a 7A60     		str	r2, [r7, #4]
 1736 000c FB72     		strb	r3, [r7, #11]
 333:C:/Users/leonardo/Desktop/Code/Github/DawnGBC/Libraries/FWLIB/src\gd32f4xx_dma.c ****     if(channelx < DMA_CH4){
 1737              		.loc 1 333 7
 1738 000e FB7A     		ldrb	r3, [r7, #11]	@ zero_extendqisi2
 1739 0010 032B     		cmp	r3, #3
 1740 0012 17D8     		bhi	.L57
 334:C:/Users/leonardo/Desktop/Code/Github/DawnGBC/Libraries/FWLIB/src\gd32f4xx_dma.c ****         DMA_INTC0(dma_periph) |= DMA_FLAG_ADD(interrupt,channelx);
 1741              		.loc 1 334 31
 1742 0014 FB68     		ldr	r3, [r7, #12]
 1743 0016 0833     		adds	r3, r3, #8
 1744 0018 1968     		ldr	r1, [r3]
 1745              		.loc 1 334 34
 1746 001a FA7A     		ldrb	r2, [r7, #11]	@ zero_extendqisi2
 1747 001c 1346     		mov	r3, r2
 1748 001e 5B00     		lsls	r3, r3, #1
 1749 0020 1344     		add	r3, r3, r2
 1750 0022 5B00     		lsls	r3, r3, #1
 1751 0024 1A46     		mov	r2, r3
 1752 0026 FB7A     		ldrb	r3, [r7, #11]	@ zero_extendqisi2
 1753 0028 5B08     		lsrs	r3, r3, #1
 1754 002a DBB2     		uxtb	r3, r3
 1755 002c 03F00103 		and	r3, r3, #1
 1756 0030 9B00     		lsls	r3, r3, #2
 1757 0032 1344     		add	r3, r3, r2
 1758 0034 7A68     		ldr	r2, [r7, #4]
 1759 0036 02FA03F3 		lsl	r3, r2, r3
 1760              		.loc 1 334 31
 1761 003a FA68     		ldr	r2, [r7, #12]
 1762 003c 0832     		adds	r2, r2, #8
 1763 003e 0B43     		orrs	r3, r3, r1
 1764 0040 1360     		str	r3, [r2]
 335:C:/Users/leonardo/Desktop/Code/Github/DawnGBC/Libraries/FWLIB/src\gd32f4xx_dma.c ****     }else{
 336:C:/Users/leonardo/Desktop/Code/Github/DawnGBC/Libraries/FWLIB/src\gd32f4xx_dma.c ****         channelx -= (dma_channel_enum)4;
 337:C:/Users/leonardo/Desktop/Code/Github/DawnGBC/Libraries/FWLIB/src\gd32f4xx_dma.c ****         DMA_INTC1(dma_periph) |= DMA_FLAG_ADD(interrupt,channelx);
 338:C:/Users/leonardo/Desktop/Code/Github/DawnGBC/Libraries/FWLIB/src\gd32f4xx_dma.c ****     }
 339:C:/Users/leonardo/Desktop/Code/Github/DawnGBC/Libraries/FWLIB/src\gd32f4xx_dma.c **** }
 1765              		.loc 1 339 1
 1766 0042 19E0     		b	.L59
 1767              	.L57:
 336:C:/Users/leonardo/Desktop/Code/Github/DawnGBC/Libraries/FWLIB/src\gd32f4xx_dma.c ****         DMA_INTC1(dma_periph) |= DMA_FLAG_ADD(interrupt,channelx);
 1768              		.loc 1 336 18
 1769 0044 FB7A     		ldrb	r3, [r7, #11]
 1770 0046 043B     		subs	r3, r3, #4
 1771 0048 FB72     		strb	r3, [r7, #11]
 337:C:/Users/leonardo/Desktop/Code/Github/DawnGBC/Libraries/FWLIB/src\gd32f4xx_dma.c ****     }
 1772              		.loc 1 337 31
 1773 004a FB68     		ldr	r3, [r7, #12]
 1774 004c 0C33     		adds	r3, r3, #12
 1775 004e 1968     		ldr	r1, [r3]
 337:C:/Users/leonardo/Desktop/Code/Github/DawnGBC/Libraries/FWLIB/src\gd32f4xx_dma.c ****     }
 1776              		.loc 1 337 34
 1777 0050 FA7A     		ldrb	r2, [r7, #11]	@ zero_extendqisi2
 1778 0052 1346     		mov	r3, r2
 1779 0054 5B00     		lsls	r3, r3, #1
 1780 0056 1344     		add	r3, r3, r2
 1781 0058 5B00     		lsls	r3, r3, #1
 1782 005a 1A46     		mov	r2, r3
 1783 005c FB7A     		ldrb	r3, [r7, #11]	@ zero_extendqisi2
 1784 005e 5B08     		lsrs	r3, r3, #1
 1785 0060 DBB2     		uxtb	r3, r3
 1786 0062 03F00103 		and	r3, r3, #1
 1787 0066 9B00     		lsls	r3, r3, #2
 1788 0068 1344     		add	r3, r3, r2
 1789 006a 7A68     		ldr	r2, [r7, #4]
 1790 006c 02FA03F3 		lsl	r3, r2, r3
 337:C:/Users/leonardo/Desktop/Code/Github/DawnGBC/Libraries/FWLIB/src\gd32f4xx_dma.c ****     }
 1791              		.loc 1 337 31
 1792 0070 FA68     		ldr	r2, [r7, #12]
 1793 0072 0C32     		adds	r2, r2, #12
 1794 0074 0B43     		orrs	r3, r3, r1
 1795 0076 1360     		str	r3, [r2]
 1796              	.L59:
 1797              		.loc 1 339 1
 1798 0078 00BF     		nop
 1799 007a 1437     		adds	r7, r7, #20
 1800              		.cfi_def_cfa_offset 4
 1801 007c BD46     		mov	sp, r7
 1802              		.cfi_def_cfa_register 13
 1803              		@ sp needed
 1804 007e 80BC     		pop	{r7}
 1805              		.cfi_restore 7
 1806              		.cfi_def_cfa_offset 0
 1807 0080 7047     		bx	lr
 1808              		.cfi_endproc
 1809              	.LFE129:
 1811              		.section	.text.dma_interrupt_enable,"ax",%progbits
 1812              		.align	1
 1813              		.global	dma_interrupt_enable
 1814              		.syntax unified
 1815              		.thumb
 1816              		.thumb_func
 1817              		.fpu softvfp
 1819              	dma_interrupt_enable:
 1820              	.LFB130:
 340:C:/Users/leonardo/Desktop/Code/Github/DawnGBC/Libraries/FWLIB/src\gd32f4xx_dma.c **** 
 341:C:/Users/leonardo/Desktop/Code/Github/DawnGBC/Libraries/FWLIB/src\gd32f4xx_dma.c **** /*!
 342:C:/Users/leonardo/Desktop/Code/Github/DawnGBC/Libraries/FWLIB/src\gd32f4xx_dma.c ****     \brief      enable DMA interrupt
 343:C:/Users/leonardo/Desktop/Code/Github/DawnGBC/Libraries/FWLIB/src\gd32f4xx_dma.c ****     \param[in]  dma_periph: DMAx(x=0,1)
 344:C:/Users/leonardo/Desktop/Code/Github/DawnGBC/Libraries/FWLIB/src\gd32f4xx_dma.c ****       \arg        DMAx(x=0,1)
 345:C:/Users/leonardo/Desktop/Code/Github/DawnGBC/Libraries/FWLIB/src\gd32f4xx_dma.c ****     \param[in]  channelx: specify which DMA channel 
 346:C:/Users/leonardo/Desktop/Code/Github/DawnGBC/Libraries/FWLIB/src\gd32f4xx_dma.c ****       \arg        DMA_CHx(x=0..7)
 347:C:/Users/leonardo/Desktop/Code/Github/DawnGBC/Libraries/FWLIB/src\gd32f4xx_dma.c ****     \param[in]  source: specify which interrupt to enbale
 348:C:/Users/leonardo/Desktop/Code/Github/DawnGBC/Libraries/FWLIB/src\gd32f4xx_dma.c ****       \arg        DMA_CHXCTL_SDEIE: single data mode exception interrupt enable
 349:C:/Users/leonardo/Desktop/Code/Github/DawnGBC/Libraries/FWLIB/src\gd32f4xx_dma.c ****       \arg        DMA_CHXCTL_TAEIE: tranfer access error interrupt enable
 350:C:/Users/leonardo/Desktop/Code/Github/DawnGBC/Libraries/FWLIB/src\gd32f4xx_dma.c ****       \arg        DMA_CHXCTL_HTFIE: half transfer finish interrupt enable
 351:C:/Users/leonardo/Desktop/Code/Github/DawnGBC/Libraries/FWLIB/src\gd32f4xx_dma.c ****       \arg        DMA_CHXCTL_FTFIE: full transfer finish interrupt enable
 352:C:/Users/leonardo/Desktop/Code/Github/DawnGBC/Libraries/FWLIB/src\gd32f4xx_dma.c ****       \arg        DMA_CHXFCTL_FEEIE: FIFO exception interrupt enable
 353:C:/Users/leonardo/Desktop/Code/Github/DawnGBC/Libraries/FWLIB/src\gd32f4xx_dma.c ****     \param[out] none
 354:C:/Users/leonardo/Desktop/Code/Github/DawnGBC/Libraries/FWLIB/src\gd32f4xx_dma.c ****     \retval     none
 355:C:/Users/leonardo/Desktop/Code/Github/DawnGBC/Libraries/FWLIB/src\gd32f4xx_dma.c **** */
 356:C:/Users/leonardo/Desktop/Code/Github/DawnGBC/Libraries/FWLIB/src\gd32f4xx_dma.c **** void dma_interrupt_enable(uint32_t dma_periph,dma_channel_enum channelx,uint32_t source)
 357:C:/Users/leonardo/Desktop/Code/Github/DawnGBC/Libraries/FWLIB/src\gd32f4xx_dma.c **** {
 1821              		.loc 1 357 1
 1822              		.cfi_startproc
 1823              		@ args = 0, pretend = 0, frame = 16
 1824              		@ frame_needed = 1, uses_anonymous_args = 0
 1825              		@ link register save eliminated.
 1826 0000 80B4     		push	{r7}
 1827              		.cfi_def_cfa_offset 4
 1828              		.cfi_offset 7, -4
 1829 0002 85B0     		sub	sp, sp, #20
 1830              		.cfi_def_cfa_offset 24
 1831 0004 00AF     		add	r7, sp, #0
 1832              		.cfi_def_cfa_register 7
 1833 0006 F860     		str	r0, [r7, #12]
 1834 0008 0B46     		mov	r3, r1
 1835 000a 7A60     		str	r2, [r7, #4]
 1836 000c FB72     		strb	r3, [r7, #11]
 358:C:/Users/leonardo/Desktop/Code/Github/DawnGBC/Libraries/FWLIB/src\gd32f4xx_dma.c ****     if(DMA_CHXFCTL_FEEIE != source){
 1837              		.loc 1 358 7
 1838 000e 7B68     		ldr	r3, [r7, #4]
 1839 0010 802B     		cmp	r3, #128
 1840 0012 17D0     		beq	.L61
 359:C:/Users/leonardo/Desktop/Code/Github/DawnGBC/Libraries/FWLIB/src\gd32f4xx_dma.c ****         DMA_CHCTL(dma_periph,channelx) |= source;
 1841              		.loc 1 359 40
 1842 0014 FA7A     		ldrb	r2, [r7, #11]	@ zero_extendqisi2
 1843 0016 1346     		mov	r3, r2
 1844 0018 5B00     		lsls	r3, r3, #1
 1845 001a 1344     		add	r3, r3, r2
 1846 001c DB00     		lsls	r3, r3, #3
 1847 001e 1A46     		mov	r2, r3
 1848 0020 FB68     		ldr	r3, [r7, #12]
 1849 0022 1344     		add	r3, r3, r2
 1850 0024 1033     		adds	r3, r3, #16
 1851 0026 1968     		ldr	r1, [r3]
 1852 0028 FA7A     		ldrb	r2, [r7, #11]	@ zero_extendqisi2
 1853 002a 1346     		mov	r3, r2
 1854 002c 5B00     		lsls	r3, r3, #1
 1855 002e 1344     		add	r3, r3, r2
 1856 0030 DB00     		lsls	r3, r3, #3
 1857 0032 1A46     		mov	r2, r3
 1858 0034 FB68     		ldr	r3, [r7, #12]
 1859 0036 1344     		add	r3, r3, r2
 1860 0038 1033     		adds	r3, r3, #16
 1861 003a 1A46     		mov	r2, r3
 1862 003c 7B68     		ldr	r3, [r7, #4]
 1863 003e 0B43     		orrs	r3, r3, r1
 1864 0040 1360     		str	r3, [r2]
 360:C:/Users/leonardo/Desktop/Code/Github/DawnGBC/Libraries/FWLIB/src\gd32f4xx_dma.c ****     }else{
 361:C:/Users/leonardo/Desktop/Code/Github/DawnGBC/Libraries/FWLIB/src\gd32f4xx_dma.c ****         DMA_CHFCTL(dma_periph,channelx) |= source;
 362:C:/Users/leonardo/Desktop/Code/Github/DawnGBC/Libraries/FWLIB/src\gd32f4xx_dma.c ****     }
 363:C:/Users/leonardo/Desktop/Code/Github/DawnGBC/Libraries/FWLIB/src\gd32f4xx_dma.c **** }
 1865              		.loc 1 363 1
 1866 0042 16E0     		b	.L63
 1867              	.L61:
 361:C:/Users/leonardo/Desktop/Code/Github/DawnGBC/Libraries/FWLIB/src\gd32f4xx_dma.c ****     }
 1868              		.loc 1 361 41
 1869 0044 FA7A     		ldrb	r2, [r7, #11]	@ zero_extendqisi2
 1870 0046 1346     		mov	r3, r2
 1871 0048 5B00     		lsls	r3, r3, #1
 1872 004a 1344     		add	r3, r3, r2
 1873 004c DB00     		lsls	r3, r3, #3
 1874 004e 1A46     		mov	r2, r3
 1875 0050 FB68     		ldr	r3, [r7, #12]
 1876 0052 1344     		add	r3, r3, r2
 1877 0054 2433     		adds	r3, r3, #36
 1878 0056 1968     		ldr	r1, [r3]
 1879 0058 FA7A     		ldrb	r2, [r7, #11]	@ zero_extendqisi2
 1880 005a 1346     		mov	r3, r2
 1881 005c 5B00     		lsls	r3, r3, #1
 1882 005e 1344     		add	r3, r3, r2
 1883 0060 DB00     		lsls	r3, r3, #3
 1884 0062 1A46     		mov	r2, r3
 1885 0064 FB68     		ldr	r3, [r7, #12]
 1886 0066 1344     		add	r3, r3, r2
 1887 0068 2433     		adds	r3, r3, #36
 1888 006a 1A46     		mov	r2, r3
 1889 006c 7B68     		ldr	r3, [r7, #4]
 1890 006e 0B43     		orrs	r3, r3, r1
 1891 0070 1360     		str	r3, [r2]
 1892              	.L63:
 1893              		.loc 1 363 1
 1894 0072 00BF     		nop
 1895 0074 1437     		adds	r7, r7, #20
 1896              		.cfi_def_cfa_offset 4
 1897 0076 BD46     		mov	sp, r7
 1898              		.cfi_def_cfa_register 13
 1899              		@ sp needed
 1900 0078 80BC     		pop	{r7}
 1901              		.cfi_restore 7
 1902              		.cfi_def_cfa_offset 0
 1903 007a 7047     		bx	lr
 1904              		.cfi_endproc
 1905              	.LFE130:
 1907              		.section	.text.dma_interrupt_disable,"ax",%progbits
 1908              		.align	1
 1909              		.global	dma_interrupt_disable
 1910              		.syntax unified
 1911              		.thumb
 1912              		.thumb_func
 1913              		.fpu softvfp
 1915              	dma_interrupt_disable:
 1916              	.LFB131:
 364:C:/Users/leonardo/Desktop/Code/Github/DawnGBC/Libraries/FWLIB/src\gd32f4xx_dma.c **** 
 365:C:/Users/leonardo/Desktop/Code/Github/DawnGBC/Libraries/FWLIB/src\gd32f4xx_dma.c **** /*!
 366:C:/Users/leonardo/Desktop/Code/Github/DawnGBC/Libraries/FWLIB/src\gd32f4xx_dma.c ****     \brief      disable DMA interrupt
 367:C:/Users/leonardo/Desktop/Code/Github/DawnGBC/Libraries/FWLIB/src\gd32f4xx_dma.c ****     \param[in]  dma_periph: DMAx(x=0,1)
 368:C:/Users/leonardo/Desktop/Code/Github/DawnGBC/Libraries/FWLIB/src\gd32f4xx_dma.c ****       \arg        DMAx(x=0,1)
 369:C:/Users/leonardo/Desktop/Code/Github/DawnGBC/Libraries/FWLIB/src\gd32f4xx_dma.c ****     \param[in]  channelx: specify which DMA channel 
 370:C:/Users/leonardo/Desktop/Code/Github/DawnGBC/Libraries/FWLIB/src\gd32f4xx_dma.c ****       \arg        DMA_CHx(x=0..7)
 371:C:/Users/leonardo/Desktop/Code/Github/DawnGBC/Libraries/FWLIB/src\gd32f4xx_dma.c ****     \param[in]  source: specify which interrupt to disbale
 372:C:/Users/leonardo/Desktop/Code/Github/DawnGBC/Libraries/FWLIB/src\gd32f4xx_dma.c ****       \arg        DMA_CHXCTL_SDEIE: single data mode exception interrupt enable
 373:C:/Users/leonardo/Desktop/Code/Github/DawnGBC/Libraries/FWLIB/src\gd32f4xx_dma.c ****       \arg        DMA_CHXCTL_TAEIE: tranfer access error interrupt enable
 374:C:/Users/leonardo/Desktop/Code/Github/DawnGBC/Libraries/FWLIB/src\gd32f4xx_dma.c ****       \arg        DMA_CHXCTL_HTFIE: half transfer finish interrupt enable
 375:C:/Users/leonardo/Desktop/Code/Github/DawnGBC/Libraries/FWLIB/src\gd32f4xx_dma.c ****       \arg        DMA_CHXCTL_FTFIE: full transfer finish interrupt enable
 376:C:/Users/leonardo/Desktop/Code/Github/DawnGBC/Libraries/FWLIB/src\gd32f4xx_dma.c ****       \arg        DMA_CHXFCTL_FEEIE: FIFO exception interrupt enable
 377:C:/Users/leonardo/Desktop/Code/Github/DawnGBC/Libraries/FWLIB/src\gd32f4xx_dma.c ****     \param[out] none
 378:C:/Users/leonardo/Desktop/Code/Github/DawnGBC/Libraries/FWLIB/src\gd32f4xx_dma.c ****     \retval     none
 379:C:/Users/leonardo/Desktop/Code/Github/DawnGBC/Libraries/FWLIB/src\gd32f4xx_dma.c **** */
 380:C:/Users/leonardo/Desktop/Code/Github/DawnGBC/Libraries/FWLIB/src\gd32f4xx_dma.c **** void dma_interrupt_disable(uint32_t dma_periph,dma_channel_enum channelx,uint32_t source)
 381:C:/Users/leonardo/Desktop/Code/Github/DawnGBC/Libraries/FWLIB/src\gd32f4xx_dma.c **** {
 1917              		.loc 1 381 1
 1918              		.cfi_startproc
 1919              		@ args = 0, pretend = 0, frame = 16
 1920              		@ frame_needed = 1, uses_anonymous_args = 0
 1921              		@ link register save eliminated.
 1922 0000 80B4     		push	{r7}
 1923              		.cfi_def_cfa_offset 4
 1924              		.cfi_offset 7, -4
 1925 0002 85B0     		sub	sp, sp, #20
 1926              		.cfi_def_cfa_offset 24
 1927 0004 00AF     		add	r7, sp, #0
 1928              		.cfi_def_cfa_register 7
 1929 0006 F860     		str	r0, [r7, #12]
 1930 0008 0B46     		mov	r3, r1
 1931 000a 7A60     		str	r2, [r7, #4]
 1932 000c FB72     		strb	r3, [r7, #11]
 382:C:/Users/leonardo/Desktop/Code/Github/DawnGBC/Libraries/FWLIB/src\gd32f4xx_dma.c ****     if(DMA_CHXFCTL_FEEIE != source){
 1933              		.loc 1 382 7
 1934 000e 7B68     		ldr	r3, [r7, #4]
 1935 0010 802B     		cmp	r3, #128
 1936 0012 19D0     		beq	.L65
 383:C:/Users/leonardo/Desktop/Code/Github/DawnGBC/Libraries/FWLIB/src\gd32f4xx_dma.c ****         DMA_CHCTL(dma_periph,channelx) &= ~source;
 1937              		.loc 1 383 40
 1938 0014 FA7A     		ldrb	r2, [r7, #11]	@ zero_extendqisi2
 1939 0016 1346     		mov	r3, r2
 1940 0018 5B00     		lsls	r3, r3, #1
 1941 001a 1344     		add	r3, r3, r2
 1942 001c DB00     		lsls	r3, r3, #3
 1943 001e 1A46     		mov	r2, r3
 1944 0020 FB68     		ldr	r3, [r7, #12]
 1945 0022 1344     		add	r3, r3, r2
 1946 0024 1033     		adds	r3, r3, #16
 1947 0026 1868     		ldr	r0, [r3]
 1948              		.loc 1 383 43
 1949 0028 7B68     		ldr	r3, [r7, #4]
 1950 002a D943     		mvns	r1, r3
 1951              		.loc 1 383 40
 1952 002c FA7A     		ldrb	r2, [r7, #11]	@ zero_extendqisi2
 1953 002e 1346     		mov	r3, r2
 1954 0030 5B00     		lsls	r3, r3, #1
 1955 0032 1344     		add	r3, r3, r2
 1956 0034 DB00     		lsls	r3, r3, #3
 1957 0036 1A46     		mov	r2, r3
 1958 0038 FB68     		ldr	r3, [r7, #12]
 1959 003a 1344     		add	r3, r3, r2
 1960 003c 1033     		adds	r3, r3, #16
 1961 003e 1A46     		mov	r2, r3
 1962 0040 00EA0103 		and	r3, r0, r1
 1963 0044 1360     		str	r3, [r2]
 384:C:/Users/leonardo/Desktop/Code/Github/DawnGBC/Libraries/FWLIB/src\gd32f4xx_dma.c ****     }else{
 385:C:/Users/leonardo/Desktop/Code/Github/DawnGBC/Libraries/FWLIB/src\gd32f4xx_dma.c ****         DMA_CHFCTL(dma_periph,channelx) &= ~source;
 386:C:/Users/leonardo/Desktop/Code/Github/DawnGBC/Libraries/FWLIB/src\gd32f4xx_dma.c ****     }
 387:C:/Users/leonardo/Desktop/Code/Github/DawnGBC/Libraries/FWLIB/src\gd32f4xx_dma.c **** }
 1964              		.loc 1 387 1
 1965 0046 18E0     		b	.L67
 1966              	.L65:
 385:C:/Users/leonardo/Desktop/Code/Github/DawnGBC/Libraries/FWLIB/src\gd32f4xx_dma.c ****     }
 1967              		.loc 1 385 41
 1968 0048 FA7A     		ldrb	r2, [r7, #11]	@ zero_extendqisi2
 1969 004a 1346     		mov	r3, r2
 1970 004c 5B00     		lsls	r3, r3, #1
 1971 004e 1344     		add	r3, r3, r2
 1972 0050 DB00     		lsls	r3, r3, #3
 1973 0052 1A46     		mov	r2, r3
 1974 0054 FB68     		ldr	r3, [r7, #12]
 1975 0056 1344     		add	r3, r3, r2
 1976 0058 2433     		adds	r3, r3, #36
 1977 005a 1868     		ldr	r0, [r3]
 385:C:/Users/leonardo/Desktop/Code/Github/DawnGBC/Libraries/FWLIB/src\gd32f4xx_dma.c ****     }
 1978              		.loc 1 385 44
 1979 005c 7B68     		ldr	r3, [r7, #4]
 1980 005e D943     		mvns	r1, r3
 385:C:/Users/leonardo/Desktop/Code/Github/DawnGBC/Libraries/FWLIB/src\gd32f4xx_dma.c ****     }
 1981              		.loc 1 385 41
 1982 0060 FA7A     		ldrb	r2, [r7, #11]	@ zero_extendqisi2
 1983 0062 1346     		mov	r3, r2
 1984 0064 5B00     		lsls	r3, r3, #1
 1985 0066 1344     		add	r3, r3, r2
 1986 0068 DB00     		lsls	r3, r3, #3
 1987 006a 1A46     		mov	r2, r3
 1988 006c FB68     		ldr	r3, [r7, #12]
 1989 006e 1344     		add	r3, r3, r2
 1990 0070 2433     		adds	r3, r3, #36
 1991 0072 1A46     		mov	r2, r3
 1992 0074 00EA0103 		and	r3, r0, r1
 1993 0078 1360     		str	r3, [r2]
 1994              	.L67:
 1995              		.loc 1 387 1
 1996 007a 00BF     		nop
 1997 007c 1437     		adds	r7, r7, #20
 1998              		.cfi_def_cfa_offset 4
 1999 007e BD46     		mov	sp, r7
 2000              		.cfi_def_cfa_register 13
 2001              		@ sp needed
 2002 0080 80BC     		pop	{r7}
 2003              		.cfi_restore 7
 2004              		.cfi_def_cfa_offset 0
 2005 0082 7047     		bx	lr
 2006              		.cfi_endproc
 2007              	.LFE131:
 2009              		.section	.text.dma_periph_address_config,"ax",%progbits
 2010              		.align	1
 2011              		.global	dma_periph_address_config
 2012              		.syntax unified
 2013              		.thumb
 2014              		.thumb_func
 2015              		.fpu softvfp
 2017              	dma_periph_address_config:
 2018              	.LFB132:
 388:C:/Users/leonardo/Desktop/Code/Github/DawnGBC/Libraries/FWLIB/src\gd32f4xx_dma.c **** 
 389:C:/Users/leonardo/Desktop/Code/Github/DawnGBC/Libraries/FWLIB/src\gd32f4xx_dma.c **** /*!
 390:C:/Users/leonardo/Desktop/Code/Github/DawnGBC/Libraries/FWLIB/src\gd32f4xx_dma.c ****     \brief      set DMA peripheral base address
 391:C:/Users/leonardo/Desktop/Code/Github/DawnGBC/Libraries/FWLIB/src\gd32f4xx_dma.c ****     \param[in]  dma_periph: DMAx(x=0,1)
 392:C:/Users/leonardo/Desktop/Code/Github/DawnGBC/Libraries/FWLIB/src\gd32f4xx_dma.c ****       \arg        DMAx(x=0,1)
 393:C:/Users/leonardo/Desktop/Code/Github/DawnGBC/Libraries/FWLIB/src\gd32f4xx_dma.c ****     \param[in]  channelx: specify which DMA channel to set peripheral base address
 394:C:/Users/leonardo/Desktop/Code/Github/DawnGBC/Libraries/FWLIB/src\gd32f4xx_dma.c ****       \arg        DMA_CHx(x=0..7)
 395:C:/Users/leonardo/Desktop/Code/Github/DawnGBC/Libraries/FWLIB/src\gd32f4xx_dma.c ****     \param[in]  address: peripheral base address
 396:C:/Users/leonardo/Desktop/Code/Github/DawnGBC/Libraries/FWLIB/src\gd32f4xx_dma.c ****     \param[out] none
 397:C:/Users/leonardo/Desktop/Code/Github/DawnGBC/Libraries/FWLIB/src\gd32f4xx_dma.c ****     \retval     none
 398:C:/Users/leonardo/Desktop/Code/Github/DawnGBC/Libraries/FWLIB/src\gd32f4xx_dma.c **** */
 399:C:/Users/leonardo/Desktop/Code/Github/DawnGBC/Libraries/FWLIB/src\gd32f4xx_dma.c **** void dma_periph_address_config(uint32_t dma_periph,dma_channel_enum channelx,uint32_t address)
 400:C:/Users/leonardo/Desktop/Code/Github/DawnGBC/Libraries/FWLIB/src\gd32f4xx_dma.c **** {
 2019              		.loc 1 400 1
 2020              		.cfi_startproc
 2021              		@ args = 0, pretend = 0, frame = 16
 2022              		@ frame_needed = 1, uses_anonymous_args = 0
 2023              		@ link register save eliminated.
 2024 0000 80B4     		push	{r7}
 2025              		.cfi_def_cfa_offset 4
 2026              		.cfi_offset 7, -4
 2027 0002 85B0     		sub	sp, sp, #20
 2028              		.cfi_def_cfa_offset 24
 2029 0004 00AF     		add	r7, sp, #0
 2030              		.cfi_def_cfa_register 7
 2031 0006 F860     		str	r0, [r7, #12]
 2032 0008 0B46     		mov	r3, r1
 2033 000a 7A60     		str	r2, [r7, #4]
 2034 000c FB72     		strb	r3, [r7, #11]
 401:C:/Users/leonardo/Desktop/Code/Github/DawnGBC/Libraries/FWLIB/src\gd32f4xx_dma.c ****     DMA_CHPADDR(dma_periph,channelx) = address;
 2035              		.loc 1 401 5
 2036 000e FA7A     		ldrb	r2, [r7, #11]	@ zero_extendqisi2
 2037 0010 1346     		mov	r3, r2
 2038 0012 5B00     		lsls	r3, r3, #1
 2039 0014 1344     		add	r3, r3, r2
 2040 0016 DB00     		lsls	r3, r3, #3
 2041 0018 1A46     		mov	r2, r3
 2042 001a FB68     		ldr	r3, [r7, #12]
 2043 001c 1344     		add	r3, r3, r2
 2044 001e 1833     		adds	r3, r3, #24
 2045 0020 1A46     		mov	r2, r3
 2046              		.loc 1 401 38
 2047 0022 7B68     		ldr	r3, [r7, #4]
 2048 0024 1360     		str	r3, [r2]
 402:C:/Users/leonardo/Desktop/Code/Github/DawnGBC/Libraries/FWLIB/src\gd32f4xx_dma.c **** }
 2049              		.loc 1 402 1
 2050 0026 00BF     		nop
 2051 0028 1437     		adds	r7, r7, #20
 2052              		.cfi_def_cfa_offset 4
 2053 002a BD46     		mov	sp, r7
 2054              		.cfi_def_cfa_register 13
 2055              		@ sp needed
 2056 002c 80BC     		pop	{r7}
 2057              		.cfi_restore 7
 2058              		.cfi_def_cfa_offset 0
 2059 002e 7047     		bx	lr
 2060              		.cfi_endproc
 2061              	.LFE132:
 2063              		.section	.text.dma_memory_address_config,"ax",%progbits
 2064              		.align	1
 2065              		.global	dma_memory_address_config
 2066              		.syntax unified
 2067              		.thumb
 2068              		.thumb_func
 2069              		.fpu softvfp
 2071              	dma_memory_address_config:
 2072              	.LFB133:
 403:C:/Users/leonardo/Desktop/Code/Github/DawnGBC/Libraries/FWLIB/src\gd32f4xx_dma.c **** 
 404:C:/Users/leonardo/Desktop/Code/Github/DawnGBC/Libraries/FWLIB/src\gd32f4xx_dma.c **** /*!
 405:C:/Users/leonardo/Desktop/Code/Github/DawnGBC/Libraries/FWLIB/src\gd32f4xx_dma.c ****     \brief      set DMA Memory0 base address
 406:C:/Users/leonardo/Desktop/Code/Github/DawnGBC/Libraries/FWLIB/src\gd32f4xx_dma.c ****     \param[in]  dma_periph: DMAx(x=0,1)
 407:C:/Users/leonardo/Desktop/Code/Github/DawnGBC/Libraries/FWLIB/src\gd32f4xx_dma.c ****       \arg        DMAx(x=0,1)
 408:C:/Users/leonardo/Desktop/Code/Github/DawnGBC/Libraries/FWLIB/src\gd32f4xx_dma.c ****     \param[in]  channelx: specify which DMA channel to set Memory base address 
 409:C:/Users/leonardo/Desktop/Code/Github/DawnGBC/Libraries/FWLIB/src\gd32f4xx_dma.c ****       \arg        DMA_CHx(x=0..7)
 410:C:/Users/leonardo/Desktop/Code/Github/DawnGBC/Libraries/FWLIB/src\gd32f4xx_dma.c ****     \param[in]  memory_flag: DMA_MEMORY_x(x=0,1)
 411:C:/Users/leonardo/Desktop/Code/Github/DawnGBC/Libraries/FWLIB/src\gd32f4xx_dma.c ****     \param[in]  address: Memory base address
 412:C:/Users/leonardo/Desktop/Code/Github/DawnGBC/Libraries/FWLIB/src\gd32f4xx_dma.c ****     \param[out] none
 413:C:/Users/leonardo/Desktop/Code/Github/DawnGBC/Libraries/FWLIB/src\gd32f4xx_dma.c ****     \retval     none
 414:C:/Users/leonardo/Desktop/Code/Github/DawnGBC/Libraries/FWLIB/src\gd32f4xx_dma.c **** */
 415:C:/Users/leonardo/Desktop/Code/Github/DawnGBC/Libraries/FWLIB/src\gd32f4xx_dma.c **** void dma_memory_address_config(uint32_t dma_periph,dma_channel_enum channelx,uint8_t memory_flag,ui
 416:C:/Users/leonardo/Desktop/Code/Github/DawnGBC/Libraries/FWLIB/src\gd32f4xx_dma.c **** {
 2073              		.loc 1 416 1
 2074              		.cfi_startproc
 2075              		@ args = 0, pretend = 0, frame = 16
 2076              		@ frame_needed = 1, uses_anonymous_args = 0
 2077              		@ link register save eliminated.
 2078 0000 80B4     		push	{r7}
 2079              		.cfi_def_cfa_offset 4
 2080              		.cfi_offset 7, -4
 2081 0002 85B0     		sub	sp, sp, #20
 2082              		.cfi_def_cfa_offset 24
 2083 0004 00AF     		add	r7, sp, #0
 2084              		.cfi_def_cfa_register 7
 2085 0006 F860     		str	r0, [r7, #12]
 2086 0008 7B60     		str	r3, [r7, #4]
 2087 000a 0B46     		mov	r3, r1
 2088 000c FB72     		strb	r3, [r7, #11]
 2089 000e 1346     		mov	r3, r2
 2090 0010 BB72     		strb	r3, [r7, #10]
 417:C:/Users/leonardo/Desktop/Code/Github/DawnGBC/Libraries/FWLIB/src\gd32f4xx_dma.c ****     if(memory_flag){
 2091              		.loc 1 417 7
 2092 0012 BB7A     		ldrb	r3, [r7, #10]	@ zero_extendqisi2
 2093 0014 002B     		cmp	r3, #0
 2094 0016 0CD0     		beq	.L70
 418:C:/Users/leonardo/Desktop/Code/Github/DawnGBC/Libraries/FWLIB/src\gd32f4xx_dma.c ****         DMA_CHM1ADDR(dma_periph,channelx) = address;
 2095              		.loc 1 418 9
 2096 0018 FA7A     		ldrb	r2, [r7, #11]	@ zero_extendqisi2
 2097 001a 1346     		mov	r3, r2
 2098 001c 5B00     		lsls	r3, r3, #1
 2099 001e 1344     		add	r3, r3, r2
 2100 0020 DB00     		lsls	r3, r3, #3
 2101 0022 1A46     		mov	r2, r3
 2102 0024 FB68     		ldr	r3, [r7, #12]
 2103 0026 1344     		add	r3, r3, r2
 2104 0028 2033     		adds	r3, r3, #32
 2105 002a 1A46     		mov	r2, r3
 2106              		.loc 1 418 43
 2107 002c 7B68     		ldr	r3, [r7, #4]
 2108 002e 1360     		str	r3, [r2]
 419:C:/Users/leonardo/Desktop/Code/Github/DawnGBC/Libraries/FWLIB/src\gd32f4xx_dma.c ****     }else{
 420:C:/Users/leonardo/Desktop/Code/Github/DawnGBC/Libraries/FWLIB/src\gd32f4xx_dma.c ****         DMA_CHM0ADDR(dma_periph,channelx) = address;
 421:C:/Users/leonardo/Desktop/Code/Github/DawnGBC/Libraries/FWLIB/src\gd32f4xx_dma.c ****     }
 422:C:/Users/leonardo/Desktop/Code/Github/DawnGBC/Libraries/FWLIB/src\gd32f4xx_dma.c **** }
 2109              		.loc 1 422 1
 2110 0030 0BE0     		b	.L72
 2111              	.L70:
 420:C:/Users/leonardo/Desktop/Code/Github/DawnGBC/Libraries/FWLIB/src\gd32f4xx_dma.c ****     }
 2112              		.loc 1 420 9
 2113 0032 FA7A     		ldrb	r2, [r7, #11]	@ zero_extendqisi2
 2114 0034 1346     		mov	r3, r2
 2115 0036 5B00     		lsls	r3, r3, #1
 2116 0038 1344     		add	r3, r3, r2
 2117 003a DB00     		lsls	r3, r3, #3
 2118 003c 1A46     		mov	r2, r3
 2119 003e FB68     		ldr	r3, [r7, #12]
 2120 0040 1344     		add	r3, r3, r2
 2121 0042 1C33     		adds	r3, r3, #28
 2122 0044 1A46     		mov	r2, r3
 420:C:/Users/leonardo/Desktop/Code/Github/DawnGBC/Libraries/FWLIB/src\gd32f4xx_dma.c ****     }
 2123              		.loc 1 420 43
 2124 0046 7B68     		ldr	r3, [r7, #4]
 2125 0048 1360     		str	r3, [r2]
 2126              	.L72:
 2127              		.loc 1 422 1
 2128 004a 00BF     		nop
 2129 004c 1437     		adds	r7, r7, #20
 2130              		.cfi_def_cfa_offset 4
 2131 004e BD46     		mov	sp, r7
 2132              		.cfi_def_cfa_register 13
 2133              		@ sp needed
 2134 0050 80BC     		pop	{r7}
 2135              		.cfi_restore 7
 2136              		.cfi_def_cfa_offset 0
 2137 0052 7047     		bx	lr
 2138              		.cfi_endproc
 2139              	.LFE133:
 2141              		.section	.text.dma_transfer_number_config,"ax",%progbits
 2142              		.align	1
 2143              		.global	dma_transfer_number_config
 2144              		.syntax unified
 2145              		.thumb
 2146              		.thumb_func
 2147              		.fpu softvfp
 2149              	dma_transfer_number_config:
 2150              	.LFB134:
 423:C:/Users/leonardo/Desktop/Code/Github/DawnGBC/Libraries/FWLIB/src\gd32f4xx_dma.c **** 
 424:C:/Users/leonardo/Desktop/Code/Github/DawnGBC/Libraries/FWLIB/src\gd32f4xx_dma.c **** /*!
 425:C:/Users/leonardo/Desktop/Code/Github/DawnGBC/Libraries/FWLIB/src\gd32f4xx_dma.c ****     \brief      set the number of remaining data to be transferred by the DMA
 426:C:/Users/leonardo/Desktop/Code/Github/DawnGBC/Libraries/FWLIB/src\gd32f4xx_dma.c ****     \param[in]  dma_periph: DMAx(x=0,1)
 427:C:/Users/leonardo/Desktop/Code/Github/DawnGBC/Libraries/FWLIB/src\gd32f4xx_dma.c ****       \arg        DMAx(x=0,1)
 428:C:/Users/leonardo/Desktop/Code/Github/DawnGBC/Libraries/FWLIB/src\gd32f4xx_dma.c ****     \param[in]  channelx: specify which DMA channel to set number
 429:C:/Users/leonardo/Desktop/Code/Github/DawnGBC/Libraries/FWLIB/src\gd32f4xx_dma.c ****       \arg        DMA_CHx(x=0..7)
 430:C:/Users/leonardo/Desktop/Code/Github/DawnGBC/Libraries/FWLIB/src\gd32f4xx_dma.c ****     \param[in]  number: the number of remaining data to be transferred by the DMA
 431:C:/Users/leonardo/Desktop/Code/Github/DawnGBC/Libraries/FWLIB/src\gd32f4xx_dma.c ****     \param[out] none
 432:C:/Users/leonardo/Desktop/Code/Github/DawnGBC/Libraries/FWLIB/src\gd32f4xx_dma.c ****     \retval     none
 433:C:/Users/leonardo/Desktop/Code/Github/DawnGBC/Libraries/FWLIB/src\gd32f4xx_dma.c **** */
 434:C:/Users/leonardo/Desktop/Code/Github/DawnGBC/Libraries/FWLIB/src\gd32f4xx_dma.c **** void dma_transfer_number_config(uint32_t dma_periph,dma_channel_enum channelx,uint32_t number)
 435:C:/Users/leonardo/Desktop/Code/Github/DawnGBC/Libraries/FWLIB/src\gd32f4xx_dma.c **** {
 2151              		.loc 1 435 1
 2152              		.cfi_startproc
 2153              		@ args = 0, pretend = 0, frame = 16
 2154              		@ frame_needed = 1, uses_anonymous_args = 0
 2155              		@ link register save eliminated.
 2156 0000 80B4     		push	{r7}
 2157              		.cfi_def_cfa_offset 4
 2158              		.cfi_offset 7, -4
 2159 0002 85B0     		sub	sp, sp, #20
 2160              		.cfi_def_cfa_offset 24
 2161 0004 00AF     		add	r7, sp, #0
 2162              		.cfi_def_cfa_register 7
 2163 0006 F860     		str	r0, [r7, #12]
 2164 0008 0B46     		mov	r3, r1
 2165 000a 7A60     		str	r2, [r7, #4]
 2166 000c FB72     		strb	r3, [r7, #11]
 436:C:/Users/leonardo/Desktop/Code/Github/DawnGBC/Libraries/FWLIB/src\gd32f4xx_dma.c ****     DMA_CHCNT(dma_periph,channelx) = number;
 2167              		.loc 1 436 5
 2168 000e FA7A     		ldrb	r2, [r7, #11]	@ zero_extendqisi2
 2169 0010 1346     		mov	r3, r2
 2170 0012 5B00     		lsls	r3, r3, #1
 2171 0014 1344     		add	r3, r3, r2
 2172 0016 DB00     		lsls	r3, r3, #3
 2173 0018 1A46     		mov	r2, r3
 2174 001a FB68     		ldr	r3, [r7, #12]
 2175 001c 1344     		add	r3, r3, r2
 2176 001e 1433     		adds	r3, r3, #20
 2177 0020 1A46     		mov	r2, r3
 2178              		.loc 1 436 36
 2179 0022 7B68     		ldr	r3, [r7, #4]
 2180 0024 1360     		str	r3, [r2]
 437:C:/Users/leonardo/Desktop/Code/Github/DawnGBC/Libraries/FWLIB/src\gd32f4xx_dma.c **** }
 2181              		.loc 1 437 1
 2182 0026 00BF     		nop
 2183 0028 1437     		adds	r7, r7, #20
 2184              		.cfi_def_cfa_offset 4
 2185 002a BD46     		mov	sp, r7
 2186              		.cfi_def_cfa_register 13
 2187              		@ sp needed
 2188 002c 80BC     		pop	{r7}
 2189              		.cfi_restore 7
 2190              		.cfi_def_cfa_offset 0
 2191 002e 7047     		bx	lr
 2192              		.cfi_endproc
 2193              	.LFE134:
 2195              		.section	.text.dma_transfer_number_get,"ax",%progbits
 2196              		.align	1
 2197              		.global	dma_transfer_number_get
 2198              		.syntax unified
 2199              		.thumb
 2200              		.thumb_func
 2201              		.fpu softvfp
 2203              	dma_transfer_number_get:
 2204              	.LFB135:
 438:C:/Users/leonardo/Desktop/Code/Github/DawnGBC/Libraries/FWLIB/src\gd32f4xx_dma.c **** 
 439:C:/Users/leonardo/Desktop/Code/Github/DawnGBC/Libraries/FWLIB/src\gd32f4xx_dma.c **** /*!
 440:C:/Users/leonardo/Desktop/Code/Github/DawnGBC/Libraries/FWLIB/src\gd32f4xx_dma.c ****     \brief      get the number of remaining data to be transferred by the DMA
 441:C:/Users/leonardo/Desktop/Code/Github/DawnGBC/Libraries/FWLIB/src\gd32f4xx_dma.c ****     \param[in]  dma_periph: DMAx(x=0,1)
 442:C:/Users/leonardo/Desktop/Code/Github/DawnGBC/Libraries/FWLIB/src\gd32f4xx_dma.c ****       \arg        DMAx(x=0,1)
 443:C:/Users/leonardo/Desktop/Code/Github/DawnGBC/Libraries/FWLIB/src\gd32f4xx_dma.c ****     \param[in]  channelx: specify which DMA channel to set number 
 444:C:/Users/leonardo/Desktop/Code/Github/DawnGBC/Libraries/FWLIB/src\gd32f4xx_dma.c ****       \arg        DMA_CHx(x=0..7)
 445:C:/Users/leonardo/Desktop/Code/Github/DawnGBC/Libraries/FWLIB/src\gd32f4xx_dma.c ****     \param[out] none
 446:C:/Users/leonardo/Desktop/Code/Github/DawnGBC/Libraries/FWLIB/src\gd32f4xx_dma.c ****     \retval     uint32_t: the number of remaining data to be transferred by the DMA 
 447:C:/Users/leonardo/Desktop/Code/Github/DawnGBC/Libraries/FWLIB/src\gd32f4xx_dma.c **** */
 448:C:/Users/leonardo/Desktop/Code/Github/DawnGBC/Libraries/FWLIB/src\gd32f4xx_dma.c **** uint32_t dma_transfer_number_get(uint32_t dma_periph,dma_channel_enum channelx)
 449:C:/Users/leonardo/Desktop/Code/Github/DawnGBC/Libraries/FWLIB/src\gd32f4xx_dma.c **** {
 2205              		.loc 1 449 1
 2206              		.cfi_startproc
 2207              		@ args = 0, pretend = 0, frame = 8
 2208              		@ frame_needed = 1, uses_anonymous_args = 0
 2209              		@ link register save eliminated.
 2210 0000 80B4     		push	{r7}
 2211              		.cfi_def_cfa_offset 4
 2212              		.cfi_offset 7, -4
 2213 0002 83B0     		sub	sp, sp, #12
 2214              		.cfi_def_cfa_offset 16
 2215 0004 00AF     		add	r7, sp, #0
 2216              		.cfi_def_cfa_register 7
 2217 0006 7860     		str	r0, [r7, #4]
 2218 0008 0B46     		mov	r3, r1
 2219 000a FB70     		strb	r3, [r7, #3]
 450:C:/Users/leonardo/Desktop/Code/Github/DawnGBC/Libraries/FWLIB/src\gd32f4xx_dma.c ****     return (uint32_t)DMA_CHCNT(dma_periph,channelx);
 2220              		.loc 1 450 22
 2221 000c FA78     		ldrb	r2, [r7, #3]	@ zero_extendqisi2
 2222 000e 1346     		mov	r3, r2
 2223 0010 5B00     		lsls	r3, r3, #1
 2224 0012 1344     		add	r3, r3, r2
 2225 0014 DB00     		lsls	r3, r3, #3
 2226 0016 1A46     		mov	r2, r3
 2227 0018 7B68     		ldr	r3, [r7, #4]
 2228 001a 1344     		add	r3, r3, r2
 2229 001c 1433     		adds	r3, r3, #20
 2230              		.loc 1 450 12
 2231 001e 1B68     		ldr	r3, [r3]
 451:C:/Users/leonardo/Desktop/Code/Github/DawnGBC/Libraries/FWLIB/src\gd32f4xx_dma.c **** }
 2232              		.loc 1 451 1
 2233 0020 1846     		mov	r0, r3
 2234 0022 0C37     		adds	r7, r7, #12
 2235              		.cfi_def_cfa_offset 4
 2236 0024 BD46     		mov	sp, r7
 2237              		.cfi_def_cfa_register 13
 2238              		@ sp needed
 2239 0026 80BC     		pop	{r7}
 2240              		.cfi_restore 7
 2241              		.cfi_def_cfa_offset 0
 2242 0028 7047     		bx	lr
 2243              		.cfi_endproc
 2244              	.LFE135:
 2246              		.section	.text.dma_priority_config,"ax",%progbits
 2247              		.align	1
 2248              		.global	dma_priority_config
 2249              		.syntax unified
 2250              		.thumb
 2251              		.thumb_func
 2252              		.fpu softvfp
 2254              	dma_priority_config:
 2255              	.LFB136:
 452:C:/Users/leonardo/Desktop/Code/Github/DawnGBC/Libraries/FWLIB/src\gd32f4xx_dma.c **** 
 453:C:/Users/leonardo/Desktop/Code/Github/DawnGBC/Libraries/FWLIB/src\gd32f4xx_dma.c **** /*!
 454:C:/Users/leonardo/Desktop/Code/Github/DawnGBC/Libraries/FWLIB/src\gd32f4xx_dma.c ****     \brief      configure priority level of DMA channel
 455:C:/Users/leonardo/Desktop/Code/Github/DawnGBC/Libraries/FWLIB/src\gd32f4xx_dma.c ****     \param[in]  dma_periph: DMAx(x=0,1)
 456:C:/Users/leonardo/Desktop/Code/Github/DawnGBC/Libraries/FWLIB/src\gd32f4xx_dma.c ****       \arg        DMAx(x=0,1)
 457:C:/Users/leonardo/Desktop/Code/Github/DawnGBC/Libraries/FWLIB/src\gd32f4xx_dma.c ****     \param[in]  channelx: specify which DMA channel
 458:C:/Users/leonardo/Desktop/Code/Github/DawnGBC/Libraries/FWLIB/src\gd32f4xx_dma.c ****       \arg        DMA_CHx(x=0..7)
 459:C:/Users/leonardo/Desktop/Code/Github/DawnGBC/Libraries/FWLIB/src\gd32f4xx_dma.c ****     \param[in]  priority: priority Level of this channel
 460:C:/Users/leonardo/Desktop/Code/Github/DawnGBC/Libraries/FWLIB/src\gd32f4xx_dma.c ****       \arg        DMA_PRIORITY_LOW: low priority
 461:C:/Users/leonardo/Desktop/Code/Github/DawnGBC/Libraries/FWLIB/src\gd32f4xx_dma.c ****       \arg        DMA_PRIORITY_MEDIUM: medium priority
 462:C:/Users/leonardo/Desktop/Code/Github/DawnGBC/Libraries/FWLIB/src\gd32f4xx_dma.c ****       \arg        DMA_PRIORITY_HIGH: high priority
 463:C:/Users/leonardo/Desktop/Code/Github/DawnGBC/Libraries/FWLIB/src\gd32f4xx_dma.c ****       \arg        DMA_PRIORITY_ULTRA_HIGH: ultra high priority
 464:C:/Users/leonardo/Desktop/Code/Github/DawnGBC/Libraries/FWLIB/src\gd32f4xx_dma.c ****     \param[out] none
 465:C:/Users/leonardo/Desktop/Code/Github/DawnGBC/Libraries/FWLIB/src\gd32f4xx_dma.c ****     \retval     none 
 466:C:/Users/leonardo/Desktop/Code/Github/DawnGBC/Libraries/FWLIB/src\gd32f4xx_dma.c **** */
 467:C:/Users/leonardo/Desktop/Code/Github/DawnGBC/Libraries/FWLIB/src\gd32f4xx_dma.c **** void dma_priority_config(uint32_t dma_periph,dma_channel_enum channelx,uint32_t priority)
 468:C:/Users/leonardo/Desktop/Code/Github/DawnGBC/Libraries/FWLIB/src\gd32f4xx_dma.c **** {
 2256              		.loc 1 468 1
 2257              		.cfi_startproc
 2258              		@ args = 0, pretend = 0, frame = 24
 2259              		@ frame_needed = 1, uses_anonymous_args = 0
 2260              		@ link register save eliminated.
 2261 0000 80B4     		push	{r7}
 2262              		.cfi_def_cfa_offset 4
 2263              		.cfi_offset 7, -4
 2264 0002 87B0     		sub	sp, sp, #28
 2265              		.cfi_def_cfa_offset 32
 2266 0004 00AF     		add	r7, sp, #0
 2267              		.cfi_def_cfa_register 7
 2268 0006 F860     		str	r0, [r7, #12]
 2269 0008 0B46     		mov	r3, r1
 2270 000a 7A60     		str	r2, [r7, #4]
 2271 000c FB72     		strb	r3, [r7, #11]
 469:C:/Users/leonardo/Desktop/Code/Github/DawnGBC/Libraries/FWLIB/src\gd32f4xx_dma.c ****     uint32_t ctl;
 470:C:/Users/leonardo/Desktop/Code/Github/DawnGBC/Libraries/FWLIB/src\gd32f4xx_dma.c ****     /* acquire DMA_CHxCTL register */
 471:C:/Users/leonardo/Desktop/Code/Github/DawnGBC/Libraries/FWLIB/src\gd32f4xx_dma.c ****     ctl = DMA_CHCTL(dma_periph,channelx);
 2272              		.loc 1 471 11
 2273 000e FA7A     		ldrb	r2, [r7, #11]	@ zero_extendqisi2
 2274 0010 1346     		mov	r3, r2
 2275 0012 5B00     		lsls	r3, r3, #1
 2276 0014 1344     		add	r3, r3, r2
 2277 0016 DB00     		lsls	r3, r3, #3
 2278 0018 1A46     		mov	r2, r3
 2279 001a FB68     		ldr	r3, [r7, #12]
 2280 001c 1344     		add	r3, r3, r2
 2281 001e 1033     		adds	r3, r3, #16
 2282              		.loc 1 471 9
 2283 0020 1B68     		ldr	r3, [r3]
 2284 0022 7B61     		str	r3, [r7, #20]
 472:C:/Users/leonardo/Desktop/Code/Github/DawnGBC/Libraries/FWLIB/src\gd32f4xx_dma.c ****     /* assign regiser */
 473:C:/Users/leonardo/Desktop/Code/Github/DawnGBC/Libraries/FWLIB/src\gd32f4xx_dma.c ****     ctl &= ~DMA_CHXCTL_PRIO;
 2285              		.loc 1 473 9
 2286 0024 7B69     		ldr	r3, [r7, #20]
 2287 0026 23F44033 		bic	r3, r3, #196608
 2288 002a 7B61     		str	r3, [r7, #20]
 474:C:/Users/leonardo/Desktop/Code/Github/DawnGBC/Libraries/FWLIB/src\gd32f4xx_dma.c ****     ctl |= priority;
 2289              		.loc 1 474 9
 2290 002c 7A69     		ldr	r2, [r7, #20]
 2291 002e 7B68     		ldr	r3, [r7, #4]
 2292 0030 1343     		orrs	r3, r3, r2
 2293 0032 7B61     		str	r3, [r7, #20]
 475:C:/Users/leonardo/Desktop/Code/Github/DawnGBC/Libraries/FWLIB/src\gd32f4xx_dma.c ****     DMA_CHCTL(dma_periph,channelx) = ctl;
 2294              		.loc 1 475 5
 2295 0034 FA7A     		ldrb	r2, [r7, #11]	@ zero_extendqisi2
 2296 0036 1346     		mov	r3, r2
 2297 0038 5B00     		lsls	r3, r3, #1
 2298 003a 1344     		add	r3, r3, r2
 2299 003c DB00     		lsls	r3, r3, #3
 2300 003e 1A46     		mov	r2, r3
 2301 0040 FB68     		ldr	r3, [r7, #12]
 2302 0042 1344     		add	r3, r3, r2
 2303 0044 1033     		adds	r3, r3, #16
 2304 0046 1A46     		mov	r2, r3
 2305              		.loc 1 475 36
 2306 0048 7B69     		ldr	r3, [r7, #20]
 2307 004a 1360     		str	r3, [r2]
 476:C:/Users/leonardo/Desktop/Code/Github/DawnGBC/Libraries/FWLIB/src\gd32f4xx_dma.c **** }
 2308              		.loc 1 476 1
 2309 004c 00BF     		nop
 2310 004e 1C37     		adds	r7, r7, #28
 2311              		.cfi_def_cfa_offset 4
 2312 0050 BD46     		mov	sp, r7
 2313              		.cfi_def_cfa_register 13
 2314              		@ sp needed
 2315 0052 80BC     		pop	{r7}
 2316              		.cfi_restore 7
 2317              		.cfi_def_cfa_offset 0
 2318 0054 7047     		bx	lr
 2319              		.cfi_endproc
 2320              	.LFE136:
 2322              		.section	.text.dma_memory_burst_beats_config,"ax",%progbits
 2323              		.align	1
 2324              		.global	dma_memory_burst_beats_config
 2325              		.syntax unified
 2326              		.thumb
 2327              		.thumb_func
 2328              		.fpu softvfp
 2330              	dma_memory_burst_beats_config:
 2331              	.LFB137:
 477:C:/Users/leonardo/Desktop/Code/Github/DawnGBC/Libraries/FWLIB/src\gd32f4xx_dma.c **** 
 478:C:/Users/leonardo/Desktop/Code/Github/DawnGBC/Libraries/FWLIB/src\gd32f4xx_dma.c **** /*!
 479:C:/Users/leonardo/Desktop/Code/Github/DawnGBC/Libraries/FWLIB/src\gd32f4xx_dma.c ****     \brief      configure transfer burst beats of memory
 480:C:/Users/leonardo/Desktop/Code/Github/DawnGBC/Libraries/FWLIB/src\gd32f4xx_dma.c ****     \param[in]  dma_periph: DMAx(x=0,1)
 481:C:/Users/leonardo/Desktop/Code/Github/DawnGBC/Libraries/FWLIB/src\gd32f4xx_dma.c ****       \arg        DMAx(x=0,1)
 482:C:/Users/leonardo/Desktop/Code/Github/DawnGBC/Libraries/FWLIB/src\gd32f4xx_dma.c ****     \param[in]  channelx: specify which DMA channel
 483:C:/Users/leonardo/Desktop/Code/Github/DawnGBC/Libraries/FWLIB/src\gd32f4xx_dma.c ****       \arg        DMA_CHx(x=0..7)
 484:C:/Users/leonardo/Desktop/Code/Github/DawnGBC/Libraries/FWLIB/src\gd32f4xx_dma.c ****     \param[in]  mbeat: transfer burst beats
 485:C:/Users/leonardo/Desktop/Code/Github/DawnGBC/Libraries/FWLIB/src\gd32f4xx_dma.c ****       \arg        DMA_MEMORY_BURST_SINGLE: memory transfer single burst
 486:C:/Users/leonardo/Desktop/Code/Github/DawnGBC/Libraries/FWLIB/src\gd32f4xx_dma.c ****       \arg        DMA_MEMORY_BURST_4_BEAT: memory transfer 4-beat burst
 487:C:/Users/leonardo/Desktop/Code/Github/DawnGBC/Libraries/FWLIB/src\gd32f4xx_dma.c ****       \arg        DMA_MEMORY_BURST_8_BEAT: memory transfer 8-beat burst
 488:C:/Users/leonardo/Desktop/Code/Github/DawnGBC/Libraries/FWLIB/src\gd32f4xx_dma.c ****       \arg        DMA_MEMORY_BURST_16_BEAT: memory transfer 16-beat burst
 489:C:/Users/leonardo/Desktop/Code/Github/DawnGBC/Libraries/FWLIB/src\gd32f4xx_dma.c ****     \param[out] none
 490:C:/Users/leonardo/Desktop/Code/Github/DawnGBC/Libraries/FWLIB/src\gd32f4xx_dma.c ****     \retval     none
 491:C:/Users/leonardo/Desktop/Code/Github/DawnGBC/Libraries/FWLIB/src\gd32f4xx_dma.c **** */
 492:C:/Users/leonardo/Desktop/Code/Github/DawnGBC/Libraries/FWLIB/src\gd32f4xx_dma.c **** void dma_memory_burst_beats_config (uint32_t dma_periph,dma_channel_enum channelx,uint32_t mbeat)
 493:C:/Users/leonardo/Desktop/Code/Github/DawnGBC/Libraries/FWLIB/src\gd32f4xx_dma.c **** {
 2332              		.loc 1 493 1
 2333              		.cfi_startproc
 2334              		@ args = 0, pretend = 0, frame = 24
 2335              		@ frame_needed = 1, uses_anonymous_args = 0
 2336              		@ link register save eliminated.
 2337 0000 80B4     		push	{r7}
 2338              		.cfi_def_cfa_offset 4
 2339              		.cfi_offset 7, -4
 2340 0002 87B0     		sub	sp, sp, #28
 2341              		.cfi_def_cfa_offset 32
 2342 0004 00AF     		add	r7, sp, #0
 2343              		.cfi_def_cfa_register 7
 2344 0006 F860     		str	r0, [r7, #12]
 2345 0008 0B46     		mov	r3, r1
 2346 000a 7A60     		str	r2, [r7, #4]
 2347 000c FB72     		strb	r3, [r7, #11]
 494:C:/Users/leonardo/Desktop/Code/Github/DawnGBC/Libraries/FWLIB/src\gd32f4xx_dma.c ****     uint32_t ctl;
 495:C:/Users/leonardo/Desktop/Code/Github/DawnGBC/Libraries/FWLIB/src\gd32f4xx_dma.c ****     /* acquire DMA_CHxCTL register */
 496:C:/Users/leonardo/Desktop/Code/Github/DawnGBC/Libraries/FWLIB/src\gd32f4xx_dma.c ****     ctl = DMA_CHCTL(dma_periph,channelx);
 2348              		.loc 1 496 11
 2349 000e FA7A     		ldrb	r2, [r7, #11]	@ zero_extendqisi2
 2350 0010 1346     		mov	r3, r2
 2351 0012 5B00     		lsls	r3, r3, #1
 2352 0014 1344     		add	r3, r3, r2
 2353 0016 DB00     		lsls	r3, r3, #3
 2354 0018 1A46     		mov	r2, r3
 2355 001a FB68     		ldr	r3, [r7, #12]
 2356 001c 1344     		add	r3, r3, r2
 2357 001e 1033     		adds	r3, r3, #16
 2358              		.loc 1 496 9
 2359 0020 1B68     		ldr	r3, [r3]
 2360 0022 7B61     		str	r3, [r7, #20]
 497:C:/Users/leonardo/Desktop/Code/Github/DawnGBC/Libraries/FWLIB/src\gd32f4xx_dma.c ****     /* assign regiser */
 498:C:/Users/leonardo/Desktop/Code/Github/DawnGBC/Libraries/FWLIB/src\gd32f4xx_dma.c ****     ctl &= ~DMA_CHXCTL_MBURST;
 2361              		.loc 1 498 9
 2362 0024 7B69     		ldr	r3, [r7, #20]
 2363 0026 23F0C073 		bic	r3, r3, #25165824
 2364 002a 7B61     		str	r3, [r7, #20]
 499:C:/Users/leonardo/Desktop/Code/Github/DawnGBC/Libraries/FWLIB/src\gd32f4xx_dma.c ****     ctl |= mbeat;
 2365              		.loc 1 499 9
 2366 002c 7A69     		ldr	r2, [r7, #20]
 2367 002e 7B68     		ldr	r3, [r7, #4]
 2368 0030 1343     		orrs	r3, r3, r2
 2369 0032 7B61     		str	r3, [r7, #20]
 500:C:/Users/leonardo/Desktop/Code/Github/DawnGBC/Libraries/FWLIB/src\gd32f4xx_dma.c ****     DMA_CHCTL(dma_periph,channelx) = ctl;
 2370              		.loc 1 500 5
 2371 0034 FA7A     		ldrb	r2, [r7, #11]	@ zero_extendqisi2
 2372 0036 1346     		mov	r3, r2
 2373 0038 5B00     		lsls	r3, r3, #1
 2374 003a 1344     		add	r3, r3, r2
 2375 003c DB00     		lsls	r3, r3, #3
 2376 003e 1A46     		mov	r2, r3
 2377 0040 FB68     		ldr	r3, [r7, #12]
 2378 0042 1344     		add	r3, r3, r2
 2379 0044 1033     		adds	r3, r3, #16
 2380 0046 1A46     		mov	r2, r3
 2381              		.loc 1 500 36
 2382 0048 7B69     		ldr	r3, [r7, #20]
 2383 004a 1360     		str	r3, [r2]
 501:C:/Users/leonardo/Desktop/Code/Github/DawnGBC/Libraries/FWLIB/src\gd32f4xx_dma.c **** }
 2384              		.loc 1 501 1
 2385 004c 00BF     		nop
 2386 004e 1C37     		adds	r7, r7, #28
 2387              		.cfi_def_cfa_offset 4
 2388 0050 BD46     		mov	sp, r7
 2389              		.cfi_def_cfa_register 13
 2390              		@ sp needed
 2391 0052 80BC     		pop	{r7}
 2392              		.cfi_restore 7
 2393              		.cfi_def_cfa_offset 0
 2394 0054 7047     		bx	lr
 2395              		.cfi_endproc
 2396              	.LFE137:
 2398              		.section	.text.dma_periph_burst_beats_config,"ax",%progbits
 2399              		.align	1
 2400              		.global	dma_periph_burst_beats_config
 2401              		.syntax unified
 2402              		.thumb
 2403              		.thumb_func
 2404              		.fpu softvfp
 2406              	dma_periph_burst_beats_config:
 2407              	.LFB138:
 502:C:/Users/leonardo/Desktop/Code/Github/DawnGBC/Libraries/FWLIB/src\gd32f4xx_dma.c **** 
 503:C:/Users/leonardo/Desktop/Code/Github/DawnGBC/Libraries/FWLIB/src\gd32f4xx_dma.c **** /*!
 504:C:/Users/leonardo/Desktop/Code/Github/DawnGBC/Libraries/FWLIB/src\gd32f4xx_dma.c ****     \brief      configure transfer burst beats of peripheral
 505:C:/Users/leonardo/Desktop/Code/Github/DawnGBC/Libraries/FWLIB/src\gd32f4xx_dma.c ****     \param[in]  dma_periph: DMAx(x=0,1)
 506:C:/Users/leonardo/Desktop/Code/Github/DawnGBC/Libraries/FWLIB/src\gd32f4xx_dma.c ****       \arg        DMAx(x=0,1)
 507:C:/Users/leonardo/Desktop/Code/Github/DawnGBC/Libraries/FWLIB/src\gd32f4xx_dma.c ****     \param[in]  channelx: specify which DMA channel
 508:C:/Users/leonardo/Desktop/Code/Github/DawnGBC/Libraries/FWLIB/src\gd32f4xx_dma.c ****       \arg        DMA_CHx(x=0..7)
 509:C:/Users/leonardo/Desktop/Code/Github/DawnGBC/Libraries/FWLIB/src\gd32f4xx_dma.c ****     \param[in]  pbeat: transfer burst beats
 510:C:/Users/leonardo/Desktop/Code/Github/DawnGBC/Libraries/FWLIB/src\gd32f4xx_dma.c ****       \arg        DMA_PERIPH_BURST_SINGLE: peripheral transfer single burst
 511:C:/Users/leonardo/Desktop/Code/Github/DawnGBC/Libraries/FWLIB/src\gd32f4xx_dma.c ****       \arg        DMA_PERIPH_BURST_4_BEAT: peripheral transfer 4-beat burst
 512:C:/Users/leonardo/Desktop/Code/Github/DawnGBC/Libraries/FWLIB/src\gd32f4xx_dma.c ****       \arg        DMA_PERIPH_BURST_8_BEAT: peripheral transfer 8-beat burst
 513:C:/Users/leonardo/Desktop/Code/Github/DawnGBC/Libraries/FWLIB/src\gd32f4xx_dma.c ****       \arg        DMA_PERIPH_BURST_16_BEAT: peripheral transfer 16-beat burst
 514:C:/Users/leonardo/Desktop/Code/Github/DawnGBC/Libraries/FWLIB/src\gd32f4xx_dma.c ****     \param[out] none
 515:C:/Users/leonardo/Desktop/Code/Github/DawnGBC/Libraries/FWLIB/src\gd32f4xx_dma.c ****     \retval     none
 516:C:/Users/leonardo/Desktop/Code/Github/DawnGBC/Libraries/FWLIB/src\gd32f4xx_dma.c **** */
 517:C:/Users/leonardo/Desktop/Code/Github/DawnGBC/Libraries/FWLIB/src\gd32f4xx_dma.c **** void dma_periph_burst_beats_config (uint32_t dma_periph,dma_channel_enum channelx,uint32_t pbeat)
 518:C:/Users/leonardo/Desktop/Code/Github/DawnGBC/Libraries/FWLIB/src\gd32f4xx_dma.c **** {
 2408              		.loc 1 518 1
 2409              		.cfi_startproc
 2410              		@ args = 0, pretend = 0, frame = 24
 2411              		@ frame_needed = 1, uses_anonymous_args = 0
 2412              		@ link register save eliminated.
 2413 0000 80B4     		push	{r7}
 2414              		.cfi_def_cfa_offset 4
 2415              		.cfi_offset 7, -4
 2416 0002 87B0     		sub	sp, sp, #28
 2417              		.cfi_def_cfa_offset 32
 2418 0004 00AF     		add	r7, sp, #0
 2419              		.cfi_def_cfa_register 7
 2420 0006 F860     		str	r0, [r7, #12]
 2421 0008 0B46     		mov	r3, r1
 2422 000a 7A60     		str	r2, [r7, #4]
 2423 000c FB72     		strb	r3, [r7, #11]
 519:C:/Users/leonardo/Desktop/Code/Github/DawnGBC/Libraries/FWLIB/src\gd32f4xx_dma.c ****     uint32_t ctl;
 520:C:/Users/leonardo/Desktop/Code/Github/DawnGBC/Libraries/FWLIB/src\gd32f4xx_dma.c ****     /* acquire DMA_CHxCTL register */
 521:C:/Users/leonardo/Desktop/Code/Github/DawnGBC/Libraries/FWLIB/src\gd32f4xx_dma.c ****     ctl = DMA_CHCTL(dma_periph,channelx);
 2424              		.loc 1 521 11
 2425 000e FA7A     		ldrb	r2, [r7, #11]	@ zero_extendqisi2
 2426 0010 1346     		mov	r3, r2
 2427 0012 5B00     		lsls	r3, r3, #1
 2428 0014 1344     		add	r3, r3, r2
 2429 0016 DB00     		lsls	r3, r3, #3
 2430 0018 1A46     		mov	r2, r3
 2431 001a FB68     		ldr	r3, [r7, #12]
 2432 001c 1344     		add	r3, r3, r2
 2433 001e 1033     		adds	r3, r3, #16
 2434              		.loc 1 521 9
 2435 0020 1B68     		ldr	r3, [r3]
 2436 0022 7B61     		str	r3, [r7, #20]
 522:C:/Users/leonardo/Desktop/Code/Github/DawnGBC/Libraries/FWLIB/src\gd32f4xx_dma.c ****     /* assign regiser */
 523:C:/Users/leonardo/Desktop/Code/Github/DawnGBC/Libraries/FWLIB/src\gd32f4xx_dma.c ****     ctl &= ~DMA_CHXCTL_PBURST;
 2437              		.loc 1 523 9
 2438 0024 7B69     		ldr	r3, [r7, #20]
 2439 0026 23F4C003 		bic	r3, r3, #6291456
 2440 002a 7B61     		str	r3, [r7, #20]
 524:C:/Users/leonardo/Desktop/Code/Github/DawnGBC/Libraries/FWLIB/src\gd32f4xx_dma.c ****     ctl |= pbeat;
 2441              		.loc 1 524 9
 2442 002c 7A69     		ldr	r2, [r7, #20]
 2443 002e 7B68     		ldr	r3, [r7, #4]
 2444 0030 1343     		orrs	r3, r3, r2
 2445 0032 7B61     		str	r3, [r7, #20]
 525:C:/Users/leonardo/Desktop/Code/Github/DawnGBC/Libraries/FWLIB/src\gd32f4xx_dma.c ****     DMA_CHCTL(dma_periph,channelx) = ctl;
 2446              		.loc 1 525 5
 2447 0034 FA7A     		ldrb	r2, [r7, #11]	@ zero_extendqisi2
 2448 0036 1346     		mov	r3, r2
 2449 0038 5B00     		lsls	r3, r3, #1
 2450 003a 1344     		add	r3, r3, r2
 2451 003c DB00     		lsls	r3, r3, #3
 2452 003e 1A46     		mov	r2, r3
 2453 0040 FB68     		ldr	r3, [r7, #12]
 2454 0042 1344     		add	r3, r3, r2
 2455 0044 1033     		adds	r3, r3, #16
 2456 0046 1A46     		mov	r2, r3
 2457              		.loc 1 525 36
 2458 0048 7B69     		ldr	r3, [r7, #20]
 2459 004a 1360     		str	r3, [r2]
 526:C:/Users/leonardo/Desktop/Code/Github/DawnGBC/Libraries/FWLIB/src\gd32f4xx_dma.c **** }
 2460              		.loc 1 526 1
 2461 004c 00BF     		nop
 2462 004e 1C37     		adds	r7, r7, #28
 2463              		.cfi_def_cfa_offset 4
 2464 0050 BD46     		mov	sp, r7
 2465              		.cfi_def_cfa_register 13
 2466              		@ sp needed
 2467 0052 80BC     		pop	{r7}
 2468              		.cfi_restore 7
 2469              		.cfi_def_cfa_offset 0
 2470 0054 7047     		bx	lr
 2471              		.cfi_endproc
 2472              	.LFE138:
 2474              		.section	.text.dma_memory_width_config,"ax",%progbits
 2475              		.align	1
 2476              		.global	dma_memory_width_config
 2477              		.syntax unified
 2478              		.thumb
 2479              		.thumb_func
 2480              		.fpu softvfp
 2482              	dma_memory_width_config:
 2483              	.LFB139:
 527:C:/Users/leonardo/Desktop/Code/Github/DawnGBC/Libraries/FWLIB/src\gd32f4xx_dma.c **** 
 528:C:/Users/leonardo/Desktop/Code/Github/DawnGBC/Libraries/FWLIB/src\gd32f4xx_dma.c **** /*!
 529:C:/Users/leonardo/Desktop/Code/Github/DawnGBC/Libraries/FWLIB/src\gd32f4xx_dma.c ****     \brief      configure transfer data size of memory
 530:C:/Users/leonardo/Desktop/Code/Github/DawnGBC/Libraries/FWLIB/src\gd32f4xx_dma.c ****     \param[in]  dma_periph: DMAx(x=0,1)
 531:C:/Users/leonardo/Desktop/Code/Github/DawnGBC/Libraries/FWLIB/src\gd32f4xx_dma.c ****       \arg        DMAx(x=0,1)
 532:C:/Users/leonardo/Desktop/Code/Github/DawnGBC/Libraries/FWLIB/src\gd32f4xx_dma.c ****     \param[in]  channelx: specify which DMA channel
 533:C:/Users/leonardo/Desktop/Code/Github/DawnGBC/Libraries/FWLIB/src\gd32f4xx_dma.c ****       \arg        DMA_CHx(x=0..7)
 534:C:/Users/leonardo/Desktop/Code/Github/DawnGBC/Libraries/FWLIB/src\gd32f4xx_dma.c ****     \param[in]  msize: transfer data size of memory
 535:C:/Users/leonardo/Desktop/Code/Github/DawnGBC/Libraries/FWLIB/src\gd32f4xx_dma.c ****       \arg        DMA_MEMORY_WIDTH_8BIT: transfer data size of memory is 8-bit
 536:C:/Users/leonardo/Desktop/Code/Github/DawnGBC/Libraries/FWLIB/src\gd32f4xx_dma.c ****       \arg        DMA_MEMORY_WIDTH_16BIT: transfer data size of memory is 16-bit
 537:C:/Users/leonardo/Desktop/Code/Github/DawnGBC/Libraries/FWLIB/src\gd32f4xx_dma.c ****       \arg        DMA_MEMORY_WIDTH_32BIT: transfer data size of memory is 32-bit
 538:C:/Users/leonardo/Desktop/Code/Github/DawnGBC/Libraries/FWLIB/src\gd32f4xx_dma.c ****     \param[out] none
 539:C:/Users/leonardo/Desktop/Code/Github/DawnGBC/Libraries/FWLIB/src\gd32f4xx_dma.c ****     \retval     none
 540:C:/Users/leonardo/Desktop/Code/Github/DawnGBC/Libraries/FWLIB/src\gd32f4xx_dma.c **** */
 541:C:/Users/leonardo/Desktop/Code/Github/DawnGBC/Libraries/FWLIB/src\gd32f4xx_dma.c **** void dma_memory_width_config(uint32_t dma_periph,dma_channel_enum channelx,uint32_t msize)
 542:C:/Users/leonardo/Desktop/Code/Github/DawnGBC/Libraries/FWLIB/src\gd32f4xx_dma.c **** {
 2484              		.loc 1 542 1
 2485              		.cfi_startproc
 2486              		@ args = 0, pretend = 0, frame = 24
 2487              		@ frame_needed = 1, uses_anonymous_args = 0
 2488              		@ link register save eliminated.
 2489 0000 80B4     		push	{r7}
 2490              		.cfi_def_cfa_offset 4
 2491              		.cfi_offset 7, -4
 2492 0002 87B0     		sub	sp, sp, #28
 2493              		.cfi_def_cfa_offset 32
 2494 0004 00AF     		add	r7, sp, #0
 2495              		.cfi_def_cfa_register 7
 2496 0006 F860     		str	r0, [r7, #12]
 2497 0008 0B46     		mov	r3, r1
 2498 000a 7A60     		str	r2, [r7, #4]
 2499 000c FB72     		strb	r3, [r7, #11]
 543:C:/Users/leonardo/Desktop/Code/Github/DawnGBC/Libraries/FWLIB/src\gd32f4xx_dma.c ****     uint32_t ctl;
 544:C:/Users/leonardo/Desktop/Code/Github/DawnGBC/Libraries/FWLIB/src\gd32f4xx_dma.c ****     /* acquire DMA_CHxCTL register */
 545:C:/Users/leonardo/Desktop/Code/Github/DawnGBC/Libraries/FWLIB/src\gd32f4xx_dma.c ****     ctl = DMA_CHCTL(dma_periph,channelx);
 2500              		.loc 1 545 11
 2501 000e FA7A     		ldrb	r2, [r7, #11]	@ zero_extendqisi2
 2502 0010 1346     		mov	r3, r2
 2503 0012 5B00     		lsls	r3, r3, #1
 2504 0014 1344     		add	r3, r3, r2
 2505 0016 DB00     		lsls	r3, r3, #3
 2506 0018 1A46     		mov	r2, r3
 2507 001a FB68     		ldr	r3, [r7, #12]
 2508 001c 1344     		add	r3, r3, r2
 2509 001e 1033     		adds	r3, r3, #16
 2510              		.loc 1 545 9
 2511 0020 1B68     		ldr	r3, [r3]
 2512 0022 7B61     		str	r3, [r7, #20]
 546:C:/Users/leonardo/Desktop/Code/Github/DawnGBC/Libraries/FWLIB/src\gd32f4xx_dma.c ****     /* assign regiser */
 547:C:/Users/leonardo/Desktop/Code/Github/DawnGBC/Libraries/FWLIB/src\gd32f4xx_dma.c ****     ctl &= ~DMA_CHXCTL_MWIDTH;
 2513              		.loc 1 547 9
 2514 0024 7B69     		ldr	r3, [r7, #20]
 2515 0026 23F4C043 		bic	r3, r3, #24576
 2516 002a 7B61     		str	r3, [r7, #20]
 548:C:/Users/leonardo/Desktop/Code/Github/DawnGBC/Libraries/FWLIB/src\gd32f4xx_dma.c ****     ctl |= msize;
 2517              		.loc 1 548 9
 2518 002c 7A69     		ldr	r2, [r7, #20]
 2519 002e 7B68     		ldr	r3, [r7, #4]
 2520 0030 1343     		orrs	r3, r3, r2
 2521 0032 7B61     		str	r3, [r7, #20]
 549:C:/Users/leonardo/Desktop/Code/Github/DawnGBC/Libraries/FWLIB/src\gd32f4xx_dma.c ****     DMA_CHCTL(dma_periph,channelx) = ctl;
 2522              		.loc 1 549 5
 2523 0034 FA7A     		ldrb	r2, [r7, #11]	@ zero_extendqisi2
 2524 0036 1346     		mov	r3, r2
 2525 0038 5B00     		lsls	r3, r3, #1
 2526 003a 1344     		add	r3, r3, r2
 2527 003c DB00     		lsls	r3, r3, #3
 2528 003e 1A46     		mov	r2, r3
 2529 0040 FB68     		ldr	r3, [r7, #12]
 2530 0042 1344     		add	r3, r3, r2
 2531 0044 1033     		adds	r3, r3, #16
 2532 0046 1A46     		mov	r2, r3
 2533              		.loc 1 549 36
 2534 0048 7B69     		ldr	r3, [r7, #20]
 2535 004a 1360     		str	r3, [r2]
 550:C:/Users/leonardo/Desktop/Code/Github/DawnGBC/Libraries/FWLIB/src\gd32f4xx_dma.c **** }
 2536              		.loc 1 550 1
 2537 004c 00BF     		nop
 2538 004e 1C37     		adds	r7, r7, #28
 2539              		.cfi_def_cfa_offset 4
 2540 0050 BD46     		mov	sp, r7
 2541              		.cfi_def_cfa_register 13
 2542              		@ sp needed
 2543 0052 80BC     		pop	{r7}
 2544              		.cfi_restore 7
 2545              		.cfi_def_cfa_offset 0
 2546 0054 7047     		bx	lr
 2547              		.cfi_endproc
 2548              	.LFE139:
 2550              		.section	.text.dma_periph_width_config,"ax",%progbits
 2551              		.align	1
 2552              		.global	dma_periph_width_config
 2553              		.syntax unified
 2554              		.thumb
 2555              		.thumb_func
 2556              		.fpu softvfp
 2558              	dma_periph_width_config:
 2559              	.LFB140:
 551:C:/Users/leonardo/Desktop/Code/Github/DawnGBC/Libraries/FWLIB/src\gd32f4xx_dma.c **** 
 552:C:/Users/leonardo/Desktop/Code/Github/DawnGBC/Libraries/FWLIB/src\gd32f4xx_dma.c **** /*!
 553:C:/Users/leonardo/Desktop/Code/Github/DawnGBC/Libraries/FWLIB/src\gd32f4xx_dma.c ****     \brief      configure transfer data size of peripheral 
 554:C:/Users/leonardo/Desktop/Code/Github/DawnGBC/Libraries/FWLIB/src\gd32f4xx_dma.c ****     \param[in]  dma_periph: DMAx(x=0,1)
 555:C:/Users/leonardo/Desktop/Code/Github/DawnGBC/Libraries/FWLIB/src\gd32f4xx_dma.c ****       \arg        DMAx(x=0,1)
 556:C:/Users/leonardo/Desktop/Code/Github/DawnGBC/Libraries/FWLIB/src\gd32f4xx_dma.c ****     \param[in]  channelx: specify which DMA channel 
 557:C:/Users/leonardo/Desktop/Code/Github/DawnGBC/Libraries/FWLIB/src\gd32f4xx_dma.c ****       \arg        DMA_CHx(x=0..7)
 558:C:/Users/leonardo/Desktop/Code/Github/DawnGBC/Libraries/FWLIB/src\gd32f4xx_dma.c ****     \param[in]  msize: transfer data size of peripheral
 559:C:/Users/leonardo/Desktop/Code/Github/DawnGBC/Libraries/FWLIB/src\gd32f4xx_dma.c ****       \arg        DMA_PERIPHERAL_WIDTH_8BIT: transfer data size of peripheral is 8-bit
 560:C:/Users/leonardo/Desktop/Code/Github/DawnGBC/Libraries/FWLIB/src\gd32f4xx_dma.c ****       \arg        DMA_PERIPHERAL_WIDTH_16BIT: transfer data size of peripheral is 16-bit
 561:C:/Users/leonardo/Desktop/Code/Github/DawnGBC/Libraries/FWLIB/src\gd32f4xx_dma.c ****       \arg        DMA_PERIPHERAL_WIDTH_32BIT: transfer data size of peripheral is 32-bit
 562:C:/Users/leonardo/Desktop/Code/Github/DawnGBC/Libraries/FWLIB/src\gd32f4xx_dma.c ****     \param[out] none
 563:C:/Users/leonardo/Desktop/Code/Github/DawnGBC/Libraries/FWLIB/src\gd32f4xx_dma.c ****     \retval     none
 564:C:/Users/leonardo/Desktop/Code/Github/DawnGBC/Libraries/FWLIB/src\gd32f4xx_dma.c **** */
 565:C:/Users/leonardo/Desktop/Code/Github/DawnGBC/Libraries/FWLIB/src\gd32f4xx_dma.c **** void dma_periph_width_config (uint32_t dma_periph,dma_channel_enum channelx,uint32_t psize)
 566:C:/Users/leonardo/Desktop/Code/Github/DawnGBC/Libraries/FWLIB/src\gd32f4xx_dma.c **** {
 2560              		.loc 1 566 1
 2561              		.cfi_startproc
 2562              		@ args = 0, pretend = 0, frame = 24
 2563              		@ frame_needed = 1, uses_anonymous_args = 0
 2564              		@ link register save eliminated.
 2565 0000 80B4     		push	{r7}
 2566              		.cfi_def_cfa_offset 4
 2567              		.cfi_offset 7, -4
 2568 0002 87B0     		sub	sp, sp, #28
 2569              		.cfi_def_cfa_offset 32
 2570 0004 00AF     		add	r7, sp, #0
 2571              		.cfi_def_cfa_register 7
 2572 0006 F860     		str	r0, [r7, #12]
 2573 0008 0B46     		mov	r3, r1
 2574 000a 7A60     		str	r2, [r7, #4]
 2575 000c FB72     		strb	r3, [r7, #11]
 567:C:/Users/leonardo/Desktop/Code/Github/DawnGBC/Libraries/FWLIB/src\gd32f4xx_dma.c ****     uint32_t ctl;
 568:C:/Users/leonardo/Desktop/Code/Github/DawnGBC/Libraries/FWLIB/src\gd32f4xx_dma.c ****     /* acquire DMA_CHxCTL register */
 569:C:/Users/leonardo/Desktop/Code/Github/DawnGBC/Libraries/FWLIB/src\gd32f4xx_dma.c ****     ctl = DMA_CHCTL(dma_periph,channelx);
 2576              		.loc 1 569 11
 2577 000e FA7A     		ldrb	r2, [r7, #11]	@ zero_extendqisi2
 2578 0010 1346     		mov	r3, r2
 2579 0012 5B00     		lsls	r3, r3, #1
 2580 0014 1344     		add	r3, r3, r2
 2581 0016 DB00     		lsls	r3, r3, #3
 2582 0018 1A46     		mov	r2, r3
 2583 001a FB68     		ldr	r3, [r7, #12]
 2584 001c 1344     		add	r3, r3, r2
 2585 001e 1033     		adds	r3, r3, #16
 2586              		.loc 1 569 9
 2587 0020 1B68     		ldr	r3, [r3]
 2588 0022 7B61     		str	r3, [r7, #20]
 570:C:/Users/leonardo/Desktop/Code/Github/DawnGBC/Libraries/FWLIB/src\gd32f4xx_dma.c ****     /* assign regiser */
 571:C:/Users/leonardo/Desktop/Code/Github/DawnGBC/Libraries/FWLIB/src\gd32f4xx_dma.c ****     ctl &= ~DMA_CHXCTL_PWIDTH;
 2589              		.loc 1 571 9
 2590 0024 7B69     		ldr	r3, [r7, #20]
 2591 0026 23F4C053 		bic	r3, r3, #6144
 2592 002a 7B61     		str	r3, [r7, #20]
 572:C:/Users/leonardo/Desktop/Code/Github/DawnGBC/Libraries/FWLIB/src\gd32f4xx_dma.c ****     ctl |= psize;
 2593              		.loc 1 572 9
 2594 002c 7A69     		ldr	r2, [r7, #20]
 2595 002e 7B68     		ldr	r3, [r7, #4]
 2596 0030 1343     		orrs	r3, r3, r2
 2597 0032 7B61     		str	r3, [r7, #20]
 573:C:/Users/leonardo/Desktop/Code/Github/DawnGBC/Libraries/FWLIB/src\gd32f4xx_dma.c ****     DMA_CHCTL(dma_periph,channelx) = ctl;
 2598              		.loc 1 573 5
 2599 0034 FA7A     		ldrb	r2, [r7, #11]	@ zero_extendqisi2
 2600 0036 1346     		mov	r3, r2
 2601 0038 5B00     		lsls	r3, r3, #1
 2602 003a 1344     		add	r3, r3, r2
 2603 003c DB00     		lsls	r3, r3, #3
 2604 003e 1A46     		mov	r2, r3
 2605 0040 FB68     		ldr	r3, [r7, #12]
 2606 0042 1344     		add	r3, r3, r2
 2607 0044 1033     		adds	r3, r3, #16
 2608 0046 1A46     		mov	r2, r3
 2609              		.loc 1 573 36
 2610 0048 7B69     		ldr	r3, [r7, #20]
 2611 004a 1360     		str	r3, [r2]
 574:C:/Users/leonardo/Desktop/Code/Github/DawnGBC/Libraries/FWLIB/src\gd32f4xx_dma.c **** }
 2612              		.loc 1 574 1
 2613 004c 00BF     		nop
 2614 004e 1C37     		adds	r7, r7, #28
 2615              		.cfi_def_cfa_offset 4
 2616 0050 BD46     		mov	sp, r7
 2617              		.cfi_def_cfa_register 13
 2618              		@ sp needed
 2619 0052 80BC     		pop	{r7}
 2620              		.cfi_restore 7
 2621              		.cfi_def_cfa_offset 0
 2622 0054 7047     		bx	lr
 2623              		.cfi_endproc
 2624              	.LFE140:
 2626              		.section	.text.dma_memory_address_generation_config,"ax",%progbits
 2627              		.align	1
 2628              		.global	dma_memory_address_generation_config
 2629              		.syntax unified
 2630              		.thumb
 2631              		.thumb_func
 2632              		.fpu softvfp
 2634              	dma_memory_address_generation_config:
 2635              	.LFB141:
 575:C:/Users/leonardo/Desktop/Code/Github/DawnGBC/Libraries/FWLIB/src\gd32f4xx_dma.c **** 
 576:C:/Users/leonardo/Desktop/Code/Github/DawnGBC/Libraries/FWLIB/src\gd32f4xx_dma.c **** /*!
 577:C:/Users/leonardo/Desktop/Code/Github/DawnGBC/Libraries/FWLIB/src\gd32f4xx_dma.c ****     \brief      configure memory address generation generation_algorithm
 578:C:/Users/leonardo/Desktop/Code/Github/DawnGBC/Libraries/FWLIB/src\gd32f4xx_dma.c ****     \param[in]  dma_periph: DMAx(x=0,1)
 579:C:/Users/leonardo/Desktop/Code/Github/DawnGBC/Libraries/FWLIB/src\gd32f4xx_dma.c ****       \arg        DMAx(x=0,1)
 580:C:/Users/leonardo/Desktop/Code/Github/DawnGBC/Libraries/FWLIB/src\gd32f4xx_dma.c ****     \param[in]  channelx: specify which DMA channel 
 581:C:/Users/leonardo/Desktop/Code/Github/DawnGBC/Libraries/FWLIB/src\gd32f4xx_dma.c ****       \arg        DMA_CHx(x=0..7)
 582:C:/Users/leonardo/Desktop/Code/Github/DawnGBC/Libraries/FWLIB/src\gd32f4xx_dma.c ****     \param[in]  generation_algorithm: the address generation algorithm
 583:C:/Users/leonardo/Desktop/Code/Github/DawnGBC/Libraries/FWLIB/src\gd32f4xx_dma.c ****       \arg        DMA_MEMORY_INCREASE_ENABLE: next address of memory is increasing address mode
 584:C:/Users/leonardo/Desktop/Code/Github/DawnGBC/Libraries/FWLIB/src\gd32f4xx_dma.c ****       \arg        DMA_MEMORY_INCREASE_DISABLE: next address of memory is fixed address mode
 585:C:/Users/leonardo/Desktop/Code/Github/DawnGBC/Libraries/FWLIB/src\gd32f4xx_dma.c ****     \param[out] none
 586:C:/Users/leonardo/Desktop/Code/Github/DawnGBC/Libraries/FWLIB/src\gd32f4xx_dma.c ****     \retval     none
 587:C:/Users/leonardo/Desktop/Code/Github/DawnGBC/Libraries/FWLIB/src\gd32f4xx_dma.c **** */
 588:C:/Users/leonardo/Desktop/Code/Github/DawnGBC/Libraries/FWLIB/src\gd32f4xx_dma.c **** void dma_memory_address_generation_config(uint32_t dma_periph,dma_channel_enum channelx,uint8_t gen
 589:C:/Users/leonardo/Desktop/Code/Github/DawnGBC/Libraries/FWLIB/src\gd32f4xx_dma.c **** {
 2636              		.loc 1 589 1
 2637              		.cfi_startproc
 2638              		@ args = 0, pretend = 0, frame = 8
 2639              		@ frame_needed = 1, uses_anonymous_args = 0
 2640              		@ link register save eliminated.
 2641 0000 80B4     		push	{r7}
 2642              		.cfi_def_cfa_offset 4
 2643              		.cfi_offset 7, -4
 2644 0002 83B0     		sub	sp, sp, #12
 2645              		.cfi_def_cfa_offset 16
 2646 0004 00AF     		add	r7, sp, #0
 2647              		.cfi_def_cfa_register 7
 2648 0006 7860     		str	r0, [r7, #4]
 2649 0008 0B46     		mov	r3, r1
 2650 000a FB70     		strb	r3, [r7, #3]
 2651 000c 1346     		mov	r3, r2
 2652 000e BB70     		strb	r3, [r7, #2]
 590:C:/Users/leonardo/Desktop/Code/Github/DawnGBC/Libraries/FWLIB/src\gd32f4xx_dma.c ****     if(DMA_MEMORY_INCREASE_ENABLE == generation_algorithm){
 2653              		.loc 1 590 7
 2654 0010 BB78     		ldrb	r3, [r7, #2]	@ zero_extendqisi2
 2655 0012 002B     		cmp	r3, #0
 2656 0014 17D1     		bne	.L82
 591:C:/Users/leonardo/Desktop/Code/Github/DawnGBC/Libraries/FWLIB/src\gd32f4xx_dma.c ****         DMA_CHCTL(dma_periph,channelx) |= DMA_CHXCTL_MNAGA;
 2657              		.loc 1 591 40
 2658 0016 FA78     		ldrb	r2, [r7, #3]	@ zero_extendqisi2
 2659 0018 1346     		mov	r3, r2
 2660 001a 5B00     		lsls	r3, r3, #1
 2661 001c 1344     		add	r3, r3, r2
 2662 001e DB00     		lsls	r3, r3, #3
 2663 0020 1A46     		mov	r2, r3
 2664 0022 7B68     		ldr	r3, [r7, #4]
 2665 0024 1344     		add	r3, r3, r2
 2666 0026 1033     		adds	r3, r3, #16
 2667 0028 1968     		ldr	r1, [r3]
 2668 002a FA78     		ldrb	r2, [r7, #3]	@ zero_extendqisi2
 2669 002c 1346     		mov	r3, r2
 2670 002e 5B00     		lsls	r3, r3, #1
 2671 0030 1344     		add	r3, r3, r2
 2672 0032 DB00     		lsls	r3, r3, #3
 2673 0034 1A46     		mov	r2, r3
 2674 0036 7B68     		ldr	r3, [r7, #4]
 2675 0038 1344     		add	r3, r3, r2
 2676 003a 1033     		adds	r3, r3, #16
 2677 003c 1A46     		mov	r2, r3
 2678 003e 41F48063 		orr	r3, r1, #1024
 2679 0042 1360     		str	r3, [r2]
 592:C:/Users/leonardo/Desktop/Code/Github/DawnGBC/Libraries/FWLIB/src\gd32f4xx_dma.c ****     }else{
 593:C:/Users/leonardo/Desktop/Code/Github/DawnGBC/Libraries/FWLIB/src\gd32f4xx_dma.c ****         DMA_CHCTL(dma_periph,channelx) &= ~DMA_CHXCTL_MNAGA;
 594:C:/Users/leonardo/Desktop/Code/Github/DawnGBC/Libraries/FWLIB/src\gd32f4xx_dma.c ****     }
 595:C:/Users/leonardo/Desktop/Code/Github/DawnGBC/Libraries/FWLIB/src\gd32f4xx_dma.c **** }
 2680              		.loc 1 595 1
 2681 0044 16E0     		b	.L84
 2682              	.L82:
 593:C:/Users/leonardo/Desktop/Code/Github/DawnGBC/Libraries/FWLIB/src\gd32f4xx_dma.c ****     }
 2683              		.loc 1 593 40
 2684 0046 FA78     		ldrb	r2, [r7, #3]	@ zero_extendqisi2
 2685 0048 1346     		mov	r3, r2
 2686 004a 5B00     		lsls	r3, r3, #1
 2687 004c 1344     		add	r3, r3, r2
 2688 004e DB00     		lsls	r3, r3, #3
 2689 0050 1A46     		mov	r2, r3
 2690 0052 7B68     		ldr	r3, [r7, #4]
 2691 0054 1344     		add	r3, r3, r2
 2692 0056 1033     		adds	r3, r3, #16
 2693 0058 1968     		ldr	r1, [r3]
 2694 005a FA78     		ldrb	r2, [r7, #3]	@ zero_extendqisi2
 2695 005c 1346     		mov	r3, r2
 2696 005e 5B00     		lsls	r3, r3, #1
 2697 0060 1344     		add	r3, r3, r2
 2698 0062 DB00     		lsls	r3, r3, #3
 2699 0064 1A46     		mov	r2, r3
 2700 0066 7B68     		ldr	r3, [r7, #4]
 2701 0068 1344     		add	r3, r3, r2
 2702 006a 1033     		adds	r3, r3, #16
 2703 006c 1A46     		mov	r2, r3
 2704 006e 21F48063 		bic	r3, r1, #1024
 2705 0072 1360     		str	r3, [r2]
 2706              	.L84:
 2707              		.loc 1 595 1
 2708 0074 00BF     		nop
 2709 0076 0C37     		adds	r7, r7, #12
 2710              		.cfi_def_cfa_offset 4
 2711 0078 BD46     		mov	sp, r7
 2712              		.cfi_def_cfa_register 13
 2713              		@ sp needed
 2714 007a 80BC     		pop	{r7}
 2715              		.cfi_restore 7
 2716              		.cfi_def_cfa_offset 0
 2717 007c 7047     		bx	lr
 2718              		.cfi_endproc
 2719              	.LFE141:
 2721              		.section	.text.dma_peripheral_address_generation_config,"ax",%progbits
 2722              		.align	1
 2723              		.global	dma_peripheral_address_generation_config
 2724              		.syntax unified
 2725              		.thumb
 2726              		.thumb_func
 2727              		.fpu softvfp
 2729              	dma_peripheral_address_generation_config:
 2730              	.LFB142:
 596:C:/Users/leonardo/Desktop/Code/Github/DawnGBC/Libraries/FWLIB/src\gd32f4xx_dma.c **** 
 597:C:/Users/leonardo/Desktop/Code/Github/DawnGBC/Libraries/FWLIB/src\gd32f4xx_dma.c **** /*!
 598:C:/Users/leonardo/Desktop/Code/Github/DawnGBC/Libraries/FWLIB/src\gd32f4xx_dma.c ****     \brief      configure peripheral address generation generation_algorithm
 599:C:/Users/leonardo/Desktop/Code/Github/DawnGBC/Libraries/FWLIB/src\gd32f4xx_dma.c ****     \param[in]  dma_periph: DMAx(x=0,1)
 600:C:/Users/leonardo/Desktop/Code/Github/DawnGBC/Libraries/FWLIB/src\gd32f4xx_dma.c ****       \arg        DMAx(x=0,1)
 601:C:/Users/leonardo/Desktop/Code/Github/DawnGBC/Libraries/FWLIB/src\gd32f4xx_dma.c ****     \param[in]  channelx: specify which DMA channel 
 602:C:/Users/leonardo/Desktop/Code/Github/DawnGBC/Libraries/FWLIB/src\gd32f4xx_dma.c ****       \arg        DMA_CHx(x=0..7)
 603:C:/Users/leonardo/Desktop/Code/Github/DawnGBC/Libraries/FWLIB/src\gd32f4xx_dma.c ****     \param[in]  generation_algorithm: the address generation algorithm
 604:C:/Users/leonardo/Desktop/Code/Github/DawnGBC/Libraries/FWLIB/src\gd32f4xx_dma.c ****       \arg        DMA_PERIPH_INCREASE_ENABLE: next address of peripheral is increasing address mode
 605:C:/Users/leonardo/Desktop/Code/Github/DawnGBC/Libraries/FWLIB/src\gd32f4xx_dma.c ****       \arg        DMA_PERIPH_INCREASE_DISABLE: next address of peripheral is fixed address mode
 606:C:/Users/leonardo/Desktop/Code/Github/DawnGBC/Libraries/FWLIB/src\gd32f4xx_dma.c ****       \arg        DMA_PERIPH_INCREASE_FIX: increasing steps of peripheral address is fixed
 607:C:/Users/leonardo/Desktop/Code/Github/DawnGBC/Libraries/FWLIB/src\gd32f4xx_dma.c ****     \param[out] none
 608:C:/Users/leonardo/Desktop/Code/Github/DawnGBC/Libraries/FWLIB/src\gd32f4xx_dma.c ****     \retval     none
 609:C:/Users/leonardo/Desktop/Code/Github/DawnGBC/Libraries/FWLIB/src\gd32f4xx_dma.c **** */
 610:C:/Users/leonardo/Desktop/Code/Github/DawnGBC/Libraries/FWLIB/src\gd32f4xx_dma.c **** void dma_peripheral_address_generation_config(uint32_t dma_periph,dma_channel_enum channelx,uint8_t
 611:C:/Users/leonardo/Desktop/Code/Github/DawnGBC/Libraries/FWLIB/src\gd32f4xx_dma.c **** {
 2731              		.loc 1 611 1
 2732              		.cfi_startproc
 2733              		@ args = 0, pretend = 0, frame = 8
 2734              		@ frame_needed = 1, uses_anonymous_args = 0
 2735              		@ link register save eliminated.
 2736 0000 80B4     		push	{r7}
 2737              		.cfi_def_cfa_offset 4
 2738              		.cfi_offset 7, -4
 2739 0002 83B0     		sub	sp, sp, #12
 2740              		.cfi_def_cfa_offset 16
 2741 0004 00AF     		add	r7, sp, #0
 2742              		.cfi_def_cfa_register 7
 2743 0006 7860     		str	r0, [r7, #4]
 2744 0008 0B46     		mov	r3, r1
 2745 000a FB70     		strb	r3, [r7, #3]
 2746 000c 1346     		mov	r3, r2
 2747 000e BB70     		strb	r3, [r7, #2]
 612:C:/Users/leonardo/Desktop/Code/Github/DawnGBC/Libraries/FWLIB/src\gd32f4xx_dma.c ****     if(DMA_PERIPH_INCREASE_ENABLE == generation_algorithm){
 2748              		.loc 1 612 7
 2749 0010 BB78     		ldrb	r3, [r7, #2]	@ zero_extendqisi2
 2750 0012 002B     		cmp	r3, #0
 2751 0014 17D1     		bne	.L86
 613:C:/Users/leonardo/Desktop/Code/Github/DawnGBC/Libraries/FWLIB/src\gd32f4xx_dma.c ****         DMA_CHCTL(dma_periph,channelx) |= DMA_CHXCTL_PNAGA;
 2752              		.loc 1 613 40
 2753 0016 FA78     		ldrb	r2, [r7, #3]	@ zero_extendqisi2
 2754 0018 1346     		mov	r3, r2
 2755 001a 5B00     		lsls	r3, r3, #1
 2756 001c 1344     		add	r3, r3, r2
 2757 001e DB00     		lsls	r3, r3, #3
 2758 0020 1A46     		mov	r2, r3
 2759 0022 7B68     		ldr	r3, [r7, #4]
 2760 0024 1344     		add	r3, r3, r2
 2761 0026 1033     		adds	r3, r3, #16
 2762 0028 1968     		ldr	r1, [r3]
 2763 002a FA78     		ldrb	r2, [r7, #3]	@ zero_extendqisi2
 2764 002c 1346     		mov	r3, r2
 2765 002e 5B00     		lsls	r3, r3, #1
 2766 0030 1344     		add	r3, r3, r2
 2767 0032 DB00     		lsls	r3, r3, #3
 2768 0034 1A46     		mov	r2, r3
 2769 0036 7B68     		ldr	r3, [r7, #4]
 2770 0038 1344     		add	r3, r3, r2
 2771 003a 1033     		adds	r3, r3, #16
 2772 003c 1A46     		mov	r2, r3
 2773 003e 41F40073 		orr	r3, r1, #512
 2774 0042 1360     		str	r3, [r2]
 614:C:/Users/leonardo/Desktop/Code/Github/DawnGBC/Libraries/FWLIB/src\gd32f4xx_dma.c ****     }else if(DMA_PERIPH_INCREASE_DISABLE == generation_algorithm){
 615:C:/Users/leonardo/Desktop/Code/Github/DawnGBC/Libraries/FWLIB/src\gd32f4xx_dma.c ****         DMA_CHCTL(dma_periph,channelx) &= ~DMA_CHXCTL_PNAGA;
 616:C:/Users/leonardo/Desktop/Code/Github/DawnGBC/Libraries/FWLIB/src\gd32f4xx_dma.c ****     }else{
 617:C:/Users/leonardo/Desktop/Code/Github/DawnGBC/Libraries/FWLIB/src\gd32f4xx_dma.c ****         DMA_CHCTL(dma_periph,channelx) |= DMA_CHXCTL_PNAGA;
 618:C:/Users/leonardo/Desktop/Code/Github/DawnGBC/Libraries/FWLIB/src\gd32f4xx_dma.c ****         DMA_CHCTL(dma_periph,channelx) |= DMA_CHXCTL_PAIF;
 619:C:/Users/leonardo/Desktop/Code/Github/DawnGBC/Libraries/FWLIB/src\gd32f4xx_dma.c ****     }
 620:C:/Users/leonardo/Desktop/Code/Github/DawnGBC/Libraries/FWLIB/src\gd32f4xx_dma.c **** }
 2775              		.loc 1 620 1
 2776 0044 48E0     		b	.L89
 2777              	.L86:
 614:C:/Users/leonardo/Desktop/Code/Github/DawnGBC/Libraries/FWLIB/src\gd32f4xx_dma.c ****     }else if(DMA_PERIPH_INCREASE_DISABLE == generation_algorithm){
 2778              		.loc 1 614 13
 2779 0046 BB78     		ldrb	r3, [r7, #2]	@ zero_extendqisi2
 2780 0048 012B     		cmp	r3, #1
 2781 004a 17D1     		bne	.L88
 615:C:/Users/leonardo/Desktop/Code/Github/DawnGBC/Libraries/FWLIB/src\gd32f4xx_dma.c ****     }else{
 2782              		.loc 1 615 40
 2783 004c FA78     		ldrb	r2, [r7, #3]	@ zero_extendqisi2
 2784 004e 1346     		mov	r3, r2
 2785 0050 5B00     		lsls	r3, r3, #1
 2786 0052 1344     		add	r3, r3, r2
 2787 0054 DB00     		lsls	r3, r3, #3
 2788 0056 1A46     		mov	r2, r3
 2789 0058 7B68     		ldr	r3, [r7, #4]
 2790 005a 1344     		add	r3, r3, r2
 2791 005c 1033     		adds	r3, r3, #16
 2792 005e 1968     		ldr	r1, [r3]
 2793 0060 FA78     		ldrb	r2, [r7, #3]	@ zero_extendqisi2
 2794 0062 1346     		mov	r3, r2
 2795 0064 5B00     		lsls	r3, r3, #1
 2796 0066 1344     		add	r3, r3, r2
 2797 0068 DB00     		lsls	r3, r3, #3
 2798 006a 1A46     		mov	r2, r3
 2799 006c 7B68     		ldr	r3, [r7, #4]
 2800 006e 1344     		add	r3, r3, r2
 2801 0070 1033     		adds	r3, r3, #16
 2802 0072 1A46     		mov	r2, r3
 2803 0074 21F40073 		bic	r3, r1, #512
 2804 0078 1360     		str	r3, [r2]
 2805              		.loc 1 620 1
 2806 007a 2DE0     		b	.L89
 2807              	.L88:
 617:C:/Users/leonardo/Desktop/Code/Github/DawnGBC/Libraries/FWLIB/src\gd32f4xx_dma.c ****         DMA_CHCTL(dma_periph,channelx) |= DMA_CHXCTL_PAIF;
 2808              		.loc 1 617 40
 2809 007c FA78     		ldrb	r2, [r7, #3]	@ zero_extendqisi2
 2810 007e 1346     		mov	r3, r2
 2811 0080 5B00     		lsls	r3, r3, #1
 2812 0082 1344     		add	r3, r3, r2
 2813 0084 DB00     		lsls	r3, r3, #3
 2814 0086 1A46     		mov	r2, r3
 2815 0088 7B68     		ldr	r3, [r7, #4]
 2816 008a 1344     		add	r3, r3, r2
 2817 008c 1033     		adds	r3, r3, #16
 2818 008e 1968     		ldr	r1, [r3]
 2819 0090 FA78     		ldrb	r2, [r7, #3]	@ zero_extendqisi2
 2820 0092 1346     		mov	r3, r2
 2821 0094 5B00     		lsls	r3, r3, #1
 2822 0096 1344     		add	r3, r3, r2
 2823 0098 DB00     		lsls	r3, r3, #3
 2824 009a 1A46     		mov	r2, r3
 2825 009c 7B68     		ldr	r3, [r7, #4]
 2826 009e 1344     		add	r3, r3, r2
 2827 00a0 1033     		adds	r3, r3, #16
 2828 00a2 1A46     		mov	r2, r3
 2829 00a4 41F40073 		orr	r3, r1, #512
 2830 00a8 1360     		str	r3, [r2]
 618:C:/Users/leonardo/Desktop/Code/Github/DawnGBC/Libraries/FWLIB/src\gd32f4xx_dma.c ****     }
 2831              		.loc 1 618 40
 2832 00aa FA78     		ldrb	r2, [r7, #3]	@ zero_extendqisi2
 2833 00ac 1346     		mov	r3, r2
 2834 00ae 5B00     		lsls	r3, r3, #1
 2835 00b0 1344     		add	r3, r3, r2
 2836 00b2 DB00     		lsls	r3, r3, #3
 2837 00b4 1A46     		mov	r2, r3
 2838 00b6 7B68     		ldr	r3, [r7, #4]
 2839 00b8 1344     		add	r3, r3, r2
 2840 00ba 1033     		adds	r3, r3, #16
 2841 00bc 1968     		ldr	r1, [r3]
 2842 00be FA78     		ldrb	r2, [r7, #3]	@ zero_extendqisi2
 2843 00c0 1346     		mov	r3, r2
 2844 00c2 5B00     		lsls	r3, r3, #1
 2845 00c4 1344     		add	r3, r3, r2
 2846 00c6 DB00     		lsls	r3, r3, #3
 2847 00c8 1A46     		mov	r2, r3
 2848 00ca 7B68     		ldr	r3, [r7, #4]
 2849 00cc 1344     		add	r3, r3, r2
 2850 00ce 1033     		adds	r3, r3, #16
 2851 00d0 1A46     		mov	r2, r3
 2852 00d2 41F40043 		orr	r3, r1, #32768
 2853 00d6 1360     		str	r3, [r2]
 2854              	.L89:
 2855              		.loc 1 620 1
 2856 00d8 00BF     		nop
 2857 00da 0C37     		adds	r7, r7, #12
 2858              		.cfi_def_cfa_offset 4
 2859 00dc BD46     		mov	sp, r7
 2860              		.cfi_def_cfa_register 13
 2861              		@ sp needed
 2862 00de 80BC     		pop	{r7}
 2863              		.cfi_restore 7
 2864              		.cfi_def_cfa_offset 0
 2865 00e0 7047     		bx	lr
 2866              		.cfi_endproc
 2867              	.LFE142:
 2869              		.section	.text.dma_circulation_enable,"ax",%progbits
 2870              		.align	1
 2871              		.global	dma_circulation_enable
 2872              		.syntax unified
 2873              		.thumb
 2874              		.thumb_func
 2875              		.fpu softvfp
 2877              	dma_circulation_enable:
 2878              	.LFB143:
 621:C:/Users/leonardo/Desktop/Code/Github/DawnGBC/Libraries/FWLIB/src\gd32f4xx_dma.c **** 
 622:C:/Users/leonardo/Desktop/Code/Github/DawnGBC/Libraries/FWLIB/src\gd32f4xx_dma.c **** /*!
 623:C:/Users/leonardo/Desktop/Code/Github/DawnGBC/Libraries/FWLIB/src\gd32f4xx_dma.c ****     \brief      enable DMA circulation mode
 624:C:/Users/leonardo/Desktop/Code/Github/DawnGBC/Libraries/FWLIB/src\gd32f4xx_dma.c ****     \param[in]  dma_periph: DMAx(x=0,1)
 625:C:/Users/leonardo/Desktop/Code/Github/DawnGBC/Libraries/FWLIB/src\gd32f4xx_dma.c ****       \arg        DMAx(x=0,1)
 626:C:/Users/leonardo/Desktop/Code/Github/DawnGBC/Libraries/FWLIB/src\gd32f4xx_dma.c ****     \param[in]  channelx: specify which DMA channel 
 627:C:/Users/leonardo/Desktop/Code/Github/DawnGBC/Libraries/FWLIB/src\gd32f4xx_dma.c ****       \arg        DMA_CHx(x=0..7)
 628:C:/Users/leonardo/Desktop/Code/Github/DawnGBC/Libraries/FWLIB/src\gd32f4xx_dma.c ****     \param[out] none
 629:C:/Users/leonardo/Desktop/Code/Github/DawnGBC/Libraries/FWLIB/src\gd32f4xx_dma.c ****     \retval     none 
 630:C:/Users/leonardo/Desktop/Code/Github/DawnGBC/Libraries/FWLIB/src\gd32f4xx_dma.c **** */
 631:C:/Users/leonardo/Desktop/Code/Github/DawnGBC/Libraries/FWLIB/src\gd32f4xx_dma.c **** void dma_circulation_enable(uint32_t dma_periph,dma_channel_enum channelx)
 632:C:/Users/leonardo/Desktop/Code/Github/DawnGBC/Libraries/FWLIB/src\gd32f4xx_dma.c **** {
 2879              		.loc 1 632 1
 2880              		.cfi_startproc
 2881              		@ args = 0, pretend = 0, frame = 8
 2882              		@ frame_needed = 1, uses_anonymous_args = 0
 2883              		@ link register save eliminated.
 2884 0000 80B4     		push	{r7}
 2885              		.cfi_def_cfa_offset 4
 2886              		.cfi_offset 7, -4
 2887 0002 83B0     		sub	sp, sp, #12
 2888              		.cfi_def_cfa_offset 16
 2889 0004 00AF     		add	r7, sp, #0
 2890              		.cfi_def_cfa_register 7
 2891 0006 7860     		str	r0, [r7, #4]
 2892 0008 0B46     		mov	r3, r1
 2893 000a FB70     		strb	r3, [r7, #3]
 633:C:/Users/leonardo/Desktop/Code/Github/DawnGBC/Libraries/FWLIB/src\gd32f4xx_dma.c ****     DMA_CHCTL(dma_periph,channelx) |= DMA_CHXCTL_CMEN;
 2894              		.loc 1 633 36
 2895 000c FA78     		ldrb	r2, [r7, #3]	@ zero_extendqisi2
 2896 000e 1346     		mov	r3, r2
 2897 0010 5B00     		lsls	r3, r3, #1
 2898 0012 1344     		add	r3, r3, r2
 2899 0014 DB00     		lsls	r3, r3, #3
 2900 0016 1A46     		mov	r2, r3
 2901 0018 7B68     		ldr	r3, [r7, #4]
 2902 001a 1344     		add	r3, r3, r2
 2903 001c 1033     		adds	r3, r3, #16
 2904 001e 1968     		ldr	r1, [r3]
 2905 0020 FA78     		ldrb	r2, [r7, #3]	@ zero_extendqisi2
 2906 0022 1346     		mov	r3, r2
 2907 0024 5B00     		lsls	r3, r3, #1
 2908 0026 1344     		add	r3, r3, r2
 2909 0028 DB00     		lsls	r3, r3, #3
 2910 002a 1A46     		mov	r2, r3
 2911 002c 7B68     		ldr	r3, [r7, #4]
 2912 002e 1344     		add	r3, r3, r2
 2913 0030 1033     		adds	r3, r3, #16
 2914 0032 1A46     		mov	r2, r3
 2915 0034 41F48073 		orr	r3, r1, #256
 2916 0038 1360     		str	r3, [r2]
 634:C:/Users/leonardo/Desktop/Code/Github/DawnGBC/Libraries/FWLIB/src\gd32f4xx_dma.c **** }
 2917              		.loc 1 634 1
 2918 003a 00BF     		nop
 2919 003c 0C37     		adds	r7, r7, #12
 2920              		.cfi_def_cfa_offset 4
 2921 003e BD46     		mov	sp, r7
 2922              		.cfi_def_cfa_register 13
 2923              		@ sp needed
 2924 0040 80BC     		pop	{r7}
 2925              		.cfi_restore 7
 2926              		.cfi_def_cfa_offset 0
 2927 0042 7047     		bx	lr
 2928              		.cfi_endproc
 2929              	.LFE143:
 2931              		.section	.text.dma_circulation_disable,"ax",%progbits
 2932              		.align	1
 2933              		.global	dma_circulation_disable
 2934              		.syntax unified
 2935              		.thumb
 2936              		.thumb_func
 2937              		.fpu softvfp
 2939              	dma_circulation_disable:
 2940              	.LFB144:
 635:C:/Users/leonardo/Desktop/Code/Github/DawnGBC/Libraries/FWLIB/src\gd32f4xx_dma.c **** 
 636:C:/Users/leonardo/Desktop/Code/Github/DawnGBC/Libraries/FWLIB/src\gd32f4xx_dma.c **** /*!
 637:C:/Users/leonardo/Desktop/Code/Github/DawnGBC/Libraries/FWLIB/src\gd32f4xx_dma.c ****     \brief      disable DMA circulation mode
 638:C:/Users/leonardo/Desktop/Code/Github/DawnGBC/Libraries/FWLIB/src\gd32f4xx_dma.c ****     \param[in]  dma_periph: DMAx(x=0,1)
 639:C:/Users/leonardo/Desktop/Code/Github/DawnGBC/Libraries/FWLIB/src\gd32f4xx_dma.c ****       \arg        DMAx(x=0,1)
 640:C:/Users/leonardo/Desktop/Code/Github/DawnGBC/Libraries/FWLIB/src\gd32f4xx_dma.c ****     \param[in]  channelx: specify which DMA channel 
 641:C:/Users/leonardo/Desktop/Code/Github/DawnGBC/Libraries/FWLIB/src\gd32f4xx_dma.c ****       \arg        DMA_CHx(x=0..7)
 642:C:/Users/leonardo/Desktop/Code/Github/DawnGBC/Libraries/FWLIB/src\gd32f4xx_dma.c ****     \param[out] none
 643:C:/Users/leonardo/Desktop/Code/Github/DawnGBC/Libraries/FWLIB/src\gd32f4xx_dma.c ****     \retval     none 
 644:C:/Users/leonardo/Desktop/Code/Github/DawnGBC/Libraries/FWLIB/src\gd32f4xx_dma.c **** */
 645:C:/Users/leonardo/Desktop/Code/Github/DawnGBC/Libraries/FWLIB/src\gd32f4xx_dma.c **** void dma_circulation_disable(uint32_t dma_periph,dma_channel_enum channelx)
 646:C:/Users/leonardo/Desktop/Code/Github/DawnGBC/Libraries/FWLIB/src\gd32f4xx_dma.c **** {
 2941              		.loc 1 646 1
 2942              		.cfi_startproc
 2943              		@ args = 0, pretend = 0, frame = 8
 2944              		@ frame_needed = 1, uses_anonymous_args = 0
 2945              		@ link register save eliminated.
 2946 0000 80B4     		push	{r7}
 2947              		.cfi_def_cfa_offset 4
 2948              		.cfi_offset 7, -4
 2949 0002 83B0     		sub	sp, sp, #12
 2950              		.cfi_def_cfa_offset 16
 2951 0004 00AF     		add	r7, sp, #0
 2952              		.cfi_def_cfa_register 7
 2953 0006 7860     		str	r0, [r7, #4]
 2954 0008 0B46     		mov	r3, r1
 2955 000a FB70     		strb	r3, [r7, #3]
 647:C:/Users/leonardo/Desktop/Code/Github/DawnGBC/Libraries/FWLIB/src\gd32f4xx_dma.c ****     DMA_CHCTL(dma_periph,channelx) &= ~DMA_CHXCTL_CMEN;
 2956              		.loc 1 647 36
 2957 000c FA78     		ldrb	r2, [r7, #3]	@ zero_extendqisi2
 2958 000e 1346     		mov	r3, r2
 2959 0010 5B00     		lsls	r3, r3, #1
 2960 0012 1344     		add	r3, r3, r2
 2961 0014 DB00     		lsls	r3, r3, #3
 2962 0016 1A46     		mov	r2, r3
 2963 0018 7B68     		ldr	r3, [r7, #4]
 2964 001a 1344     		add	r3, r3, r2
 2965 001c 1033     		adds	r3, r3, #16
 2966 001e 1968     		ldr	r1, [r3]
 2967 0020 FA78     		ldrb	r2, [r7, #3]	@ zero_extendqisi2
 2968 0022 1346     		mov	r3, r2
 2969 0024 5B00     		lsls	r3, r3, #1
 2970 0026 1344     		add	r3, r3, r2
 2971 0028 DB00     		lsls	r3, r3, #3
 2972 002a 1A46     		mov	r2, r3
 2973 002c 7B68     		ldr	r3, [r7, #4]
 2974 002e 1344     		add	r3, r3, r2
 2975 0030 1033     		adds	r3, r3, #16
 2976 0032 1A46     		mov	r2, r3
 2977 0034 21F48073 		bic	r3, r1, #256
 2978 0038 1360     		str	r3, [r2]
 648:C:/Users/leonardo/Desktop/Code/Github/DawnGBC/Libraries/FWLIB/src\gd32f4xx_dma.c **** }
 2979              		.loc 1 648 1
 2980 003a 00BF     		nop
 2981 003c 0C37     		adds	r7, r7, #12
 2982              		.cfi_def_cfa_offset 4
 2983 003e BD46     		mov	sp, r7
 2984              		.cfi_def_cfa_register 13
 2985              		@ sp needed
 2986 0040 80BC     		pop	{r7}
 2987              		.cfi_restore 7
 2988              		.cfi_def_cfa_offset 0
 2989 0042 7047     		bx	lr
 2990              		.cfi_endproc
 2991              	.LFE144:
 2993              		.section	.text.dma_transfer_direction_config,"ax",%progbits
 2994              		.align	1
 2995              		.global	dma_transfer_direction_config
 2996              		.syntax unified
 2997              		.thumb
 2998              		.thumb_func
 2999              		.fpu softvfp
 3001              	dma_transfer_direction_config:
 3002              	.LFB145:
 649:C:/Users/leonardo/Desktop/Code/Github/DawnGBC/Libraries/FWLIB/src\gd32f4xx_dma.c **** 
 650:C:/Users/leonardo/Desktop/Code/Github/DawnGBC/Libraries/FWLIB/src\gd32f4xx_dma.c **** /*!
 651:C:/Users/leonardo/Desktop/Code/Github/DawnGBC/Libraries/FWLIB/src\gd32f4xx_dma.c ****     \brief      configure the direction of  data transfer on the channel
 652:C:/Users/leonardo/Desktop/Code/Github/DawnGBC/Libraries/FWLIB/src\gd32f4xx_dma.c ****     \param[in]  dma_periph: DMAx(x=0,1)
 653:C:/Users/leonardo/Desktop/Code/Github/DawnGBC/Libraries/FWLIB/src\gd32f4xx_dma.c ****       \arg        DMAx(x=0,1)
 654:C:/Users/leonardo/Desktop/Code/Github/DawnGBC/Libraries/FWLIB/src\gd32f4xx_dma.c ****     \param[in]  channelx: specify which DMA channel 
 655:C:/Users/leonardo/Desktop/Code/Github/DawnGBC/Libraries/FWLIB/src\gd32f4xx_dma.c ****       \arg        DMA_CHx(x=0..7)
 656:C:/Users/leonardo/Desktop/Code/Github/DawnGBC/Libraries/FWLIB/src\gd32f4xx_dma.c ****     \param[in]  direction: specify the direction of  data transfer
 657:C:/Users/leonardo/Desktop/Code/Github/DawnGBC/Libraries/FWLIB/src\gd32f4xx_dma.c ****       \arg        DMA_PERIPH_TO_MEMORY: read from peripheral and write to memory
 658:C:/Users/leonardo/Desktop/Code/Github/DawnGBC/Libraries/FWLIB/src\gd32f4xx_dma.c ****       \arg        DMA_MEMORY_TO_PERIPH: read from memory and write to peripheral
 659:C:/Users/leonardo/Desktop/Code/Github/DawnGBC/Libraries/FWLIB/src\gd32f4xx_dma.c ****       \arg        DMA_MEMORY_TO_MEMORY: read from memory and write to memory
 660:C:/Users/leonardo/Desktop/Code/Github/DawnGBC/Libraries/FWLIB/src\gd32f4xx_dma.c ****     \param[out] none
 661:C:/Users/leonardo/Desktop/Code/Github/DawnGBC/Libraries/FWLIB/src\gd32f4xx_dma.c ****     \retval     none
 662:C:/Users/leonardo/Desktop/Code/Github/DawnGBC/Libraries/FWLIB/src\gd32f4xx_dma.c **** */
 663:C:/Users/leonardo/Desktop/Code/Github/DawnGBC/Libraries/FWLIB/src\gd32f4xx_dma.c **** void dma_transfer_direction_config(uint32_t dma_periph,dma_channel_enum channelx,uint8_t direction)
 664:C:/Users/leonardo/Desktop/Code/Github/DawnGBC/Libraries/FWLIB/src\gd32f4xx_dma.c **** {
 3003              		.loc 1 664 1
 3004              		.cfi_startproc
 3005              		@ args = 0, pretend = 0, frame = 16
 3006              		@ frame_needed = 1, uses_anonymous_args = 0
 3007              		@ link register save eliminated.
 3008 0000 80B4     		push	{r7}
 3009              		.cfi_def_cfa_offset 4
 3010              		.cfi_offset 7, -4
 3011 0002 85B0     		sub	sp, sp, #20
 3012              		.cfi_def_cfa_offset 24
 3013 0004 00AF     		add	r7, sp, #0
 3014              		.cfi_def_cfa_register 7
 3015 0006 7860     		str	r0, [r7, #4]
 3016 0008 0B46     		mov	r3, r1
 3017 000a FB70     		strb	r3, [r7, #3]
 3018 000c 1346     		mov	r3, r2
 3019 000e BB70     		strb	r3, [r7, #2]
 665:C:/Users/leonardo/Desktop/Code/Github/DawnGBC/Libraries/FWLIB/src\gd32f4xx_dma.c ****     uint32_t ctl;
 666:C:/Users/leonardo/Desktop/Code/Github/DawnGBC/Libraries/FWLIB/src\gd32f4xx_dma.c ****     /* acquire DMA_CHxCTL register */
 667:C:/Users/leonardo/Desktop/Code/Github/DawnGBC/Libraries/FWLIB/src\gd32f4xx_dma.c ****     ctl = DMA_CHCTL(dma_periph,channelx);
 3020              		.loc 1 667 11
 3021 0010 FA78     		ldrb	r2, [r7, #3]	@ zero_extendqisi2
 3022 0012 1346     		mov	r3, r2
 3023 0014 5B00     		lsls	r3, r3, #1
 3024 0016 1344     		add	r3, r3, r2
 3025 0018 DB00     		lsls	r3, r3, #3
 3026 001a 1A46     		mov	r2, r3
 3027 001c 7B68     		ldr	r3, [r7, #4]
 3028 001e 1344     		add	r3, r3, r2
 3029 0020 1033     		adds	r3, r3, #16
 3030              		.loc 1 667 9
 3031 0022 1B68     		ldr	r3, [r3]
 3032 0024 FB60     		str	r3, [r7, #12]
 668:C:/Users/leonardo/Desktop/Code/Github/DawnGBC/Libraries/FWLIB/src\gd32f4xx_dma.c ****     /* assign regiser */
 669:C:/Users/leonardo/Desktop/Code/Github/DawnGBC/Libraries/FWLIB/src\gd32f4xx_dma.c ****     ctl &= ~DMA_CHXCTL_TM;
 3033              		.loc 1 669 9
 3034 0026 FB68     		ldr	r3, [r7, #12]
 3035 0028 23F0C003 		bic	r3, r3, #192
 3036 002c FB60     		str	r3, [r7, #12]
 670:C:/Users/leonardo/Desktop/Code/Github/DawnGBC/Libraries/FWLIB/src\gd32f4xx_dma.c ****     ctl |= direction;
 3037              		.loc 1 670 9
 3038 002e BB78     		ldrb	r3, [r7, #2]	@ zero_extendqisi2
 3039 0030 FA68     		ldr	r2, [r7, #12]
 3040 0032 1343     		orrs	r3, r3, r2
 3041 0034 FB60     		str	r3, [r7, #12]
 671:C:/Users/leonardo/Desktop/Code/Github/DawnGBC/Libraries/FWLIB/src\gd32f4xx_dma.c ****     
 672:C:/Users/leonardo/Desktop/Code/Github/DawnGBC/Libraries/FWLIB/src\gd32f4xx_dma.c ****     DMA_CHCTL(dma_periph,channelx) = ctl;
 3042              		.loc 1 672 5
 3043 0036 FA78     		ldrb	r2, [r7, #3]	@ zero_extendqisi2
 3044 0038 1346     		mov	r3, r2
 3045 003a 5B00     		lsls	r3, r3, #1
 3046 003c 1344     		add	r3, r3, r2
 3047 003e DB00     		lsls	r3, r3, #3
 3048 0040 1A46     		mov	r2, r3
 3049 0042 7B68     		ldr	r3, [r7, #4]
 3050 0044 1344     		add	r3, r3, r2
 3051 0046 1033     		adds	r3, r3, #16
 3052 0048 1A46     		mov	r2, r3
 3053              		.loc 1 672 36
 3054 004a FB68     		ldr	r3, [r7, #12]
 3055 004c 1360     		str	r3, [r2]
 673:C:/Users/leonardo/Desktop/Code/Github/DawnGBC/Libraries/FWLIB/src\gd32f4xx_dma.c **** }
 3056              		.loc 1 673 1
 3057 004e 00BF     		nop
 3058 0050 1437     		adds	r7, r7, #20
 3059              		.cfi_def_cfa_offset 4
 3060 0052 BD46     		mov	sp, r7
 3061              		.cfi_def_cfa_register 13
 3062              		@ sp needed
 3063 0054 80BC     		pop	{r7}
 3064              		.cfi_restore 7
 3065              		.cfi_def_cfa_offset 0
 3066 0056 7047     		bx	lr
 3067              		.cfi_endproc
 3068              	.LFE145:
 3070              		.section	.text.dma_channel_enable,"ax",%progbits
 3071              		.align	1
 3072              		.global	dma_channel_enable
 3073              		.syntax unified
 3074              		.thumb
 3075              		.thumb_func
 3076              		.fpu softvfp
 3078              	dma_channel_enable:
 3079              	.LFB146:
 674:C:/Users/leonardo/Desktop/Code/Github/DawnGBC/Libraries/FWLIB/src\gd32f4xx_dma.c **** 
 675:C:/Users/leonardo/Desktop/Code/Github/DawnGBC/Libraries/FWLIB/src\gd32f4xx_dma.c **** /*!
 676:C:/Users/leonardo/Desktop/Code/Github/DawnGBC/Libraries/FWLIB/src\gd32f4xx_dma.c ****     \brief      enable DMA channel
 677:C:/Users/leonardo/Desktop/Code/Github/DawnGBC/Libraries/FWLIB/src\gd32f4xx_dma.c ****     \param[in]  dma_periph: DMAx(x=0,1)
 678:C:/Users/leonardo/Desktop/Code/Github/DawnGBC/Libraries/FWLIB/src\gd32f4xx_dma.c ****       \arg        DMAx(x=0,1)
 679:C:/Users/leonardo/Desktop/Code/Github/DawnGBC/Libraries/FWLIB/src\gd32f4xx_dma.c ****     \param[in]  channelx: specify which DMA channel 
 680:C:/Users/leonardo/Desktop/Code/Github/DawnGBC/Libraries/FWLIB/src\gd32f4xx_dma.c ****       \arg        DMA_CHx(x=0..7)
 681:C:/Users/leonardo/Desktop/Code/Github/DawnGBC/Libraries/FWLIB/src\gd32f4xx_dma.c ****     \param[out] none
 682:C:/Users/leonardo/Desktop/Code/Github/DawnGBC/Libraries/FWLIB/src\gd32f4xx_dma.c ****     \retval     none 
 683:C:/Users/leonardo/Desktop/Code/Github/DawnGBC/Libraries/FWLIB/src\gd32f4xx_dma.c **** */
 684:C:/Users/leonardo/Desktop/Code/Github/DawnGBC/Libraries/FWLIB/src\gd32f4xx_dma.c **** void dma_channel_enable(uint32_t dma_periph,dma_channel_enum channelx)
 685:C:/Users/leonardo/Desktop/Code/Github/DawnGBC/Libraries/FWLIB/src\gd32f4xx_dma.c **** {
 3080              		.loc 1 685 1
 3081              		.cfi_startproc
 3082              		@ args = 0, pretend = 0, frame = 8
 3083              		@ frame_needed = 1, uses_anonymous_args = 0
 3084              		@ link register save eliminated.
 3085 0000 80B4     		push	{r7}
 3086              		.cfi_def_cfa_offset 4
 3087              		.cfi_offset 7, -4
 3088 0002 83B0     		sub	sp, sp, #12
 3089              		.cfi_def_cfa_offset 16
 3090 0004 00AF     		add	r7, sp, #0
 3091              		.cfi_def_cfa_register 7
 3092 0006 7860     		str	r0, [r7, #4]
 3093 0008 0B46     		mov	r3, r1
 3094 000a FB70     		strb	r3, [r7, #3]
 686:C:/Users/leonardo/Desktop/Code/Github/DawnGBC/Libraries/FWLIB/src\gd32f4xx_dma.c ****     DMA_CHCTL(dma_periph,channelx) |= DMA_CHXCTL_CHEN;
 3095              		.loc 1 686 36
 3096 000c FA78     		ldrb	r2, [r7, #3]	@ zero_extendqisi2
 3097 000e 1346     		mov	r3, r2
 3098 0010 5B00     		lsls	r3, r3, #1
 3099 0012 1344     		add	r3, r3, r2
 3100 0014 DB00     		lsls	r3, r3, #3
 3101 0016 1A46     		mov	r2, r3
 3102 0018 7B68     		ldr	r3, [r7, #4]
 3103 001a 1344     		add	r3, r3, r2
 3104 001c 1033     		adds	r3, r3, #16
 3105 001e 1968     		ldr	r1, [r3]
 3106 0020 FA78     		ldrb	r2, [r7, #3]	@ zero_extendqisi2
 3107 0022 1346     		mov	r3, r2
 3108 0024 5B00     		lsls	r3, r3, #1
 3109 0026 1344     		add	r3, r3, r2
 3110 0028 DB00     		lsls	r3, r3, #3
 3111 002a 1A46     		mov	r2, r3
 3112 002c 7B68     		ldr	r3, [r7, #4]
 3113 002e 1344     		add	r3, r3, r2
 3114 0030 1033     		adds	r3, r3, #16
 3115 0032 1A46     		mov	r2, r3
 3116 0034 41F00103 		orr	r3, r1, #1
 3117 0038 1360     		str	r3, [r2]
 687:C:/Users/leonardo/Desktop/Code/Github/DawnGBC/Libraries/FWLIB/src\gd32f4xx_dma.c **** }
 3118              		.loc 1 687 1
 3119 003a 00BF     		nop
 3120 003c 0C37     		adds	r7, r7, #12
 3121              		.cfi_def_cfa_offset 4
 3122 003e BD46     		mov	sp, r7
 3123              		.cfi_def_cfa_register 13
 3124              		@ sp needed
 3125 0040 80BC     		pop	{r7}
 3126              		.cfi_restore 7
 3127              		.cfi_def_cfa_offset 0
 3128 0042 7047     		bx	lr
 3129              		.cfi_endproc
 3130              	.LFE146:
 3132              		.section	.text.dma_channel_disable,"ax",%progbits
 3133              		.align	1
 3134              		.global	dma_channel_disable
 3135              		.syntax unified
 3136              		.thumb
 3137              		.thumb_func
 3138              		.fpu softvfp
 3140              	dma_channel_disable:
 3141              	.LFB147:
 688:C:/Users/leonardo/Desktop/Code/Github/DawnGBC/Libraries/FWLIB/src\gd32f4xx_dma.c **** 
 689:C:/Users/leonardo/Desktop/Code/Github/DawnGBC/Libraries/FWLIB/src\gd32f4xx_dma.c **** /*!
 690:C:/Users/leonardo/Desktop/Code/Github/DawnGBC/Libraries/FWLIB/src\gd32f4xx_dma.c ****     \brief      disable DMA channel
 691:C:/Users/leonardo/Desktop/Code/Github/DawnGBC/Libraries/FWLIB/src\gd32f4xx_dma.c ****     \param[in]  dma_periph: DMAx(x=0,1)
 692:C:/Users/leonardo/Desktop/Code/Github/DawnGBC/Libraries/FWLIB/src\gd32f4xx_dma.c ****       \arg        DMAx(x=0,1)
 693:C:/Users/leonardo/Desktop/Code/Github/DawnGBC/Libraries/FWLIB/src\gd32f4xx_dma.c ****     \param[in]  channelx: specify which DMA channel 
 694:C:/Users/leonardo/Desktop/Code/Github/DawnGBC/Libraries/FWLIB/src\gd32f4xx_dma.c ****       \arg        DMA_CHx(x=0..7)
 695:C:/Users/leonardo/Desktop/Code/Github/DawnGBC/Libraries/FWLIB/src\gd32f4xx_dma.c ****     \param[out] none
 696:C:/Users/leonardo/Desktop/Code/Github/DawnGBC/Libraries/FWLIB/src\gd32f4xx_dma.c ****     \retval     none 
 697:C:/Users/leonardo/Desktop/Code/Github/DawnGBC/Libraries/FWLIB/src\gd32f4xx_dma.c **** */
 698:C:/Users/leonardo/Desktop/Code/Github/DawnGBC/Libraries/FWLIB/src\gd32f4xx_dma.c **** void dma_channel_disable(uint32_t dma_periph,dma_channel_enum channelx)
 699:C:/Users/leonardo/Desktop/Code/Github/DawnGBC/Libraries/FWLIB/src\gd32f4xx_dma.c **** {
 3142              		.loc 1 699 1
 3143              		.cfi_startproc
 3144              		@ args = 0, pretend = 0, frame = 8
 3145              		@ frame_needed = 1, uses_anonymous_args = 0
 3146              		@ link register save eliminated.
 3147 0000 80B4     		push	{r7}
 3148              		.cfi_def_cfa_offset 4
 3149              		.cfi_offset 7, -4
 3150 0002 83B0     		sub	sp, sp, #12
 3151              		.cfi_def_cfa_offset 16
 3152 0004 00AF     		add	r7, sp, #0
 3153              		.cfi_def_cfa_register 7
 3154 0006 7860     		str	r0, [r7, #4]
 3155 0008 0B46     		mov	r3, r1
 3156 000a FB70     		strb	r3, [r7, #3]
 700:C:/Users/leonardo/Desktop/Code/Github/DawnGBC/Libraries/FWLIB/src\gd32f4xx_dma.c ****     DMA_CHCTL(dma_periph,channelx) &= ~DMA_CHXCTL_CHEN;
 3157              		.loc 1 700 36
 3158 000c FA78     		ldrb	r2, [r7, #3]	@ zero_extendqisi2
 3159 000e 1346     		mov	r3, r2
 3160 0010 5B00     		lsls	r3, r3, #1
 3161 0012 1344     		add	r3, r3, r2
 3162 0014 DB00     		lsls	r3, r3, #3
 3163 0016 1A46     		mov	r2, r3
 3164 0018 7B68     		ldr	r3, [r7, #4]
 3165 001a 1344     		add	r3, r3, r2
 3166 001c 1033     		adds	r3, r3, #16
 3167 001e 1968     		ldr	r1, [r3]
 3168 0020 FA78     		ldrb	r2, [r7, #3]	@ zero_extendqisi2
 3169 0022 1346     		mov	r3, r2
 3170 0024 5B00     		lsls	r3, r3, #1
 3171 0026 1344     		add	r3, r3, r2
 3172 0028 DB00     		lsls	r3, r3, #3
 3173 002a 1A46     		mov	r2, r3
 3174 002c 7B68     		ldr	r3, [r7, #4]
 3175 002e 1344     		add	r3, r3, r2
 3176 0030 1033     		adds	r3, r3, #16
 3177 0032 1A46     		mov	r2, r3
 3178 0034 21F00103 		bic	r3, r1, #1
 3179 0038 1360     		str	r3, [r2]
 701:C:/Users/leonardo/Desktop/Code/Github/DawnGBC/Libraries/FWLIB/src\gd32f4xx_dma.c **** }
 3180              		.loc 1 701 1
 3181 003a 00BF     		nop
 3182 003c 0C37     		adds	r7, r7, #12
 3183              		.cfi_def_cfa_offset 4
 3184 003e BD46     		mov	sp, r7
 3185              		.cfi_def_cfa_register 13
 3186              		@ sp needed
 3187 0040 80BC     		pop	{r7}
 3188              		.cfi_restore 7
 3189              		.cfi_def_cfa_offset 0
 3190 0042 7047     		bx	lr
 3191              		.cfi_endproc
 3192              	.LFE147:
 3194              		.section	.text.dma_channel_subperipheral_select,"ax",%progbits
 3195              		.align	1
 3196              		.global	dma_channel_subperipheral_select
 3197              		.syntax unified
 3198              		.thumb
 3199              		.thumb_func
 3200              		.fpu softvfp
 3202              	dma_channel_subperipheral_select:
 3203              	.LFB148:
 702:C:/Users/leonardo/Desktop/Code/Github/DawnGBC/Libraries/FWLIB/src\gd32f4xx_dma.c **** 
 703:C:/Users/leonardo/Desktop/Code/Github/DawnGBC/Libraries/FWLIB/src\gd32f4xx_dma.c **** /*!
 704:C:/Users/leonardo/Desktop/Code/Github/DawnGBC/Libraries/FWLIB/src\gd32f4xx_dma.c ****     \brief      DMA channel peripheral select
 705:C:/Users/leonardo/Desktop/Code/Github/DawnGBC/Libraries/FWLIB/src\gd32f4xx_dma.c ****     \param[in]  dma_periph: DMAx(x=0,1)
 706:C:/Users/leonardo/Desktop/Code/Github/DawnGBC/Libraries/FWLIB/src\gd32f4xx_dma.c ****       \arg        DMAx(x=0,1)
 707:C:/Users/leonardo/Desktop/Code/Github/DawnGBC/Libraries/FWLIB/src\gd32f4xx_dma.c ****     \param[in]  channelx: specify which DMA channel 
 708:C:/Users/leonardo/Desktop/Code/Github/DawnGBC/Libraries/FWLIB/src\gd32f4xx_dma.c ****       \arg        DMA_CHx(x=0..7)
 709:C:/Users/leonardo/Desktop/Code/Github/DawnGBC/Libraries/FWLIB/src\gd32f4xx_dma.c ****     \param[in]  sub_periph: specify DMA channel peripheral
 710:C:/Users/leonardo/Desktop/Code/Github/DawnGBC/Libraries/FWLIB/src\gd32f4xx_dma.c ****       \arg        DMA_SUBPERIx(x=0..7)
 711:C:/Users/leonardo/Desktop/Code/Github/DawnGBC/Libraries/FWLIB/src\gd32f4xx_dma.c ****     \param[out] none
 712:C:/Users/leonardo/Desktop/Code/Github/DawnGBC/Libraries/FWLIB/src\gd32f4xx_dma.c ****     \retval     none 
 713:C:/Users/leonardo/Desktop/Code/Github/DawnGBC/Libraries/FWLIB/src\gd32f4xx_dma.c **** */
 714:C:/Users/leonardo/Desktop/Code/Github/DawnGBC/Libraries/FWLIB/src\gd32f4xx_dma.c **** void dma_channel_subperipheral_select(uint32_t dma_periph,dma_channel_enum channelx,dma_subperipher
 715:C:/Users/leonardo/Desktop/Code/Github/DawnGBC/Libraries/FWLIB/src\gd32f4xx_dma.c **** {
 3204              		.loc 1 715 1
 3205              		.cfi_startproc
 3206              		@ args = 0, pretend = 0, frame = 16
 3207              		@ frame_needed = 1, uses_anonymous_args = 0
 3208              		@ link register save eliminated.
 3209 0000 80B4     		push	{r7}
 3210              		.cfi_def_cfa_offset 4
 3211              		.cfi_offset 7, -4
 3212 0002 85B0     		sub	sp, sp, #20
 3213              		.cfi_def_cfa_offset 24
 3214 0004 00AF     		add	r7, sp, #0
 3215              		.cfi_def_cfa_register 7
 3216 0006 7860     		str	r0, [r7, #4]
 3217 0008 0B46     		mov	r3, r1
 3218 000a FB70     		strb	r3, [r7, #3]
 3219 000c 1346     		mov	r3, r2
 3220 000e BB70     		strb	r3, [r7, #2]
 716:C:/Users/leonardo/Desktop/Code/Github/DawnGBC/Libraries/FWLIB/src\gd32f4xx_dma.c ****     uint32_t ctl;
 717:C:/Users/leonardo/Desktop/Code/Github/DawnGBC/Libraries/FWLIB/src\gd32f4xx_dma.c ****     /* acquire DMA_CHxCTL register */
 718:C:/Users/leonardo/Desktop/Code/Github/DawnGBC/Libraries/FWLIB/src\gd32f4xx_dma.c ****     ctl = DMA_CHCTL(dma_periph,channelx);
 3221              		.loc 1 718 11
 3222 0010 FA78     		ldrb	r2, [r7, #3]	@ zero_extendqisi2
 3223 0012 1346     		mov	r3, r2
 3224 0014 5B00     		lsls	r3, r3, #1
 3225 0016 1344     		add	r3, r3, r2
 3226 0018 DB00     		lsls	r3, r3, #3
 3227 001a 1A46     		mov	r2, r3
 3228 001c 7B68     		ldr	r3, [r7, #4]
 3229 001e 1344     		add	r3, r3, r2
 3230 0020 1033     		adds	r3, r3, #16
 3231              		.loc 1 718 9
 3232 0022 1B68     		ldr	r3, [r3]
 3233 0024 FB60     		str	r3, [r7, #12]
 719:C:/Users/leonardo/Desktop/Code/Github/DawnGBC/Libraries/FWLIB/src\gd32f4xx_dma.c ****     /* assign regiser */
 720:C:/Users/leonardo/Desktop/Code/Github/DawnGBC/Libraries/FWLIB/src\gd32f4xx_dma.c ****     ctl &= ~DMA_CHXCTL_PERIEN;
 3234              		.loc 1 720 9
 3235 0026 FB68     		ldr	r3, [r7, #12]
 3236 0028 23F06063 		bic	r3, r3, #234881024
 3237 002c FB60     		str	r3, [r7, #12]
 721:C:/Users/leonardo/Desktop/Code/Github/DawnGBC/Libraries/FWLIB/src\gd32f4xx_dma.c ****     ctl |= ((uint32_t)sub_periph << CHXCTL_PERIEN_OFFSET);
 3238              		.loc 1 721 13
 3239 002e BB78     		ldrb	r3, [r7, #2]	@ zero_extendqisi2
 3240              		.loc 1 721 34
 3241 0030 5B06     		lsls	r3, r3, #25
 3242              		.loc 1 721 9
 3243 0032 FA68     		ldr	r2, [r7, #12]
 3244 0034 1343     		orrs	r3, r3, r2
 3245 0036 FB60     		str	r3, [r7, #12]
 722:C:/Users/leonardo/Desktop/Code/Github/DawnGBC/Libraries/FWLIB/src\gd32f4xx_dma.c ****     
 723:C:/Users/leonardo/Desktop/Code/Github/DawnGBC/Libraries/FWLIB/src\gd32f4xx_dma.c ****     DMA_CHCTL(dma_periph,channelx) = ctl;
 3246              		.loc 1 723 5
 3247 0038 FA78     		ldrb	r2, [r7, #3]	@ zero_extendqisi2
 3248 003a 1346     		mov	r3, r2
 3249 003c 5B00     		lsls	r3, r3, #1
 3250 003e 1344     		add	r3, r3, r2
 3251 0040 DB00     		lsls	r3, r3, #3
 3252 0042 1A46     		mov	r2, r3
 3253 0044 7B68     		ldr	r3, [r7, #4]
 3254 0046 1344     		add	r3, r3, r2
 3255 0048 1033     		adds	r3, r3, #16
 3256 004a 1A46     		mov	r2, r3
 3257              		.loc 1 723 36
 3258 004c FB68     		ldr	r3, [r7, #12]
 3259 004e 1360     		str	r3, [r2]
 724:C:/Users/leonardo/Desktop/Code/Github/DawnGBC/Libraries/FWLIB/src\gd32f4xx_dma.c **** }
 3260              		.loc 1 724 1
 3261 0050 00BF     		nop
 3262 0052 1437     		adds	r7, r7, #20
 3263              		.cfi_def_cfa_offset 4
 3264 0054 BD46     		mov	sp, r7
 3265              		.cfi_def_cfa_register 13
 3266              		@ sp needed
 3267 0056 80BC     		pop	{r7}
 3268              		.cfi_restore 7
 3269              		.cfi_def_cfa_offset 0
 3270 0058 7047     		bx	lr
 3271              		.cfi_endproc
 3272              	.LFE148:
 3274              		.section	.text.dma_switch_buffer_mode_config,"ax",%progbits
 3275              		.align	1
 3276              		.global	dma_switch_buffer_mode_config
 3277              		.syntax unified
 3278              		.thumb
 3279              		.thumb_func
 3280              		.fpu softvfp
 3282              	dma_switch_buffer_mode_config:
 3283              	.LFB149:
 725:C:/Users/leonardo/Desktop/Code/Github/DawnGBC/Libraries/FWLIB/src\gd32f4xx_dma.c **** 
 726:C:/Users/leonardo/Desktop/Code/Github/DawnGBC/Libraries/FWLIB/src\gd32f4xx_dma.c **** /*!
 727:C:/Users/leonardo/Desktop/Code/Github/DawnGBC/Libraries/FWLIB/src\gd32f4xx_dma.c ****     \brief      DMA switch buffer mode config
 728:C:/Users/leonardo/Desktop/Code/Github/DawnGBC/Libraries/FWLIB/src\gd32f4xx_dma.c ****     \param[in]  dma_periph: DMAx(x=0,1)
 729:C:/Users/leonardo/Desktop/Code/Github/DawnGBC/Libraries/FWLIB/src\gd32f4xx_dma.c ****       \arg        DMAx(x=0,1)
 730:C:/Users/leonardo/Desktop/Code/Github/DawnGBC/Libraries/FWLIB/src\gd32f4xx_dma.c ****     \param[in]  channelx: specify which DMA channel 
 731:C:/Users/leonardo/Desktop/Code/Github/DawnGBC/Libraries/FWLIB/src\gd32f4xx_dma.c ****       \arg        DMA_CHx(x=0..7)
 732:C:/Users/leonardo/Desktop/Code/Github/DawnGBC/Libraries/FWLIB/src\gd32f4xx_dma.c ****     \param[in]  memory1_addr: memory1 base address
 733:C:/Users/leonardo/Desktop/Code/Github/DawnGBC/Libraries/FWLIB/src\gd32f4xx_dma.c ****     \param[in]  memory_select: DMA_MEMORY_0 or DMA_MEMORY_1
 734:C:/Users/leonardo/Desktop/Code/Github/DawnGBC/Libraries/FWLIB/src\gd32f4xx_dma.c ****     \param[out] none
 735:C:/Users/leonardo/Desktop/Code/Github/DawnGBC/Libraries/FWLIB/src\gd32f4xx_dma.c ****     \retval     none 
 736:C:/Users/leonardo/Desktop/Code/Github/DawnGBC/Libraries/FWLIB/src\gd32f4xx_dma.c **** */
 737:C:/Users/leonardo/Desktop/Code/Github/DawnGBC/Libraries/FWLIB/src\gd32f4xx_dma.c **** void dma_switch_buffer_mode_config(uint32_t dma_periph,dma_channel_enum channelx,uint32_t memory1_a
 738:C:/Users/leonardo/Desktop/Code/Github/DawnGBC/Libraries/FWLIB/src\gd32f4xx_dma.c **** {
 3284              		.loc 1 738 1
 3285              		.cfi_startproc
 3286              		@ args = 0, pretend = 0, frame = 16
 3287              		@ frame_needed = 1, uses_anonymous_args = 0
 3288              		@ link register save eliminated.
 3289 0000 80B4     		push	{r7}
 3290              		.cfi_def_cfa_offset 4
 3291              		.cfi_offset 7, -4
 3292 0002 85B0     		sub	sp, sp, #20
 3293              		.cfi_def_cfa_offset 24
 3294 0004 00AF     		add	r7, sp, #0
 3295              		.cfi_def_cfa_register 7
 3296 0006 F860     		str	r0, [r7, #12]
 3297 0008 7A60     		str	r2, [r7, #4]
 3298 000a 3B60     		str	r3, [r7]
 3299 000c 0B46     		mov	r3, r1
 3300 000e FB72     		strb	r3, [r7, #11]
 739:C:/Users/leonardo/Desktop/Code/Github/DawnGBC/Libraries/FWLIB/src\gd32f4xx_dma.c ****     /* configure memory1 base address */
 740:C:/Users/leonardo/Desktop/Code/Github/DawnGBC/Libraries/FWLIB/src\gd32f4xx_dma.c ****     DMA_CHM1ADDR(dma_periph,channelx) = memory1_addr;
 3301              		.loc 1 740 5
 3302 0010 FA7A     		ldrb	r2, [r7, #11]	@ zero_extendqisi2
 3303 0012 1346     		mov	r3, r2
 3304 0014 5B00     		lsls	r3, r3, #1
 3305 0016 1344     		add	r3, r3, r2
 3306 0018 DB00     		lsls	r3, r3, #3
 3307 001a 1A46     		mov	r2, r3
 3308 001c FB68     		ldr	r3, [r7, #12]
 3309 001e 1344     		add	r3, r3, r2
 3310 0020 2033     		adds	r3, r3, #32
 3311 0022 1A46     		mov	r2, r3
 3312              		.loc 1 740 39
 3313 0024 7B68     		ldr	r3, [r7, #4]
 3314 0026 1360     		str	r3, [r2]
 741:C:/Users/leonardo/Desktop/Code/Github/DawnGBC/Libraries/FWLIB/src\gd32f4xx_dma.c **** 
 742:C:/Users/leonardo/Desktop/Code/Github/DawnGBC/Libraries/FWLIB/src\gd32f4xx_dma.c ****     if(DMA_MEMORY_0 == memory_select){
 3315              		.loc 1 742 7
 3316 0028 3B68     		ldr	r3, [r7]
 3317 002a 002B     		cmp	r3, #0
 3318 002c 17D1     		bne	.L97
 743:C:/Users/leonardo/Desktop/Code/Github/DawnGBC/Libraries/FWLIB/src\gd32f4xx_dma.c ****         DMA_CHCTL(dma_periph,channelx) &= ~DMA_CHXCTL_MBS;
 3319              		.loc 1 743 40
 3320 002e FA7A     		ldrb	r2, [r7, #11]	@ zero_extendqisi2
 3321 0030 1346     		mov	r3, r2
 3322 0032 5B00     		lsls	r3, r3, #1
 3323 0034 1344     		add	r3, r3, r2
 3324 0036 DB00     		lsls	r3, r3, #3
 3325 0038 1A46     		mov	r2, r3
 3326 003a FB68     		ldr	r3, [r7, #12]
 3327 003c 1344     		add	r3, r3, r2
 3328 003e 1033     		adds	r3, r3, #16
 3329 0040 1968     		ldr	r1, [r3]
 3330 0042 FA7A     		ldrb	r2, [r7, #11]	@ zero_extendqisi2
 3331 0044 1346     		mov	r3, r2
 3332 0046 5B00     		lsls	r3, r3, #1
 3333 0048 1344     		add	r3, r3, r2
 3334 004a DB00     		lsls	r3, r3, #3
 3335 004c 1A46     		mov	r2, r3
 3336 004e FB68     		ldr	r3, [r7, #12]
 3337 0050 1344     		add	r3, r3, r2
 3338 0052 1033     		adds	r3, r3, #16
 3339 0054 1A46     		mov	r2, r3
 3340 0056 21F40023 		bic	r3, r1, #524288
 3341 005a 1360     		str	r3, [r2]
 744:C:/Users/leonardo/Desktop/Code/Github/DawnGBC/Libraries/FWLIB/src\gd32f4xx_dma.c ****     }else{
 745:C:/Users/leonardo/Desktop/Code/Github/DawnGBC/Libraries/FWLIB/src\gd32f4xx_dma.c ****         DMA_CHCTL(dma_periph,channelx) |= DMA_CHXCTL_MBS;
 746:C:/Users/leonardo/Desktop/Code/Github/DawnGBC/Libraries/FWLIB/src\gd32f4xx_dma.c ****     }
 747:C:/Users/leonardo/Desktop/Code/Github/DawnGBC/Libraries/FWLIB/src\gd32f4xx_dma.c **** }
 3342              		.loc 1 747 1
 3343 005c 16E0     		b	.L99
 3344              	.L97:
 745:C:/Users/leonardo/Desktop/Code/Github/DawnGBC/Libraries/FWLIB/src\gd32f4xx_dma.c ****     }
 3345              		.loc 1 745 40
 3346 005e FA7A     		ldrb	r2, [r7, #11]	@ zero_extendqisi2
 3347 0060 1346     		mov	r3, r2
 3348 0062 5B00     		lsls	r3, r3, #1
 3349 0064 1344     		add	r3, r3, r2
 3350 0066 DB00     		lsls	r3, r3, #3
 3351 0068 1A46     		mov	r2, r3
 3352 006a FB68     		ldr	r3, [r7, #12]
 3353 006c 1344     		add	r3, r3, r2
 3354 006e 1033     		adds	r3, r3, #16
 3355 0070 1968     		ldr	r1, [r3]
 3356 0072 FA7A     		ldrb	r2, [r7, #11]	@ zero_extendqisi2
 3357 0074 1346     		mov	r3, r2
 3358 0076 5B00     		lsls	r3, r3, #1
 3359 0078 1344     		add	r3, r3, r2
 3360 007a DB00     		lsls	r3, r3, #3
 3361 007c 1A46     		mov	r2, r3
 3362 007e FB68     		ldr	r3, [r7, #12]
 3363 0080 1344     		add	r3, r3, r2
 3364 0082 1033     		adds	r3, r3, #16
 3365 0084 1A46     		mov	r2, r3
 3366 0086 41F40023 		orr	r3, r1, #524288
 3367 008a 1360     		str	r3, [r2]
 3368              	.L99:
 3369              		.loc 1 747 1
 3370 008c 00BF     		nop
 3371 008e 1437     		adds	r7, r7, #20
 3372              		.cfi_def_cfa_offset 4
 3373 0090 BD46     		mov	sp, r7
 3374              		.cfi_def_cfa_register 13
 3375              		@ sp needed
 3376 0092 80BC     		pop	{r7}
 3377              		.cfi_restore 7
 3378              		.cfi_def_cfa_offset 0
 3379 0094 7047     		bx	lr
 3380              		.cfi_endproc
 3381              	.LFE149:
 3383              		.section	.text.dma_switch_buffer_mode_enable,"ax",%progbits
 3384              		.align	1
 3385              		.global	dma_switch_buffer_mode_enable
 3386              		.syntax unified
 3387              		.thumb
 3388              		.thumb_func
 3389              		.fpu softvfp
 3391              	dma_switch_buffer_mode_enable:
 3392              	.LFB150:
 748:C:/Users/leonardo/Desktop/Code/Github/DawnGBC/Libraries/FWLIB/src\gd32f4xx_dma.c **** 
 749:C:/Users/leonardo/Desktop/Code/Github/DawnGBC/Libraries/FWLIB/src\gd32f4xx_dma.c **** /*!
 750:C:/Users/leonardo/Desktop/Code/Github/DawnGBC/Libraries/FWLIB/src\gd32f4xx_dma.c ****     \brief      DMA switch buffer mode enable
 751:C:/Users/leonardo/Desktop/Code/Github/DawnGBC/Libraries/FWLIB/src\gd32f4xx_dma.c ****     \param[in]  dma_periph: DMAx(x=0,1)
 752:C:/Users/leonardo/Desktop/Code/Github/DawnGBC/Libraries/FWLIB/src\gd32f4xx_dma.c ****       \arg        DMAx(x=0,1)
 753:C:/Users/leonardo/Desktop/Code/Github/DawnGBC/Libraries/FWLIB/src\gd32f4xx_dma.c ****     \param[in]  channelx: specify which DMA channel 
 754:C:/Users/leonardo/Desktop/Code/Github/DawnGBC/Libraries/FWLIB/src\gd32f4xx_dma.c ****       \arg        DMA_CHx(x=0..7)
 755:C:/Users/leonardo/Desktop/Code/Github/DawnGBC/Libraries/FWLIB/src\gd32f4xx_dma.c ****     \param[in]  newvalue: ENABLE or DISABLE
 756:C:/Users/leonardo/Desktop/Code/Github/DawnGBC/Libraries/FWLIB/src\gd32f4xx_dma.c ****     \param[out] none
 757:C:/Users/leonardo/Desktop/Code/Github/DawnGBC/Libraries/FWLIB/src\gd32f4xx_dma.c ****     \retval     none 
 758:C:/Users/leonardo/Desktop/Code/Github/DawnGBC/Libraries/FWLIB/src\gd32f4xx_dma.c **** */
 759:C:/Users/leonardo/Desktop/Code/Github/DawnGBC/Libraries/FWLIB/src\gd32f4xx_dma.c **** void dma_switch_buffer_mode_enable(uint32_t dma_periph,dma_channel_enum channelx,ControlStatus newv
 760:C:/Users/leonardo/Desktop/Code/Github/DawnGBC/Libraries/FWLIB/src\gd32f4xx_dma.c **** {
 3393              		.loc 1 760 1
 3394              		.cfi_startproc
 3395              		@ args = 0, pretend = 0, frame = 8
 3396              		@ frame_needed = 1, uses_anonymous_args = 0
 3397              		@ link register save eliminated.
 3398 0000 80B4     		push	{r7}
 3399              		.cfi_def_cfa_offset 4
 3400              		.cfi_offset 7, -4
 3401 0002 83B0     		sub	sp, sp, #12
 3402              		.cfi_def_cfa_offset 16
 3403 0004 00AF     		add	r7, sp, #0
 3404              		.cfi_def_cfa_register 7
 3405 0006 7860     		str	r0, [r7, #4]
 3406 0008 0B46     		mov	r3, r1
 3407 000a FB70     		strb	r3, [r7, #3]
 3408 000c 1346     		mov	r3, r2
 3409 000e BB70     		strb	r3, [r7, #2]
 761:C:/Users/leonardo/Desktop/Code/Github/DawnGBC/Libraries/FWLIB/src\gd32f4xx_dma.c ****     if(ENABLE == newvalue){
 3410              		.loc 1 761 7
 3411 0010 BB78     		ldrb	r3, [r7, #2]	@ zero_extendqisi2
 3412 0012 012B     		cmp	r3, #1
 3413 0014 17D1     		bne	.L101
 762:C:/Users/leonardo/Desktop/Code/Github/DawnGBC/Libraries/FWLIB/src\gd32f4xx_dma.c ****         /* switch buffer mode enable */
 763:C:/Users/leonardo/Desktop/Code/Github/DawnGBC/Libraries/FWLIB/src\gd32f4xx_dma.c ****         DMA_CHCTL(dma_periph,channelx) |= DMA_CHXCTL_SBMEN;
 3414              		.loc 1 763 40
 3415 0016 FA78     		ldrb	r2, [r7, #3]	@ zero_extendqisi2
 3416 0018 1346     		mov	r3, r2
 3417 001a 5B00     		lsls	r3, r3, #1
 3418 001c 1344     		add	r3, r3, r2
 3419 001e DB00     		lsls	r3, r3, #3
 3420 0020 1A46     		mov	r2, r3
 3421 0022 7B68     		ldr	r3, [r7, #4]
 3422 0024 1344     		add	r3, r3, r2
 3423 0026 1033     		adds	r3, r3, #16
 3424 0028 1968     		ldr	r1, [r3]
 3425 002a FA78     		ldrb	r2, [r7, #3]	@ zero_extendqisi2
 3426 002c 1346     		mov	r3, r2
 3427 002e 5B00     		lsls	r3, r3, #1
 3428 0030 1344     		add	r3, r3, r2
 3429 0032 DB00     		lsls	r3, r3, #3
 3430 0034 1A46     		mov	r2, r3
 3431 0036 7B68     		ldr	r3, [r7, #4]
 3432 0038 1344     		add	r3, r3, r2
 3433 003a 1033     		adds	r3, r3, #16
 3434 003c 1A46     		mov	r2, r3
 3435 003e 41F48023 		orr	r3, r1, #262144
 3436 0042 1360     		str	r3, [r2]
 764:C:/Users/leonardo/Desktop/Code/Github/DawnGBC/Libraries/FWLIB/src\gd32f4xx_dma.c ****     }else{
 765:C:/Users/leonardo/Desktop/Code/Github/DawnGBC/Libraries/FWLIB/src\gd32f4xx_dma.c ****         /* switch buffer mode disable */
 766:C:/Users/leonardo/Desktop/Code/Github/DawnGBC/Libraries/FWLIB/src\gd32f4xx_dma.c ****         DMA_CHCTL(dma_periph,channelx) &= ~DMA_CHXCTL_SBMEN;
 767:C:/Users/leonardo/Desktop/Code/Github/DawnGBC/Libraries/FWLIB/src\gd32f4xx_dma.c ****     }
 768:C:/Users/leonardo/Desktop/Code/Github/DawnGBC/Libraries/FWLIB/src\gd32f4xx_dma.c **** }
 3437              		.loc 1 768 1
 3438 0044 16E0     		b	.L103
 3439              	.L101:
 766:C:/Users/leonardo/Desktop/Code/Github/DawnGBC/Libraries/FWLIB/src\gd32f4xx_dma.c ****     }
 3440              		.loc 1 766 40
 3441 0046 FA78     		ldrb	r2, [r7, #3]	@ zero_extendqisi2
 3442 0048 1346     		mov	r3, r2
 3443 004a 5B00     		lsls	r3, r3, #1
 3444 004c 1344     		add	r3, r3, r2
 3445 004e DB00     		lsls	r3, r3, #3
 3446 0050 1A46     		mov	r2, r3
 3447 0052 7B68     		ldr	r3, [r7, #4]
 3448 0054 1344     		add	r3, r3, r2
 3449 0056 1033     		adds	r3, r3, #16
 3450 0058 1968     		ldr	r1, [r3]
 3451 005a FA78     		ldrb	r2, [r7, #3]	@ zero_extendqisi2
 3452 005c 1346     		mov	r3, r2
 3453 005e 5B00     		lsls	r3, r3, #1
 3454 0060 1344     		add	r3, r3, r2
 3455 0062 DB00     		lsls	r3, r3, #3
 3456 0064 1A46     		mov	r2, r3
 3457 0066 7B68     		ldr	r3, [r7, #4]
 3458 0068 1344     		add	r3, r3, r2
 3459 006a 1033     		adds	r3, r3, #16
 3460 006c 1A46     		mov	r2, r3
 3461 006e 21F48023 		bic	r3, r1, #262144
 3462 0072 1360     		str	r3, [r2]
 3463              	.L103:
 3464              		.loc 1 768 1
 3465 0074 00BF     		nop
 3466 0076 0C37     		adds	r7, r7, #12
 3467              		.cfi_def_cfa_offset 4
 3468 0078 BD46     		mov	sp, r7
 3469              		.cfi_def_cfa_register 13
 3470              		@ sp needed
 3471 007a 80BC     		pop	{r7}
 3472              		.cfi_restore 7
 3473              		.cfi_def_cfa_offset 0
 3474 007c 7047     		bx	lr
 3475              		.cfi_endproc
 3476              	.LFE150:
 3478              		.section	.text.dma_using_memory_get,"ax",%progbits
 3479              		.align	1
 3480              		.global	dma_using_memory_get
 3481              		.syntax unified
 3482              		.thumb
 3483              		.thumb_func
 3484              		.fpu softvfp
 3486              	dma_using_memory_get:
 3487              	.LFB151:
 769:C:/Users/leonardo/Desktop/Code/Github/DawnGBC/Libraries/FWLIB/src\gd32f4xx_dma.c **** 
 770:C:/Users/leonardo/Desktop/Code/Github/DawnGBC/Libraries/FWLIB/src\gd32f4xx_dma.c **** /*!
 771:C:/Users/leonardo/Desktop/Code/Github/DawnGBC/Libraries/FWLIB/src\gd32f4xx_dma.c ****     \brief      DMA using memory get
 772:C:/Users/leonardo/Desktop/Code/Github/DawnGBC/Libraries/FWLIB/src\gd32f4xx_dma.c ****     \param[in]  dma_periph: DMAx(x=0,1)
 773:C:/Users/leonardo/Desktop/Code/Github/DawnGBC/Libraries/FWLIB/src\gd32f4xx_dma.c ****       \arg        DMAx(x=0,1)
 774:C:/Users/leonardo/Desktop/Code/Github/DawnGBC/Libraries/FWLIB/src\gd32f4xx_dma.c ****     \param[in]  channelx: specify which DMA channel 
 775:C:/Users/leonardo/Desktop/Code/Github/DawnGBC/Libraries/FWLIB/src\gd32f4xx_dma.c ****       \arg        DMA_CHx(x=0..7)
 776:C:/Users/leonardo/Desktop/Code/Github/DawnGBC/Libraries/FWLIB/src\gd32f4xx_dma.c ****     \param[out] none
 777:C:/Users/leonardo/Desktop/Code/Github/DawnGBC/Libraries/FWLIB/src\gd32f4xx_dma.c ****     \retval     the using memory 
 778:C:/Users/leonardo/Desktop/Code/Github/DawnGBC/Libraries/FWLIB/src\gd32f4xx_dma.c **** */
 779:C:/Users/leonardo/Desktop/Code/Github/DawnGBC/Libraries/FWLIB/src\gd32f4xx_dma.c **** uint32_t dma_using_memory_get(uint32_t dma_periph,dma_channel_enum channelx)
 780:C:/Users/leonardo/Desktop/Code/Github/DawnGBC/Libraries/FWLIB/src\gd32f4xx_dma.c **** {
 3488              		.loc 1 780 1
 3489              		.cfi_startproc
 3490              		@ args = 0, pretend = 0, frame = 8
 3491              		@ frame_needed = 1, uses_anonymous_args = 0
 3492              		@ link register save eliminated.
 3493 0000 80B4     		push	{r7}
 3494              		.cfi_def_cfa_offset 4
 3495              		.cfi_offset 7, -4
 3496 0002 83B0     		sub	sp, sp, #12
 3497              		.cfi_def_cfa_offset 16
 3498 0004 00AF     		add	r7, sp, #0
 3499              		.cfi_def_cfa_register 7
 3500 0006 7860     		str	r0, [r7, #4]
 3501 0008 0B46     		mov	r3, r1
 3502 000a FB70     		strb	r3, [r7, #3]
 781:C:/Users/leonardo/Desktop/Code/Github/DawnGBC/Libraries/FWLIB/src\gd32f4xx_dma.c ****     if((DMA_CHCTL(dma_periph,channelx)) & DMA_CHXCTL_MBS){
 3503              		.loc 1 781 9
 3504 000c FA78     		ldrb	r2, [r7, #3]	@ zero_extendqisi2
 3505 000e 1346     		mov	r3, r2
 3506 0010 5B00     		lsls	r3, r3, #1
 3507 0012 1344     		add	r3, r3, r2
 3508 0014 DB00     		lsls	r3, r3, #3
 3509 0016 1A46     		mov	r2, r3
 3510 0018 7B68     		ldr	r3, [r7, #4]
 3511 001a 1344     		add	r3, r3, r2
 3512 001c 1033     		adds	r3, r3, #16
 3513 001e 1B68     		ldr	r3, [r3]
 3514              		.loc 1 781 41
 3515 0020 03F40023 		and	r3, r3, #524288
 3516              		.loc 1 781 7
 3517 0024 002B     		cmp	r3, #0
 3518 0026 01D0     		beq	.L105
 782:C:/Users/leonardo/Desktop/Code/Github/DawnGBC/Libraries/FWLIB/src\gd32f4xx_dma.c ****         return DMA_MEMORY_1;
 3519              		.loc 1 782 16
 3520 0028 0123     		movs	r3, #1
 3521 002a 00E0     		b	.L106
 3522              	.L105:
 783:C:/Users/leonardo/Desktop/Code/Github/DawnGBC/Libraries/FWLIB/src\gd32f4xx_dma.c ****     }else{
 784:C:/Users/leonardo/Desktop/Code/Github/DawnGBC/Libraries/FWLIB/src\gd32f4xx_dma.c ****         return DMA_MEMORY_0;
 3523              		.loc 1 784 16
 3524 002c 0023     		movs	r3, #0
 3525              	.L106:
 785:C:/Users/leonardo/Desktop/Code/Github/DawnGBC/Libraries/FWLIB/src\gd32f4xx_dma.c ****     }
 786:C:/Users/leonardo/Desktop/Code/Github/DawnGBC/Libraries/FWLIB/src\gd32f4xx_dma.c **** }
 3526              		.loc 1 786 1
 3527 002e 1846     		mov	r0, r3
 3528 0030 0C37     		adds	r7, r7, #12
 3529              		.cfi_def_cfa_offset 4
 3530 0032 BD46     		mov	sp, r7
 3531              		.cfi_def_cfa_register 13
 3532              		@ sp needed
 3533 0034 80BC     		pop	{r7}
 3534              		.cfi_restore 7
 3535              		.cfi_def_cfa_offset 0
 3536 0036 7047     		bx	lr
 3537              		.cfi_endproc
 3538              	.LFE151:
 3540              		.section	.text.dma_flow_controller_config,"ax",%progbits
 3541              		.align	1
 3542              		.global	dma_flow_controller_config
 3543              		.syntax unified
 3544              		.thumb
 3545              		.thumb_func
 3546              		.fpu softvfp
 3548              	dma_flow_controller_config:
 3549              	.LFB152:
 787:C:/Users/leonardo/Desktop/Code/Github/DawnGBC/Libraries/FWLIB/src\gd32f4xx_dma.c **** 
 788:C:/Users/leonardo/Desktop/Code/Github/DawnGBC/Libraries/FWLIB/src\gd32f4xx_dma.c **** /*!
 789:C:/Users/leonardo/Desktop/Code/Github/DawnGBC/Libraries/FWLIB/src\gd32f4xx_dma.c ****     \brief      DMA flow controller configure
 790:C:/Users/leonardo/Desktop/Code/Github/DawnGBC/Libraries/FWLIB/src\gd32f4xx_dma.c ****     \param[in]  dma_periph: DMAx(x=0,1)
 791:C:/Users/leonardo/Desktop/Code/Github/DawnGBC/Libraries/FWLIB/src\gd32f4xx_dma.c ****       \arg        DMAx(x=0,1)
 792:C:/Users/leonardo/Desktop/Code/Github/DawnGBC/Libraries/FWLIB/src\gd32f4xx_dma.c ****     \param[in]  channelx: specify which DMA channel 
 793:C:/Users/leonardo/Desktop/Code/Github/DawnGBC/Libraries/FWLIB/src\gd32f4xx_dma.c ****       \arg        DMA_CHx(x=0..7)
 794:C:/Users/leonardo/Desktop/Code/Github/DawnGBC/Libraries/FWLIB/src\gd32f4xx_dma.c ****     \param[in]  controller: specify DMA flow controler 
 795:C:/Users/leonardo/Desktop/Code/Github/DawnGBC/Libraries/FWLIB/src\gd32f4xx_dma.c ****       \arg        DMA_FLOW_CONTROLLER_DMA: DMA is the flow controller
 796:C:/Users/leonardo/Desktop/Code/Github/DawnGBC/Libraries/FWLIB/src\gd32f4xx_dma.c ****       \arg        DMA_FLOW_CONTROLLER_PERI: peripheral is the flow controller
 797:C:/Users/leonardo/Desktop/Code/Github/DawnGBC/Libraries/FWLIB/src\gd32f4xx_dma.c ****     \param[out] none
 798:C:/Users/leonardo/Desktop/Code/Github/DawnGBC/Libraries/FWLIB/src\gd32f4xx_dma.c ****     \retval     none
 799:C:/Users/leonardo/Desktop/Code/Github/DawnGBC/Libraries/FWLIB/src\gd32f4xx_dma.c **** */
 800:C:/Users/leonardo/Desktop/Code/Github/DawnGBC/Libraries/FWLIB/src\gd32f4xx_dma.c **** void dma_flow_controller_config(uint32_t dma_periph,dma_channel_enum channelx,uint32_t controller)
 801:C:/Users/leonardo/Desktop/Code/Github/DawnGBC/Libraries/FWLIB/src\gd32f4xx_dma.c **** {
 3550              		.loc 1 801 1
 3551              		.cfi_startproc
 3552              		@ args = 0, pretend = 0, frame = 16
 3553              		@ frame_needed = 1, uses_anonymous_args = 0
 3554              		@ link register save eliminated.
 3555 0000 80B4     		push	{r7}
 3556              		.cfi_def_cfa_offset 4
 3557              		.cfi_offset 7, -4
 3558 0002 85B0     		sub	sp, sp, #20
 3559              		.cfi_def_cfa_offset 24
 3560 0004 00AF     		add	r7, sp, #0
 3561              		.cfi_def_cfa_register 7
 3562 0006 F860     		str	r0, [r7, #12]
 3563 0008 0B46     		mov	r3, r1
 3564 000a 7A60     		str	r2, [r7, #4]
 3565 000c FB72     		strb	r3, [r7, #11]
 802:C:/Users/leonardo/Desktop/Code/Github/DawnGBC/Libraries/FWLIB/src\gd32f4xx_dma.c ****     if(DMA_FLOW_CONTROLLER_DMA == controller){
 3566              		.loc 1 802 7
 3567 000e 7B68     		ldr	r3, [r7, #4]
 3568 0010 002B     		cmp	r3, #0
 3569 0012 17D1     		bne	.L108
 803:C:/Users/leonardo/Desktop/Code/Github/DawnGBC/Libraries/FWLIB/src\gd32f4xx_dma.c ****         DMA_CHCTL(dma_periph,channelx) &= ~DMA_CHXCTL_TFCS;
 3570              		.loc 1 803 40
 3571 0014 FA7A     		ldrb	r2, [r7, #11]	@ zero_extendqisi2
 3572 0016 1346     		mov	r3, r2
 3573 0018 5B00     		lsls	r3, r3, #1
 3574 001a 1344     		add	r3, r3, r2
 3575 001c DB00     		lsls	r3, r3, #3
 3576 001e 1A46     		mov	r2, r3
 3577 0020 FB68     		ldr	r3, [r7, #12]
 3578 0022 1344     		add	r3, r3, r2
 3579 0024 1033     		adds	r3, r3, #16
 3580 0026 1968     		ldr	r1, [r3]
 3581 0028 FA7A     		ldrb	r2, [r7, #11]	@ zero_extendqisi2
 3582 002a 1346     		mov	r3, r2
 3583 002c 5B00     		lsls	r3, r3, #1
 3584 002e 1344     		add	r3, r3, r2
 3585 0030 DB00     		lsls	r3, r3, #3
 3586 0032 1A46     		mov	r2, r3
 3587 0034 FB68     		ldr	r3, [r7, #12]
 3588 0036 1344     		add	r3, r3, r2
 3589 0038 1033     		adds	r3, r3, #16
 3590 003a 1A46     		mov	r2, r3
 3591 003c 21F02003 		bic	r3, r1, #32
 3592 0040 1360     		str	r3, [r2]
 804:C:/Users/leonardo/Desktop/Code/Github/DawnGBC/Libraries/FWLIB/src\gd32f4xx_dma.c ****     }else{
 805:C:/Users/leonardo/Desktop/Code/Github/DawnGBC/Libraries/FWLIB/src\gd32f4xx_dma.c ****         DMA_CHCTL(dma_periph,channelx) |= DMA_CHXCTL_TFCS;
 806:C:/Users/leonardo/Desktop/Code/Github/DawnGBC/Libraries/FWLIB/src\gd32f4xx_dma.c ****     }
 807:C:/Users/leonardo/Desktop/Code/Github/DawnGBC/Libraries/FWLIB/src\gd32f4xx_dma.c **** }
 3593              		.loc 1 807 1
 3594 0042 16E0     		b	.L110
 3595              	.L108:
 805:C:/Users/leonardo/Desktop/Code/Github/DawnGBC/Libraries/FWLIB/src\gd32f4xx_dma.c ****     }
 3596              		.loc 1 805 40
 3597 0044 FA7A     		ldrb	r2, [r7, #11]	@ zero_extendqisi2
 3598 0046 1346     		mov	r3, r2
 3599 0048 5B00     		lsls	r3, r3, #1
 3600 004a 1344     		add	r3, r3, r2
 3601 004c DB00     		lsls	r3, r3, #3
 3602 004e 1A46     		mov	r2, r3
 3603 0050 FB68     		ldr	r3, [r7, #12]
 3604 0052 1344     		add	r3, r3, r2
 3605 0054 1033     		adds	r3, r3, #16
 3606 0056 1968     		ldr	r1, [r3]
 3607 0058 FA7A     		ldrb	r2, [r7, #11]	@ zero_extendqisi2
 3608 005a 1346     		mov	r3, r2
 3609 005c 5B00     		lsls	r3, r3, #1
 3610 005e 1344     		add	r3, r3, r2
 3611 0060 DB00     		lsls	r3, r3, #3
 3612 0062 1A46     		mov	r2, r3
 3613 0064 FB68     		ldr	r3, [r7, #12]
 3614 0066 1344     		add	r3, r3, r2
 3615 0068 1033     		adds	r3, r3, #16
 3616 006a 1A46     		mov	r2, r3
 3617 006c 41F02003 		orr	r3, r1, #32
 3618 0070 1360     		str	r3, [r2]
 3619              	.L110:
 3620              		.loc 1 807 1
 3621 0072 00BF     		nop
 3622 0074 1437     		adds	r7, r7, #20
 3623              		.cfi_def_cfa_offset 4
 3624 0076 BD46     		mov	sp, r7
 3625              		.cfi_def_cfa_register 13
 3626              		@ sp needed
 3627 0078 80BC     		pop	{r7}
 3628              		.cfi_restore 7
 3629              		.cfi_def_cfa_offset 0
 3630 007a 7047     		bx	lr
 3631              		.cfi_endproc
 3632              	.LFE152:
 3634              		.section	.text.dma_fifo_status_get,"ax",%progbits
 3635              		.align	1
 3636              		.global	dma_fifo_status_get
 3637              		.syntax unified
 3638              		.thumb
 3639              		.thumb_func
 3640              		.fpu softvfp
 3642              	dma_fifo_status_get:
 3643              	.LFB153:
 808:C:/Users/leonardo/Desktop/Code/Github/DawnGBC/Libraries/FWLIB/src\gd32f4xx_dma.c **** 
 809:C:/Users/leonardo/Desktop/Code/Github/DawnGBC/Libraries/FWLIB/src\gd32f4xx_dma.c **** /*!
 810:C:/Users/leonardo/Desktop/Code/Github/DawnGBC/Libraries/FWLIB/src\gd32f4xx_dma.c ****     \brief      DMA FIFO status get
 811:C:/Users/leonardo/Desktop/Code/Github/DawnGBC/Libraries/FWLIB/src\gd32f4xx_dma.c ****     \param[in]  dma_periph: DMAx(x=0,1)
 812:C:/Users/leonardo/Desktop/Code/Github/DawnGBC/Libraries/FWLIB/src\gd32f4xx_dma.c ****       \arg        DMAx(x=0,1)
 813:C:/Users/leonardo/Desktop/Code/Github/DawnGBC/Libraries/FWLIB/src\gd32f4xx_dma.c ****     \param[in]  channelx: specify which DMA channel 
 814:C:/Users/leonardo/Desktop/Code/Github/DawnGBC/Libraries/FWLIB/src\gd32f4xx_dma.c ****       \arg        DMA_CHx(x=0..7)
 815:C:/Users/leonardo/Desktop/Code/Github/DawnGBC/Libraries/FWLIB/src\gd32f4xx_dma.c ****     \param[out] none
 816:C:/Users/leonardo/Desktop/Code/Github/DawnGBC/Libraries/FWLIB/src\gd32f4xx_dma.c ****     \retval     the using memory 
 817:C:/Users/leonardo/Desktop/Code/Github/DawnGBC/Libraries/FWLIB/src\gd32f4xx_dma.c **** */
 818:C:/Users/leonardo/Desktop/Code/Github/DawnGBC/Libraries/FWLIB/src\gd32f4xx_dma.c **** uint32_t dma_fifo_status_get(uint32_t dma_periph,dma_channel_enum channelx)
 819:C:/Users/leonardo/Desktop/Code/Github/DawnGBC/Libraries/FWLIB/src\gd32f4xx_dma.c **** {
 3644              		.loc 1 819 1
 3645              		.cfi_startproc
 3646              		@ args = 0, pretend = 0, frame = 8
 3647              		@ frame_needed = 1, uses_anonymous_args = 0
 3648              		@ link register save eliminated.
 3649 0000 80B4     		push	{r7}
 3650              		.cfi_def_cfa_offset 4
 3651              		.cfi_offset 7, -4
 3652 0002 83B0     		sub	sp, sp, #12
 3653              		.cfi_def_cfa_offset 16
 3654 0004 00AF     		add	r7, sp, #0
 3655              		.cfi_def_cfa_register 7
 3656 0006 7860     		str	r0, [r7, #4]
 3657 0008 0B46     		mov	r3, r1
 3658 000a FB70     		strb	r3, [r7, #3]
 820:C:/Users/leonardo/Desktop/Code/Github/DawnGBC/Libraries/FWLIB/src\gd32f4xx_dma.c ****     return (DMA_CHFCTL(dma_periph,channelx) & DMA_CHXFCTL_FCNT);
 3659              		.loc 1 820 13
 3660 000c FA78     		ldrb	r2, [r7, #3]	@ zero_extendqisi2
 3661 000e 1346     		mov	r3, r2
 3662 0010 5B00     		lsls	r3, r3, #1
 3663 0012 1344     		add	r3, r3, r2
 3664 0014 DB00     		lsls	r3, r3, #3
 3665 0016 1A46     		mov	r2, r3
 3666 0018 7B68     		ldr	r3, [r7, #4]
 3667 001a 1344     		add	r3, r3, r2
 3668 001c 2433     		adds	r3, r3, #36
 3669              		.loc 1 820 45
 3670 001e 1B68     		ldr	r3, [r3]
 3671 0020 03F03803 		and	r3, r3, #56
 821:C:/Users/leonardo/Desktop/Code/Github/DawnGBC/Libraries/FWLIB/src\gd32f4xx_dma.c **** }
 3672              		.loc 1 821 1
 3673 0024 1846     		mov	r0, r3
 3674 0026 0C37     		adds	r7, r7, #12
 3675              		.cfi_def_cfa_offset 4
 3676 0028 BD46     		mov	sp, r7
 3677              		.cfi_def_cfa_register 13
 3678              		@ sp needed
 3679 002a 80BC     		pop	{r7}
 3680              		.cfi_restore 7
 3681              		.cfi_def_cfa_offset 0
 3682 002c 7047     		bx	lr
 3683              		.cfi_endproc
 3684              	.LFE153:
 3686              		.text
 3687              	.Letext0:
 3688              		.file 2 "c:\\users\\leonardo\\desktop\\gd32embeddedbuilder_v1.5.6_rel\\tools\\gnu tools arm embedd
 3689              		.file 3 "c:\\users\\leonardo\\desktop\\gd32embeddedbuilder_v1.5.6_rel\\tools\\gnu tools arm embedd
 3690              		.file 4 "../../CMSIS/DSP/Include/core_cm4.h"
 3691              		.file 5 "../../CMSIS/system_gd32f4xx.h"
 3692              		.file 6 "../../CMSIS/gd32f4xx.h"
 3693              		.file 7 "../../Libraries/FWLIB/inc/gd32f4xx_dma.h"