   1              		.cpu cortex-m4
   2              		.eabi_attribute 20, 1
   3              		.eabi_attribute 21, 1
   4              		.eabi_attribute 23, 3
   5              		.eabi_attribute 24, 1
   6              		.eabi_attribute 25, 1
   7              		.eabi_attribute 26, 1
   8              		.eabi_attribute 30, 6
   9              		.eabi_attribute 34, 1
  10              		.eabi_attribute 18, 4
  11              		.file	"gd32f4xx_rcu.c"
  12              		.text
  13              	.Ltext0:
  14              		.cfi_sections	.debug_frame
  15              		.section	.text.rcu_deinit,"ax",%progbits
  16              		.align	1
  17              		.global	rcu_deinit
  18              		.arch armv7e-m
  19              		.syntax unified
  20              		.thumb
  21              		.thumb_func
  22              		.fpu softvfp
  24              	rcu_deinit:
  25              	.LFB123:
  26              		.file 1 "C:/Users/leonardo/Desktop/Code/Github/DawnGBC/Libraries/FWLIB/src/gd32f4xx_rcu.c"
   1:C:/Users/leonardo/Desktop/Code/Github/DawnGBC/Libraries/FWLIB/src\gd32f4xx_rcu.c **** /*!
   2:C:/Users/leonardo/Desktop/Code/Github/DawnGBC/Libraries/FWLIB/src\gd32f4xx_rcu.c ****     \file  gd32f4xx_rcu.c
   3:C:/Users/leonardo/Desktop/Code/Github/DawnGBC/Libraries/FWLIB/src\gd32f4xx_rcu.c ****     \brief RCU driver
   4:C:/Users/leonardo/Desktop/Code/Github/DawnGBC/Libraries/FWLIB/src\gd32f4xx_rcu.c **** */
   5:C:/Users/leonardo/Desktop/Code/Github/DawnGBC/Libraries/FWLIB/src\gd32f4xx_rcu.c **** 
   6:C:/Users/leonardo/Desktop/Code/Github/DawnGBC/Libraries/FWLIB/src\gd32f4xx_rcu.c **** /*
   7:C:/Users/leonardo/Desktop/Code/Github/DawnGBC/Libraries/FWLIB/src\gd32f4xx_rcu.c ****     Copyright (C) 2016 GigaDevice
   8:C:/Users/leonardo/Desktop/Code/Github/DawnGBC/Libraries/FWLIB/src\gd32f4xx_rcu.c **** 
   9:C:/Users/leonardo/Desktop/Code/Github/DawnGBC/Libraries/FWLIB/src\gd32f4xx_rcu.c ****     2016-08-15, V1.0.2, firmware for GD32F4xx
  10:C:/Users/leonardo/Desktop/Code/Github/DawnGBC/Libraries/FWLIB/src\gd32f4xx_rcu.c **** */
  11:C:/Users/leonardo/Desktop/Code/Github/DawnGBC/Libraries/FWLIB/src\gd32f4xx_rcu.c **** 
  12:C:/Users/leonardo/Desktop/Code/Github/DawnGBC/Libraries/FWLIB/src\gd32f4xx_rcu.c **** #include "gd32f4xx_rcu.h"
  13:C:/Users/leonardo/Desktop/Code/Github/DawnGBC/Libraries/FWLIB/src\gd32f4xx_rcu.c **** 
  14:C:/Users/leonardo/Desktop/Code/Github/DawnGBC/Libraries/FWLIB/src\gd32f4xx_rcu.c **** #define SEL_IRC16M                  0U
  15:C:/Users/leonardo/Desktop/Code/Github/DawnGBC/Libraries/FWLIB/src\gd32f4xx_rcu.c **** #define SEL_HXTAL                   1U
  16:C:/Users/leonardo/Desktop/Code/Github/DawnGBC/Libraries/FWLIB/src\gd32f4xx_rcu.c **** #define SEL_PLLP                    2U
  17:C:/Users/leonardo/Desktop/Code/Github/DawnGBC/Libraries/FWLIB/src\gd32f4xx_rcu.c **** #define OSC_STARTUP_TIMEOUT         ((uint32_t)0xfffffU)
  18:C:/Users/leonardo/Desktop/Code/Github/DawnGBC/Libraries/FWLIB/src\gd32f4xx_rcu.c **** #define LXTAL_STARTUP_TIMEOUT       ((uint32_t)0x3ffffffU)
  19:C:/Users/leonardo/Desktop/Code/Github/DawnGBC/Libraries/FWLIB/src\gd32f4xx_rcu.c **** 
  20:C:/Users/leonardo/Desktop/Code/Github/DawnGBC/Libraries/FWLIB/src\gd32f4xx_rcu.c **** /*!
  21:C:/Users/leonardo/Desktop/Code/Github/DawnGBC/Libraries/FWLIB/src\gd32f4xx_rcu.c ****     \brief      deinitialize the RCU
  22:C:/Users/leonardo/Desktop/Code/Github/DawnGBC/Libraries/FWLIB/src\gd32f4xx_rcu.c ****     \param[in]  none
  23:C:/Users/leonardo/Desktop/Code/Github/DawnGBC/Libraries/FWLIB/src\gd32f4xx_rcu.c ****     \param[out] none
  24:C:/Users/leonardo/Desktop/Code/Github/DawnGBC/Libraries/FWLIB/src\gd32f4xx_rcu.c ****     \retval     none
  25:C:/Users/leonardo/Desktop/Code/Github/DawnGBC/Libraries/FWLIB/src\gd32f4xx_rcu.c **** */
  26:C:/Users/leonardo/Desktop/Code/Github/DawnGBC/Libraries/FWLIB/src\gd32f4xx_rcu.c **** void rcu_deinit(void)
  27:C:/Users/leonardo/Desktop/Code/Github/DawnGBC/Libraries/FWLIB/src\gd32f4xx_rcu.c **** {
  27              		.loc 1 27 1
  28              		.cfi_startproc
  29              		@ args = 0, pretend = 0, frame = 0
  30              		@ frame_needed = 1, uses_anonymous_args = 0
  31 0000 80B5     		push	{r7, lr}
  32              		.cfi_def_cfa_offset 8
  33              		.cfi_offset 7, -8
  34              		.cfi_offset 14, -4
  35 0002 00AF     		add	r7, sp, #0
  36              		.cfi_def_cfa_register 7
  28:C:/Users/leonardo/Desktop/Code/Github/DawnGBC/Libraries/FWLIB/src\gd32f4xx_rcu.c ****     /* enable IRC16M */
  29:C:/Users/leonardo/Desktop/Code/Github/DawnGBC/Libraries/FWLIB/src\gd32f4xx_rcu.c ****     RCU_CTL |= RCU_CTL_IRC16MEN;
  37              		.loc 1 29 13
  38 0004 164B     		ldr	r3, .L2
  39 0006 1B68     		ldr	r3, [r3]
  40 0008 154A     		ldr	r2, .L2
  41 000a 43F00103 		orr	r3, r3, #1
  42 000e 1360     		str	r3, [r2]
  30:C:/Users/leonardo/Desktop/Code/Github/DawnGBC/Libraries/FWLIB/src\gd32f4xx_rcu.c ****     rcu_osci_stab_wait(RCU_IRC16M);
  43              		.loc 1 30 5
  44 0010 0020     		movs	r0, #0
  45 0012 FFF7FEFF 		bl	rcu_osci_stab_wait
  31:C:/Users/leonardo/Desktop/Code/Github/DawnGBC/Libraries/FWLIB/src\gd32f4xx_rcu.c ****     /* reset CFG0 register */
  32:C:/Users/leonardo/Desktop/Code/Github/DawnGBC/Libraries/FWLIB/src\gd32f4xx_rcu.c ****     RCU_CFG0 &= ~(RCU_CFG0_SCS | RCU_CFG0_AHBPSC | RCU_CFG0_APB1PSC | RCU_CFG0_APB2PSC |
  46              		.loc 1 32 14
  47 0016 134B     		ldr	r3, .L2+4
  48 0018 1B68     		ldr	r3, [r3]
  49 001a 124A     		ldr	r2, .L2+4
  50 001c 03F44373 		and	r3, r3, #780
  51 0020 1360     		str	r3, [r2]
  33:C:/Users/leonardo/Desktop/Code/Github/DawnGBC/Libraries/FWLIB/src\gd32f4xx_rcu.c ****                   RCU_CFG0_RTCDIV | RCU_CFG0_CKOUT0SEL | RCU_CFG0_I2SSEL | RCU_CFG0_CKOUT0DIV |
  34:C:/Users/leonardo/Desktop/Code/Github/DawnGBC/Libraries/FWLIB/src\gd32f4xx_rcu.c ****                   RCU_CFG0_CKOUT1DIV | RCU_CFG0_CKOUT1SEL);
  35:C:/Users/leonardo/Desktop/Code/Github/DawnGBC/Libraries/FWLIB/src\gd32f4xx_rcu.c ****     /* reset CTL register */
  36:C:/Users/leonardo/Desktop/Code/Github/DawnGBC/Libraries/FWLIB/src\gd32f4xx_rcu.c ****     RCU_CTL &= ~(RCU_CTL_HXTALEN | RCU_CTL_CKMEN | RCU_CTL_PLLEN | RCU_CTL_PLLI2SEN |
  52              		.loc 1 36 13
  53 0022 0F4B     		ldr	r3, .L2
  54 0024 1B68     		ldr	r3, [r3]
  55 0026 0E4A     		ldr	r2, .L2
  56 0028 23F0A853 		bic	r3, r3, #352321536
  57 002c 23F45023 		bic	r3, r3, #851968
  58 0030 1360     		str	r3, [r2]
  37:C:/Users/leonardo/Desktop/Code/Github/DawnGBC/Libraries/FWLIB/src\gd32f4xx_rcu.c ****                  RCU_CTL_PLLSAIEN | RCU_CTL_HXTALBPS);
  38:C:/Users/leonardo/Desktop/Code/Github/DawnGBC/Libraries/FWLIB/src\gd32f4xx_rcu.c ****     /* reset PLL register */
  39:C:/Users/leonardo/Desktop/Code/Github/DawnGBC/Libraries/FWLIB/src\gd32f4xx_rcu.c ****     RCU_PLL = 0x24003010U;
  59              		.loc 1 39 5
  60 0032 0D4B     		ldr	r3, .L2+8
  61              		.loc 1 39 13
  62 0034 0D4A     		ldr	r2, .L2+12
  63 0036 1A60     		str	r2, [r3]
  40:C:/Users/leonardo/Desktop/Code/Github/DawnGBC/Libraries/FWLIB/src\gd32f4xx_rcu.c ****     /* reset PLLI2S register */
  41:C:/Users/leonardo/Desktop/Code/Github/DawnGBC/Libraries/FWLIB/src\gd32f4xx_rcu.c ****     RCU_PLLI2S = 0x24003000U;
  64              		.loc 1 41 5
  65 0038 0D4B     		ldr	r3, .L2+16
  66              		.loc 1 41 16
  67 003a 0E4A     		ldr	r2, .L2+20
  68 003c 1A60     		str	r2, [r3]
  42:C:/Users/leonardo/Desktop/Code/Github/DawnGBC/Libraries/FWLIB/src\gd32f4xx_rcu.c ****     /* reset PLLSAI register */
  43:C:/Users/leonardo/Desktop/Code/Github/DawnGBC/Libraries/FWLIB/src\gd32f4xx_rcu.c ****     RCU_PLLSAI = 0x24003010U;
  69              		.loc 1 43 5
  70 003e 0E4B     		ldr	r3, .L2+24
  71              		.loc 1 43 16
  72 0040 0A4A     		ldr	r2, .L2+12
  73 0042 1A60     		str	r2, [r3]
  44:C:/Users/leonardo/Desktop/Code/Github/DawnGBC/Libraries/FWLIB/src\gd32f4xx_rcu.c ****     /* reset INT register */
  45:C:/Users/leonardo/Desktop/Code/Github/DawnGBC/Libraries/FWLIB/src\gd32f4xx_rcu.c ****     RCU_INT = 0x00000000U;
  74              		.loc 1 45 5
  75 0044 0D4B     		ldr	r3, .L2+28
  76              		.loc 1 45 13
  77 0046 0022     		movs	r2, #0
  78 0048 1A60     		str	r2, [r3]
  46:C:/Users/leonardo/Desktop/Code/Github/DawnGBC/Libraries/FWLIB/src\gd32f4xx_rcu.c ****     /* reset CFG1 register */
  47:C:/Users/leonardo/Desktop/Code/Github/DawnGBC/Libraries/FWLIB/src\gd32f4xx_rcu.c ****     RCU_CFG1 &= ~(RCU_CFG1_PLLSAIRDIV | RCU_CFG1_TIMERSEL);                
  79              		.loc 1 47 14
  80 004a 0D4B     		ldr	r3, .L2+32
  81 004c 1B68     		ldr	r3, [r3]
  82 004e 0C4A     		ldr	r2, .L2+32
  83 0050 23F08173 		bic	r3, r3, #16908288
  84 0054 23F48033 		bic	r3, r3, #65536
  85 0058 1360     		str	r3, [r2]
  48:C:/Users/leonardo/Desktop/Code/Github/DawnGBC/Libraries/FWLIB/src\gd32f4xx_rcu.c **** }
  86              		.loc 1 48 1
  87 005a 00BF     		nop
  88 005c 80BD     		pop	{r7, pc}
  89              	.L3:
  90 005e 00BF     		.align	2
  91              	.L2:
  92 0060 00380240 		.word	1073887232
  93 0064 08380240 		.word	1073887240
  94 0068 04380240 		.word	1073887236
  95 006c 10300024 		.word	603992080
  96 0070 84380240 		.word	1073887364
  97 0074 00300024 		.word	603992064
  98 0078 88380240 		.word	1073887368
  99 007c 0C380240 		.word	1073887244
 100 0080 8C380240 		.word	1073887372
 101              		.cfi_endproc
 102              	.LFE123:
 104              		.section	.text.rcu_periph_clock_enable,"ax",%progbits
 105              		.align	1
 106              		.global	rcu_periph_clock_enable
 107              		.syntax unified
 108              		.thumb
 109              		.thumb_func
 110              		.fpu softvfp
 112              	rcu_periph_clock_enable:
 113              	.LFB124:
  49:C:/Users/leonardo/Desktop/Code/Github/DawnGBC/Libraries/FWLIB/src\gd32f4xx_rcu.c **** 
  50:C:/Users/leonardo/Desktop/Code/Github/DawnGBC/Libraries/FWLIB/src\gd32f4xx_rcu.c **** /*!
  51:C:/Users/leonardo/Desktop/Code/Github/DawnGBC/Libraries/FWLIB/src\gd32f4xx_rcu.c ****     \brief      enable the peripherals clock
  52:C:/Users/leonardo/Desktop/Code/Github/DawnGBC/Libraries/FWLIB/src\gd32f4xx_rcu.c ****     \param[in]  periph: RCU peripherals, refer to rcu_periph_enum
  53:C:/Users/leonardo/Desktop/Code/Github/DawnGBC/Libraries/FWLIB/src\gd32f4xx_rcu.c ****                 only one parameter can be selected which is shown as below:
  54:C:/Users/leonardo/Desktop/Code/Github/DawnGBC/Libraries/FWLIB/src\gd32f4xx_rcu.c ****       \arg        RCU_GPIOx (x=A,B,C,D,E,F,G,H,I): GPIO ports clock
  55:C:/Users/leonardo/Desktop/Code/Github/DawnGBC/Libraries/FWLIB/src\gd32f4xx_rcu.c ****       \arg        RCU_CRC: CRC clock
  56:C:/Users/leonardo/Desktop/Code/Github/DawnGBC/Libraries/FWLIB/src\gd32f4xx_rcu.c ****       \arg        RCU_BKPSRAM: BKPSRAM clock
  57:C:/Users/leonardo/Desktop/Code/Github/DawnGBC/Libraries/FWLIB/src\gd32f4xx_rcu.c ****       \arg        RCU_TCMSRAM: TCMSRAM clock
  58:C:/Users/leonardo/Desktop/Code/Github/DawnGBC/Libraries/FWLIB/src\gd32f4xx_rcu.c ****       \arg        RCU_DMAx (x=0,1): DMA clock
  59:C:/Users/leonardo/Desktop/Code/Github/DawnGBC/Libraries/FWLIB/src\gd32f4xx_rcu.c ****       \arg        RCU_IPA: IPA clock
  60:C:/Users/leonardo/Desktop/Code/Github/DawnGBC/Libraries/FWLIB/src\gd32f4xx_rcu.c ****       \arg        RCU_ENET: ENET clock
  61:C:/Users/leonardo/Desktop/Code/Github/DawnGBC/Libraries/FWLIB/src\gd32f4xx_rcu.c ****       \arg        RCU_ENETTX: ENETTX clock
  62:C:/Users/leonardo/Desktop/Code/Github/DawnGBC/Libraries/FWLIB/src\gd32f4xx_rcu.c ****       \arg        RCU_ENETRX: ENETRX clock
  63:C:/Users/leonardo/Desktop/Code/Github/DawnGBC/Libraries/FWLIB/src\gd32f4xx_rcu.c ****       \arg        RCU_ENETPTP: ENETPTP clock
  64:C:/Users/leonardo/Desktop/Code/Github/DawnGBC/Libraries/FWLIB/src\gd32f4xx_rcu.c ****       \arg        RCU_USBHS: USBHS clock
  65:C:/Users/leonardo/Desktop/Code/Github/DawnGBC/Libraries/FWLIB/src\gd32f4xx_rcu.c ****       \arg        RCU_USBHSULPI: USBHSULPI clock
  66:C:/Users/leonardo/Desktop/Code/Github/DawnGBC/Libraries/FWLIB/src\gd32f4xx_rcu.c ****       \arg        RCU_DCI: DCI clock
  67:C:/Users/leonardo/Desktop/Code/Github/DawnGBC/Libraries/FWLIB/src\gd32f4xx_rcu.c ****       \arg        RCU_TRNG: TRNG clock
  68:C:/Users/leonardo/Desktop/Code/Github/DawnGBC/Libraries/FWLIB/src\gd32f4xx_rcu.c ****       \arg        RCU_USBFS: USBFS clock
  69:C:/Users/leonardo/Desktop/Code/Github/DawnGBC/Libraries/FWLIB/src\gd32f4xx_rcu.c ****       \arg        RCU_EXMC: EXMC clock
  70:C:/Users/leonardo/Desktop/Code/Github/DawnGBC/Libraries/FWLIB/src\gd32f4xx_rcu.c ****       \arg        RCU_TIMERx (x=0,1,2,3,4,5,6,7,8,9,10,11,12,13): TIMER clock
  71:C:/Users/leonardo/Desktop/Code/Github/DawnGBC/Libraries/FWLIB/src\gd32f4xx_rcu.c ****       \arg        RCU_WWDGT: WWDGT clock
  72:C:/Users/leonardo/Desktop/Code/Github/DawnGBC/Libraries/FWLIB/src\gd32f4xx_rcu.c ****       \arg        RCU_SPIx (x=0,1,2,3,4,5): SPI clock
  73:C:/Users/leonardo/Desktop/Code/Github/DawnGBC/Libraries/FWLIB/src\gd32f4xx_rcu.c ****       \arg        RCU_USARTx (x=0,1,2,5): USART clock
  74:C:/Users/leonardo/Desktop/Code/Github/DawnGBC/Libraries/FWLIB/src\gd32f4xx_rcu.c ****       \arg        RCU_UARTx (x=3,4,6,7): UART clock
  75:C:/Users/leonardo/Desktop/Code/Github/DawnGBC/Libraries/FWLIB/src\gd32f4xx_rcu.c ****       \arg        RCU_I2Cx (x=0,1,2): I2C clock
  76:C:/Users/leonardo/Desktop/Code/Github/DawnGBC/Libraries/FWLIB/src\gd32f4xx_rcu.c ****       \arg        RCU_CANx (x=0,1): CAN clock
  77:C:/Users/leonardo/Desktop/Code/Github/DawnGBC/Libraries/FWLIB/src\gd32f4xx_rcu.c ****       \arg        RCU_PMU: PMU clock
  78:C:/Users/leonardo/Desktop/Code/Github/DawnGBC/Libraries/FWLIB/src\gd32f4xx_rcu.c ****       \arg        RCU_DAC: DAC clock
  79:C:/Users/leonardo/Desktop/Code/Github/DawnGBC/Libraries/FWLIB/src\gd32f4xx_rcu.c ****       \arg        RCU_RTC: RTC clock
  80:C:/Users/leonardo/Desktop/Code/Github/DawnGBC/Libraries/FWLIB/src\gd32f4xx_rcu.c ****       \arg        RCU_ADCx (x=0,1,2): ADC clock
  81:C:/Users/leonardo/Desktop/Code/Github/DawnGBC/Libraries/FWLIB/src\gd32f4xx_rcu.c ****       \arg        RCU_SDIO: SDIO clock
  82:C:/Users/leonardo/Desktop/Code/Github/DawnGBC/Libraries/FWLIB/src\gd32f4xx_rcu.c ****       \arg        RCU_SYSCFG: SYSCFG clock
  83:C:/Users/leonardo/Desktop/Code/Github/DawnGBC/Libraries/FWLIB/src\gd32f4xx_rcu.c ****       \arg        RCU_TLI: TLI clock
  84:C:/Users/leonardo/Desktop/Code/Github/DawnGBC/Libraries/FWLIB/src\gd32f4xx_rcu.c ****       \arg        RCU_CTC: CTC clock
  85:C:/Users/leonardo/Desktop/Code/Github/DawnGBC/Libraries/FWLIB/src\gd32f4xx_rcu.c ****       \arg        RCU_IREF: IREF clock
  86:C:/Users/leonardo/Desktop/Code/Github/DawnGBC/Libraries/FWLIB/src\gd32f4xx_rcu.c ****     \param[out] none
  87:C:/Users/leonardo/Desktop/Code/Github/DawnGBC/Libraries/FWLIB/src\gd32f4xx_rcu.c ****     \retval     none
  88:C:/Users/leonardo/Desktop/Code/Github/DawnGBC/Libraries/FWLIB/src\gd32f4xx_rcu.c **** */
  89:C:/Users/leonardo/Desktop/Code/Github/DawnGBC/Libraries/FWLIB/src\gd32f4xx_rcu.c **** void rcu_periph_clock_enable(rcu_periph_enum periph)
  90:C:/Users/leonardo/Desktop/Code/Github/DawnGBC/Libraries/FWLIB/src\gd32f4xx_rcu.c **** {
 114              		.loc 1 90 1
 115              		.cfi_startproc
 116              		@ args = 0, pretend = 0, frame = 8
 117              		@ frame_needed = 1, uses_anonymous_args = 0
 118              		@ link register save eliminated.
 119 0000 80B4     		push	{r7}
 120              		.cfi_def_cfa_offset 4
 121              		.cfi_offset 7, -4
 122 0002 83B0     		sub	sp, sp, #12
 123              		.cfi_def_cfa_offset 16
 124 0004 00AF     		add	r7, sp, #0
 125              		.cfi_def_cfa_register 7
 126 0006 0346     		mov	r3, r0
 127 0008 FB80     		strh	r3, [r7, #6]	@ movhi
  91:C:/Users/leonardo/Desktop/Code/Github/DawnGBC/Libraries/FWLIB/src\gd32f4xx_rcu.c ****     RCU_REG_VAL(periph) |= BIT(RCU_BIT_POS(periph));
 128              		.loc 1 91 25
 129 000a FB88     		ldrh	r3, [r7, #6]
 130 000c 9B09     		lsrs	r3, r3, #6
 131 000e 9BB2     		uxth	r3, r3
 132 0010 03F18043 		add	r3, r3, #1073741824
 133 0014 03F50E33 		add	r3, r3, #145408
 134 0018 1968     		ldr	r1, [r3]
 135              		.loc 1 91 28
 136 001a FB88     		ldrh	r3, [r7, #6]
 137 001c 03F01F03 		and	r3, r3, #31
 138 0020 0122     		movs	r2, #1
 139 0022 9A40     		lsls	r2, r2, r3
 140              		.loc 1 91 25
 141 0024 FB88     		ldrh	r3, [r7, #6]
 142 0026 9B09     		lsrs	r3, r3, #6
 143 0028 9BB2     		uxth	r3, r3
 144 002a 03F18043 		add	r3, r3, #1073741824
 145 002e 03F50E33 		add	r3, r3, #145408
 146 0032 1846     		mov	r0, r3
 147 0034 41EA0203 		orr	r3, r1, r2
 148 0038 0360     		str	r3, [r0]
  92:C:/Users/leonardo/Desktop/Code/Github/DawnGBC/Libraries/FWLIB/src\gd32f4xx_rcu.c **** }
 149              		.loc 1 92 1
 150 003a 00BF     		nop
 151 003c 0C37     		adds	r7, r7, #12
 152              		.cfi_def_cfa_offset 4
 153 003e BD46     		mov	sp, r7
 154              		.cfi_def_cfa_register 13
 155              		@ sp needed
 156 0040 80BC     		pop	{r7}
 157              		.cfi_restore 7
 158              		.cfi_def_cfa_offset 0
 159 0042 7047     		bx	lr
 160              		.cfi_endproc
 161              	.LFE124:
 163              		.section	.text.rcu_periph_clock_disable,"ax",%progbits
 164              		.align	1
 165              		.global	rcu_periph_clock_disable
 166              		.syntax unified
 167              		.thumb
 168              		.thumb_func
 169              		.fpu softvfp
 171              	rcu_periph_clock_disable:
 172              	.LFB125:
  93:C:/Users/leonardo/Desktop/Code/Github/DawnGBC/Libraries/FWLIB/src\gd32f4xx_rcu.c **** 
  94:C:/Users/leonardo/Desktop/Code/Github/DawnGBC/Libraries/FWLIB/src\gd32f4xx_rcu.c **** /*!
  95:C:/Users/leonardo/Desktop/Code/Github/DawnGBC/Libraries/FWLIB/src\gd32f4xx_rcu.c ****     \brief      disable the peripherals clock
  96:C:/Users/leonardo/Desktop/Code/Github/DawnGBC/Libraries/FWLIB/src\gd32f4xx_rcu.c ****     \param[in]  periph: RCU peripherals, refer to rcu_periph_enum
  97:C:/Users/leonardo/Desktop/Code/Github/DawnGBC/Libraries/FWLIB/src\gd32f4xx_rcu.c ****                 only one parameter can be selected which is shown as below:
  98:C:/Users/leonardo/Desktop/Code/Github/DawnGBC/Libraries/FWLIB/src\gd32f4xx_rcu.c ****       \arg        RCU_GPIOx (x=A,B,C,D,E,F,G,H,I): GPIO ports clock
  99:C:/Users/leonardo/Desktop/Code/Github/DawnGBC/Libraries/FWLIB/src\gd32f4xx_rcu.c ****       \arg        RCU_CRC: CRC clock
 100:C:/Users/leonardo/Desktop/Code/Github/DawnGBC/Libraries/FWLIB/src\gd32f4xx_rcu.c ****       \arg        RCU_BKPSRAM: BKPSRAM clock
 101:C:/Users/leonardo/Desktop/Code/Github/DawnGBC/Libraries/FWLIB/src\gd32f4xx_rcu.c ****       \arg        RCU_TCMSRAM: TCMSRAM clock
 102:C:/Users/leonardo/Desktop/Code/Github/DawnGBC/Libraries/FWLIB/src\gd32f4xx_rcu.c ****       \arg        RCU_DMAx (x=0,1): DMA clock
 103:C:/Users/leonardo/Desktop/Code/Github/DawnGBC/Libraries/FWLIB/src\gd32f4xx_rcu.c ****       \arg        RCU_IPA: IPA clock
 104:C:/Users/leonardo/Desktop/Code/Github/DawnGBC/Libraries/FWLIB/src\gd32f4xx_rcu.c ****       \arg        RCU_ENET: ENET clock
 105:C:/Users/leonardo/Desktop/Code/Github/DawnGBC/Libraries/FWLIB/src\gd32f4xx_rcu.c ****       \arg        RCU_ENETTX: ENETTX clock
 106:C:/Users/leonardo/Desktop/Code/Github/DawnGBC/Libraries/FWLIB/src\gd32f4xx_rcu.c ****       \arg        RCU_ENETRX: ENETRX clock
 107:C:/Users/leonardo/Desktop/Code/Github/DawnGBC/Libraries/FWLIB/src\gd32f4xx_rcu.c ****       \arg        RCU_ENETPTP: ENETPTP clock
 108:C:/Users/leonardo/Desktop/Code/Github/DawnGBC/Libraries/FWLIB/src\gd32f4xx_rcu.c ****       \arg        RCU_USBHS: USBHS clock
 109:C:/Users/leonardo/Desktop/Code/Github/DawnGBC/Libraries/FWLIB/src\gd32f4xx_rcu.c ****       \arg        RCU_USBHSULPI: USBHSULPI clock
 110:C:/Users/leonardo/Desktop/Code/Github/DawnGBC/Libraries/FWLIB/src\gd32f4xx_rcu.c ****       \arg        RCU_DCI: DCI clock
 111:C:/Users/leonardo/Desktop/Code/Github/DawnGBC/Libraries/FWLIB/src\gd32f4xx_rcu.c ****       \arg        RCU_TRNG: TRNG clock
 112:C:/Users/leonardo/Desktop/Code/Github/DawnGBC/Libraries/FWLIB/src\gd32f4xx_rcu.c ****       \arg        RCU_USBFS: USBFS clock
 113:C:/Users/leonardo/Desktop/Code/Github/DawnGBC/Libraries/FWLIB/src\gd32f4xx_rcu.c ****       \arg        RCU_EXMC: EXMC clock
 114:C:/Users/leonardo/Desktop/Code/Github/DawnGBC/Libraries/FWLIB/src\gd32f4xx_rcu.c ****       \arg        RCU_TIMERx (x=0,1,2,3,4,5,6,7,8,9,10,11,12,13): TIMER clock
 115:C:/Users/leonardo/Desktop/Code/Github/DawnGBC/Libraries/FWLIB/src\gd32f4xx_rcu.c ****       \arg        RCU_WWDGT: WWDGT clock
 116:C:/Users/leonardo/Desktop/Code/Github/DawnGBC/Libraries/FWLIB/src\gd32f4xx_rcu.c ****       \arg        RCU_SPIx (x=0,1,2,3,4,5): SPI clock
 117:C:/Users/leonardo/Desktop/Code/Github/DawnGBC/Libraries/FWLIB/src\gd32f4xx_rcu.c ****       \arg        RCU_USARTx (x=0,1,2,5): USART clock
 118:C:/Users/leonardo/Desktop/Code/Github/DawnGBC/Libraries/FWLIB/src\gd32f4xx_rcu.c ****       \arg        RCU_UARTx (x=3,4,6,7): UART clock
 119:C:/Users/leonardo/Desktop/Code/Github/DawnGBC/Libraries/FWLIB/src\gd32f4xx_rcu.c ****       \arg        RCU_I2Cx (x=0,1,2): I2C clock
 120:C:/Users/leonardo/Desktop/Code/Github/DawnGBC/Libraries/FWLIB/src\gd32f4xx_rcu.c ****       \arg        RCU_CANx (x=0,1): CAN clock
 121:C:/Users/leonardo/Desktop/Code/Github/DawnGBC/Libraries/FWLIB/src\gd32f4xx_rcu.c ****       \arg        RCU_PMU: PMU clock
 122:C:/Users/leonardo/Desktop/Code/Github/DawnGBC/Libraries/FWLIB/src\gd32f4xx_rcu.c ****       \arg        RCU_DAC: DAC clock
 123:C:/Users/leonardo/Desktop/Code/Github/DawnGBC/Libraries/FWLIB/src\gd32f4xx_rcu.c ****       \arg        RCU_RTC: RTC clock
 124:C:/Users/leonardo/Desktop/Code/Github/DawnGBC/Libraries/FWLIB/src\gd32f4xx_rcu.c ****       \arg        RCU_ADCx (x=0,1,2): ADC clock
 125:C:/Users/leonardo/Desktop/Code/Github/DawnGBC/Libraries/FWLIB/src\gd32f4xx_rcu.c ****       \arg        RCU_SDIO: SDIO clock
 126:C:/Users/leonardo/Desktop/Code/Github/DawnGBC/Libraries/FWLIB/src\gd32f4xx_rcu.c ****       \arg        RCU_SYSCFG: SYSCFG clock
 127:C:/Users/leonardo/Desktop/Code/Github/DawnGBC/Libraries/FWLIB/src\gd32f4xx_rcu.c ****       \arg        RCU_TLI: TLI clock
 128:C:/Users/leonardo/Desktop/Code/Github/DawnGBC/Libraries/FWLIB/src\gd32f4xx_rcu.c ****       \arg        RCU_CTC: CTC clock
 129:C:/Users/leonardo/Desktop/Code/Github/DawnGBC/Libraries/FWLIB/src\gd32f4xx_rcu.c ****       \arg        RCU_IREF: IREF clock
 130:C:/Users/leonardo/Desktop/Code/Github/DawnGBC/Libraries/FWLIB/src\gd32f4xx_rcu.c ****     \param[out] none
 131:C:/Users/leonardo/Desktop/Code/Github/DawnGBC/Libraries/FWLIB/src\gd32f4xx_rcu.c ****     \retval     none
 132:C:/Users/leonardo/Desktop/Code/Github/DawnGBC/Libraries/FWLIB/src\gd32f4xx_rcu.c **** */
 133:C:/Users/leonardo/Desktop/Code/Github/DawnGBC/Libraries/FWLIB/src\gd32f4xx_rcu.c **** void rcu_periph_clock_disable(rcu_periph_enum periph)
 134:C:/Users/leonardo/Desktop/Code/Github/DawnGBC/Libraries/FWLIB/src\gd32f4xx_rcu.c **** {
 173              		.loc 1 134 1
 174              		.cfi_startproc
 175              		@ args = 0, pretend = 0, frame = 8
 176              		@ frame_needed = 1, uses_anonymous_args = 0
 177              		@ link register save eliminated.
 178 0000 80B4     		push	{r7}
 179              		.cfi_def_cfa_offset 4
 180              		.cfi_offset 7, -4
 181 0002 83B0     		sub	sp, sp, #12
 182              		.cfi_def_cfa_offset 16
 183 0004 00AF     		add	r7, sp, #0
 184              		.cfi_def_cfa_register 7
 185 0006 0346     		mov	r3, r0
 186 0008 FB80     		strh	r3, [r7, #6]	@ movhi
 135:C:/Users/leonardo/Desktop/Code/Github/DawnGBC/Libraries/FWLIB/src\gd32f4xx_rcu.c ****     RCU_REG_VAL(periph) &= ~BIT(RCU_BIT_POS(periph));
 187              		.loc 1 135 25
 188 000a FB88     		ldrh	r3, [r7, #6]
 189 000c 9B09     		lsrs	r3, r3, #6
 190 000e 9BB2     		uxth	r3, r3
 191 0010 03F18043 		add	r3, r3, #1073741824
 192 0014 03F50E33 		add	r3, r3, #145408
 193 0018 1968     		ldr	r1, [r3]
 194              		.loc 1 135 29
 195 001a FB88     		ldrh	r3, [r7, #6]
 196 001c 03F01F03 		and	r3, r3, #31
 197 0020 0122     		movs	r2, #1
 198 0022 02FA03F3 		lsl	r3, r2, r3
 199              		.loc 1 135 28
 200 0026 DA43     		mvns	r2, r3
 201              		.loc 1 135 25
 202 0028 FB88     		ldrh	r3, [r7, #6]
 203 002a 9B09     		lsrs	r3, r3, #6
 204 002c 9BB2     		uxth	r3, r3
 205 002e 03F18043 		add	r3, r3, #1073741824
 206 0032 03F50E33 		add	r3, r3, #145408
 207 0036 1846     		mov	r0, r3
 208 0038 01EA0203 		and	r3, r1, r2
 209 003c 0360     		str	r3, [r0]
 136:C:/Users/leonardo/Desktop/Code/Github/DawnGBC/Libraries/FWLIB/src\gd32f4xx_rcu.c **** }
 210              		.loc 1 136 1
 211 003e 00BF     		nop
 212 0040 0C37     		adds	r7, r7, #12
 213              		.cfi_def_cfa_offset 4
 214 0042 BD46     		mov	sp, r7
 215              		.cfi_def_cfa_register 13
 216              		@ sp needed
 217 0044 80BC     		pop	{r7}
 218              		.cfi_restore 7
 219              		.cfi_def_cfa_offset 0
 220 0046 7047     		bx	lr
 221              		.cfi_endproc
 222              	.LFE125:
 224              		.section	.text.rcu_periph_clock_sleep_enable,"ax",%progbits
 225              		.align	1
 226              		.global	rcu_periph_clock_sleep_enable
 227              		.syntax unified
 228              		.thumb
 229              		.thumb_func
 230              		.fpu softvfp
 232              	rcu_periph_clock_sleep_enable:
 233              	.LFB126:
 137:C:/Users/leonardo/Desktop/Code/Github/DawnGBC/Libraries/FWLIB/src\gd32f4xx_rcu.c **** 
 138:C:/Users/leonardo/Desktop/Code/Github/DawnGBC/Libraries/FWLIB/src\gd32f4xx_rcu.c **** /*!
 139:C:/Users/leonardo/Desktop/Code/Github/DawnGBC/Libraries/FWLIB/src\gd32f4xx_rcu.c ****     \brief      enable the peripherals clock when sleep mode
 140:C:/Users/leonardo/Desktop/Code/Github/DawnGBC/Libraries/FWLIB/src\gd32f4xx_rcu.c ****     \param[in]  periph: RCU peripherals, refer to rcu_periph_sleep_enum
 141:C:/Users/leonardo/Desktop/Code/Github/DawnGBC/Libraries/FWLIB/src\gd32f4xx_rcu.c ****                 only one parameter can be selected which is shown as below:
 142:C:/Users/leonardo/Desktop/Code/Github/DawnGBC/Libraries/FWLIB/src\gd32f4xx_rcu.c ****       \arg        RCU_GPIOx_SLP (x=A,B,C,D,E,F,G,H,I): GPIO ports clock
 143:C:/Users/leonardo/Desktop/Code/Github/DawnGBC/Libraries/FWLIB/src\gd32f4xx_rcu.c ****       \arg        RCU_CRC_SLP: CRC clock
 144:C:/Users/leonardo/Desktop/Code/Github/DawnGBC/Libraries/FWLIB/src\gd32f4xx_rcu.c ****       \arg        RCU_FMC_SLP: FMC clock
 145:C:/Users/leonardo/Desktop/Code/Github/DawnGBC/Libraries/FWLIB/src\gd32f4xx_rcu.c ****       \arg        RCU_SRAM0_SLP: SRAM0 clock
 146:C:/Users/leonardo/Desktop/Code/Github/DawnGBC/Libraries/FWLIB/src\gd32f4xx_rcu.c ****       \arg        RCU_SRAM1_SLP: SRAM1 clock
 147:C:/Users/leonardo/Desktop/Code/Github/DawnGBC/Libraries/FWLIB/src\gd32f4xx_rcu.c ****       \arg        RCU_BKPSRAM: BKPSRAM clock
 148:C:/Users/leonardo/Desktop/Code/Github/DawnGBC/Libraries/FWLIB/src\gd32f4xx_rcu.c ****       \arg        RCU_SRAM2_SLP: SRAM2 clock
 149:C:/Users/leonardo/Desktop/Code/Github/DawnGBC/Libraries/FWLIB/src\gd32f4xx_rcu.c ****       \arg        RCU_DMAx_SLP (x=0,1): DMA clock
 150:C:/Users/leonardo/Desktop/Code/Github/DawnGBC/Libraries/FWLIB/src\gd32f4xx_rcu.c ****       \arg        RCU_IPA_SLP: IPA clock
 151:C:/Users/leonardo/Desktop/Code/Github/DawnGBC/Libraries/FWLIB/src\gd32f4xx_rcu.c ****       \arg        RCU_ENET_SLP: ENET clock
 152:C:/Users/leonardo/Desktop/Code/Github/DawnGBC/Libraries/FWLIB/src\gd32f4xx_rcu.c ****       \arg        RCU_ENETTX_SLP: ENETTX clock
 153:C:/Users/leonardo/Desktop/Code/Github/DawnGBC/Libraries/FWLIB/src\gd32f4xx_rcu.c ****       \arg        RCU_ENETRX_SLP: ENETRX clock
 154:C:/Users/leonardo/Desktop/Code/Github/DawnGBC/Libraries/FWLIB/src\gd32f4xx_rcu.c ****       \arg        RCU_ENETPTP_SLP: ENETPTP clock
 155:C:/Users/leonardo/Desktop/Code/Github/DawnGBC/Libraries/FWLIB/src\gd32f4xx_rcu.c ****       \arg        RCU_USBHS_SLP: USBHS clock
 156:C:/Users/leonardo/Desktop/Code/Github/DawnGBC/Libraries/FWLIB/src\gd32f4xx_rcu.c ****       \arg        RCU_USBHSULPI_SLP: USBHSULPI clock
 157:C:/Users/leonardo/Desktop/Code/Github/DawnGBC/Libraries/FWLIB/src\gd32f4xx_rcu.c ****       \arg        RCU_DCI_SLP: DCI clock
 158:C:/Users/leonardo/Desktop/Code/Github/DawnGBC/Libraries/FWLIB/src\gd32f4xx_rcu.c ****       \arg        RCU_TRNG_SLP: TRNG clock
 159:C:/Users/leonardo/Desktop/Code/Github/DawnGBC/Libraries/FWLIB/src\gd32f4xx_rcu.c ****       \arg        RCU_USBFS_SLP: USBFS clock
 160:C:/Users/leonardo/Desktop/Code/Github/DawnGBC/Libraries/FWLIB/src\gd32f4xx_rcu.c ****       \arg        RCU_EXMC_SLP: EXMC clock
 161:C:/Users/leonardo/Desktop/Code/Github/DawnGBC/Libraries/FWLIB/src\gd32f4xx_rcu.c ****       \arg        RCU_TIMERx_SLP (x=0,1,2,3,4,5,6,7,8,9,10,11,12,13): TIMER clock
 162:C:/Users/leonardo/Desktop/Code/Github/DawnGBC/Libraries/FWLIB/src\gd32f4xx_rcu.c ****       \arg        RCU_WWDGT_SLP: WWDGT clock
 163:C:/Users/leonardo/Desktop/Code/Github/DawnGBC/Libraries/FWLIB/src\gd32f4xx_rcu.c ****       \arg        RCU_SPIx_SLP (x=0,1,2,3,4,5): SPI clock
 164:C:/Users/leonardo/Desktop/Code/Github/DawnGBC/Libraries/FWLIB/src\gd32f4xx_rcu.c ****       \arg        RCU_USARTx_SLP (x=0,1,2,5): USART clock
 165:C:/Users/leonardo/Desktop/Code/Github/DawnGBC/Libraries/FWLIB/src\gd32f4xx_rcu.c ****       \arg        RCU_UARTx_SLP (x=3,4,6,7): UART clock
 166:C:/Users/leonardo/Desktop/Code/Github/DawnGBC/Libraries/FWLIB/src\gd32f4xx_rcu.c ****       \arg        RCU_I2Cx_SLP (x=0,1,2): I2C clock
 167:C:/Users/leonardo/Desktop/Code/Github/DawnGBC/Libraries/FWLIB/src\gd32f4xx_rcu.c ****       \arg        RCU_CANx_SLP (x=0,1): CAN clock
 168:C:/Users/leonardo/Desktop/Code/Github/DawnGBC/Libraries/FWLIB/src\gd32f4xx_rcu.c ****       \arg        RCU_PMU_SLP: PMU clock
 169:C:/Users/leonardo/Desktop/Code/Github/DawnGBC/Libraries/FWLIB/src\gd32f4xx_rcu.c ****       \arg        RCU_DAC_SLP: DAC clock
 170:C:/Users/leonardo/Desktop/Code/Github/DawnGBC/Libraries/FWLIB/src\gd32f4xx_rcu.c ****       \arg        RCU_RTC_SLP: RTC clock
 171:C:/Users/leonardo/Desktop/Code/Github/DawnGBC/Libraries/FWLIB/src\gd32f4xx_rcu.c ****       \arg        RCU_ADCx_SLP (x=0,1,2): ADC clock
 172:C:/Users/leonardo/Desktop/Code/Github/DawnGBC/Libraries/FWLIB/src\gd32f4xx_rcu.c ****       \arg        RCU_SDIO_SLP: SDIO clock
 173:C:/Users/leonardo/Desktop/Code/Github/DawnGBC/Libraries/FWLIB/src\gd32f4xx_rcu.c ****       \arg        RCU_SYSCFG_SLP: SYSCFG clock
 174:C:/Users/leonardo/Desktop/Code/Github/DawnGBC/Libraries/FWLIB/src\gd32f4xx_rcu.c ****       \arg        RCU_TLI_SLP: TLI clock
 175:C:/Users/leonardo/Desktop/Code/Github/DawnGBC/Libraries/FWLIB/src\gd32f4xx_rcu.c ****       \arg        RCU_CTC_SLP: CTC clock
 176:C:/Users/leonardo/Desktop/Code/Github/DawnGBC/Libraries/FWLIB/src\gd32f4xx_rcu.c ****       \arg        RCU_IREF_SLP: IREF clock
 177:C:/Users/leonardo/Desktop/Code/Github/DawnGBC/Libraries/FWLIB/src\gd32f4xx_rcu.c ****     \param[out] none
 178:C:/Users/leonardo/Desktop/Code/Github/DawnGBC/Libraries/FWLIB/src\gd32f4xx_rcu.c ****     \retval     none
 179:C:/Users/leonardo/Desktop/Code/Github/DawnGBC/Libraries/FWLIB/src\gd32f4xx_rcu.c **** */
 180:C:/Users/leonardo/Desktop/Code/Github/DawnGBC/Libraries/FWLIB/src\gd32f4xx_rcu.c **** void rcu_periph_clock_sleep_enable(rcu_periph_sleep_enum periph)
 181:C:/Users/leonardo/Desktop/Code/Github/DawnGBC/Libraries/FWLIB/src\gd32f4xx_rcu.c **** {
 234              		.loc 1 181 1
 235              		.cfi_startproc
 236              		@ args = 0, pretend = 0, frame = 8
 237              		@ frame_needed = 1, uses_anonymous_args = 0
 238              		@ link register save eliminated.
 239 0000 80B4     		push	{r7}
 240              		.cfi_def_cfa_offset 4
 241              		.cfi_offset 7, -4
 242 0002 83B0     		sub	sp, sp, #12
 243              		.cfi_def_cfa_offset 16
 244 0004 00AF     		add	r7, sp, #0
 245              		.cfi_def_cfa_register 7
 246 0006 0346     		mov	r3, r0
 247 0008 FB80     		strh	r3, [r7, #6]	@ movhi
 182:C:/Users/leonardo/Desktop/Code/Github/DawnGBC/Libraries/FWLIB/src\gd32f4xx_rcu.c ****     RCU_REG_VAL(periph) |= BIT(RCU_BIT_POS(periph));
 248              		.loc 1 182 25
 249 000a FB88     		ldrh	r3, [r7, #6]
 250 000c 9B09     		lsrs	r3, r3, #6
 251 000e 9BB2     		uxth	r3, r3
 252 0010 03F18043 		add	r3, r3, #1073741824
 253 0014 03F50E33 		add	r3, r3, #145408
 254 0018 1968     		ldr	r1, [r3]
 255              		.loc 1 182 28
 256 001a FB88     		ldrh	r3, [r7, #6]
 257 001c 03F01F03 		and	r3, r3, #31
 258 0020 0122     		movs	r2, #1
 259 0022 9A40     		lsls	r2, r2, r3
 260              		.loc 1 182 25
 261 0024 FB88     		ldrh	r3, [r7, #6]
 262 0026 9B09     		lsrs	r3, r3, #6
 263 0028 9BB2     		uxth	r3, r3
 264 002a 03F18043 		add	r3, r3, #1073741824
 265 002e 03F50E33 		add	r3, r3, #145408
 266 0032 1846     		mov	r0, r3
 267 0034 41EA0203 		orr	r3, r1, r2
 268 0038 0360     		str	r3, [r0]
 183:C:/Users/leonardo/Desktop/Code/Github/DawnGBC/Libraries/FWLIB/src\gd32f4xx_rcu.c **** }
 269              		.loc 1 183 1
 270 003a 00BF     		nop
 271 003c 0C37     		adds	r7, r7, #12
 272              		.cfi_def_cfa_offset 4
 273 003e BD46     		mov	sp, r7
 274              		.cfi_def_cfa_register 13
 275              		@ sp needed
 276 0040 80BC     		pop	{r7}
 277              		.cfi_restore 7
 278              		.cfi_def_cfa_offset 0
 279 0042 7047     		bx	lr
 280              		.cfi_endproc
 281              	.LFE126:
 283              		.section	.text.rcu_periph_clock_sleep_disable,"ax",%progbits
 284              		.align	1
 285              		.global	rcu_periph_clock_sleep_disable
 286              		.syntax unified
 287              		.thumb
 288              		.thumb_func
 289              		.fpu softvfp
 291              	rcu_periph_clock_sleep_disable:
 292              	.LFB127:
 184:C:/Users/leonardo/Desktop/Code/Github/DawnGBC/Libraries/FWLIB/src\gd32f4xx_rcu.c **** 
 185:C:/Users/leonardo/Desktop/Code/Github/DawnGBC/Libraries/FWLIB/src\gd32f4xx_rcu.c **** /*!
 186:C:/Users/leonardo/Desktop/Code/Github/DawnGBC/Libraries/FWLIB/src\gd32f4xx_rcu.c ****     \brief      disable the peripherals clock when sleep mode
 187:C:/Users/leonardo/Desktop/Code/Github/DawnGBC/Libraries/FWLIB/src\gd32f4xx_rcu.c ****     \param[in]  periph: RCU peripherals, refer to rcu_periph_sleep_enum
 188:C:/Users/leonardo/Desktop/Code/Github/DawnGBC/Libraries/FWLIB/src\gd32f4xx_rcu.c ****                 only one parameter can be selected which is shown as below:
 189:C:/Users/leonardo/Desktop/Code/Github/DawnGBC/Libraries/FWLIB/src\gd32f4xx_rcu.c ****       \arg        RCU_GPIOx_SLP (x=A,B,C,D,E,F,G,H,I): GPIO ports clock
 190:C:/Users/leonardo/Desktop/Code/Github/DawnGBC/Libraries/FWLIB/src\gd32f4xx_rcu.c ****       \arg        RCU_CRC_SLP: CRC clock
 191:C:/Users/leonardo/Desktop/Code/Github/DawnGBC/Libraries/FWLIB/src\gd32f4xx_rcu.c ****       \arg        RCU_FMC_SLP: FMC clock
 192:C:/Users/leonardo/Desktop/Code/Github/DawnGBC/Libraries/FWLIB/src\gd32f4xx_rcu.c ****       \arg        RCU_SRAM0_SLP: SRAM0 clock
 193:C:/Users/leonardo/Desktop/Code/Github/DawnGBC/Libraries/FWLIB/src\gd32f4xx_rcu.c ****       \arg        RCU_SRAM1_SLP: SRAM1 clock
 194:C:/Users/leonardo/Desktop/Code/Github/DawnGBC/Libraries/FWLIB/src\gd32f4xx_rcu.c ****       \arg        RCU_BKPSRAM: BKPSRAM clock
 195:C:/Users/leonardo/Desktop/Code/Github/DawnGBC/Libraries/FWLIB/src\gd32f4xx_rcu.c ****       \arg        RCU_SRAM2_SLP: SRAM2 clock
 196:C:/Users/leonardo/Desktop/Code/Github/DawnGBC/Libraries/FWLIB/src\gd32f4xx_rcu.c ****       \arg        RCU_DMAx_SLP (x=0,1): DMA clock
 197:C:/Users/leonardo/Desktop/Code/Github/DawnGBC/Libraries/FWLIB/src\gd32f4xx_rcu.c ****       \arg        RCU_IPA_SLP: IPA clock
 198:C:/Users/leonardo/Desktop/Code/Github/DawnGBC/Libraries/FWLIB/src\gd32f4xx_rcu.c ****       \arg        RCU_ENET_SLP: ENET clock
 199:C:/Users/leonardo/Desktop/Code/Github/DawnGBC/Libraries/FWLIB/src\gd32f4xx_rcu.c ****       \arg        RCU_ENETTX_SLP: ENETTX clock
 200:C:/Users/leonardo/Desktop/Code/Github/DawnGBC/Libraries/FWLIB/src\gd32f4xx_rcu.c ****       \arg        RCU_ENETRX_SLP: ENETRX clock
 201:C:/Users/leonardo/Desktop/Code/Github/DawnGBC/Libraries/FWLIB/src\gd32f4xx_rcu.c ****       \arg        RCU_ENETPTP_SLP: ENETPTP clock
 202:C:/Users/leonardo/Desktop/Code/Github/DawnGBC/Libraries/FWLIB/src\gd32f4xx_rcu.c ****       \arg        RCU_USBHS_SLP: USBHS clock
 203:C:/Users/leonardo/Desktop/Code/Github/DawnGBC/Libraries/FWLIB/src\gd32f4xx_rcu.c ****       \arg        RCU_USBHSULPI_SLP: USBHSULPI clock
 204:C:/Users/leonardo/Desktop/Code/Github/DawnGBC/Libraries/FWLIB/src\gd32f4xx_rcu.c ****       \arg        RCU_DCI_SLP: DCI clock
 205:C:/Users/leonardo/Desktop/Code/Github/DawnGBC/Libraries/FWLIB/src\gd32f4xx_rcu.c ****       \arg        RCU_TRNG_SLP: TRNG clock
 206:C:/Users/leonardo/Desktop/Code/Github/DawnGBC/Libraries/FWLIB/src\gd32f4xx_rcu.c ****       \arg        RCU_USBFS_SLP: USBFS clock
 207:C:/Users/leonardo/Desktop/Code/Github/DawnGBC/Libraries/FWLIB/src\gd32f4xx_rcu.c ****       \arg        RCU_EXMC_SLP: EXMC clock
 208:C:/Users/leonardo/Desktop/Code/Github/DawnGBC/Libraries/FWLIB/src\gd32f4xx_rcu.c ****       \arg        RCU_TIMERx_SLP (x=0,1,2,3,4,5,6,7,8,9,10,11,12,13): TIMER clock
 209:C:/Users/leonardo/Desktop/Code/Github/DawnGBC/Libraries/FWLIB/src\gd32f4xx_rcu.c ****       \arg        RCU_WWDGT_SLP: WWDGT clock
 210:C:/Users/leonardo/Desktop/Code/Github/DawnGBC/Libraries/FWLIB/src\gd32f4xx_rcu.c ****       \arg        RCU_SPIx_SLP (x=0,1,2,3,4,5): SPI clock
 211:C:/Users/leonardo/Desktop/Code/Github/DawnGBC/Libraries/FWLIB/src\gd32f4xx_rcu.c ****       \arg        RCU_USARTx_SLP (x=0,1,2,5): USART clock
 212:C:/Users/leonardo/Desktop/Code/Github/DawnGBC/Libraries/FWLIB/src\gd32f4xx_rcu.c ****       \arg        RCU_UARTx_SLP (x=3,4,6,7): UART clock
 213:C:/Users/leonardo/Desktop/Code/Github/DawnGBC/Libraries/FWLIB/src\gd32f4xx_rcu.c ****       \arg        RCU_I2Cx_SLP (x=0,1,2): I2C clock
 214:C:/Users/leonardo/Desktop/Code/Github/DawnGBC/Libraries/FWLIB/src\gd32f4xx_rcu.c ****       \arg        RCU_CANx_SLP (x=0,1): CAN clock
 215:C:/Users/leonardo/Desktop/Code/Github/DawnGBC/Libraries/FWLIB/src\gd32f4xx_rcu.c ****       \arg        RCU_PMU_SLP: PMU clock
 216:C:/Users/leonardo/Desktop/Code/Github/DawnGBC/Libraries/FWLIB/src\gd32f4xx_rcu.c ****       \arg        RCU_DAC_SLP: DAC clock
 217:C:/Users/leonardo/Desktop/Code/Github/DawnGBC/Libraries/FWLIB/src\gd32f4xx_rcu.c ****       \arg        RCU_RTC_SLP: RTC clock
 218:C:/Users/leonardo/Desktop/Code/Github/DawnGBC/Libraries/FWLIB/src\gd32f4xx_rcu.c ****       \arg        RCU_ADCx_SLP (x=0,1,2): ADC clock
 219:C:/Users/leonardo/Desktop/Code/Github/DawnGBC/Libraries/FWLIB/src\gd32f4xx_rcu.c ****       \arg        RCU_SDIO_SLP: SDIO clock
 220:C:/Users/leonardo/Desktop/Code/Github/DawnGBC/Libraries/FWLIB/src\gd32f4xx_rcu.c ****       \arg        RCU_SYSCFG_SLP: SYSCFG clock
 221:C:/Users/leonardo/Desktop/Code/Github/DawnGBC/Libraries/FWLIB/src\gd32f4xx_rcu.c ****       \arg        RCU_TLI_SLP: TLI clock
 222:C:/Users/leonardo/Desktop/Code/Github/DawnGBC/Libraries/FWLIB/src\gd32f4xx_rcu.c ****       \arg        RCU_CTC_SLP: CTC clock
 223:C:/Users/leonardo/Desktop/Code/Github/DawnGBC/Libraries/FWLIB/src\gd32f4xx_rcu.c ****       \arg        RCU_IREF_SLP: IREF clock
 224:C:/Users/leonardo/Desktop/Code/Github/DawnGBC/Libraries/FWLIB/src\gd32f4xx_rcu.c ****     \param[out] none
 225:C:/Users/leonardo/Desktop/Code/Github/DawnGBC/Libraries/FWLIB/src\gd32f4xx_rcu.c ****     \retval     none
 226:C:/Users/leonardo/Desktop/Code/Github/DawnGBC/Libraries/FWLIB/src\gd32f4xx_rcu.c **** */
 227:C:/Users/leonardo/Desktop/Code/Github/DawnGBC/Libraries/FWLIB/src\gd32f4xx_rcu.c **** void rcu_periph_clock_sleep_disable(rcu_periph_sleep_enum periph)
 228:C:/Users/leonardo/Desktop/Code/Github/DawnGBC/Libraries/FWLIB/src\gd32f4xx_rcu.c **** {
 293              		.loc 1 228 1
 294              		.cfi_startproc
 295              		@ args = 0, pretend = 0, frame = 8
 296              		@ frame_needed = 1, uses_anonymous_args = 0
 297              		@ link register save eliminated.
 298 0000 80B4     		push	{r7}
 299              		.cfi_def_cfa_offset 4
 300              		.cfi_offset 7, -4
 301 0002 83B0     		sub	sp, sp, #12
 302              		.cfi_def_cfa_offset 16
 303 0004 00AF     		add	r7, sp, #0
 304              		.cfi_def_cfa_register 7
 305 0006 0346     		mov	r3, r0
 306 0008 FB80     		strh	r3, [r7, #6]	@ movhi
 229:C:/Users/leonardo/Desktop/Code/Github/DawnGBC/Libraries/FWLIB/src\gd32f4xx_rcu.c ****     RCU_REG_VAL(periph) &= ~BIT(RCU_BIT_POS(periph));
 307              		.loc 1 229 25
 308 000a FB88     		ldrh	r3, [r7, #6]
 309 000c 9B09     		lsrs	r3, r3, #6
 310 000e 9BB2     		uxth	r3, r3
 311 0010 03F18043 		add	r3, r3, #1073741824
 312 0014 03F50E33 		add	r3, r3, #145408
 313 0018 1968     		ldr	r1, [r3]
 314              		.loc 1 229 29
 315 001a FB88     		ldrh	r3, [r7, #6]
 316 001c 03F01F03 		and	r3, r3, #31
 317 0020 0122     		movs	r2, #1
 318 0022 02FA03F3 		lsl	r3, r2, r3
 319              		.loc 1 229 28
 320 0026 DA43     		mvns	r2, r3
 321              		.loc 1 229 25
 322 0028 FB88     		ldrh	r3, [r7, #6]
 323 002a 9B09     		lsrs	r3, r3, #6
 324 002c 9BB2     		uxth	r3, r3
 325 002e 03F18043 		add	r3, r3, #1073741824
 326 0032 03F50E33 		add	r3, r3, #145408
 327 0036 1846     		mov	r0, r3
 328 0038 01EA0203 		and	r3, r1, r2
 329 003c 0360     		str	r3, [r0]
 230:C:/Users/leonardo/Desktop/Code/Github/DawnGBC/Libraries/FWLIB/src\gd32f4xx_rcu.c **** }
 330              		.loc 1 230 1
 331 003e 00BF     		nop
 332 0040 0C37     		adds	r7, r7, #12
 333              		.cfi_def_cfa_offset 4
 334 0042 BD46     		mov	sp, r7
 335              		.cfi_def_cfa_register 13
 336              		@ sp needed
 337 0044 80BC     		pop	{r7}
 338              		.cfi_restore 7
 339              		.cfi_def_cfa_offset 0
 340 0046 7047     		bx	lr
 341              		.cfi_endproc
 342              	.LFE127:
 344              		.section	.text.rcu_periph_reset_enable,"ax",%progbits
 345              		.align	1
 346              		.global	rcu_periph_reset_enable
 347              		.syntax unified
 348              		.thumb
 349              		.thumb_func
 350              		.fpu softvfp
 352              	rcu_periph_reset_enable:
 353              	.LFB128:
 231:C:/Users/leonardo/Desktop/Code/Github/DawnGBC/Libraries/FWLIB/src\gd32f4xx_rcu.c **** 
 232:C:/Users/leonardo/Desktop/Code/Github/DawnGBC/Libraries/FWLIB/src\gd32f4xx_rcu.c **** /*!
 233:C:/Users/leonardo/Desktop/Code/Github/DawnGBC/Libraries/FWLIB/src\gd32f4xx_rcu.c ****     \brief      reset the peripherals
 234:C:/Users/leonardo/Desktop/Code/Github/DawnGBC/Libraries/FWLIB/src\gd32f4xx_rcu.c ****     \param[in]  periph_reset: RCU peripherals reset, refer to rcu_periph_reset_enum
 235:C:/Users/leonardo/Desktop/Code/Github/DawnGBC/Libraries/FWLIB/src\gd32f4xx_rcu.c ****                 only one parameter can be selected which is shown as below:
 236:C:/Users/leonardo/Desktop/Code/Github/DawnGBC/Libraries/FWLIB/src\gd32f4xx_rcu.c ****       \arg        RCU_GPIOxRST (x=A,B,C,D,E,F,G,H,I): reset GPIO ports
 237:C:/Users/leonardo/Desktop/Code/Github/DawnGBC/Libraries/FWLIB/src\gd32f4xx_rcu.c ****       \arg        RCU_CRCRST: reset CRC
 238:C:/Users/leonardo/Desktop/Code/Github/DawnGBC/Libraries/FWLIB/src\gd32f4xx_rcu.c ****       \arg        RCU_DMAxRST (x=0,1): reset DMA
 239:C:/Users/leonardo/Desktop/Code/Github/DawnGBC/Libraries/FWLIB/src\gd32f4xx_rcu.c ****       \arg        RCU_IPARST: reset IPA
 240:C:/Users/leonardo/Desktop/Code/Github/DawnGBC/Libraries/FWLIB/src\gd32f4xx_rcu.c ****       \arg        RCU_ENETRST: reset ENET
 241:C:/Users/leonardo/Desktop/Code/Github/DawnGBC/Libraries/FWLIB/src\gd32f4xx_rcu.c ****       \arg        RCU_USBHSRST: reset USBHS
 242:C:/Users/leonardo/Desktop/Code/Github/DawnGBC/Libraries/FWLIB/src\gd32f4xx_rcu.c ****       \arg        RCU_DCIRST: reset DCI
 243:C:/Users/leonardo/Desktop/Code/Github/DawnGBC/Libraries/FWLIB/src\gd32f4xx_rcu.c ****       \arg        RCU_TRNGRST: reset TRNG
 244:C:/Users/leonardo/Desktop/Code/Github/DawnGBC/Libraries/FWLIB/src\gd32f4xx_rcu.c ****       \arg        RCU_USBFSRST: reset USBFS
 245:C:/Users/leonardo/Desktop/Code/Github/DawnGBC/Libraries/FWLIB/src\gd32f4xx_rcu.c ****       \arg        RCU_EXMCRST: reset EXMC
 246:C:/Users/leonardo/Desktop/Code/Github/DawnGBC/Libraries/FWLIB/src\gd32f4xx_rcu.c ****       \arg        RCU_TIMERxRST (x=0,1,2,3,4,5,6,7,8,9,10,11,12,13): reset TIMER
 247:C:/Users/leonardo/Desktop/Code/Github/DawnGBC/Libraries/FWLIB/src\gd32f4xx_rcu.c ****       \arg        RCU_WWDGTRST: reset WWDGT
 248:C:/Users/leonardo/Desktop/Code/Github/DawnGBC/Libraries/FWLIB/src\gd32f4xx_rcu.c ****       \arg        RCU_SPIxRST (x=0,1,2,3,4,5): reset SPI
 249:C:/Users/leonardo/Desktop/Code/Github/DawnGBC/Libraries/FWLIB/src\gd32f4xx_rcu.c ****       \arg        RCU_USARTxRST (x=0,1,2,5): reset USART
 250:C:/Users/leonardo/Desktop/Code/Github/DawnGBC/Libraries/FWLIB/src\gd32f4xx_rcu.c ****       \arg        RCU_UARTxRST (x=3,4,6,7): reset UART
 251:C:/Users/leonardo/Desktop/Code/Github/DawnGBC/Libraries/FWLIB/src\gd32f4xx_rcu.c ****       \arg        RCU_I2CxRST (x=0,1,2): reset I2C
 252:C:/Users/leonardo/Desktop/Code/Github/DawnGBC/Libraries/FWLIB/src\gd32f4xx_rcu.c ****       \arg        RCU_CANxRST (x=0,1): reset CAN
 253:C:/Users/leonardo/Desktop/Code/Github/DawnGBC/Libraries/FWLIB/src\gd32f4xx_rcu.c ****       \arg        RCU_PMURST: reset PMU
 254:C:/Users/leonardo/Desktop/Code/Github/DawnGBC/Libraries/FWLIB/src\gd32f4xx_rcu.c ****       \arg        RCU_DACRST: reset DAC
 255:C:/Users/leonardo/Desktop/Code/Github/DawnGBC/Libraries/FWLIB/src\gd32f4xx_rcu.c ****       \arg        RCU_ADCRST (x=0,1,2): reset ADC
 256:C:/Users/leonardo/Desktop/Code/Github/DawnGBC/Libraries/FWLIB/src\gd32f4xx_rcu.c ****       \arg        RCU_SDIORST: reset SDIO
 257:C:/Users/leonardo/Desktop/Code/Github/DawnGBC/Libraries/FWLIB/src\gd32f4xx_rcu.c ****       \arg        RCU_SYSCFGRST: reset SYSCFG
 258:C:/Users/leonardo/Desktop/Code/Github/DawnGBC/Libraries/FWLIB/src\gd32f4xx_rcu.c ****       \arg        RCU_TLIRST: reset TLI
 259:C:/Users/leonardo/Desktop/Code/Github/DawnGBC/Libraries/FWLIB/src\gd32f4xx_rcu.c ****       \arg        RCU_CTCRST: reset CTC
 260:C:/Users/leonardo/Desktop/Code/Github/DawnGBC/Libraries/FWLIB/src\gd32f4xx_rcu.c ****       \arg        RCU_IREFRST: reset IREF
 261:C:/Users/leonardo/Desktop/Code/Github/DawnGBC/Libraries/FWLIB/src\gd32f4xx_rcu.c ****     \param[out] none
 262:C:/Users/leonardo/Desktop/Code/Github/DawnGBC/Libraries/FWLIB/src\gd32f4xx_rcu.c ****     \retval     none
 263:C:/Users/leonardo/Desktop/Code/Github/DawnGBC/Libraries/FWLIB/src\gd32f4xx_rcu.c **** */
 264:C:/Users/leonardo/Desktop/Code/Github/DawnGBC/Libraries/FWLIB/src\gd32f4xx_rcu.c **** void rcu_periph_reset_enable(rcu_periph_reset_enum periph_reset)
 265:C:/Users/leonardo/Desktop/Code/Github/DawnGBC/Libraries/FWLIB/src\gd32f4xx_rcu.c **** {
 354              		.loc 1 265 1
 355              		.cfi_startproc
 356              		@ args = 0, pretend = 0, frame = 8
 357              		@ frame_needed = 1, uses_anonymous_args = 0
 358              		@ link register save eliminated.
 359 0000 80B4     		push	{r7}
 360              		.cfi_def_cfa_offset 4
 361              		.cfi_offset 7, -4
 362 0002 83B0     		sub	sp, sp, #12
 363              		.cfi_def_cfa_offset 16
 364 0004 00AF     		add	r7, sp, #0
 365              		.cfi_def_cfa_register 7
 366 0006 0346     		mov	r3, r0
 367 0008 FB80     		strh	r3, [r7, #6]	@ movhi
 266:C:/Users/leonardo/Desktop/Code/Github/DawnGBC/Libraries/FWLIB/src\gd32f4xx_rcu.c ****     RCU_REG_VAL(periph_reset) |= BIT(RCU_BIT_POS(periph_reset));
 368              		.loc 1 266 31
 369 000a FB88     		ldrh	r3, [r7, #6]
 370 000c 9B09     		lsrs	r3, r3, #6
 371 000e 9BB2     		uxth	r3, r3
 372 0010 03F18043 		add	r3, r3, #1073741824
 373 0014 03F50E33 		add	r3, r3, #145408
 374 0018 1968     		ldr	r1, [r3]
 375              		.loc 1 266 34
 376 001a FB88     		ldrh	r3, [r7, #6]
 377 001c 03F01F03 		and	r3, r3, #31
 378 0020 0122     		movs	r2, #1
 379 0022 9A40     		lsls	r2, r2, r3
 380              		.loc 1 266 31
 381 0024 FB88     		ldrh	r3, [r7, #6]
 382 0026 9B09     		lsrs	r3, r3, #6
 383 0028 9BB2     		uxth	r3, r3
 384 002a 03F18043 		add	r3, r3, #1073741824
 385 002e 03F50E33 		add	r3, r3, #145408
 386 0032 1846     		mov	r0, r3
 387 0034 41EA0203 		orr	r3, r1, r2
 388 0038 0360     		str	r3, [r0]
 267:C:/Users/leonardo/Desktop/Code/Github/DawnGBC/Libraries/FWLIB/src\gd32f4xx_rcu.c **** }
 389              		.loc 1 267 1
 390 003a 00BF     		nop
 391 003c 0C37     		adds	r7, r7, #12
 392              		.cfi_def_cfa_offset 4
 393 003e BD46     		mov	sp, r7
 394              		.cfi_def_cfa_register 13
 395              		@ sp needed
 396 0040 80BC     		pop	{r7}
 397              		.cfi_restore 7
 398              		.cfi_def_cfa_offset 0
 399 0042 7047     		bx	lr
 400              		.cfi_endproc
 401              	.LFE128:
 403              		.section	.text.rcu_periph_reset_disable,"ax",%progbits
 404              		.align	1
 405              		.global	rcu_periph_reset_disable
 406              		.syntax unified
 407              		.thumb
 408              		.thumb_func
 409              		.fpu softvfp
 411              	rcu_periph_reset_disable:
 412              	.LFB129:
 268:C:/Users/leonardo/Desktop/Code/Github/DawnGBC/Libraries/FWLIB/src\gd32f4xx_rcu.c **** 
 269:C:/Users/leonardo/Desktop/Code/Github/DawnGBC/Libraries/FWLIB/src\gd32f4xx_rcu.c **** /*!
 270:C:/Users/leonardo/Desktop/Code/Github/DawnGBC/Libraries/FWLIB/src\gd32f4xx_rcu.c ****     \brief      disable reset the peripheral
 271:C:/Users/leonardo/Desktop/Code/Github/DawnGBC/Libraries/FWLIB/src\gd32f4xx_rcu.c ****     \param[in]  periph_reset: RCU peripherals reset, refer to rcu_periph_reset_enum
 272:C:/Users/leonardo/Desktop/Code/Github/DawnGBC/Libraries/FWLIB/src\gd32f4xx_rcu.c ****                 only one parameter can be selected which is shown as below:
 273:C:/Users/leonardo/Desktop/Code/Github/DawnGBC/Libraries/FWLIB/src\gd32f4xx_rcu.c ****       \arg        RCU_GPIOxRST (x=A,B,C,D,E,F,G,H,I): reset GPIO ports
 274:C:/Users/leonardo/Desktop/Code/Github/DawnGBC/Libraries/FWLIB/src\gd32f4xx_rcu.c ****       \arg        RCU_CRCRST: reset CRC
 275:C:/Users/leonardo/Desktop/Code/Github/DawnGBC/Libraries/FWLIB/src\gd32f4xx_rcu.c ****       \arg        RCU_DMAxRST (x=0,1): reset DMA
 276:C:/Users/leonardo/Desktop/Code/Github/DawnGBC/Libraries/FWLIB/src\gd32f4xx_rcu.c ****       \arg        RCU_IPARST: reset IPA
 277:C:/Users/leonardo/Desktop/Code/Github/DawnGBC/Libraries/FWLIB/src\gd32f4xx_rcu.c ****       \arg        RCU_ENETRST: reset ENET
 278:C:/Users/leonardo/Desktop/Code/Github/DawnGBC/Libraries/FWLIB/src\gd32f4xx_rcu.c ****       \arg        RCU_USBHSRST: reset USBHS
 279:C:/Users/leonardo/Desktop/Code/Github/DawnGBC/Libraries/FWLIB/src\gd32f4xx_rcu.c ****       \arg        RCU_DCIRST: reset DCI
 280:C:/Users/leonardo/Desktop/Code/Github/DawnGBC/Libraries/FWLIB/src\gd32f4xx_rcu.c ****       \arg        RCU_TRNGRST: reset TRNG
 281:C:/Users/leonardo/Desktop/Code/Github/DawnGBC/Libraries/FWLIB/src\gd32f4xx_rcu.c ****       \arg        RCU_USBFSRST: reset USBFS
 282:C:/Users/leonardo/Desktop/Code/Github/DawnGBC/Libraries/FWLIB/src\gd32f4xx_rcu.c ****       \arg        RCU_EXMCRST: reset EXMC
 283:C:/Users/leonardo/Desktop/Code/Github/DawnGBC/Libraries/FWLIB/src\gd32f4xx_rcu.c ****       \arg        RCU_TIMERxRST (x=0,1,2,3,4,5,6,7,8,9,10,11,12,13): reset TIMER
 284:C:/Users/leonardo/Desktop/Code/Github/DawnGBC/Libraries/FWLIB/src\gd32f4xx_rcu.c ****       \arg        RCU_WWDGTRST: reset WWDGT
 285:C:/Users/leonardo/Desktop/Code/Github/DawnGBC/Libraries/FWLIB/src\gd32f4xx_rcu.c ****       \arg        RCU_SPIxRST (x=0,1,2,3,4,5): reset SPI
 286:C:/Users/leonardo/Desktop/Code/Github/DawnGBC/Libraries/FWLIB/src\gd32f4xx_rcu.c ****       \arg        RCU_USARTxRST (x=0,1,2,5): reset USART
 287:C:/Users/leonardo/Desktop/Code/Github/DawnGBC/Libraries/FWLIB/src\gd32f4xx_rcu.c ****       \arg        RCU_UARTxRST (x=3,4,6,7): reset UART
 288:C:/Users/leonardo/Desktop/Code/Github/DawnGBC/Libraries/FWLIB/src\gd32f4xx_rcu.c ****       \arg        RCU_I2CxRST (x=0,1,2): reset I2C
 289:C:/Users/leonardo/Desktop/Code/Github/DawnGBC/Libraries/FWLIB/src\gd32f4xx_rcu.c ****       \arg        RCU_CANxRST (x=0,1): reset CAN
 290:C:/Users/leonardo/Desktop/Code/Github/DawnGBC/Libraries/FWLIB/src\gd32f4xx_rcu.c ****       \arg        RCU_PMURST: reset PMU
 291:C:/Users/leonardo/Desktop/Code/Github/DawnGBC/Libraries/FWLIB/src\gd32f4xx_rcu.c ****       \arg        RCU_DACRST: reset DAC
 292:C:/Users/leonardo/Desktop/Code/Github/DawnGBC/Libraries/FWLIB/src\gd32f4xx_rcu.c ****       \arg        RCU_ADCRST (x=0,1,2): reset ADC
 293:C:/Users/leonardo/Desktop/Code/Github/DawnGBC/Libraries/FWLIB/src\gd32f4xx_rcu.c ****       \arg        RCU_SDIORST: reset SDIO
 294:C:/Users/leonardo/Desktop/Code/Github/DawnGBC/Libraries/FWLIB/src\gd32f4xx_rcu.c ****       \arg        RCU_SYSCFGRST: reset SYSCFG
 295:C:/Users/leonardo/Desktop/Code/Github/DawnGBC/Libraries/FWLIB/src\gd32f4xx_rcu.c ****       \arg        RCU_TLIRST: reset TLI
 296:C:/Users/leonardo/Desktop/Code/Github/DawnGBC/Libraries/FWLIB/src\gd32f4xx_rcu.c ****       \arg        RCU_CTCRST: reset CTC
 297:C:/Users/leonardo/Desktop/Code/Github/DawnGBC/Libraries/FWLIB/src\gd32f4xx_rcu.c ****       \arg        RCU_IREFRST: reset IREF
 298:C:/Users/leonardo/Desktop/Code/Github/DawnGBC/Libraries/FWLIB/src\gd32f4xx_rcu.c ****     \param[out] none
 299:C:/Users/leonardo/Desktop/Code/Github/DawnGBC/Libraries/FWLIB/src\gd32f4xx_rcu.c ****     \retval     none
 300:C:/Users/leonardo/Desktop/Code/Github/DawnGBC/Libraries/FWLIB/src\gd32f4xx_rcu.c **** */
 301:C:/Users/leonardo/Desktop/Code/Github/DawnGBC/Libraries/FWLIB/src\gd32f4xx_rcu.c **** void rcu_periph_reset_disable(rcu_periph_reset_enum periph_reset)
 302:C:/Users/leonardo/Desktop/Code/Github/DawnGBC/Libraries/FWLIB/src\gd32f4xx_rcu.c **** {
 413              		.loc 1 302 1
 414              		.cfi_startproc
 415              		@ args = 0, pretend = 0, frame = 8
 416              		@ frame_needed = 1, uses_anonymous_args = 0
 417              		@ link register save eliminated.
 418 0000 80B4     		push	{r7}
 419              		.cfi_def_cfa_offset 4
 420              		.cfi_offset 7, -4
 421 0002 83B0     		sub	sp, sp, #12
 422              		.cfi_def_cfa_offset 16
 423 0004 00AF     		add	r7, sp, #0
 424              		.cfi_def_cfa_register 7
 425 0006 0346     		mov	r3, r0
 426 0008 FB80     		strh	r3, [r7, #6]	@ movhi
 303:C:/Users/leonardo/Desktop/Code/Github/DawnGBC/Libraries/FWLIB/src\gd32f4xx_rcu.c ****     RCU_REG_VAL(periph_reset) &= ~BIT(RCU_BIT_POS(periph_reset));
 427              		.loc 1 303 31
 428 000a FB88     		ldrh	r3, [r7, #6]
 429 000c 9B09     		lsrs	r3, r3, #6
 430 000e 9BB2     		uxth	r3, r3
 431 0010 03F18043 		add	r3, r3, #1073741824
 432 0014 03F50E33 		add	r3, r3, #145408
 433 0018 1968     		ldr	r1, [r3]
 434              		.loc 1 303 35
 435 001a FB88     		ldrh	r3, [r7, #6]
 436 001c 03F01F03 		and	r3, r3, #31
 437 0020 0122     		movs	r2, #1
 438 0022 02FA03F3 		lsl	r3, r2, r3
 439              		.loc 1 303 34
 440 0026 DA43     		mvns	r2, r3
 441              		.loc 1 303 31
 442 0028 FB88     		ldrh	r3, [r7, #6]
 443 002a 9B09     		lsrs	r3, r3, #6
 444 002c 9BB2     		uxth	r3, r3
 445 002e 03F18043 		add	r3, r3, #1073741824
 446 0032 03F50E33 		add	r3, r3, #145408
 447 0036 1846     		mov	r0, r3
 448 0038 01EA0203 		and	r3, r1, r2
 449 003c 0360     		str	r3, [r0]
 304:C:/Users/leonardo/Desktop/Code/Github/DawnGBC/Libraries/FWLIB/src\gd32f4xx_rcu.c **** }
 450              		.loc 1 304 1
 451 003e 00BF     		nop
 452 0040 0C37     		adds	r7, r7, #12
 453              		.cfi_def_cfa_offset 4
 454 0042 BD46     		mov	sp, r7
 455              		.cfi_def_cfa_register 13
 456              		@ sp needed
 457 0044 80BC     		pop	{r7}
 458              		.cfi_restore 7
 459              		.cfi_def_cfa_offset 0
 460 0046 7047     		bx	lr
 461              		.cfi_endproc
 462              	.LFE129:
 464              		.section	.text.rcu_bkp_reset_enable,"ax",%progbits
 465              		.align	1
 466              		.global	rcu_bkp_reset_enable
 467              		.syntax unified
 468              		.thumb
 469              		.thumb_func
 470              		.fpu softvfp
 472              	rcu_bkp_reset_enable:
 473              	.LFB130:
 305:C:/Users/leonardo/Desktop/Code/Github/DawnGBC/Libraries/FWLIB/src\gd32f4xx_rcu.c **** 
 306:C:/Users/leonardo/Desktop/Code/Github/DawnGBC/Libraries/FWLIB/src\gd32f4xx_rcu.c **** /*!
 307:C:/Users/leonardo/Desktop/Code/Github/DawnGBC/Libraries/FWLIB/src\gd32f4xx_rcu.c ****     \brief      reset the BKP
 308:C:/Users/leonardo/Desktop/Code/Github/DawnGBC/Libraries/FWLIB/src\gd32f4xx_rcu.c ****     \param[in]  none
 309:C:/Users/leonardo/Desktop/Code/Github/DawnGBC/Libraries/FWLIB/src\gd32f4xx_rcu.c ****     \param[out] none
 310:C:/Users/leonardo/Desktop/Code/Github/DawnGBC/Libraries/FWLIB/src\gd32f4xx_rcu.c ****     \retval     none
 311:C:/Users/leonardo/Desktop/Code/Github/DawnGBC/Libraries/FWLIB/src\gd32f4xx_rcu.c **** */
 312:C:/Users/leonardo/Desktop/Code/Github/DawnGBC/Libraries/FWLIB/src\gd32f4xx_rcu.c **** void rcu_bkp_reset_enable(void)
 313:C:/Users/leonardo/Desktop/Code/Github/DawnGBC/Libraries/FWLIB/src\gd32f4xx_rcu.c **** {
 474              		.loc 1 313 1
 475              		.cfi_startproc
 476              		@ args = 0, pretend = 0, frame = 0
 477              		@ frame_needed = 1, uses_anonymous_args = 0
 478              		@ link register save eliminated.
 479 0000 80B4     		push	{r7}
 480              		.cfi_def_cfa_offset 4
 481              		.cfi_offset 7, -4
 482 0002 00AF     		add	r7, sp, #0
 483              		.cfi_def_cfa_register 7
 314:C:/Users/leonardo/Desktop/Code/Github/DawnGBC/Libraries/FWLIB/src\gd32f4xx_rcu.c ****     RCU_BDCTL |= RCU_BDCTL_BKPRST;
 484              		.loc 1 314 15
 485 0004 044B     		ldr	r3, .L11
 486 0006 1B68     		ldr	r3, [r3]
 487 0008 034A     		ldr	r2, .L11
 488 000a 43F48033 		orr	r3, r3, #65536
 489 000e 1360     		str	r3, [r2]
 315:C:/Users/leonardo/Desktop/Code/Github/DawnGBC/Libraries/FWLIB/src\gd32f4xx_rcu.c **** }
 490              		.loc 1 315 1
 491 0010 00BF     		nop
 492 0012 BD46     		mov	sp, r7
 493              		.cfi_def_cfa_register 13
 494              		@ sp needed
 495 0014 80BC     		pop	{r7}
 496              		.cfi_restore 7
 497              		.cfi_def_cfa_offset 0
 498 0016 7047     		bx	lr
 499              	.L12:
 500              		.align	2
 501              	.L11:
 502 0018 70380240 		.word	1073887344
 503              		.cfi_endproc
 504              	.LFE130:
 506              		.section	.text.rcu_bkp_reset_disable,"ax",%progbits
 507              		.align	1
 508              		.global	rcu_bkp_reset_disable
 509              		.syntax unified
 510              		.thumb
 511              		.thumb_func
 512              		.fpu softvfp
 514              	rcu_bkp_reset_disable:
 515              	.LFB131:
 316:C:/Users/leonardo/Desktop/Code/Github/DawnGBC/Libraries/FWLIB/src\gd32f4xx_rcu.c **** 
 317:C:/Users/leonardo/Desktop/Code/Github/DawnGBC/Libraries/FWLIB/src\gd32f4xx_rcu.c **** /*!
 318:C:/Users/leonardo/Desktop/Code/Github/DawnGBC/Libraries/FWLIB/src\gd32f4xx_rcu.c ****     \brief      disable the BKP reset
 319:C:/Users/leonardo/Desktop/Code/Github/DawnGBC/Libraries/FWLIB/src\gd32f4xx_rcu.c ****     \param[in]  none
 320:C:/Users/leonardo/Desktop/Code/Github/DawnGBC/Libraries/FWLIB/src\gd32f4xx_rcu.c ****     \param[out] none
 321:C:/Users/leonardo/Desktop/Code/Github/DawnGBC/Libraries/FWLIB/src\gd32f4xx_rcu.c ****     \retval     none
 322:C:/Users/leonardo/Desktop/Code/Github/DawnGBC/Libraries/FWLIB/src\gd32f4xx_rcu.c **** */
 323:C:/Users/leonardo/Desktop/Code/Github/DawnGBC/Libraries/FWLIB/src\gd32f4xx_rcu.c **** void rcu_bkp_reset_disable(void)
 324:C:/Users/leonardo/Desktop/Code/Github/DawnGBC/Libraries/FWLIB/src\gd32f4xx_rcu.c **** {
 516              		.loc 1 324 1
 517              		.cfi_startproc
 518              		@ args = 0, pretend = 0, frame = 0
 519              		@ frame_needed = 1, uses_anonymous_args = 0
 520              		@ link register save eliminated.
 521 0000 80B4     		push	{r7}
 522              		.cfi_def_cfa_offset 4
 523              		.cfi_offset 7, -4
 524 0002 00AF     		add	r7, sp, #0
 525              		.cfi_def_cfa_register 7
 325:C:/Users/leonardo/Desktop/Code/Github/DawnGBC/Libraries/FWLIB/src\gd32f4xx_rcu.c ****     RCU_BDCTL &= ~RCU_BDCTL_BKPRST;
 526              		.loc 1 325 15
 527 0004 044B     		ldr	r3, .L14
 528 0006 1B68     		ldr	r3, [r3]
 529 0008 034A     		ldr	r2, .L14
 530 000a 23F48033 		bic	r3, r3, #65536
 531 000e 1360     		str	r3, [r2]
 326:C:/Users/leonardo/Desktop/Code/Github/DawnGBC/Libraries/FWLIB/src\gd32f4xx_rcu.c **** }
 532              		.loc 1 326 1
 533 0010 00BF     		nop
 534 0012 BD46     		mov	sp, r7
 535              		.cfi_def_cfa_register 13
 536              		@ sp needed
 537 0014 80BC     		pop	{r7}
 538              		.cfi_restore 7
 539              		.cfi_def_cfa_offset 0
 540 0016 7047     		bx	lr
 541              	.L15:
 542              		.align	2
 543              	.L14:
 544 0018 70380240 		.word	1073887344
 545              		.cfi_endproc
 546              	.LFE131:
 548              		.section	.text.rcu_system_clock_source_config,"ax",%progbits
 549              		.align	1
 550              		.global	rcu_system_clock_source_config
 551              		.syntax unified
 552              		.thumb
 553              		.thumb_func
 554              		.fpu softvfp
 556              	rcu_system_clock_source_config:
 557              	.LFB132:
 327:C:/Users/leonardo/Desktop/Code/Github/DawnGBC/Libraries/FWLIB/src\gd32f4xx_rcu.c **** 
 328:C:/Users/leonardo/Desktop/Code/Github/DawnGBC/Libraries/FWLIB/src\gd32f4xx_rcu.c **** /*!
 329:C:/Users/leonardo/Desktop/Code/Github/DawnGBC/Libraries/FWLIB/src\gd32f4xx_rcu.c ****     \brief      configure the system clock source
 330:C:/Users/leonardo/Desktop/Code/Github/DawnGBC/Libraries/FWLIB/src\gd32f4xx_rcu.c ****     \param[in]  ck_sys: system clock source select
 331:C:/Users/leonardo/Desktop/Code/Github/DawnGBC/Libraries/FWLIB/src\gd32f4xx_rcu.c ****                 only one parameter can be selected which is shown as below:
 332:C:/Users/leonardo/Desktop/Code/Github/DawnGBC/Libraries/FWLIB/src\gd32f4xx_rcu.c ****       \arg        RCU_CKSYSSRC_IRC16M: select CK_IRC16M as the CK_SYS source
 333:C:/Users/leonardo/Desktop/Code/Github/DawnGBC/Libraries/FWLIB/src\gd32f4xx_rcu.c ****       \arg        RCU_CKSYSSRC_HXTAL: select CK_HXTAL as the CK_SYS source
 334:C:/Users/leonardo/Desktop/Code/Github/DawnGBC/Libraries/FWLIB/src\gd32f4xx_rcu.c ****       \arg        RCU_CKSYSSRC_PLLP: select CK_PLLP as the CK_SYS source
 335:C:/Users/leonardo/Desktop/Code/Github/DawnGBC/Libraries/FWLIB/src\gd32f4xx_rcu.c ****     \param[out] none
 336:C:/Users/leonardo/Desktop/Code/Github/DawnGBC/Libraries/FWLIB/src\gd32f4xx_rcu.c ****     \retval     none
 337:C:/Users/leonardo/Desktop/Code/Github/DawnGBC/Libraries/FWLIB/src\gd32f4xx_rcu.c **** */
 338:C:/Users/leonardo/Desktop/Code/Github/DawnGBC/Libraries/FWLIB/src\gd32f4xx_rcu.c **** void rcu_system_clock_source_config(uint32_t ck_sys)
 339:C:/Users/leonardo/Desktop/Code/Github/DawnGBC/Libraries/FWLIB/src\gd32f4xx_rcu.c **** {
 558              		.loc 1 339 1
 559              		.cfi_startproc
 560              		@ args = 0, pretend = 0, frame = 16
 561              		@ frame_needed = 1, uses_anonymous_args = 0
 562              		@ link register save eliminated.
 563 0000 80B4     		push	{r7}
 564              		.cfi_def_cfa_offset 4
 565              		.cfi_offset 7, -4
 566 0002 85B0     		sub	sp, sp, #20
 567              		.cfi_def_cfa_offset 24
 568 0004 00AF     		add	r7, sp, #0
 569              		.cfi_def_cfa_register 7
 570 0006 7860     		str	r0, [r7, #4]
 340:C:/Users/leonardo/Desktop/Code/Github/DawnGBC/Libraries/FWLIB/src\gd32f4xx_rcu.c ****     uint32_t reg;
 341:C:/Users/leonardo/Desktop/Code/Github/DawnGBC/Libraries/FWLIB/src\gd32f4xx_rcu.c ****     
 342:C:/Users/leonardo/Desktop/Code/Github/DawnGBC/Libraries/FWLIB/src\gd32f4xx_rcu.c ****     reg = RCU_CFG0;
 571              		.loc 1 342 11
 572 0008 084B     		ldr	r3, .L17
 573              		.loc 1 342 9
 574 000a 1B68     		ldr	r3, [r3]
 575 000c FB60     		str	r3, [r7, #12]
 343:C:/Users/leonardo/Desktop/Code/Github/DawnGBC/Libraries/FWLIB/src\gd32f4xx_rcu.c ****     /* reset the SCS bits and set according to ck_sys */
 344:C:/Users/leonardo/Desktop/Code/Github/DawnGBC/Libraries/FWLIB/src\gd32f4xx_rcu.c ****     reg &= ~RCU_CFG0_SCS;
 576              		.loc 1 344 9
 577 000e FB68     		ldr	r3, [r7, #12]
 578 0010 23F00303 		bic	r3, r3, #3
 579 0014 FB60     		str	r3, [r7, #12]
 345:C:/Users/leonardo/Desktop/Code/Github/DawnGBC/Libraries/FWLIB/src\gd32f4xx_rcu.c ****     RCU_CFG0 = (reg | ck_sys);
 580              		.loc 1 345 5
 581 0016 0549     		ldr	r1, .L17
 582              		.loc 1 345 21
 583 0018 FA68     		ldr	r2, [r7, #12]
 584 001a 7B68     		ldr	r3, [r7, #4]
 585 001c 1343     		orrs	r3, r3, r2
 586              		.loc 1 345 14
 587 001e 0B60     		str	r3, [r1]
 346:C:/Users/leonardo/Desktop/Code/Github/DawnGBC/Libraries/FWLIB/src\gd32f4xx_rcu.c **** }
 588              		.loc 1 346 1
 589 0020 00BF     		nop
 590 0022 1437     		adds	r7, r7, #20
 591              		.cfi_def_cfa_offset 4
 592 0024 BD46     		mov	sp, r7
 593              		.cfi_def_cfa_register 13
 594              		@ sp needed
 595 0026 80BC     		pop	{r7}
 596              		.cfi_restore 7
 597              		.cfi_def_cfa_offset 0
 598 0028 7047     		bx	lr
 599              	.L18:
 600 002a 00BF     		.align	2
 601              	.L17:
 602 002c 08380240 		.word	1073887240
 603              		.cfi_endproc
 604              	.LFE132:
 606              		.section	.text.rcu_system_clock_source_get,"ax",%progbits
 607              		.align	1
 608              		.global	rcu_system_clock_source_get
 609              		.syntax unified
 610              		.thumb
 611              		.thumb_func
 612              		.fpu softvfp
 614              	rcu_system_clock_source_get:
 615              	.LFB133:
 347:C:/Users/leonardo/Desktop/Code/Github/DawnGBC/Libraries/FWLIB/src\gd32f4xx_rcu.c **** 
 348:C:/Users/leonardo/Desktop/Code/Github/DawnGBC/Libraries/FWLIB/src\gd32f4xx_rcu.c **** /*!
 349:C:/Users/leonardo/Desktop/Code/Github/DawnGBC/Libraries/FWLIB/src\gd32f4xx_rcu.c ****     \brief      get the system clock source
 350:C:/Users/leonardo/Desktop/Code/Github/DawnGBC/Libraries/FWLIB/src\gd32f4xx_rcu.c ****     \param[in]  none
 351:C:/Users/leonardo/Desktop/Code/Github/DawnGBC/Libraries/FWLIB/src\gd32f4xx_rcu.c ****     \param[out] none
 352:C:/Users/leonardo/Desktop/Code/Github/DawnGBC/Libraries/FWLIB/src\gd32f4xx_rcu.c ****     \retval     which clock is selected as CK_SYS source
 353:C:/Users/leonardo/Desktop/Code/Github/DawnGBC/Libraries/FWLIB/src\gd32f4xx_rcu.c ****       \arg        RCU_SCSS_IRC16M: CK_IRC16M is selected as the CK_SYS source
 354:C:/Users/leonardo/Desktop/Code/Github/DawnGBC/Libraries/FWLIB/src\gd32f4xx_rcu.c ****       \arg        RCU_SCSS_HXTAL: CK_HXTAL is selected as the CK_SYS source
 355:C:/Users/leonardo/Desktop/Code/Github/DawnGBC/Libraries/FWLIB/src\gd32f4xx_rcu.c ****       \arg        RCU_SCSS_PLLP: CK_PLLP is selected as the CK_SYS source
 356:C:/Users/leonardo/Desktop/Code/Github/DawnGBC/Libraries/FWLIB/src\gd32f4xx_rcu.c **** */
 357:C:/Users/leonardo/Desktop/Code/Github/DawnGBC/Libraries/FWLIB/src\gd32f4xx_rcu.c **** uint32_t rcu_system_clock_source_get(void)
 358:C:/Users/leonardo/Desktop/Code/Github/DawnGBC/Libraries/FWLIB/src\gd32f4xx_rcu.c **** {
 616              		.loc 1 358 1
 617              		.cfi_startproc
 618              		@ args = 0, pretend = 0, frame = 0
 619              		@ frame_needed = 1, uses_anonymous_args = 0
 620              		@ link register save eliminated.
 621 0000 80B4     		push	{r7}
 622              		.cfi_def_cfa_offset 4
 623              		.cfi_offset 7, -4
 624 0002 00AF     		add	r7, sp, #0
 625              		.cfi_def_cfa_register 7
 359:C:/Users/leonardo/Desktop/Code/Github/DawnGBC/Libraries/FWLIB/src\gd32f4xx_rcu.c ****     return (RCU_CFG0 & RCU_CFG0_SCSS);
 626              		.loc 1 359 22
 627 0004 034B     		ldr	r3, .L21
 628 0006 1B68     		ldr	r3, [r3]
 629 0008 03F00C03 		and	r3, r3, #12
 360:C:/Users/leonardo/Desktop/Code/Github/DawnGBC/Libraries/FWLIB/src\gd32f4xx_rcu.c **** }
 630              		.loc 1 360 1
 631 000c 1846     		mov	r0, r3
 632 000e BD46     		mov	sp, r7
 633              		.cfi_def_cfa_register 13
 634              		@ sp needed
 635 0010 80BC     		pop	{r7}
 636              		.cfi_restore 7
 637              		.cfi_def_cfa_offset 0
 638 0012 7047     		bx	lr
 639              	.L22:
 640              		.align	2
 641              	.L21:
 642 0014 08380240 		.word	1073887240
 643              		.cfi_endproc
 644              	.LFE133:
 646              		.section	.text.rcu_ahb_clock_config,"ax",%progbits
 647              		.align	1
 648              		.global	rcu_ahb_clock_config
 649              		.syntax unified
 650              		.thumb
 651              		.thumb_func
 652              		.fpu softvfp
 654              	rcu_ahb_clock_config:
 655              	.LFB134:
 361:C:/Users/leonardo/Desktop/Code/Github/DawnGBC/Libraries/FWLIB/src\gd32f4xx_rcu.c **** 
 362:C:/Users/leonardo/Desktop/Code/Github/DawnGBC/Libraries/FWLIB/src\gd32f4xx_rcu.c **** /*!
 363:C:/Users/leonardo/Desktop/Code/Github/DawnGBC/Libraries/FWLIB/src\gd32f4xx_rcu.c ****     \brief      configure the AHB clock prescaler selection
 364:C:/Users/leonardo/Desktop/Code/Github/DawnGBC/Libraries/FWLIB/src\gd32f4xx_rcu.c ****     \param[in]  ck_ahb: AHB clock prescaler selection
 365:C:/Users/leonardo/Desktop/Code/Github/DawnGBC/Libraries/FWLIB/src\gd32f4xx_rcu.c ****                 only one parameter can be selected which is shown as below:
 366:C:/Users/leonardo/Desktop/Code/Github/DawnGBC/Libraries/FWLIB/src\gd32f4xx_rcu.c ****       \arg        RCU_AHB_CKSYS_DIVx, x=1, 2, 4, 8, 16, 64, 128, 256, 512
 367:C:/Users/leonardo/Desktop/Code/Github/DawnGBC/Libraries/FWLIB/src\gd32f4xx_rcu.c ****     \param[out] none
 368:C:/Users/leonardo/Desktop/Code/Github/DawnGBC/Libraries/FWLIB/src\gd32f4xx_rcu.c ****     \retval     none
 369:C:/Users/leonardo/Desktop/Code/Github/DawnGBC/Libraries/FWLIB/src\gd32f4xx_rcu.c **** */
 370:C:/Users/leonardo/Desktop/Code/Github/DawnGBC/Libraries/FWLIB/src\gd32f4xx_rcu.c **** void rcu_ahb_clock_config(uint32_t ck_ahb)
 371:C:/Users/leonardo/Desktop/Code/Github/DawnGBC/Libraries/FWLIB/src\gd32f4xx_rcu.c **** {
 656              		.loc 1 371 1
 657              		.cfi_startproc
 658              		@ args = 0, pretend = 0, frame = 16
 659              		@ frame_needed = 1, uses_anonymous_args = 0
 660              		@ link register save eliminated.
 661 0000 80B4     		push	{r7}
 662              		.cfi_def_cfa_offset 4
 663              		.cfi_offset 7, -4
 664 0002 85B0     		sub	sp, sp, #20
 665              		.cfi_def_cfa_offset 24
 666 0004 00AF     		add	r7, sp, #0
 667              		.cfi_def_cfa_register 7
 668 0006 7860     		str	r0, [r7, #4]
 372:C:/Users/leonardo/Desktop/Code/Github/DawnGBC/Libraries/FWLIB/src\gd32f4xx_rcu.c ****     uint32_t reg;
 373:C:/Users/leonardo/Desktop/Code/Github/DawnGBC/Libraries/FWLIB/src\gd32f4xx_rcu.c ****     
 374:C:/Users/leonardo/Desktop/Code/Github/DawnGBC/Libraries/FWLIB/src\gd32f4xx_rcu.c ****     reg = RCU_CFG0;
 669              		.loc 1 374 11
 670 0008 084B     		ldr	r3, .L24
 671              		.loc 1 374 9
 672 000a 1B68     		ldr	r3, [r3]
 673 000c FB60     		str	r3, [r7, #12]
 375:C:/Users/leonardo/Desktop/Code/Github/DawnGBC/Libraries/FWLIB/src\gd32f4xx_rcu.c ****     /* reset the AHBPSC bits and set according to ck_ahb */
 376:C:/Users/leonardo/Desktop/Code/Github/DawnGBC/Libraries/FWLIB/src\gd32f4xx_rcu.c ****     reg &= ~RCU_CFG0_AHBPSC;
 674              		.loc 1 376 9
 675 000e FB68     		ldr	r3, [r7, #12]
 676 0010 23F0F003 		bic	r3, r3, #240
 677 0014 FB60     		str	r3, [r7, #12]
 377:C:/Users/leonardo/Desktop/Code/Github/DawnGBC/Libraries/FWLIB/src\gd32f4xx_rcu.c ****     RCU_CFG0 = (reg | ck_ahb);
 678              		.loc 1 377 5
 679 0016 0549     		ldr	r1, .L24
 680              		.loc 1 377 21
 681 0018 FA68     		ldr	r2, [r7, #12]
 682 001a 7B68     		ldr	r3, [r7, #4]
 683 001c 1343     		orrs	r3, r3, r2
 684              		.loc 1 377 14
 685 001e 0B60     		str	r3, [r1]
 378:C:/Users/leonardo/Desktop/Code/Github/DawnGBC/Libraries/FWLIB/src\gd32f4xx_rcu.c **** }
 686              		.loc 1 378 1
 687 0020 00BF     		nop
 688 0022 1437     		adds	r7, r7, #20
 689              		.cfi_def_cfa_offset 4
 690 0024 BD46     		mov	sp, r7
 691              		.cfi_def_cfa_register 13
 692              		@ sp needed
 693 0026 80BC     		pop	{r7}
 694              		.cfi_restore 7
 695              		.cfi_def_cfa_offset 0
 696 0028 7047     		bx	lr
 697              	.L25:
 698 002a 00BF     		.align	2
 699              	.L24:
 700 002c 08380240 		.word	1073887240
 701              		.cfi_endproc
 702              	.LFE134:
 704              		.section	.text.rcu_apb1_clock_config,"ax",%progbits
 705              		.align	1
 706              		.global	rcu_apb1_clock_config
 707              		.syntax unified
 708              		.thumb
 709              		.thumb_func
 710              		.fpu softvfp
 712              	rcu_apb1_clock_config:
 713              	.LFB135:
 379:C:/Users/leonardo/Desktop/Code/Github/DawnGBC/Libraries/FWLIB/src\gd32f4xx_rcu.c **** 
 380:C:/Users/leonardo/Desktop/Code/Github/DawnGBC/Libraries/FWLIB/src\gd32f4xx_rcu.c **** /*!
 381:C:/Users/leonardo/Desktop/Code/Github/DawnGBC/Libraries/FWLIB/src\gd32f4xx_rcu.c ****     \brief      configure the APB1 clock prescaler selection
 382:C:/Users/leonardo/Desktop/Code/Github/DawnGBC/Libraries/FWLIB/src\gd32f4xx_rcu.c ****     \param[in]  ck_apb1: APB1 clock prescaler selection
 383:C:/Users/leonardo/Desktop/Code/Github/DawnGBC/Libraries/FWLIB/src\gd32f4xx_rcu.c ****                 only one parameter can be selected which is shown as below:
 384:C:/Users/leonardo/Desktop/Code/Github/DawnGBC/Libraries/FWLIB/src\gd32f4xx_rcu.c ****       \arg        RCU_APB1_CKAHB_DIV1: select CK_AHB as CK_APB1
 385:C:/Users/leonardo/Desktop/Code/Github/DawnGBC/Libraries/FWLIB/src\gd32f4xx_rcu.c ****       \arg        RCU_APB1_CKAHB_DIV2: select CK_AHB/2 as CK_APB1
 386:C:/Users/leonardo/Desktop/Code/Github/DawnGBC/Libraries/FWLIB/src\gd32f4xx_rcu.c ****       \arg        RCU_APB1_CKAHB_DIV4: select CK_AHB/4 as CK_APB1
 387:C:/Users/leonardo/Desktop/Code/Github/DawnGBC/Libraries/FWLIB/src\gd32f4xx_rcu.c ****       \arg        RCU_APB1_CKAHB_DIV8: select CK_AHB/8 as CK_APB1
 388:C:/Users/leonardo/Desktop/Code/Github/DawnGBC/Libraries/FWLIB/src\gd32f4xx_rcu.c ****       \arg        RCU_APB1_CKAHB_DIV16: select CK_AHB/16 as CK_APB1
 389:C:/Users/leonardo/Desktop/Code/Github/DawnGBC/Libraries/FWLIB/src\gd32f4xx_rcu.c ****     \param[out] none
 390:C:/Users/leonardo/Desktop/Code/Github/DawnGBC/Libraries/FWLIB/src\gd32f4xx_rcu.c ****     \retval     none
 391:C:/Users/leonardo/Desktop/Code/Github/DawnGBC/Libraries/FWLIB/src\gd32f4xx_rcu.c **** */
 392:C:/Users/leonardo/Desktop/Code/Github/DawnGBC/Libraries/FWLIB/src\gd32f4xx_rcu.c **** void rcu_apb1_clock_config(uint32_t ck_apb1)
 393:C:/Users/leonardo/Desktop/Code/Github/DawnGBC/Libraries/FWLIB/src\gd32f4xx_rcu.c **** {
 714              		.loc 1 393 1
 715              		.cfi_startproc
 716              		@ args = 0, pretend = 0, frame = 16
 717              		@ frame_needed = 1, uses_anonymous_args = 0
 718              		@ link register save eliminated.
 719 0000 80B4     		push	{r7}
 720              		.cfi_def_cfa_offset 4
 721              		.cfi_offset 7, -4
 722 0002 85B0     		sub	sp, sp, #20
 723              		.cfi_def_cfa_offset 24
 724 0004 00AF     		add	r7, sp, #0
 725              		.cfi_def_cfa_register 7
 726 0006 7860     		str	r0, [r7, #4]
 394:C:/Users/leonardo/Desktop/Code/Github/DawnGBC/Libraries/FWLIB/src\gd32f4xx_rcu.c ****     uint32_t reg;
 395:C:/Users/leonardo/Desktop/Code/Github/DawnGBC/Libraries/FWLIB/src\gd32f4xx_rcu.c ****     
 396:C:/Users/leonardo/Desktop/Code/Github/DawnGBC/Libraries/FWLIB/src\gd32f4xx_rcu.c ****     reg = RCU_CFG0;
 727              		.loc 1 396 11
 728 0008 084B     		ldr	r3, .L27
 729              		.loc 1 396 9
 730 000a 1B68     		ldr	r3, [r3]
 731 000c FB60     		str	r3, [r7, #12]
 397:C:/Users/leonardo/Desktop/Code/Github/DawnGBC/Libraries/FWLIB/src\gd32f4xx_rcu.c ****     /* reset the APB1PSC and set according to ck_apb1 */
 398:C:/Users/leonardo/Desktop/Code/Github/DawnGBC/Libraries/FWLIB/src\gd32f4xx_rcu.c ****     reg &= ~RCU_CFG0_APB1PSC;
 732              		.loc 1 398 9
 733 000e FB68     		ldr	r3, [r7, #12]
 734 0010 23F4E053 		bic	r3, r3, #7168
 735 0014 FB60     		str	r3, [r7, #12]
 399:C:/Users/leonardo/Desktop/Code/Github/DawnGBC/Libraries/FWLIB/src\gd32f4xx_rcu.c ****     RCU_CFG0 = (reg | ck_apb1);
 736              		.loc 1 399 5
 737 0016 0549     		ldr	r1, .L27
 738              		.loc 1 399 21
 739 0018 FA68     		ldr	r2, [r7, #12]
 740 001a 7B68     		ldr	r3, [r7, #4]
 741 001c 1343     		orrs	r3, r3, r2
 742              		.loc 1 399 14
 743 001e 0B60     		str	r3, [r1]
 400:C:/Users/leonardo/Desktop/Code/Github/DawnGBC/Libraries/FWLIB/src\gd32f4xx_rcu.c **** }
 744              		.loc 1 400 1
 745 0020 00BF     		nop
 746 0022 1437     		adds	r7, r7, #20
 747              		.cfi_def_cfa_offset 4
 748 0024 BD46     		mov	sp, r7
 749              		.cfi_def_cfa_register 13
 750              		@ sp needed
 751 0026 80BC     		pop	{r7}
 752              		.cfi_restore 7
 753              		.cfi_def_cfa_offset 0
 754 0028 7047     		bx	lr
 755              	.L28:
 756 002a 00BF     		.align	2
 757              	.L27:
 758 002c 08380240 		.word	1073887240
 759              		.cfi_endproc
 760              	.LFE135:
 762              		.section	.text.rcu_apb2_clock_config,"ax",%progbits
 763              		.align	1
 764              		.global	rcu_apb2_clock_config
 765              		.syntax unified
 766              		.thumb
 767              		.thumb_func
 768              		.fpu softvfp
 770              	rcu_apb2_clock_config:
 771              	.LFB136:
 401:C:/Users/leonardo/Desktop/Code/Github/DawnGBC/Libraries/FWLIB/src\gd32f4xx_rcu.c **** 
 402:C:/Users/leonardo/Desktop/Code/Github/DawnGBC/Libraries/FWLIB/src\gd32f4xx_rcu.c **** /*!
 403:C:/Users/leonardo/Desktop/Code/Github/DawnGBC/Libraries/FWLIB/src\gd32f4xx_rcu.c ****     \brief      configure the APB2 clock prescaler selection
 404:C:/Users/leonardo/Desktop/Code/Github/DawnGBC/Libraries/FWLIB/src\gd32f4xx_rcu.c ****     \param[in]  ck_apb2: APB2 clock prescaler selection
 405:C:/Users/leonardo/Desktop/Code/Github/DawnGBC/Libraries/FWLIB/src\gd32f4xx_rcu.c ****                 only one parameter can be selected which is shown as below:
 406:C:/Users/leonardo/Desktop/Code/Github/DawnGBC/Libraries/FWLIB/src\gd32f4xx_rcu.c ****       \arg        RCU_APB2_CKAHB_DIV1: select CK_AHB as CK_APB2
 407:C:/Users/leonardo/Desktop/Code/Github/DawnGBC/Libraries/FWLIB/src\gd32f4xx_rcu.c ****       \arg        RCU_APB2_CKAHB_DIV2: select CK_AHB/2 as CK_APB2
 408:C:/Users/leonardo/Desktop/Code/Github/DawnGBC/Libraries/FWLIB/src\gd32f4xx_rcu.c ****       \arg        RCU_APB2_CKAHB_DIV4: select CK_AHB/4 as CK_APB2
 409:C:/Users/leonardo/Desktop/Code/Github/DawnGBC/Libraries/FWLIB/src\gd32f4xx_rcu.c ****       \arg        RCU_APB2_CKAHB_DIV8: select CK_AHB/8 as CK_APB2
 410:C:/Users/leonardo/Desktop/Code/Github/DawnGBC/Libraries/FWLIB/src\gd32f4xx_rcu.c ****       \arg        RCU_APB2_CKAHB_DIV16: select CK_AHB/16 as CK_APB2
 411:C:/Users/leonardo/Desktop/Code/Github/DawnGBC/Libraries/FWLIB/src\gd32f4xx_rcu.c ****     \param[out] none
 412:C:/Users/leonardo/Desktop/Code/Github/DawnGBC/Libraries/FWLIB/src\gd32f4xx_rcu.c ****     \retval     none
 413:C:/Users/leonardo/Desktop/Code/Github/DawnGBC/Libraries/FWLIB/src\gd32f4xx_rcu.c **** */
 414:C:/Users/leonardo/Desktop/Code/Github/DawnGBC/Libraries/FWLIB/src\gd32f4xx_rcu.c **** void rcu_apb2_clock_config(uint32_t ck_apb2)
 415:C:/Users/leonardo/Desktop/Code/Github/DawnGBC/Libraries/FWLIB/src\gd32f4xx_rcu.c **** {
 772              		.loc 1 415 1
 773              		.cfi_startproc
 774              		@ args = 0, pretend = 0, frame = 16
 775              		@ frame_needed = 1, uses_anonymous_args = 0
 776              		@ link register save eliminated.
 777 0000 80B4     		push	{r7}
 778              		.cfi_def_cfa_offset 4
 779              		.cfi_offset 7, -4
 780 0002 85B0     		sub	sp, sp, #20
 781              		.cfi_def_cfa_offset 24
 782 0004 00AF     		add	r7, sp, #0
 783              		.cfi_def_cfa_register 7
 784 0006 7860     		str	r0, [r7, #4]
 416:C:/Users/leonardo/Desktop/Code/Github/DawnGBC/Libraries/FWLIB/src\gd32f4xx_rcu.c ****     uint32_t reg;
 417:C:/Users/leonardo/Desktop/Code/Github/DawnGBC/Libraries/FWLIB/src\gd32f4xx_rcu.c ****     
 418:C:/Users/leonardo/Desktop/Code/Github/DawnGBC/Libraries/FWLIB/src\gd32f4xx_rcu.c ****     reg = RCU_CFG0;
 785              		.loc 1 418 11
 786 0008 084B     		ldr	r3, .L30
 787              		.loc 1 418 9
 788 000a 1B68     		ldr	r3, [r3]
 789 000c FB60     		str	r3, [r7, #12]
 419:C:/Users/leonardo/Desktop/Code/Github/DawnGBC/Libraries/FWLIB/src\gd32f4xx_rcu.c ****     /* reset the APB2PSC and set according to ck_apb2 */
 420:C:/Users/leonardo/Desktop/Code/Github/DawnGBC/Libraries/FWLIB/src\gd32f4xx_rcu.c ****     reg &= ~RCU_CFG0_APB2PSC;
 790              		.loc 1 420 9
 791 000e FB68     		ldr	r3, [r7, #12]
 792 0010 23F46043 		bic	r3, r3, #57344
 793 0014 FB60     		str	r3, [r7, #12]
 421:C:/Users/leonardo/Desktop/Code/Github/DawnGBC/Libraries/FWLIB/src\gd32f4xx_rcu.c ****     RCU_CFG0 = (reg | ck_apb2);
 794              		.loc 1 421 5
 795 0016 0549     		ldr	r1, .L30
 796              		.loc 1 421 21
 797 0018 FA68     		ldr	r2, [r7, #12]
 798 001a 7B68     		ldr	r3, [r7, #4]
 799 001c 1343     		orrs	r3, r3, r2
 800              		.loc 1 421 14
 801 001e 0B60     		str	r3, [r1]
 422:C:/Users/leonardo/Desktop/Code/Github/DawnGBC/Libraries/FWLIB/src\gd32f4xx_rcu.c **** }
 802              		.loc 1 422 1
 803 0020 00BF     		nop
 804 0022 1437     		adds	r7, r7, #20
 805              		.cfi_def_cfa_offset 4
 806 0024 BD46     		mov	sp, r7
 807              		.cfi_def_cfa_register 13
 808              		@ sp needed
 809 0026 80BC     		pop	{r7}
 810              		.cfi_restore 7
 811              		.cfi_def_cfa_offset 0
 812 0028 7047     		bx	lr
 813              	.L31:
 814 002a 00BF     		.align	2
 815              	.L30:
 816 002c 08380240 		.word	1073887240
 817              		.cfi_endproc
 818              	.LFE136:
 820              		.section	.text.rcu_ckout0_config,"ax",%progbits
 821              		.align	1
 822              		.global	rcu_ckout0_config
 823              		.syntax unified
 824              		.thumb
 825              		.thumb_func
 826              		.fpu softvfp
 828              	rcu_ckout0_config:
 829              	.LFB137:
 423:C:/Users/leonardo/Desktop/Code/Github/DawnGBC/Libraries/FWLIB/src\gd32f4xx_rcu.c **** 
 424:C:/Users/leonardo/Desktop/Code/Github/DawnGBC/Libraries/FWLIB/src\gd32f4xx_rcu.c **** /*!
 425:C:/Users/leonardo/Desktop/Code/Github/DawnGBC/Libraries/FWLIB/src\gd32f4xx_rcu.c ****     \brief      configure the CK_OUT0 clock source and divider
 426:C:/Users/leonardo/Desktop/Code/Github/DawnGBC/Libraries/FWLIB/src\gd32f4xx_rcu.c ****     \param[in]  ckout0_src: CK_OUT0 clock source selection
 427:C:/Users/leonardo/Desktop/Code/Github/DawnGBC/Libraries/FWLIB/src\gd32f4xx_rcu.c ****                 only one parameter can be selected which is shown as below:
 428:C:/Users/leonardo/Desktop/Code/Github/DawnGBC/Libraries/FWLIB/src\gd32f4xx_rcu.c ****       \arg        RCU_CKOUT0SRC_IRC16M: IRC16M selected
 429:C:/Users/leonardo/Desktop/Code/Github/DawnGBC/Libraries/FWLIB/src\gd32f4xx_rcu.c ****       \arg        RCU_CKOUT0SRC_LXTAL: LXTAL selected
 430:C:/Users/leonardo/Desktop/Code/Github/DawnGBC/Libraries/FWLIB/src\gd32f4xx_rcu.c ****       \arg        RCU_CKOUT0SRC_HXTAL: HXTAL selected
 431:C:/Users/leonardo/Desktop/Code/Github/DawnGBC/Libraries/FWLIB/src\gd32f4xx_rcu.c ****       \arg        RCU_CKOUT0SRC_PLLP: PLLP selected
 432:C:/Users/leonardo/Desktop/Code/Github/DawnGBC/Libraries/FWLIB/src\gd32f4xx_rcu.c ****     \param[in]  ckout0_div: CK_OUT0 divider 
 433:C:/Users/leonardo/Desktop/Code/Github/DawnGBC/Libraries/FWLIB/src\gd32f4xx_rcu.c ****       \arg        RCU_CKOUT0_DIVx(x=1,2,3,4,5): CK_OUT0 is divided by x
 434:C:/Users/leonardo/Desktop/Code/Github/DawnGBC/Libraries/FWLIB/src\gd32f4xx_rcu.c ****     \param[out] none
 435:C:/Users/leonardo/Desktop/Code/Github/DawnGBC/Libraries/FWLIB/src\gd32f4xx_rcu.c ****     \retval     none
 436:C:/Users/leonardo/Desktop/Code/Github/DawnGBC/Libraries/FWLIB/src\gd32f4xx_rcu.c **** */
 437:C:/Users/leonardo/Desktop/Code/Github/DawnGBC/Libraries/FWLIB/src\gd32f4xx_rcu.c **** void rcu_ckout0_config(uint32_t ckout0_src, uint32_t ckout0_div)
 438:C:/Users/leonardo/Desktop/Code/Github/DawnGBC/Libraries/FWLIB/src\gd32f4xx_rcu.c **** {
 830              		.loc 1 438 1
 831              		.cfi_startproc
 832              		@ args = 0, pretend = 0, frame = 16
 833              		@ frame_needed = 1, uses_anonymous_args = 0
 834              		@ link register save eliminated.
 835 0000 80B4     		push	{r7}
 836              		.cfi_def_cfa_offset 4
 837              		.cfi_offset 7, -4
 838 0002 85B0     		sub	sp, sp, #20
 839              		.cfi_def_cfa_offset 24
 840 0004 00AF     		add	r7, sp, #0
 841              		.cfi_def_cfa_register 7
 842 0006 7860     		str	r0, [r7, #4]
 843 0008 3960     		str	r1, [r7]
 439:C:/Users/leonardo/Desktop/Code/Github/DawnGBC/Libraries/FWLIB/src\gd32f4xx_rcu.c ****     uint32_t reg;
 440:C:/Users/leonardo/Desktop/Code/Github/DawnGBC/Libraries/FWLIB/src\gd32f4xx_rcu.c ****     
 441:C:/Users/leonardo/Desktop/Code/Github/DawnGBC/Libraries/FWLIB/src\gd32f4xx_rcu.c ****     reg = RCU_CFG0;
 844              		.loc 1 441 11
 845 000a 094B     		ldr	r3, .L33
 846              		.loc 1 441 9
 847 000c 1B68     		ldr	r3, [r3]
 848 000e FB60     		str	r3, [r7, #12]
 442:C:/Users/leonardo/Desktop/Code/Github/DawnGBC/Libraries/FWLIB/src\gd32f4xx_rcu.c ****     /* reset the CKOUT0SRC, CKOUT0DIV and set according to ckout0_src and ckout0_div */
 443:C:/Users/leonardo/Desktop/Code/Github/DawnGBC/Libraries/FWLIB/src\gd32f4xx_rcu.c ****     reg &= ~(RCU_CFG0_CKOUT0SEL | RCU_CFG0_CKOUT0DIV );
 849              		.loc 1 443 9
 850 0010 FB68     		ldr	r3, [r7, #12]
 851 0012 23F0EC63 		bic	r3, r3, #123731968
 852 0016 FB60     		str	r3, [r7, #12]
 444:C:/Users/leonardo/Desktop/Code/Github/DawnGBC/Libraries/FWLIB/src\gd32f4xx_rcu.c ****     RCU_CFG0 = (reg | ckout0_src | ckout0_div);
 853              		.loc 1 444 21
 854 0018 FA68     		ldr	r2, [r7, #12]
 855 001a 7B68     		ldr	r3, [r7, #4]
 856 001c 1A43     		orrs	r2, r2, r3
 857              		.loc 1 444 5
 858 001e 0449     		ldr	r1, .L33
 859              		.loc 1 444 34
 860 0020 3B68     		ldr	r3, [r7]
 861 0022 1343     		orrs	r3, r3, r2
 862              		.loc 1 444 14
 863 0024 0B60     		str	r3, [r1]
 445:C:/Users/leonardo/Desktop/Code/Github/DawnGBC/Libraries/FWLIB/src\gd32f4xx_rcu.c **** }
 864              		.loc 1 445 1
 865 0026 00BF     		nop
 866 0028 1437     		adds	r7, r7, #20
 867              		.cfi_def_cfa_offset 4
 868 002a BD46     		mov	sp, r7
 869              		.cfi_def_cfa_register 13
 870              		@ sp needed
 871 002c 80BC     		pop	{r7}
 872              		.cfi_restore 7
 873              		.cfi_def_cfa_offset 0
 874 002e 7047     		bx	lr
 875              	.L34:
 876              		.align	2
 877              	.L33:
 878 0030 08380240 		.word	1073887240
 879              		.cfi_endproc
 880              	.LFE137:
 882              		.section	.text.rcu_ckout1_config,"ax",%progbits
 883              		.align	1
 884              		.global	rcu_ckout1_config
 885              		.syntax unified
 886              		.thumb
 887              		.thumb_func
 888              		.fpu softvfp
 890              	rcu_ckout1_config:
 891              	.LFB138:
 446:C:/Users/leonardo/Desktop/Code/Github/DawnGBC/Libraries/FWLIB/src\gd32f4xx_rcu.c **** 
 447:C:/Users/leonardo/Desktop/Code/Github/DawnGBC/Libraries/FWLIB/src\gd32f4xx_rcu.c **** /*!
 448:C:/Users/leonardo/Desktop/Code/Github/DawnGBC/Libraries/FWLIB/src\gd32f4xx_rcu.c ****     \brief      configure the CK_OUT1 clock source and divider
 449:C:/Users/leonardo/Desktop/Code/Github/DawnGBC/Libraries/FWLIB/src\gd32f4xx_rcu.c ****     \param[in]  ckout1_src: CK_OUT1 clock source selection
 450:C:/Users/leonardo/Desktop/Code/Github/DawnGBC/Libraries/FWLIB/src\gd32f4xx_rcu.c ****                 only one parameter can be selected which is shown as below:
 451:C:/Users/leonardo/Desktop/Code/Github/DawnGBC/Libraries/FWLIB/src\gd32f4xx_rcu.c ****       \arg        RCU_CKOUT1SRC_SYSTEMCLOCK: system clock selected
 452:C:/Users/leonardo/Desktop/Code/Github/DawnGBC/Libraries/FWLIB/src\gd32f4xx_rcu.c ****       \arg        RCU_CKOUT1SRC_PLLI2SR: PLLI2SR selected
 453:C:/Users/leonardo/Desktop/Code/Github/DawnGBC/Libraries/FWLIB/src\gd32f4xx_rcu.c ****       \arg        RCU_CKOUT1SRC_HXTAL: HXTAL selected
 454:C:/Users/leonardo/Desktop/Code/Github/DawnGBC/Libraries/FWLIB/src\gd32f4xx_rcu.c ****       \arg        RCU_CKOUT1SRC_PLLP: PLLP selected           
 455:C:/Users/leonardo/Desktop/Code/Github/DawnGBC/Libraries/FWLIB/src\gd32f4xx_rcu.c ****     \param[in]  ckout1_div: CK_OUT1 divider 
 456:C:/Users/leonardo/Desktop/Code/Github/DawnGBC/Libraries/FWLIB/src\gd32f4xx_rcu.c ****       \arg        RCU_CKOUT1_DIVx(x=1,2,3,4,5): CK_OUT1 is divided by x
 457:C:/Users/leonardo/Desktop/Code/Github/DawnGBC/Libraries/FWLIB/src\gd32f4xx_rcu.c ****     \param[out] none
 458:C:/Users/leonardo/Desktop/Code/Github/DawnGBC/Libraries/FWLIB/src\gd32f4xx_rcu.c ****     \retval     none
 459:C:/Users/leonardo/Desktop/Code/Github/DawnGBC/Libraries/FWLIB/src\gd32f4xx_rcu.c **** */
 460:C:/Users/leonardo/Desktop/Code/Github/DawnGBC/Libraries/FWLIB/src\gd32f4xx_rcu.c **** void rcu_ckout1_config(uint32_t ckout1_src, uint32_t ckout1_div)
 461:C:/Users/leonardo/Desktop/Code/Github/DawnGBC/Libraries/FWLIB/src\gd32f4xx_rcu.c **** {
 892              		.loc 1 461 1
 893              		.cfi_startproc
 894              		@ args = 0, pretend = 0, frame = 16
 895              		@ frame_needed = 1, uses_anonymous_args = 0
 896              		@ link register save eliminated.
 897 0000 80B4     		push	{r7}
 898              		.cfi_def_cfa_offset 4
 899              		.cfi_offset 7, -4
 900 0002 85B0     		sub	sp, sp, #20
 901              		.cfi_def_cfa_offset 24
 902 0004 00AF     		add	r7, sp, #0
 903              		.cfi_def_cfa_register 7
 904 0006 7860     		str	r0, [r7, #4]
 905 0008 3960     		str	r1, [r7]
 462:C:/Users/leonardo/Desktop/Code/Github/DawnGBC/Libraries/FWLIB/src\gd32f4xx_rcu.c ****     uint32_t reg;
 463:C:/Users/leonardo/Desktop/Code/Github/DawnGBC/Libraries/FWLIB/src\gd32f4xx_rcu.c ****     
 464:C:/Users/leonardo/Desktop/Code/Github/DawnGBC/Libraries/FWLIB/src\gd32f4xx_rcu.c ****     reg = RCU_CFG0;
 906              		.loc 1 464 11
 907 000a 094B     		ldr	r3, .L36
 908              		.loc 1 464 9
 909 000c 1B68     		ldr	r3, [r3]
 910 000e FB60     		str	r3, [r7, #12]
 465:C:/Users/leonardo/Desktop/Code/Github/DawnGBC/Libraries/FWLIB/src\gd32f4xx_rcu.c ****     /* reset the CKOUT1SRC, CKOUT1DIV and set according to ckout1_src and ckout1_div */
 466:C:/Users/leonardo/Desktop/Code/Github/DawnGBC/Libraries/FWLIB/src\gd32f4xx_rcu.c ****     reg &= ~(RCU_CFG0_CKOUT1SEL | RCU_CFG0_CKOUT1DIV);
 911              		.loc 1 466 9
 912 0010 FB68     		ldr	r3, [r7, #12]
 913 0012 23F07843 		bic	r3, r3, #-134217728
 914 0016 FB60     		str	r3, [r7, #12]
 467:C:/Users/leonardo/Desktop/Code/Github/DawnGBC/Libraries/FWLIB/src\gd32f4xx_rcu.c ****     RCU_CFG0 = (reg | ckout1_src | ckout1_div);
 915              		.loc 1 467 21
 916 0018 FA68     		ldr	r2, [r7, #12]
 917 001a 7B68     		ldr	r3, [r7, #4]
 918 001c 1A43     		orrs	r2, r2, r3
 919              		.loc 1 467 5
 920 001e 0449     		ldr	r1, .L36
 921              		.loc 1 467 34
 922 0020 3B68     		ldr	r3, [r7]
 923 0022 1343     		orrs	r3, r3, r2
 924              		.loc 1 467 14
 925 0024 0B60     		str	r3, [r1]
 468:C:/Users/leonardo/Desktop/Code/Github/DawnGBC/Libraries/FWLIB/src\gd32f4xx_rcu.c **** }
 926              		.loc 1 468 1
 927 0026 00BF     		nop
 928 0028 1437     		adds	r7, r7, #20
 929              		.cfi_def_cfa_offset 4
 930 002a BD46     		mov	sp, r7
 931              		.cfi_def_cfa_register 13
 932              		@ sp needed
 933 002c 80BC     		pop	{r7}
 934              		.cfi_restore 7
 935              		.cfi_def_cfa_offset 0
 936 002e 7047     		bx	lr
 937              	.L37:
 938              		.align	2
 939              	.L36:
 940 0030 08380240 		.word	1073887240
 941              		.cfi_endproc
 942              	.LFE138:
 944              		.section	.text.rcu_pll_config,"ax",%progbits
 945              		.align	1
 946              		.global	rcu_pll_config
 947              		.syntax unified
 948              		.thumb
 949              		.thumb_func
 950              		.fpu softvfp
 952              	rcu_pll_config:
 953              	.LFB139:
 469:C:/Users/leonardo/Desktop/Code/Github/DawnGBC/Libraries/FWLIB/src\gd32f4xx_rcu.c **** 
 470:C:/Users/leonardo/Desktop/Code/Github/DawnGBC/Libraries/FWLIB/src\gd32f4xx_rcu.c **** /*!
 471:C:/Users/leonardo/Desktop/Code/Github/DawnGBC/Libraries/FWLIB/src\gd32f4xx_rcu.c ****     \brief      configure the main PLL clock 
 472:C:/Users/leonardo/Desktop/Code/Github/DawnGBC/Libraries/FWLIB/src\gd32f4xx_rcu.c ****     \param[in]  pll_src: PLL clock source selection
 473:C:/Users/leonardo/Desktop/Code/Github/DawnGBC/Libraries/FWLIB/src\gd32f4xx_rcu.c ****       \arg        RCU_PLLSRC_IRC16M: select IRC16M as PLL source clock
 474:C:/Users/leonardo/Desktop/Code/Github/DawnGBC/Libraries/FWLIB/src\gd32f4xx_rcu.c ****       \arg        RCU_PLLSRC_HXTAL: select HXTAL as PLL source clock
 475:C:/Users/leonardo/Desktop/Code/Github/DawnGBC/Libraries/FWLIB/src\gd32f4xx_rcu.c ****     \param[in]  pll_psc: the PLL VCO source clock prescaler
 476:C:/Users/leonardo/Desktop/Code/Github/DawnGBC/Libraries/FWLIB/src\gd32f4xx_rcu.c ****       \arg         this parameter should be selected between 2 and 63
 477:C:/Users/leonardo/Desktop/Code/Github/DawnGBC/Libraries/FWLIB/src\gd32f4xx_rcu.c ****     \param[in]  pll_n: the PLL VCO clock multi factor
 478:C:/Users/leonardo/Desktop/Code/Github/DawnGBC/Libraries/FWLIB/src\gd32f4xx_rcu.c ****       \arg        this parameter should be selected between 64 and 500
 479:C:/Users/leonardo/Desktop/Code/Github/DawnGBC/Libraries/FWLIB/src\gd32f4xx_rcu.c ****     \param[in]  pll_p: the PLLP output frequency division factor from PLL VCO clock
 480:C:/Users/leonardo/Desktop/Code/Github/DawnGBC/Libraries/FWLIB/src\gd32f4xx_rcu.c ****       \arg        this parameter should be selected 2,4,6,8
 481:C:/Users/leonardo/Desktop/Code/Github/DawnGBC/Libraries/FWLIB/src\gd32f4xx_rcu.c ****     \param[in]  pll_q: the PLL Q output frequency division factor from PLL VCO clock
 482:C:/Users/leonardo/Desktop/Code/Github/DawnGBC/Libraries/FWLIB/src\gd32f4xx_rcu.c ****       \arg        this parameter should be selected between 2 and 15
 483:C:/Users/leonardo/Desktop/Code/Github/DawnGBC/Libraries/FWLIB/src\gd32f4xx_rcu.c ****     \param[out] none
 484:C:/Users/leonardo/Desktop/Code/Github/DawnGBC/Libraries/FWLIB/src\gd32f4xx_rcu.c ****     \retval     ErrStatus: SUCCESS or ERROR
 485:C:/Users/leonardo/Desktop/Code/Github/DawnGBC/Libraries/FWLIB/src\gd32f4xx_rcu.c **** */
 486:C:/Users/leonardo/Desktop/Code/Github/DawnGBC/Libraries/FWLIB/src\gd32f4xx_rcu.c **** ErrStatus rcu_pll_config(uint32_t pll_src, uint32_t pll_psc, uint32_t pll_n, uint32_t pll_p, uint32
 487:C:/Users/leonardo/Desktop/Code/Github/DawnGBC/Libraries/FWLIB/src\gd32f4xx_rcu.c **** {
 954              		.loc 1 487 1
 955              		.cfi_startproc
 956              		@ args = 4, pretend = 0, frame = 24
 957              		@ frame_needed = 1, uses_anonymous_args = 0
 958              		@ link register save eliminated.
 959 0000 80B4     		push	{r7}
 960              		.cfi_def_cfa_offset 4
 961              		.cfi_offset 7, -4
 962 0002 87B0     		sub	sp, sp, #28
 963              		.cfi_def_cfa_offset 32
 964 0004 00AF     		add	r7, sp, #0
 965              		.cfi_def_cfa_register 7
 966 0006 F860     		str	r0, [r7, #12]
 967 0008 B960     		str	r1, [r7, #8]
 968 000a 7A60     		str	r2, [r7, #4]
 969 000c 3B60     		str	r3, [r7]
 488:C:/Users/leonardo/Desktop/Code/Github/DawnGBC/Libraries/FWLIB/src\gd32f4xx_rcu.c ****     uint32_t ss_modulation_inc;
 489:C:/Users/leonardo/Desktop/Code/Github/DawnGBC/Libraries/FWLIB/src\gd32f4xx_rcu.c ****     uint32_t ss_modulation_reg;
 490:C:/Users/leonardo/Desktop/Code/Github/DawnGBC/Libraries/FWLIB/src\gd32f4xx_rcu.c ****     
 491:C:/Users/leonardo/Desktop/Code/Github/DawnGBC/Libraries/FWLIB/src\gd32f4xx_rcu.c ****     ss_modulation_inc = 0U;
 970              		.loc 1 491 23
 971 000e 0023     		movs	r3, #0
 972 0010 7B61     		str	r3, [r7, #20]
 492:C:/Users/leonardo/Desktop/Code/Github/DawnGBC/Libraries/FWLIB/src\gd32f4xx_rcu.c ****     ss_modulation_reg = RCU_PLLSSCTL;
 973              		.loc 1 492 25
 974 0012 254B     		ldr	r3, .L44
 975              		.loc 1 492 23
 976 0014 1B68     		ldr	r3, [r3]
 977 0016 3B61     		str	r3, [r7, #16]
 493:C:/Users/leonardo/Desktop/Code/Github/DawnGBC/Libraries/FWLIB/src\gd32f4xx_rcu.c **** 
 494:C:/Users/leonardo/Desktop/Code/Github/DawnGBC/Libraries/FWLIB/src\gd32f4xx_rcu.c ****     /* calculate the minimum factor of PLLN */
 495:C:/Users/leonardo/Desktop/Code/Github/DawnGBC/Libraries/FWLIB/src\gd32f4xx_rcu.c ****     if((ss_modulation_reg & RCU_PLLSSCTL_SSCGON) == RCU_PLLSSCTL_SSCGON){
 978              		.loc 1 495 50
 979 0018 3B69     		ldr	r3, [r7, #16]
 980              		.loc 1 495 7
 981 001a 002B     		cmp	r3, #0
 982 001c 0BDA     		bge	.L39
 496:C:/Users/leonardo/Desktop/Code/Github/DawnGBC/Libraries/FWLIB/src\gd32f4xx_rcu.c ****         if((ss_modulation_reg & RCU_SS_TYPE_DOWN) == RCU_SS_TYPE_DOWN){
 983              		.loc 1 496 31
 984 001e 3B69     		ldr	r3, [r7, #16]
 985 0020 03F08043 		and	r3, r3, #1073741824
 986              		.loc 1 496 11
 987 0024 002B     		cmp	r3, #0
 988 0026 03D0     		beq	.L40
 497:C:/Users/leonardo/Desktop/Code/Github/DawnGBC/Libraries/FWLIB/src\gd32f4xx_rcu.c ****             ss_modulation_inc += RCU_SS_MODULATION_DOWN_INC;
 989              		.loc 1 497 31
 990 0028 7B69     		ldr	r3, [r7, #20]
 991 002a 0733     		adds	r3, r3, #7
 992 002c 7B61     		str	r3, [r7, #20]
 993 002e 02E0     		b	.L39
 994              	.L40:
 498:C:/Users/leonardo/Desktop/Code/Github/DawnGBC/Libraries/FWLIB/src\gd32f4xx_rcu.c ****         }else{
 499:C:/Users/leonardo/Desktop/Code/Github/DawnGBC/Libraries/FWLIB/src\gd32f4xx_rcu.c ****             ss_modulation_inc += RCU_SS_MODULATION_CENTER_INC;
 995              		.loc 1 499 31
 996 0030 7B69     		ldr	r3, [r7, #20]
 997 0032 0533     		adds	r3, r3, #5
 998 0034 7B61     		str	r3, [r7, #20]
 999              	.L39:
 500:C:/Users/leonardo/Desktop/Code/Github/DawnGBC/Libraries/FWLIB/src\gd32f4xx_rcu.c ****         }
 501:C:/Users/leonardo/Desktop/Code/Github/DawnGBC/Libraries/FWLIB/src\gd32f4xx_rcu.c ****     }
 502:C:/Users/leonardo/Desktop/Code/Github/DawnGBC/Libraries/FWLIB/src\gd32f4xx_rcu.c ****     
 503:C:/Users/leonardo/Desktop/Code/Github/DawnGBC/Libraries/FWLIB/src\gd32f4xx_rcu.c ****     /* check the function parameter */
 504:C:/Users/leonardo/Desktop/Code/Github/DawnGBC/Libraries/FWLIB/src\gd32f4xx_rcu.c ****     if(CHECK_PLL_PSC_VALID(pll_psc) && CHECK_PLL_N_VALID(pll_n,ss_modulation_inc) && 
 1000              		.loc 1 504 7
 1001 0036 BB68     		ldr	r3, [r7, #8]
 1002 0038 012B     		cmp	r3, #1
 1003 003a 2FD9     		bls	.L41
 1004              		.loc 1 504 8 discriminator 1
 1005 003c BB68     		ldr	r3, [r7, #8]
 1006 003e 3F2B     		cmp	r3, #63
 1007 0040 2CD8     		bhi	.L41
 1008              		.loc 1 504 40 discriminator 2
 1009 0042 7B69     		ldr	r3, [r7, #20]
 1010 0044 4033     		adds	r3, r3, #64
 1011              		.loc 1 504 37 discriminator 2
 1012 0046 7A68     		ldr	r2, [r7, #4]
 1013 0048 9A42     		cmp	r2, r3
 1014 004a 27D3     		bcc	.L41
 1015              		.loc 1 504 40 discriminator 3
 1016 004c 7B68     		ldr	r3, [r7, #4]
 1017 004e B3F5FA7F 		cmp	r3, #500
 1018 0052 23D8     		bhi	.L41
 1019              		.loc 1 504 83 discriminator 4
 1020 0054 3B68     		ldr	r3, [r7]
 1021 0056 022B     		cmp	r3, #2
 1022 0058 08D0     		beq	.L42
 505:C:/Users/leonardo/Desktop/Code/Github/DawnGBC/Libraries/FWLIB/src\gd32f4xx_rcu.c ****        CHECK_PLL_P_VALID(pll_p) && CHECK_PLL_Q_VALID(pll_q)){
 1023              		.loc 1 505 8
 1024 005a 3B68     		ldr	r3, [r7]
 1025 005c 042B     		cmp	r3, #4
 1026 005e 05D0     		beq	.L42
 1027              		.loc 1 505 8 is_stmt 0 discriminator 2
 1028 0060 3B68     		ldr	r3, [r7]
 1029 0062 062B     		cmp	r3, #6
 1030 0064 02D0     		beq	.L42
 1031              		.loc 1 505 8 discriminator 4
 1032 0066 3B68     		ldr	r3, [r7]
 1033 0068 082B     		cmp	r3, #8
 1034 006a 17D1     		bne	.L41
 1035              	.L42:
 1036              		.loc 1 505 33 is_stmt 1 discriminator 5
 1037 006c 3B6A     		ldr	r3, [r7, #32]
 1038 006e 012B     		cmp	r3, #1
 1039 0070 14D9     		bls	.L41
 1040              		.loc 1 505 36 discriminator 6
 1041 0072 3B6A     		ldr	r3, [r7, #32]
 1042 0074 0F2B     		cmp	r3, #15
 1043 0076 11D8     		bhi	.L41
 506:C:/Users/leonardo/Desktop/Code/Github/DawnGBC/Libraries/FWLIB/src\gd32f4xx_rcu.c ****          RCU_PLL = pll_psc | (pll_n << 6) | (((pll_p >> 1) - 1U) << 16) |
 1044              		.loc 1 506 37
 1045 0078 7B68     		ldr	r3, [r7, #4]
 1046 007a 9A01     		lsls	r2, r3, #6
 1047              		.loc 1 506 28
 1048 007c BB68     		ldr	r3, [r7, #8]
 1049 007e 1A43     		orrs	r2, r2, r3
 1050              		.loc 1 506 54
 1051 0080 3B68     		ldr	r3, [r7]
 1052 0082 5B08     		lsrs	r3, r3, #1
 1053              		.loc 1 506 60
 1054 0084 013B     		subs	r3, r3, #1
 1055              		.loc 1 506 66
 1056 0086 1B04     		lsls	r3, r3, #16
 1057              		.loc 1 506 43
 1058 0088 1A43     		orrs	r2, r2, r3
 1059              		.loc 1 506 73
 1060 008a FB68     		ldr	r3, [r7, #12]
 1061 008c 1A43     		orrs	r2, r2, r3
 507:C:/Users/leonardo/Desktop/Code/Github/DawnGBC/Libraries/FWLIB/src\gd32f4xx_rcu.c ****                    (pll_src) | (pll_q << 24);
 1062              		.loc 1 507 39
 1063 008e 3B6A     		ldr	r3, [r7, #32]
 1064 0090 1B06     		lsls	r3, r3, #24
 506:C:/Users/leonardo/Desktop/Code/Github/DawnGBC/Libraries/FWLIB/src\gd32f4xx_rcu.c ****          RCU_PLL = pll_psc | (pll_n << 6) | (((pll_p >> 1) - 1U) << 16) |
 1065              		.loc 1 506 10
 1066 0092 0649     		ldr	r1, .L44+4
 1067              		.loc 1 507 30
 1068 0094 1343     		orrs	r3, r3, r2
 506:C:/Users/leonardo/Desktop/Code/Github/DawnGBC/Libraries/FWLIB/src\gd32f4xx_rcu.c ****          RCU_PLL = pll_psc | (pll_n << 6) | (((pll_p >> 1) - 1U) << 16) |
 1069              		.loc 1 506 18
 1070 0096 0B60     		str	r3, [r1]
 508:C:/Users/leonardo/Desktop/Code/Github/DawnGBC/Libraries/FWLIB/src\gd32f4xx_rcu.c ****     }else{
 509:C:/Users/leonardo/Desktop/Code/Github/DawnGBC/Libraries/FWLIB/src\gd32f4xx_rcu.c ****         /* return status */
 510:C:/Users/leonardo/Desktop/Code/Github/DawnGBC/Libraries/FWLIB/src\gd32f4xx_rcu.c ****         return ERROR;
 511:C:/Users/leonardo/Desktop/Code/Github/DawnGBC/Libraries/FWLIB/src\gd32f4xx_rcu.c ****     }
 512:C:/Users/leonardo/Desktop/Code/Github/DawnGBC/Libraries/FWLIB/src\gd32f4xx_rcu.c ****     
 513:C:/Users/leonardo/Desktop/Code/Github/DawnGBC/Libraries/FWLIB/src\gd32f4xx_rcu.c ****     /* return status */
 514:C:/Users/leonardo/Desktop/Code/Github/DawnGBC/Libraries/FWLIB/src\gd32f4xx_rcu.c ****     return SUCCESS;
 1071              		.loc 1 514 12
 1072 0098 0123     		movs	r3, #1
 1073 009a 00E0     		b	.L43
 1074              	.L41:
 510:C:/Users/leonardo/Desktop/Code/Github/DawnGBC/Libraries/FWLIB/src\gd32f4xx_rcu.c ****     }
 1075              		.loc 1 510 16
 1076 009c 0023     		movs	r3, #0
 1077              	.L43:
 515:C:/Users/leonardo/Desktop/Code/Github/DawnGBC/Libraries/FWLIB/src\gd32f4xx_rcu.c **** }
 1078              		.loc 1 515 1
 1079 009e 1846     		mov	r0, r3
 1080 00a0 1C37     		adds	r7, r7, #28
 1081              		.cfi_def_cfa_offset 4
 1082 00a2 BD46     		mov	sp, r7
 1083              		.cfi_def_cfa_register 13
 1084              		@ sp needed
 1085 00a4 80BC     		pop	{r7}
 1086              		.cfi_restore 7
 1087              		.cfi_def_cfa_offset 0
 1088 00a6 7047     		bx	lr
 1089              	.L45:
 1090              		.align	2
 1091              	.L44:
 1092 00a8 80380240 		.word	1073887360
 1093 00ac 04380240 		.word	1073887236
 1094              		.cfi_endproc
 1095              	.LFE139:
 1097              		.section	.text.rcu_plli2s_config,"ax",%progbits
 1098              		.align	1
 1099              		.global	rcu_plli2s_config
 1100              		.syntax unified
 1101              		.thumb
 1102              		.thumb_func
 1103              		.fpu softvfp
 1105              	rcu_plli2s_config:
 1106              	.LFB140:
 516:C:/Users/leonardo/Desktop/Code/Github/DawnGBC/Libraries/FWLIB/src\gd32f4xx_rcu.c **** 
 517:C:/Users/leonardo/Desktop/Code/Github/DawnGBC/Libraries/FWLIB/src\gd32f4xx_rcu.c **** /*!
 518:C:/Users/leonardo/Desktop/Code/Github/DawnGBC/Libraries/FWLIB/src\gd32f4xx_rcu.c ****     \brief      configure the PLLI2S clock 
 519:C:/Users/leonardo/Desktop/Code/Github/DawnGBC/Libraries/FWLIB/src\gd32f4xx_rcu.c ****     \param[in]  plli2s_n: the PLLI2S VCO clock multi factor
 520:C:/Users/leonardo/Desktop/Code/Github/DawnGBC/Libraries/FWLIB/src\gd32f4xx_rcu.c ****       \arg        this parameter should be selected between 50 and 500
 521:C:/Users/leonardo/Desktop/Code/Github/DawnGBC/Libraries/FWLIB/src\gd32f4xx_rcu.c ****     \param[in]  plli2s_q: the PLLI2S Q output frequency division factor from PLLI2S VCO clock
 522:C:/Users/leonardo/Desktop/Code/Github/DawnGBC/Libraries/FWLIB/src\gd32f4xx_rcu.c ****       \arg        this parameter should be selected between 2 and 15
 523:C:/Users/leonardo/Desktop/Code/Github/DawnGBC/Libraries/FWLIB/src\gd32f4xx_rcu.c ****     \param[in]  plli2s_r: the PLLI2S R output frequency division factor from PLLI2S VCO clock
 524:C:/Users/leonardo/Desktop/Code/Github/DawnGBC/Libraries/FWLIB/src\gd32f4xx_rcu.c ****       \arg        this parameter should be selected between 2 and 7
 525:C:/Users/leonardo/Desktop/Code/Github/DawnGBC/Libraries/FWLIB/src\gd32f4xx_rcu.c ****     \param[out] none
 526:C:/Users/leonardo/Desktop/Code/Github/DawnGBC/Libraries/FWLIB/src\gd32f4xx_rcu.c ****     \retval     ErrStatus: SUCCESS or ERROR
 527:C:/Users/leonardo/Desktop/Code/Github/DawnGBC/Libraries/FWLIB/src\gd32f4xx_rcu.c **** */
 528:C:/Users/leonardo/Desktop/Code/Github/DawnGBC/Libraries/FWLIB/src\gd32f4xx_rcu.c **** ErrStatus rcu_plli2s_config(uint32_t plli2s_n, uint32_t plli2s_q, uint32_t plli2s_r)
 529:C:/Users/leonardo/Desktop/Code/Github/DawnGBC/Libraries/FWLIB/src\gd32f4xx_rcu.c **** {
 1107              		.loc 1 529 1
 1108              		.cfi_startproc
 1109              		@ args = 0, pretend = 0, frame = 16
 1110              		@ frame_needed = 1, uses_anonymous_args = 0
 1111              		@ link register save eliminated.
 1112 0000 80B4     		push	{r7}
 1113              		.cfi_def_cfa_offset 4
 1114              		.cfi_offset 7, -4
 1115 0002 85B0     		sub	sp, sp, #20
 1116              		.cfi_def_cfa_offset 24
 1117 0004 00AF     		add	r7, sp, #0
 1118              		.cfi_def_cfa_register 7
 1119 0006 F860     		str	r0, [r7, #12]
 1120 0008 B960     		str	r1, [r7, #8]
 1121 000a 7A60     		str	r2, [r7, #4]
 530:C:/Users/leonardo/Desktop/Code/Github/DawnGBC/Libraries/FWLIB/src\gd32f4xx_rcu.c ****     /* check the function parameter */
 531:C:/Users/leonardo/Desktop/Code/Github/DawnGBC/Libraries/FWLIB/src\gd32f4xx_rcu.c ****     if(CHECK_PLLI2S_N_VALID(plli2s_n) && CHECK_PLLI2S_Q_VALID(plli2s_q) && CHECK_PLLI2S_R_VALID(pll
 1122              		.loc 1 531 7
 1123 000c FB68     		ldr	r3, [r7, #12]
 1124 000e 312B     		cmp	r3, #49
 1125 0010 1BD9     		bls	.L47
 1126              		.loc 1 531 8 discriminator 1
 1127 0012 FB68     		ldr	r3, [r7, #12]
 1128 0014 B3F5FA7F 		cmp	r3, #500
 1129 0018 17D8     		bhi	.L47
 1130              		.loc 1 531 39 discriminator 2
 1131 001a BB68     		ldr	r3, [r7, #8]
 1132 001c 012B     		cmp	r3, #1
 1133 001e 14D9     		bls	.L47
 1134              		.loc 1 531 42 discriminator 3
 1135 0020 BB68     		ldr	r3, [r7, #8]
 1136 0022 0F2B     		cmp	r3, #15
 1137 0024 11D8     		bhi	.L47
 1138              		.loc 1 531 73 discriminator 4
 1139 0026 7B68     		ldr	r3, [r7, #4]
 1140 0028 012B     		cmp	r3, #1
 1141 002a 0ED9     		bls	.L47
 1142              		.loc 1 531 76 discriminator 5
 1143 002c 7B68     		ldr	r3, [r7, #4]
 1144 002e 072B     		cmp	r3, #7
 1145 0030 0BD8     		bhi	.L47
 532:C:/Users/leonardo/Desktop/Code/Github/DawnGBC/Libraries/FWLIB/src\gd32f4xx_rcu.c ****         RCU_PLLI2S = (plli2s_n << 6) | (plli2s_q << 24) | (plli2s_r << 28);
 1146              		.loc 1 532 32
 1147 0032 FB68     		ldr	r3, [r7, #12]
 1148 0034 9A01     		lsls	r2, r3, #6
 1149              		.loc 1 532 50
 1150 0036 BB68     		ldr	r3, [r7, #8]
 1151 0038 1B06     		lsls	r3, r3, #24
 1152              		.loc 1 532 38
 1153 003a 1A43     		orrs	r2, r2, r3
 1154              		.loc 1 532 69
 1155 003c 7B68     		ldr	r3, [r7, #4]
 1156 003e 1B07     		lsls	r3, r3, #28
 1157              		.loc 1 532 9
 1158 0040 0549     		ldr	r1, .L49
 1159              		.loc 1 532 57
 1160 0042 1343     		orrs	r3, r3, r2
 1161              		.loc 1 532 20
 1162 0044 0B60     		str	r3, [r1]
 533:C:/Users/leonardo/Desktop/Code/Github/DawnGBC/Libraries/FWLIB/src\gd32f4xx_rcu.c ****     }else{
 534:C:/Users/leonardo/Desktop/Code/Github/DawnGBC/Libraries/FWLIB/src\gd32f4xx_rcu.c ****         /* return status */
 535:C:/Users/leonardo/Desktop/Code/Github/DawnGBC/Libraries/FWLIB/src\gd32f4xx_rcu.c ****         return ERROR;
 536:C:/Users/leonardo/Desktop/Code/Github/DawnGBC/Libraries/FWLIB/src\gd32f4xx_rcu.c ****     }
 537:C:/Users/leonardo/Desktop/Code/Github/DawnGBC/Libraries/FWLIB/src\gd32f4xx_rcu.c ****     
 538:C:/Users/leonardo/Desktop/Code/Github/DawnGBC/Libraries/FWLIB/src\gd32f4xx_rcu.c ****     /* return status */
 539:C:/Users/leonardo/Desktop/Code/Github/DawnGBC/Libraries/FWLIB/src\gd32f4xx_rcu.c ****     return SUCCESS;  
 1163              		.loc 1 539 12
 1164 0046 0123     		movs	r3, #1
 1165 0048 00E0     		b	.L48
 1166              	.L47:
 535:C:/Users/leonardo/Desktop/Code/Github/DawnGBC/Libraries/FWLIB/src\gd32f4xx_rcu.c ****     }
 1167              		.loc 1 535 16
 1168 004a 0023     		movs	r3, #0
 1169              	.L48:
 540:C:/Users/leonardo/Desktop/Code/Github/DawnGBC/Libraries/FWLIB/src\gd32f4xx_rcu.c **** }
 1170              		.loc 1 540 1
 1171 004c 1846     		mov	r0, r3
 1172 004e 1437     		adds	r7, r7, #20
 1173              		.cfi_def_cfa_offset 4
 1174 0050 BD46     		mov	sp, r7
 1175              		.cfi_def_cfa_register 13
 1176              		@ sp needed
 1177 0052 80BC     		pop	{r7}
 1178              		.cfi_restore 7
 1179              		.cfi_def_cfa_offset 0
 1180 0054 7047     		bx	lr
 1181              	.L50:
 1182 0056 00BF     		.align	2
 1183              	.L49:
 1184 0058 84380240 		.word	1073887364
 1185              		.cfi_endproc
 1186              	.LFE140:
 1188              		.section	.text.rcu_pllsai_config,"ax",%progbits
 1189              		.align	1
 1190              		.global	rcu_pllsai_config
 1191              		.syntax unified
 1192              		.thumb
 1193              		.thumb_func
 1194              		.fpu softvfp
 1196              	rcu_pllsai_config:
 1197              	.LFB141:
 541:C:/Users/leonardo/Desktop/Code/Github/DawnGBC/Libraries/FWLIB/src\gd32f4xx_rcu.c **** 
 542:C:/Users/leonardo/Desktop/Code/Github/DawnGBC/Libraries/FWLIB/src\gd32f4xx_rcu.c **** /*!
 543:C:/Users/leonardo/Desktop/Code/Github/DawnGBC/Libraries/FWLIB/src\gd32f4xx_rcu.c ****     \brief      configure the PLLSAI clock 
 544:C:/Users/leonardo/Desktop/Code/Github/DawnGBC/Libraries/FWLIB/src\gd32f4xx_rcu.c ****     \param[in]  pllsai_n: the PLLSAI VCO clock multi factor
 545:C:/Users/leonardo/Desktop/Code/Github/DawnGBC/Libraries/FWLIB/src\gd32f4xx_rcu.c ****       \arg        this parameter should be selected between 50 and 500
 546:C:/Users/leonardo/Desktop/Code/Github/DawnGBC/Libraries/FWLIB/src\gd32f4xx_rcu.c ****     \param[in]  pllsai_p: the PLLSAI P output frequency division factor from PLL VCO clock
 547:C:/Users/leonardo/Desktop/Code/Github/DawnGBC/Libraries/FWLIB/src\gd32f4xx_rcu.c ****       \arg        this parameter should be selected 2,4,6,8
 548:C:/Users/leonardo/Desktop/Code/Github/DawnGBC/Libraries/FWLIB/src\gd32f4xx_rcu.c ****     \param[in]  pllsai_q: the PLLSAI Q output frequency division factor from PLL VCO clock
 549:C:/Users/leonardo/Desktop/Code/Github/DawnGBC/Libraries/FWLIB/src\gd32f4xx_rcu.c ****       \arg        this parameter should be selected between 2 and 15
 550:C:/Users/leonardo/Desktop/Code/Github/DawnGBC/Libraries/FWLIB/src\gd32f4xx_rcu.c ****     \param[in]  pllsai_r: the PLLSAI R output frequency division factor from PLL VCO clock
 551:C:/Users/leonardo/Desktop/Code/Github/DawnGBC/Libraries/FWLIB/src\gd32f4xx_rcu.c ****       \arg        this parameter should be selected between 2 and 7
 552:C:/Users/leonardo/Desktop/Code/Github/DawnGBC/Libraries/FWLIB/src\gd32f4xx_rcu.c ****     \param[out] none
 553:C:/Users/leonardo/Desktop/Code/Github/DawnGBC/Libraries/FWLIB/src\gd32f4xx_rcu.c ****     \retval     ErrStatus: SUCCESS or ERROR
 554:C:/Users/leonardo/Desktop/Code/Github/DawnGBC/Libraries/FWLIB/src\gd32f4xx_rcu.c **** */
 555:C:/Users/leonardo/Desktop/Code/Github/DawnGBC/Libraries/FWLIB/src\gd32f4xx_rcu.c **** ErrStatus rcu_pllsai_config(uint32_t pllsai_n, uint32_t pllsai_p, uint32_t pllsai_q, uint32_t pllsa
 556:C:/Users/leonardo/Desktop/Code/Github/DawnGBC/Libraries/FWLIB/src\gd32f4xx_rcu.c **** {
 1198              		.loc 1 556 1
 1199              		.cfi_startproc
 1200              		@ args = 0, pretend = 0, frame = 16
 1201              		@ frame_needed = 1, uses_anonymous_args = 0
 1202              		@ link register save eliminated.
 1203 0000 80B4     		push	{r7}
 1204              		.cfi_def_cfa_offset 4
 1205              		.cfi_offset 7, -4
 1206 0002 85B0     		sub	sp, sp, #20
 1207              		.cfi_def_cfa_offset 24
 1208 0004 00AF     		add	r7, sp, #0
 1209              		.cfi_def_cfa_register 7
 1210 0006 F860     		str	r0, [r7, #12]
 1211 0008 B960     		str	r1, [r7, #8]
 1212 000a 7A60     		str	r2, [r7, #4]
 1213 000c 3B60     		str	r3, [r7]
 557:C:/Users/leonardo/Desktop/Code/Github/DawnGBC/Libraries/FWLIB/src\gd32f4xx_rcu.c ****     /* check the function parameter */
 558:C:/Users/leonardo/Desktop/Code/Github/DawnGBC/Libraries/FWLIB/src\gd32f4xx_rcu.c ****     if(CHECK_PLLSAI_N_VALID(pllsai_n) && CHECK_PLLSAI_P_VALID(pllsai_p) && 
 1214              		.loc 1 558 7
 1215 000e FB68     		ldr	r3, [r7, #12]
 1216 0010 312B     		cmp	r3, #49
 1217 0012 2CD9     		bls	.L52
 1218              		.loc 1 558 8 discriminator 1
 1219 0014 FB68     		ldr	r3, [r7, #12]
 1220 0016 B3F5FA7F 		cmp	r3, #500
 1221 001a 28D8     		bhi	.L52
 1222              		.loc 1 558 39 discriminator 2
 1223 001c BB68     		ldr	r3, [r7, #8]
 1224 001e 022B     		cmp	r3, #2
 1225 0020 08D0     		beq	.L53
 1226              		.loc 1 558 42 discriminator 4
 1227 0022 BB68     		ldr	r3, [r7, #8]
 1228 0024 042B     		cmp	r3, #4
 1229 0026 05D0     		beq	.L53
 1230              		.loc 1 558 42 is_stmt 0 discriminator 6
 1231 0028 BB68     		ldr	r3, [r7, #8]
 1232 002a 062B     		cmp	r3, #6
 1233 002c 02D0     		beq	.L53
 1234              		.loc 1 558 42 discriminator 8
 1235 002e BB68     		ldr	r3, [r7, #8]
 1236 0030 082B     		cmp	r3, #8
 1237 0032 1CD1     		bne	.L52
 1238              	.L53:
 1239              		.loc 1 558 73 is_stmt 1 discriminator 9
 1240 0034 7B68     		ldr	r3, [r7, #4]
 1241 0036 012B     		cmp	r3, #1
 1242 0038 19D9     		bls	.L52
 559:C:/Users/leonardo/Desktop/Code/Github/DawnGBC/Libraries/FWLIB/src\gd32f4xx_rcu.c ****        CHECK_PLLSAI_Q_VALID(pllsai_q) && CHECK_PLLSAI_R_VALID(pllsai_r)){
 1243              		.loc 1 559 8
 1244 003a 7B68     		ldr	r3, [r7, #4]
 1245 003c 0F2B     		cmp	r3, #15
 1246 003e 16D8     		bhi	.L52
 1247              		.loc 1 559 39 discriminator 1
 1248 0040 3B68     		ldr	r3, [r7]
 1249 0042 012B     		cmp	r3, #1
 1250 0044 13D9     		bls	.L52
 1251              		.loc 1 559 42 discriminator 2
 1252 0046 3B68     		ldr	r3, [r7]
 1253 0048 072B     		cmp	r3, #7
 1254 004a 10D8     		bhi	.L52
 560:C:/Users/leonardo/Desktop/Code/Github/DawnGBC/Libraries/FWLIB/src\gd32f4xx_rcu.c ****         RCU_PLLSAI = (pllsai_n << 6U) | (((pllsai_p >> 1U) - 1U) << 16U) | (pllsai_q << 24U) | (pll
 1255              		.loc 1 560 32
 1256 004c FB68     		ldr	r3, [r7, #12]
 1257 004e 9A01     		lsls	r2, r3, #6
 1258              		.loc 1 560 53
 1259 0050 BB68     		ldr	r3, [r7, #8]
 1260 0052 5B08     		lsrs	r3, r3, #1
 1261              		.loc 1 560 60
 1262 0054 013B     		subs	r3, r3, #1
 1263              		.loc 1 560 66
 1264 0056 1B04     		lsls	r3, r3, #16
 1265              		.loc 1 560 39
 1266 0058 1A43     		orrs	r2, r2, r3
 1267              		.loc 1 560 86
 1268 005a 7B68     		ldr	r3, [r7, #4]
 1269 005c 1B06     		lsls	r3, r3, #24
 1270              		.loc 1 560 74
 1271 005e 1A43     		orrs	r2, r2, r3
 1272              		.loc 1 560 106
 1273 0060 3B68     		ldr	r3, [r7]
 1274 0062 1B07     		lsls	r3, r3, #28
 1275              		.loc 1 560 9
 1276 0064 0549     		ldr	r1, .L55
 1277              		.loc 1 560 94
 1278 0066 1343     		orrs	r3, r3, r2
 1279              		.loc 1 560 20
 1280 0068 0B60     		str	r3, [r1]
 561:C:/Users/leonardo/Desktop/Code/Github/DawnGBC/Libraries/FWLIB/src\gd32f4xx_rcu.c ****     }else{
 562:C:/Users/leonardo/Desktop/Code/Github/DawnGBC/Libraries/FWLIB/src\gd32f4xx_rcu.c ****         /* return status */
 563:C:/Users/leonardo/Desktop/Code/Github/DawnGBC/Libraries/FWLIB/src\gd32f4xx_rcu.c ****         return ERROR;
 564:C:/Users/leonardo/Desktop/Code/Github/DawnGBC/Libraries/FWLIB/src\gd32f4xx_rcu.c ****     }
 565:C:/Users/leonardo/Desktop/Code/Github/DawnGBC/Libraries/FWLIB/src\gd32f4xx_rcu.c ****     
 566:C:/Users/leonardo/Desktop/Code/Github/DawnGBC/Libraries/FWLIB/src\gd32f4xx_rcu.c ****     /* return status */
 567:C:/Users/leonardo/Desktop/Code/Github/DawnGBC/Libraries/FWLIB/src\gd32f4xx_rcu.c ****     return SUCCESS;
 1281              		.loc 1 567 12
 1282 006a 0123     		movs	r3, #1
 1283 006c 00E0     		b	.L54
 1284              	.L52:
 563:C:/Users/leonardo/Desktop/Code/Github/DawnGBC/Libraries/FWLIB/src\gd32f4xx_rcu.c ****     }
 1285              		.loc 1 563 16
 1286 006e 0023     		movs	r3, #0
 1287              	.L54:
 568:C:/Users/leonardo/Desktop/Code/Github/DawnGBC/Libraries/FWLIB/src\gd32f4xx_rcu.c **** }
 1288              		.loc 1 568 1
 1289 0070 1846     		mov	r0, r3
 1290 0072 1437     		adds	r7, r7, #20
 1291              		.cfi_def_cfa_offset 4
 1292 0074 BD46     		mov	sp, r7
 1293              		.cfi_def_cfa_register 13
 1294              		@ sp needed
 1295 0076 80BC     		pop	{r7}
 1296              		.cfi_restore 7
 1297              		.cfi_def_cfa_offset 0
 1298 0078 7047     		bx	lr
 1299              	.L56:
 1300 007a 00BF     		.align	2
 1301              	.L55:
 1302 007c 88380240 		.word	1073887368
 1303              		.cfi_endproc
 1304              	.LFE141:
 1306              		.section	.text.rcu_rtc_clock_config,"ax",%progbits
 1307              		.align	1
 1308              		.global	rcu_rtc_clock_config
 1309              		.syntax unified
 1310              		.thumb
 1311              		.thumb_func
 1312              		.fpu softvfp
 1314              	rcu_rtc_clock_config:
 1315              	.LFB142:
 569:C:/Users/leonardo/Desktop/Code/Github/DawnGBC/Libraries/FWLIB/src\gd32f4xx_rcu.c **** 
 570:C:/Users/leonardo/Desktop/Code/Github/DawnGBC/Libraries/FWLIB/src\gd32f4xx_rcu.c **** /*!
 571:C:/Users/leonardo/Desktop/Code/Github/DawnGBC/Libraries/FWLIB/src\gd32f4xx_rcu.c ****     \brief      configure the RTC clock source selection
 572:C:/Users/leonardo/Desktop/Code/Github/DawnGBC/Libraries/FWLIB/src\gd32f4xx_rcu.c ****     \param[in]  rtc_clock_source: RTC clock source selection
 573:C:/Users/leonardo/Desktop/Code/Github/DawnGBC/Libraries/FWLIB/src\gd32f4xx_rcu.c ****                 only one parameter can be selected which is shown as below:
 574:C:/Users/leonardo/Desktop/Code/Github/DawnGBC/Libraries/FWLIB/src\gd32f4xx_rcu.c ****       \arg        RCU_RTCSRC_NONE: no clock selected
 575:C:/Users/leonardo/Desktop/Code/Github/DawnGBC/Libraries/FWLIB/src\gd32f4xx_rcu.c ****       \arg        RCU_RTCSRC_LXTAL: CK_LXTAL selected as RTC source clock
 576:C:/Users/leonardo/Desktop/Code/Github/DawnGBC/Libraries/FWLIB/src\gd32f4xx_rcu.c ****       \arg        RCU_RTCSRC_IRC32K: CK_IRC32K selected as RTC source clock
 577:C:/Users/leonardo/Desktop/Code/Github/DawnGBC/Libraries/FWLIB/src\gd32f4xx_rcu.c ****       \arg        RCU_RTCSRC_HXTAL_DIV_RTCDIV: CK_HXTAL/RTCDIV selected as RTC source clock
 578:C:/Users/leonardo/Desktop/Code/Github/DawnGBC/Libraries/FWLIB/src\gd32f4xx_rcu.c ****     \param[out] none
 579:C:/Users/leonardo/Desktop/Code/Github/DawnGBC/Libraries/FWLIB/src\gd32f4xx_rcu.c ****     \retval     none
 580:C:/Users/leonardo/Desktop/Code/Github/DawnGBC/Libraries/FWLIB/src\gd32f4xx_rcu.c **** */
 581:C:/Users/leonardo/Desktop/Code/Github/DawnGBC/Libraries/FWLIB/src\gd32f4xx_rcu.c **** void rcu_rtc_clock_config(uint32_t rtc_clock_source)
 582:C:/Users/leonardo/Desktop/Code/Github/DawnGBC/Libraries/FWLIB/src\gd32f4xx_rcu.c **** {
 1316              		.loc 1 582 1
 1317              		.cfi_startproc
 1318              		@ args = 0, pretend = 0, frame = 16
 1319              		@ frame_needed = 1, uses_anonymous_args = 0
 1320              		@ link register save eliminated.
 1321 0000 80B4     		push	{r7}
 1322              		.cfi_def_cfa_offset 4
 1323              		.cfi_offset 7, -4
 1324 0002 85B0     		sub	sp, sp, #20
 1325              		.cfi_def_cfa_offset 24
 1326 0004 00AF     		add	r7, sp, #0
 1327              		.cfi_def_cfa_register 7
 1328 0006 7860     		str	r0, [r7, #4]
 583:C:/Users/leonardo/Desktop/Code/Github/DawnGBC/Libraries/FWLIB/src\gd32f4xx_rcu.c ****     uint32_t reg;
 584:C:/Users/leonardo/Desktop/Code/Github/DawnGBC/Libraries/FWLIB/src\gd32f4xx_rcu.c ****     
 585:C:/Users/leonardo/Desktop/Code/Github/DawnGBC/Libraries/FWLIB/src\gd32f4xx_rcu.c ****     reg = RCU_BDCTL; 
 1329              		.loc 1 585 11
 1330 0008 084B     		ldr	r3, .L58
 1331              		.loc 1 585 9
 1332 000a 1B68     		ldr	r3, [r3]
 1333 000c FB60     		str	r3, [r7, #12]
 586:C:/Users/leonardo/Desktop/Code/Github/DawnGBC/Libraries/FWLIB/src\gd32f4xx_rcu.c ****     /* reset the RTCSRC bits and set according to rtc_clock_source */
 587:C:/Users/leonardo/Desktop/Code/Github/DawnGBC/Libraries/FWLIB/src\gd32f4xx_rcu.c ****     reg &= ~RCU_BDCTL_RTCSRC;
 1334              		.loc 1 587 9
 1335 000e FB68     		ldr	r3, [r7, #12]
 1336 0010 23F44073 		bic	r3, r3, #768
 1337 0014 FB60     		str	r3, [r7, #12]
 588:C:/Users/leonardo/Desktop/Code/Github/DawnGBC/Libraries/FWLIB/src\gd32f4xx_rcu.c ****     RCU_BDCTL = (reg | rtc_clock_source);
 1338              		.loc 1 588 5
 1339 0016 0549     		ldr	r1, .L58
 1340              		.loc 1 588 22
 1341 0018 FA68     		ldr	r2, [r7, #12]
 1342 001a 7B68     		ldr	r3, [r7, #4]
 1343 001c 1343     		orrs	r3, r3, r2
 1344              		.loc 1 588 15
 1345 001e 0B60     		str	r3, [r1]
 589:C:/Users/leonardo/Desktop/Code/Github/DawnGBC/Libraries/FWLIB/src\gd32f4xx_rcu.c **** }
 1346              		.loc 1 589 1
 1347 0020 00BF     		nop
 1348 0022 1437     		adds	r7, r7, #20
 1349              		.cfi_def_cfa_offset 4
 1350 0024 BD46     		mov	sp, r7
 1351              		.cfi_def_cfa_register 13
 1352              		@ sp needed
 1353 0026 80BC     		pop	{r7}
 1354              		.cfi_restore 7
 1355              		.cfi_def_cfa_offset 0
 1356 0028 7047     		bx	lr
 1357              	.L59:
 1358 002a 00BF     		.align	2
 1359              	.L58:
 1360 002c 70380240 		.word	1073887344
 1361              		.cfi_endproc
 1362              	.LFE142:
 1364              		.section	.text.rcu_i2s_clock_config,"ax",%progbits
 1365              		.align	1
 1366              		.global	rcu_i2s_clock_config
 1367              		.syntax unified
 1368              		.thumb
 1369              		.thumb_func
 1370              		.fpu softvfp
 1372              	rcu_i2s_clock_config:
 1373              	.LFB143:
 590:C:/Users/leonardo/Desktop/Code/Github/DawnGBC/Libraries/FWLIB/src\gd32f4xx_rcu.c **** 
 591:C:/Users/leonardo/Desktop/Code/Github/DawnGBC/Libraries/FWLIB/src\gd32f4xx_rcu.c **** /*!
 592:C:/Users/leonardo/Desktop/Code/Github/DawnGBC/Libraries/FWLIB/src\gd32f4xx_rcu.c ****     \brief      configure the I2S clock source selection
 593:C:/Users/leonardo/Desktop/Code/Github/DawnGBC/Libraries/FWLIB/src\gd32f4xx_rcu.c ****     \param[in]  i2s_clock_source: I2S clock source selection
 594:C:/Users/leonardo/Desktop/Code/Github/DawnGBC/Libraries/FWLIB/src\gd32f4xx_rcu.c ****                 only one parameter can be selected which is shown as below:
 595:C:/Users/leonardo/Desktop/Code/Github/DawnGBC/Libraries/FWLIB/src\gd32f4xx_rcu.c ****       \arg        RCU_I2SSRC_PLLI2S: CK_PLLI2S selected as I2S source clock
 596:C:/Users/leonardo/Desktop/Code/Github/DawnGBC/Libraries/FWLIB/src\gd32f4xx_rcu.c ****       \arg        RCU_I2SSRC_I2S_CKIN: external i2s_ckin pin selected as I2S source clock
 597:C:/Users/leonardo/Desktop/Code/Github/DawnGBC/Libraries/FWLIB/src\gd32f4xx_rcu.c ****     \param[out] none
 598:C:/Users/leonardo/Desktop/Code/Github/DawnGBC/Libraries/FWLIB/src\gd32f4xx_rcu.c ****     \retval     none
 599:C:/Users/leonardo/Desktop/Code/Github/DawnGBC/Libraries/FWLIB/src\gd32f4xx_rcu.c **** */
 600:C:/Users/leonardo/Desktop/Code/Github/DawnGBC/Libraries/FWLIB/src\gd32f4xx_rcu.c **** void rcu_i2s_clock_config(uint32_t i2s_clock_source)
 601:C:/Users/leonardo/Desktop/Code/Github/DawnGBC/Libraries/FWLIB/src\gd32f4xx_rcu.c **** {
 1374              		.loc 1 601 1
 1375              		.cfi_startproc
 1376              		@ args = 0, pretend = 0, frame = 16
 1377              		@ frame_needed = 1, uses_anonymous_args = 0
 1378              		@ link register save eliminated.
 1379 0000 80B4     		push	{r7}
 1380              		.cfi_def_cfa_offset 4
 1381              		.cfi_offset 7, -4
 1382 0002 85B0     		sub	sp, sp, #20
 1383              		.cfi_def_cfa_offset 24
 1384 0004 00AF     		add	r7, sp, #0
 1385              		.cfi_def_cfa_register 7
 1386 0006 7860     		str	r0, [r7, #4]
 602:C:/Users/leonardo/Desktop/Code/Github/DawnGBC/Libraries/FWLIB/src\gd32f4xx_rcu.c ****     uint32_t reg;
 603:C:/Users/leonardo/Desktop/Code/Github/DawnGBC/Libraries/FWLIB/src\gd32f4xx_rcu.c ****     
 604:C:/Users/leonardo/Desktop/Code/Github/DawnGBC/Libraries/FWLIB/src\gd32f4xx_rcu.c ****     reg = RCU_CFG0; 
 1387              		.loc 1 604 11
 1388 0008 084B     		ldr	r3, .L61
 1389              		.loc 1 604 9
 1390 000a 1B68     		ldr	r3, [r3]
 1391 000c FB60     		str	r3, [r7, #12]
 605:C:/Users/leonardo/Desktop/Code/Github/DawnGBC/Libraries/FWLIB/src\gd32f4xx_rcu.c ****     /* reset the I2SSEL bit and set according to i2s_clock_source */
 606:C:/Users/leonardo/Desktop/Code/Github/DawnGBC/Libraries/FWLIB/src\gd32f4xx_rcu.c ****     reg &= ~RCU_CFG0_I2SSEL;
 1392              		.loc 1 606 9
 1393 000e FB68     		ldr	r3, [r7, #12]
 1394 0010 23F40003 		bic	r3, r3, #8388608
 1395 0014 FB60     		str	r3, [r7, #12]
 607:C:/Users/leonardo/Desktop/Code/Github/DawnGBC/Libraries/FWLIB/src\gd32f4xx_rcu.c ****     RCU_CFG0 = (reg | i2s_clock_source);
 1396              		.loc 1 607 5
 1397 0016 0549     		ldr	r1, .L61
 1398              		.loc 1 607 21
 1399 0018 FA68     		ldr	r2, [r7, #12]
 1400 001a 7B68     		ldr	r3, [r7, #4]
 1401 001c 1343     		orrs	r3, r3, r2
 1402              		.loc 1 607 14
 1403 001e 0B60     		str	r3, [r1]
 608:C:/Users/leonardo/Desktop/Code/Github/DawnGBC/Libraries/FWLIB/src\gd32f4xx_rcu.c **** }
 1404              		.loc 1 608 1
 1405 0020 00BF     		nop
 1406 0022 1437     		adds	r7, r7, #20
 1407              		.cfi_def_cfa_offset 4
 1408 0024 BD46     		mov	sp, r7
 1409              		.cfi_def_cfa_register 13
 1410              		@ sp needed
 1411 0026 80BC     		pop	{r7}
 1412              		.cfi_restore 7
 1413              		.cfi_def_cfa_offset 0
 1414 0028 7047     		bx	lr
 1415              	.L62:
 1416 002a 00BF     		.align	2
 1417              	.L61:
 1418 002c 08380240 		.word	1073887240
 1419              		.cfi_endproc
 1420              	.LFE143:
 1422              		.section	.text.rcu_ck48m_clock_config,"ax",%progbits
 1423              		.align	1
 1424              		.global	rcu_ck48m_clock_config
 1425              		.syntax unified
 1426              		.thumb
 1427              		.thumb_func
 1428              		.fpu softvfp
 1430              	rcu_ck48m_clock_config:
 1431              	.LFB144:
 609:C:/Users/leonardo/Desktop/Code/Github/DawnGBC/Libraries/FWLIB/src\gd32f4xx_rcu.c **** 
 610:C:/Users/leonardo/Desktop/Code/Github/DawnGBC/Libraries/FWLIB/src\gd32f4xx_rcu.c **** /*!
 611:C:/Users/leonardo/Desktop/Code/Github/DawnGBC/Libraries/FWLIB/src\gd32f4xx_rcu.c ****     \brief      configure the CK48M clock source selection
 612:C:/Users/leonardo/Desktop/Code/Github/DawnGBC/Libraries/FWLIB/src\gd32f4xx_rcu.c ****     \param[in]  ck48m_clock_source: CK48M clock source selection
 613:C:/Users/leonardo/Desktop/Code/Github/DawnGBC/Libraries/FWLIB/src\gd32f4xx_rcu.c ****                 only one parameter can be selected which is shown as below:
 614:C:/Users/leonardo/Desktop/Code/Github/DawnGBC/Libraries/FWLIB/src\gd32f4xx_rcu.c ****       \arg        RCU_CK48MSRC_PLL48M: CK_PLL48M selected as CK48M source clock
 615:C:/Users/leonardo/Desktop/Code/Github/DawnGBC/Libraries/FWLIB/src\gd32f4xx_rcu.c ****       \arg        RCU_CK48MSRC_IRC48M: CK_IRC48M selected as CK48M source clock
 616:C:/Users/leonardo/Desktop/Code/Github/DawnGBC/Libraries/FWLIB/src\gd32f4xx_rcu.c ****     \param[out] none
 617:C:/Users/leonardo/Desktop/Code/Github/DawnGBC/Libraries/FWLIB/src\gd32f4xx_rcu.c ****     \retval     none
 618:C:/Users/leonardo/Desktop/Code/Github/DawnGBC/Libraries/FWLIB/src\gd32f4xx_rcu.c **** */
 619:C:/Users/leonardo/Desktop/Code/Github/DawnGBC/Libraries/FWLIB/src\gd32f4xx_rcu.c **** void rcu_ck48m_clock_config(uint32_t ck48m_clock_source)
 620:C:/Users/leonardo/Desktop/Code/Github/DawnGBC/Libraries/FWLIB/src\gd32f4xx_rcu.c **** {
 1432              		.loc 1 620 1
 1433              		.cfi_startproc
 1434              		@ args = 0, pretend = 0, frame = 16
 1435              		@ frame_needed = 1, uses_anonymous_args = 0
 1436              		@ link register save eliminated.
 1437 0000 80B4     		push	{r7}
 1438              		.cfi_def_cfa_offset 4
 1439              		.cfi_offset 7, -4
 1440 0002 85B0     		sub	sp, sp, #20
 1441              		.cfi_def_cfa_offset 24
 1442 0004 00AF     		add	r7, sp, #0
 1443              		.cfi_def_cfa_register 7
 1444 0006 7860     		str	r0, [r7, #4]
 621:C:/Users/leonardo/Desktop/Code/Github/DawnGBC/Libraries/FWLIB/src\gd32f4xx_rcu.c ****     uint32_t reg;
 622:C:/Users/leonardo/Desktop/Code/Github/DawnGBC/Libraries/FWLIB/src\gd32f4xx_rcu.c ****     
 623:C:/Users/leonardo/Desktop/Code/Github/DawnGBC/Libraries/FWLIB/src\gd32f4xx_rcu.c ****     reg = RCU_ADDCTL;
 1445              		.loc 1 623 11
 1446 0008 084B     		ldr	r3, .L64
 1447              		.loc 1 623 9
 1448 000a 1B68     		ldr	r3, [r3]
 1449 000c FB60     		str	r3, [r7, #12]
 624:C:/Users/leonardo/Desktop/Code/Github/DawnGBC/Libraries/FWLIB/src\gd32f4xx_rcu.c ****     /* reset the CK48MSEL bit and set according to i2s_clock_source */
 625:C:/Users/leonardo/Desktop/Code/Github/DawnGBC/Libraries/FWLIB/src\gd32f4xx_rcu.c ****     reg &= ~RCU_ADDCTL_CK48MSEL;
 1450              		.loc 1 625 9
 1451 000e FB68     		ldr	r3, [r7, #12]
 1452 0010 23F00103 		bic	r3, r3, #1
 1453 0014 FB60     		str	r3, [r7, #12]
 626:C:/Users/leonardo/Desktop/Code/Github/DawnGBC/Libraries/FWLIB/src\gd32f4xx_rcu.c ****     RCU_ADDCTL = (reg | ck48m_clock_source);
 1454              		.loc 1 626 5
 1455 0016 0549     		ldr	r1, .L64
 1456              		.loc 1 626 23
 1457 0018 FA68     		ldr	r2, [r7, #12]
 1458 001a 7B68     		ldr	r3, [r7, #4]
 1459 001c 1343     		orrs	r3, r3, r2
 1460              		.loc 1 626 16
 1461 001e 0B60     		str	r3, [r1]
 627:C:/Users/leonardo/Desktop/Code/Github/DawnGBC/Libraries/FWLIB/src\gd32f4xx_rcu.c **** }
 1462              		.loc 1 627 1
 1463 0020 00BF     		nop
 1464 0022 1437     		adds	r7, r7, #20
 1465              		.cfi_def_cfa_offset 4
 1466 0024 BD46     		mov	sp, r7
 1467              		.cfi_def_cfa_register 13
 1468              		@ sp needed
 1469 0026 80BC     		pop	{r7}
 1470              		.cfi_restore 7
 1471              		.cfi_def_cfa_offset 0
 1472 0028 7047     		bx	lr
 1473              	.L65:
 1474 002a 00BF     		.align	2
 1475              	.L64:
 1476 002c C0380240 		.word	1073887424
 1477              		.cfi_endproc
 1478              	.LFE144:
 1480              		.section	.text.rcu_pll48m_clock_config,"ax",%progbits
 1481              		.align	1
 1482              		.global	rcu_pll48m_clock_config
 1483              		.syntax unified
 1484              		.thumb
 1485              		.thumb_func
 1486              		.fpu softvfp
 1488              	rcu_pll48m_clock_config:
 1489              	.LFB145:
 628:C:/Users/leonardo/Desktop/Code/Github/DawnGBC/Libraries/FWLIB/src\gd32f4xx_rcu.c **** 
 629:C:/Users/leonardo/Desktop/Code/Github/DawnGBC/Libraries/FWLIB/src\gd32f4xx_rcu.c **** /*!
 630:C:/Users/leonardo/Desktop/Code/Github/DawnGBC/Libraries/FWLIB/src\gd32f4xx_rcu.c ****     \brief      configure the PLL48M clock source selection
 631:C:/Users/leonardo/Desktop/Code/Github/DawnGBC/Libraries/FWLIB/src\gd32f4xx_rcu.c ****     \param[in]  pll48m_clock_source: PLL48M clock source selection
 632:C:/Users/leonardo/Desktop/Code/Github/DawnGBC/Libraries/FWLIB/src\gd32f4xx_rcu.c ****                 only one parameter can be selected which is shown as below:
 633:C:/Users/leonardo/Desktop/Code/Github/DawnGBC/Libraries/FWLIB/src\gd32f4xx_rcu.c ****       \arg        RCU_PLL48MSRC_PLLQ: CK_PLLQ selected as PLL48M source clock
 634:C:/Users/leonardo/Desktop/Code/Github/DawnGBC/Libraries/FWLIB/src\gd32f4xx_rcu.c ****       \arg        RCU_PLL48MSRC_PLLSAIP: CK_PLLSAIP selected as PLL48M source clock
 635:C:/Users/leonardo/Desktop/Code/Github/DawnGBC/Libraries/FWLIB/src\gd32f4xx_rcu.c ****     \param[out] none
 636:C:/Users/leonardo/Desktop/Code/Github/DawnGBC/Libraries/FWLIB/src\gd32f4xx_rcu.c ****     \retval     none
 637:C:/Users/leonardo/Desktop/Code/Github/DawnGBC/Libraries/FWLIB/src\gd32f4xx_rcu.c **** */
 638:C:/Users/leonardo/Desktop/Code/Github/DawnGBC/Libraries/FWLIB/src\gd32f4xx_rcu.c **** void rcu_pll48m_clock_config(uint32_t pll48m_clock_source)
 639:C:/Users/leonardo/Desktop/Code/Github/DawnGBC/Libraries/FWLIB/src\gd32f4xx_rcu.c **** {
 1490              		.loc 1 639 1
 1491              		.cfi_startproc
 1492              		@ args = 0, pretend = 0, frame = 16
 1493              		@ frame_needed = 1, uses_anonymous_args = 0
 1494              		@ link register save eliminated.
 1495 0000 80B4     		push	{r7}
 1496              		.cfi_def_cfa_offset 4
 1497              		.cfi_offset 7, -4
 1498 0002 85B0     		sub	sp, sp, #20
 1499              		.cfi_def_cfa_offset 24
 1500 0004 00AF     		add	r7, sp, #0
 1501              		.cfi_def_cfa_register 7
 1502 0006 7860     		str	r0, [r7, #4]
 640:C:/Users/leonardo/Desktop/Code/Github/DawnGBC/Libraries/FWLIB/src\gd32f4xx_rcu.c ****     uint32_t reg;
 641:C:/Users/leonardo/Desktop/Code/Github/DawnGBC/Libraries/FWLIB/src\gd32f4xx_rcu.c ****     
 642:C:/Users/leonardo/Desktop/Code/Github/DawnGBC/Libraries/FWLIB/src\gd32f4xx_rcu.c ****     reg = RCU_ADDCTL;
 1503              		.loc 1 642 11
 1504 0008 084B     		ldr	r3, .L67
 1505              		.loc 1 642 9
 1506 000a 1B68     		ldr	r3, [r3]
 1507 000c FB60     		str	r3, [r7, #12]
 643:C:/Users/leonardo/Desktop/Code/Github/DawnGBC/Libraries/FWLIB/src\gd32f4xx_rcu.c ****     /* reset the PLL48MSEL bit and set according to pll48m_clock_source */
 644:C:/Users/leonardo/Desktop/Code/Github/DawnGBC/Libraries/FWLIB/src\gd32f4xx_rcu.c ****     reg &= ~RCU_ADDCTL_PLL48MSEL;
 1508              		.loc 1 644 9
 1509 000e FB68     		ldr	r3, [r7, #12]
 1510 0010 23F00203 		bic	r3, r3, #2
 1511 0014 FB60     		str	r3, [r7, #12]
 645:C:/Users/leonardo/Desktop/Code/Github/DawnGBC/Libraries/FWLIB/src\gd32f4xx_rcu.c ****     RCU_ADDCTL = (reg | pll48m_clock_source);
 1512              		.loc 1 645 5
 1513 0016 0549     		ldr	r1, .L67
 1514              		.loc 1 645 23
 1515 0018 FA68     		ldr	r2, [r7, #12]
 1516 001a 7B68     		ldr	r3, [r7, #4]
 1517 001c 1343     		orrs	r3, r3, r2
 1518              		.loc 1 645 16
 1519 001e 0B60     		str	r3, [r1]
 646:C:/Users/leonardo/Desktop/Code/Github/DawnGBC/Libraries/FWLIB/src\gd32f4xx_rcu.c **** }
 1520              		.loc 1 646 1
 1521 0020 00BF     		nop
 1522 0022 1437     		adds	r7, r7, #20
 1523              		.cfi_def_cfa_offset 4
 1524 0024 BD46     		mov	sp, r7
 1525              		.cfi_def_cfa_register 13
 1526              		@ sp needed
 1527 0026 80BC     		pop	{r7}
 1528              		.cfi_restore 7
 1529              		.cfi_def_cfa_offset 0
 1530 0028 7047     		bx	lr
 1531              	.L68:
 1532 002a 00BF     		.align	2
 1533              	.L67:
 1534 002c C0380240 		.word	1073887424
 1535              		.cfi_endproc
 1536              	.LFE145:
 1538              		.section	.text.rcu_timer_clock_prescaler_config,"ax",%progbits
 1539              		.align	1
 1540              		.global	rcu_timer_clock_prescaler_config
 1541              		.syntax unified
 1542              		.thumb
 1543              		.thumb_func
 1544              		.fpu softvfp
 1546              	rcu_timer_clock_prescaler_config:
 1547              	.LFB146:
 647:C:/Users/leonardo/Desktop/Code/Github/DawnGBC/Libraries/FWLIB/src\gd32f4xx_rcu.c **** 
 648:C:/Users/leonardo/Desktop/Code/Github/DawnGBC/Libraries/FWLIB/src\gd32f4xx_rcu.c **** /*!
 649:C:/Users/leonardo/Desktop/Code/Github/DawnGBC/Libraries/FWLIB/src\gd32f4xx_rcu.c ****     \brief      configure the TIMER clock prescaler selection
 650:C:/Users/leonardo/Desktop/Code/Github/DawnGBC/Libraries/FWLIB/src\gd32f4xx_rcu.c ****     \param[in]  timer_clock_prescaler: TIMER clock selection
 651:C:/Users/leonardo/Desktop/Code/Github/DawnGBC/Libraries/FWLIB/src\gd32f4xx_rcu.c ****                 only one parameter can be selected which is shown as below:
 652:C:/Users/leonardo/Desktop/Code/Github/DawnGBC/Libraries/FWLIB/src\gd32f4xx_rcu.c ****       \arg        RCU_TIMER_PSC_MUL2: if APB1PSC/APB2PSC in RCU_CFG0 register is 0b0xx(CK_APBx = CK
 653:C:/Users/leonardo/Desktop/Code/Github/DawnGBC/Libraries/FWLIB/src\gd32f4xx_rcu.c ****                                       or 0b100(CK_APBx = CK_AHB/2), the TIMER clock is equal to CK_
 654:C:/Users/leonardo/Desktop/Code/Github/DawnGBC/Libraries/FWLIB/src\gd32f4xx_rcu.c ****                                       or else, the TIMER clock is twice the corresponding APB clock
 655:C:/Users/leonardo/Desktop/Code/Github/DawnGBC/Libraries/FWLIB/src\gd32f4xx_rcu.c ****                                       TIMER in APB2 domain: CK_TIMERx = 2 x CK_APB2)
 656:C:/Users/leonardo/Desktop/Code/Github/DawnGBC/Libraries/FWLIB/src\gd32f4xx_rcu.c ****       \arg        RCU_TIMER_PSC_MUL4: if APB1PSC/APB2PSC in RCU_CFG0 register is 0b0xx(CK_APBx = CK
 657:C:/Users/leonardo/Desktop/Code/Github/DawnGBC/Libraries/FWLIB/src\gd32f4xx_rcu.c ****                                       0b100(CK_APBx = CK_AHB/2), or 0b101(CK_APBx = CK_AHB/4), the 
 658:C:/Users/leonardo/Desktop/Code/Github/DawnGBC/Libraries/FWLIB/src\gd32f4xx_rcu.c ****                                       or else, the TIMER clock is four timers the corresponding APB
 659:C:/Users/leonardo/Desktop/Code/Github/DawnGBC/Libraries/FWLIB/src\gd32f4xx_rcu.c ****                                       TIMER in APB2 domain: CK_TIMERx = 4 x CK_APB2)
 660:C:/Users/leonardo/Desktop/Code/Github/DawnGBC/Libraries/FWLIB/src\gd32f4xx_rcu.c ****     \param[out] none
 661:C:/Users/leonardo/Desktop/Code/Github/DawnGBC/Libraries/FWLIB/src\gd32f4xx_rcu.c ****     \retval     none
 662:C:/Users/leonardo/Desktop/Code/Github/DawnGBC/Libraries/FWLIB/src\gd32f4xx_rcu.c **** */
 663:C:/Users/leonardo/Desktop/Code/Github/DawnGBC/Libraries/FWLIB/src\gd32f4xx_rcu.c **** void rcu_timer_clock_prescaler_config(uint32_t timer_clock_prescaler)
 664:C:/Users/leonardo/Desktop/Code/Github/DawnGBC/Libraries/FWLIB/src\gd32f4xx_rcu.c **** {
 1548              		.loc 1 664 1
 1549              		.cfi_startproc
 1550              		@ args = 0, pretend = 0, frame = 8
 1551              		@ frame_needed = 1, uses_anonymous_args = 0
 1552              		@ link register save eliminated.
 1553 0000 80B4     		push	{r7}
 1554              		.cfi_def_cfa_offset 4
 1555              		.cfi_offset 7, -4
 1556 0002 83B0     		sub	sp, sp, #12
 1557              		.cfi_def_cfa_offset 16
 1558 0004 00AF     		add	r7, sp, #0
 1559              		.cfi_def_cfa_register 7
 1560 0006 7860     		str	r0, [r7, #4]
 665:C:/Users/leonardo/Desktop/Code/Github/DawnGBC/Libraries/FWLIB/src\gd32f4xx_rcu.c ****     /* configure the TIMERSEL bit and select the TIMER clock prescaler */
 666:C:/Users/leonardo/Desktop/Code/Github/DawnGBC/Libraries/FWLIB/src\gd32f4xx_rcu.c ****     if(timer_clock_prescaler == RCU_TIMER_PSC_MUL2){
 1561              		.loc 1 666 7
 1562 0008 7B68     		ldr	r3, [r7, #4]
 1563 000a 6FF08072 		mvn	r2, #16777216
 1564 000e 9342     		cmp	r3, r2
 1565 0010 06D1     		bne	.L70
 667:C:/Users/leonardo/Desktop/Code/Github/DawnGBC/Libraries/FWLIB/src\gd32f4xx_rcu.c ****         RCU_CFG1 &= timer_clock_prescaler;
 1566              		.loc 1 667 18
 1567 0012 094B     		ldr	r3, .L73
 1568 0014 1A68     		ldr	r2, [r3]
 1569 0016 0849     		ldr	r1, .L73
 1570 0018 7B68     		ldr	r3, [r7, #4]
 1571 001a 1340     		ands	r3, r3, r2
 1572 001c 0B60     		str	r3, [r1]
 668:C:/Users/leonardo/Desktop/Code/Github/DawnGBC/Libraries/FWLIB/src\gd32f4xx_rcu.c ****     }else{
 669:C:/Users/leonardo/Desktop/Code/Github/DawnGBC/Libraries/FWLIB/src\gd32f4xx_rcu.c ****         RCU_CFG1 |= timer_clock_prescaler;
 670:C:/Users/leonardo/Desktop/Code/Github/DawnGBC/Libraries/FWLIB/src\gd32f4xx_rcu.c ****     }
 671:C:/Users/leonardo/Desktop/Code/Github/DawnGBC/Libraries/FWLIB/src\gd32f4xx_rcu.c **** }
 1573              		.loc 1 671 1
 1574 001e 05E0     		b	.L72
 1575              	.L70:
 669:C:/Users/leonardo/Desktop/Code/Github/DawnGBC/Libraries/FWLIB/src\gd32f4xx_rcu.c ****     }
 1576              		.loc 1 669 18
 1577 0020 054B     		ldr	r3, .L73
 1578 0022 1A68     		ldr	r2, [r3]
 1579 0024 0449     		ldr	r1, .L73
 1580 0026 7B68     		ldr	r3, [r7, #4]
 1581 0028 1343     		orrs	r3, r3, r2
 1582 002a 0B60     		str	r3, [r1]
 1583              	.L72:
 1584              		.loc 1 671 1
 1585 002c 00BF     		nop
 1586 002e 0C37     		adds	r7, r7, #12
 1587              		.cfi_def_cfa_offset 4
 1588 0030 BD46     		mov	sp, r7
 1589              		.cfi_def_cfa_register 13
 1590              		@ sp needed
 1591 0032 80BC     		pop	{r7}
 1592              		.cfi_restore 7
 1593              		.cfi_def_cfa_offset 0
 1594 0034 7047     		bx	lr
 1595              	.L74:
 1596 0036 00BF     		.align	2
 1597              	.L73:
 1598 0038 8C380240 		.word	1073887372
 1599              		.cfi_endproc
 1600              	.LFE146:
 1602              		.section	.text.rcu_tli_clock_div_config,"ax",%progbits
 1603              		.align	1
 1604              		.global	rcu_tli_clock_div_config
 1605              		.syntax unified
 1606              		.thumb
 1607              		.thumb_func
 1608              		.fpu softvfp
 1610              	rcu_tli_clock_div_config:
 1611              	.LFB147:
 672:C:/Users/leonardo/Desktop/Code/Github/DawnGBC/Libraries/FWLIB/src\gd32f4xx_rcu.c **** 
 673:C:/Users/leonardo/Desktop/Code/Github/DawnGBC/Libraries/FWLIB/src\gd32f4xx_rcu.c **** /*!
 674:C:/Users/leonardo/Desktop/Code/Github/DawnGBC/Libraries/FWLIB/src\gd32f4xx_rcu.c ****     \brief      configure the PLLSAIR divider used as input of TLI
 675:C:/Users/leonardo/Desktop/Code/Github/DawnGBC/Libraries/FWLIB/src\gd32f4xx_rcu.c ****     \param[in]  pllsai_r_div: PLLSAIR divider used as input of TLI
 676:C:/Users/leonardo/Desktop/Code/Github/DawnGBC/Libraries/FWLIB/src\gd32f4xx_rcu.c ****                 only one parameter can be selected which is shown as below:
 677:C:/Users/leonardo/Desktop/Code/Github/DawnGBC/Libraries/FWLIB/src\gd32f4xx_rcu.c ****       \arg        RCU_PLLSAIR_DIVx(x=2,4,8,16): PLLSAIR divided x used as input of TLI
 678:C:/Users/leonardo/Desktop/Code/Github/DawnGBC/Libraries/FWLIB/src\gd32f4xx_rcu.c ****     \param[out] none
 679:C:/Users/leonardo/Desktop/Code/Github/DawnGBC/Libraries/FWLIB/src\gd32f4xx_rcu.c ****     \retval     none
 680:C:/Users/leonardo/Desktop/Code/Github/DawnGBC/Libraries/FWLIB/src\gd32f4xx_rcu.c **** */
 681:C:/Users/leonardo/Desktop/Code/Github/DawnGBC/Libraries/FWLIB/src\gd32f4xx_rcu.c **** void rcu_tli_clock_div_config(uint32_t pllsai_r_div)
 682:C:/Users/leonardo/Desktop/Code/Github/DawnGBC/Libraries/FWLIB/src\gd32f4xx_rcu.c **** {
 1612              		.loc 1 682 1
 1613              		.cfi_startproc
 1614              		@ args = 0, pretend = 0, frame = 16
 1615              		@ frame_needed = 1, uses_anonymous_args = 0
 1616              		@ link register save eliminated.
 1617 0000 80B4     		push	{r7}
 1618              		.cfi_def_cfa_offset 4
 1619              		.cfi_offset 7, -4
 1620 0002 85B0     		sub	sp, sp, #20
 1621              		.cfi_def_cfa_offset 24
 1622 0004 00AF     		add	r7, sp, #0
 1623              		.cfi_def_cfa_register 7
 1624 0006 7860     		str	r0, [r7, #4]
 683:C:/Users/leonardo/Desktop/Code/Github/DawnGBC/Libraries/FWLIB/src\gd32f4xx_rcu.c ****     uint32_t reg;
 684:C:/Users/leonardo/Desktop/Code/Github/DawnGBC/Libraries/FWLIB/src\gd32f4xx_rcu.c ****     
 685:C:/Users/leonardo/Desktop/Code/Github/DawnGBC/Libraries/FWLIB/src\gd32f4xx_rcu.c ****     reg = RCU_CFG1;
 1625              		.loc 1 685 11
 1626 0008 084B     		ldr	r3, .L76
 1627              		.loc 1 685 9
 1628 000a 1B68     		ldr	r3, [r3]
 1629 000c FB60     		str	r3, [r7, #12]
 686:C:/Users/leonardo/Desktop/Code/Github/DawnGBC/Libraries/FWLIB/src\gd32f4xx_rcu.c ****     /* reset the PLLSAIRDIV bit and set according to pllsai_r_div */
 687:C:/Users/leonardo/Desktop/Code/Github/DawnGBC/Libraries/FWLIB/src\gd32f4xx_rcu.c ****     reg &= ~RCU_CFG1_PLLSAIRDIV;
 1630              		.loc 1 687 9
 1631 000e FB68     		ldr	r3, [r7, #12]
 1632 0010 23F44033 		bic	r3, r3, #196608
 1633 0014 FB60     		str	r3, [r7, #12]
 688:C:/Users/leonardo/Desktop/Code/Github/DawnGBC/Libraries/FWLIB/src\gd32f4xx_rcu.c ****     RCU_CFG1 = (reg | pllsai_r_div);
 1634              		.loc 1 688 5
 1635 0016 0549     		ldr	r1, .L76
 1636              		.loc 1 688 21
 1637 0018 FA68     		ldr	r2, [r7, #12]
 1638 001a 7B68     		ldr	r3, [r7, #4]
 1639 001c 1343     		orrs	r3, r3, r2
 1640              		.loc 1 688 14
 1641 001e 0B60     		str	r3, [r1]
 689:C:/Users/leonardo/Desktop/Code/Github/DawnGBC/Libraries/FWLIB/src\gd32f4xx_rcu.c **** }
 1642              		.loc 1 689 1
 1643 0020 00BF     		nop
 1644 0022 1437     		adds	r7, r7, #20
 1645              		.cfi_def_cfa_offset 4
 1646 0024 BD46     		mov	sp, r7
 1647              		.cfi_def_cfa_register 13
 1648              		@ sp needed
 1649 0026 80BC     		pop	{r7}
 1650              		.cfi_restore 7
 1651              		.cfi_def_cfa_offset 0
 1652 0028 7047     		bx	lr
 1653              	.L77:
 1654 002a 00BF     		.align	2
 1655              	.L76:
 1656 002c 8C380240 		.word	1073887372
 1657              		.cfi_endproc
 1658              	.LFE147:
 1660              		.section	.text.rcu_flag_get,"ax",%progbits
 1661              		.align	1
 1662              		.global	rcu_flag_get
 1663              		.syntax unified
 1664              		.thumb
 1665              		.thumb_func
 1666              		.fpu softvfp
 1668              	rcu_flag_get:
 1669              	.LFB148:
 690:C:/Users/leonardo/Desktop/Code/Github/DawnGBC/Libraries/FWLIB/src\gd32f4xx_rcu.c **** 
 691:C:/Users/leonardo/Desktop/Code/Github/DawnGBC/Libraries/FWLIB/src\gd32f4xx_rcu.c **** /*!
 692:C:/Users/leonardo/Desktop/Code/Github/DawnGBC/Libraries/FWLIB/src\gd32f4xx_rcu.c ****     \brief      get the clock stabilization and periphral reset flags
 693:C:/Users/leonardo/Desktop/Code/Github/DawnGBC/Libraries/FWLIB/src\gd32f4xx_rcu.c ****     \param[in]  flag: the clock stabilization and periphral reset flags, refer to rcu_flag_enum
 694:C:/Users/leonardo/Desktop/Code/Github/DawnGBC/Libraries/FWLIB/src\gd32f4xx_rcu.c ****                 only one parameter can be selected which is shown as below:
 695:C:/Users/leonardo/Desktop/Code/Github/DawnGBC/Libraries/FWLIB/src\gd32f4xx_rcu.c ****       \arg        RCU_FLAG_IRC16MSTB: IRC16M stabilization flag
 696:C:/Users/leonardo/Desktop/Code/Github/DawnGBC/Libraries/FWLIB/src\gd32f4xx_rcu.c ****       \arg        RCU_FLAG_HXTALSTB: HXTAL stabilization flag
 697:C:/Users/leonardo/Desktop/Code/Github/DawnGBC/Libraries/FWLIB/src\gd32f4xx_rcu.c ****       \arg        RCU_FLAG_PLLSTB: PLL stabilization flag
 698:C:/Users/leonardo/Desktop/Code/Github/DawnGBC/Libraries/FWLIB/src\gd32f4xx_rcu.c ****       \arg        RCU_FLAG_PLLI2SSTB: PLLI2S stabilization flag
 699:C:/Users/leonardo/Desktop/Code/Github/DawnGBC/Libraries/FWLIB/src\gd32f4xx_rcu.c ****       \arg        RCU_FLAG_PLLSAISTB: PLLSAI stabilization flag
 700:C:/Users/leonardo/Desktop/Code/Github/DawnGBC/Libraries/FWLIB/src\gd32f4xx_rcu.c ****       \arg        RCU_FLAG_LXTALSTB: LXTAL stabilization flag
 701:C:/Users/leonardo/Desktop/Code/Github/DawnGBC/Libraries/FWLIB/src\gd32f4xx_rcu.c ****       \arg        RCU_FLAG_IRC32KSTB: IRC32K stabilization flag
 702:C:/Users/leonardo/Desktop/Code/Github/DawnGBC/Libraries/FWLIB/src\gd32f4xx_rcu.c ****       \arg        RCU_FLAG_IRC48MSTB: IRC48M stabilization flag
 703:C:/Users/leonardo/Desktop/Code/Github/DawnGBC/Libraries/FWLIB/src\gd32f4xx_rcu.c ****       \arg        RCU_FLAG_BORRST: BOR reset flags
 704:C:/Users/leonardo/Desktop/Code/Github/DawnGBC/Libraries/FWLIB/src\gd32f4xx_rcu.c ****       \arg        RCU_FLAG_EPRST: external PIN reset flag
 705:C:/Users/leonardo/Desktop/Code/Github/DawnGBC/Libraries/FWLIB/src\gd32f4xx_rcu.c ****       \arg        RCU_FLAG_PORRST: Power reset flag
 706:C:/Users/leonardo/Desktop/Code/Github/DawnGBC/Libraries/FWLIB/src\gd32f4xx_rcu.c ****       \arg        RCU_FLAG_SWRST: software reset flag
 707:C:/Users/leonardo/Desktop/Code/Github/DawnGBC/Libraries/FWLIB/src\gd32f4xx_rcu.c ****       \arg        RCU_FLAG_FWDGTRST: free watchdog timer reset flag
 708:C:/Users/leonardo/Desktop/Code/Github/DawnGBC/Libraries/FWLIB/src\gd32f4xx_rcu.c ****       \arg        RCU_FLAG_WWDGTRST: window watchdog timer reset flag
 709:C:/Users/leonardo/Desktop/Code/Github/DawnGBC/Libraries/FWLIB/src\gd32f4xx_rcu.c ****       \arg        RCU_FLAG_LPRST: low-power reset flag
 710:C:/Users/leonardo/Desktop/Code/Github/DawnGBC/Libraries/FWLIB/src\gd32f4xx_rcu.c ****     \param[out] none
 711:C:/Users/leonardo/Desktop/Code/Github/DawnGBC/Libraries/FWLIB/src\gd32f4xx_rcu.c ****     \retval     none
 712:C:/Users/leonardo/Desktop/Code/Github/DawnGBC/Libraries/FWLIB/src\gd32f4xx_rcu.c **** */
 713:C:/Users/leonardo/Desktop/Code/Github/DawnGBC/Libraries/FWLIB/src\gd32f4xx_rcu.c **** FlagStatus rcu_flag_get(rcu_flag_enum flag)
 714:C:/Users/leonardo/Desktop/Code/Github/DawnGBC/Libraries/FWLIB/src\gd32f4xx_rcu.c **** {
 1670              		.loc 1 714 1
 1671              		.cfi_startproc
 1672              		@ args = 0, pretend = 0, frame = 8
 1673              		@ frame_needed = 1, uses_anonymous_args = 0
 1674              		@ link register save eliminated.
 1675 0000 80B4     		push	{r7}
 1676              		.cfi_def_cfa_offset 4
 1677              		.cfi_offset 7, -4
 1678 0002 83B0     		sub	sp, sp, #12
 1679              		.cfi_def_cfa_offset 16
 1680 0004 00AF     		add	r7, sp, #0
 1681              		.cfi_def_cfa_register 7
 1682 0006 0346     		mov	r3, r0
 1683 0008 FB80     		strh	r3, [r7, #6]	@ movhi
 715:C:/Users/leonardo/Desktop/Code/Github/DawnGBC/Libraries/FWLIB/src\gd32f4xx_rcu.c ****     /* get the rcu flag */
 716:C:/Users/leonardo/Desktop/Code/Github/DawnGBC/Libraries/FWLIB/src\gd32f4xx_rcu.c ****     if(RESET != (RCU_REG_VAL(flag) & BIT(RCU_BIT_POS(flag)))){
 1684              		.loc 1 716 18
 1685 000a FB88     		ldrh	r3, [r7, #6]
 1686 000c 9B09     		lsrs	r3, r3, #6
 1687 000e 9BB2     		uxth	r3, r3
 1688 0010 03F18043 		add	r3, r3, #1073741824
 1689 0014 03F50E33 		add	r3, r3, #145408
 1690 0018 1A68     		ldr	r2, [r3]
 1691              		.loc 1 716 38
 1692 001a FB88     		ldrh	r3, [r7, #6]
 1693 001c 03F01F03 		and	r3, r3, #31
 1694              		.loc 1 716 14
 1695 0020 22FA03F3 		lsr	r3, r2, r3
 1696 0024 03F00103 		and	r3, r3, #1
 1697              		.loc 1 716 7
 1698 0028 002B     		cmp	r3, #0
 1699 002a 01D0     		beq	.L79
 717:C:/Users/leonardo/Desktop/Code/Github/DawnGBC/Libraries/FWLIB/src\gd32f4xx_rcu.c ****         return SET;
 1700              		.loc 1 717 16
 1701 002c 0123     		movs	r3, #1
 1702 002e 00E0     		b	.L80
 1703              	.L79:
 718:C:/Users/leonardo/Desktop/Code/Github/DawnGBC/Libraries/FWLIB/src\gd32f4xx_rcu.c ****     }else{
 719:C:/Users/leonardo/Desktop/Code/Github/DawnGBC/Libraries/FWLIB/src\gd32f4xx_rcu.c ****         return RESET;
 1704              		.loc 1 719 16
 1705 0030 0023     		movs	r3, #0
 1706              	.L80:
 720:C:/Users/leonardo/Desktop/Code/Github/DawnGBC/Libraries/FWLIB/src\gd32f4xx_rcu.c ****     }
 721:C:/Users/leonardo/Desktop/Code/Github/DawnGBC/Libraries/FWLIB/src\gd32f4xx_rcu.c **** }
 1707              		.loc 1 721 1
 1708 0032 1846     		mov	r0, r3
 1709 0034 0C37     		adds	r7, r7, #12
 1710              		.cfi_def_cfa_offset 4
 1711 0036 BD46     		mov	sp, r7
 1712              		.cfi_def_cfa_register 13
 1713              		@ sp needed
 1714 0038 80BC     		pop	{r7}
 1715              		.cfi_restore 7
 1716              		.cfi_def_cfa_offset 0
 1717 003a 7047     		bx	lr
 1718              		.cfi_endproc
 1719              	.LFE148:
 1721              		.section	.text.rcu_all_reset_flag_clear,"ax",%progbits
 1722              		.align	1
 1723              		.global	rcu_all_reset_flag_clear
 1724              		.syntax unified
 1725              		.thumb
 1726              		.thumb_func
 1727              		.fpu softvfp
 1729              	rcu_all_reset_flag_clear:
 1730              	.LFB149:
 722:C:/Users/leonardo/Desktop/Code/Github/DawnGBC/Libraries/FWLIB/src\gd32f4xx_rcu.c **** 
 723:C:/Users/leonardo/Desktop/Code/Github/DawnGBC/Libraries/FWLIB/src\gd32f4xx_rcu.c **** /*!
 724:C:/Users/leonardo/Desktop/Code/Github/DawnGBC/Libraries/FWLIB/src\gd32f4xx_rcu.c ****     \brief      clear all the reset flag
 725:C:/Users/leonardo/Desktop/Code/Github/DawnGBC/Libraries/FWLIB/src\gd32f4xx_rcu.c ****     \param[in]  none
 726:C:/Users/leonardo/Desktop/Code/Github/DawnGBC/Libraries/FWLIB/src\gd32f4xx_rcu.c ****     \param[out] none
 727:C:/Users/leonardo/Desktop/Code/Github/DawnGBC/Libraries/FWLIB/src\gd32f4xx_rcu.c ****     \retval     none
 728:C:/Users/leonardo/Desktop/Code/Github/DawnGBC/Libraries/FWLIB/src\gd32f4xx_rcu.c **** */
 729:C:/Users/leonardo/Desktop/Code/Github/DawnGBC/Libraries/FWLIB/src\gd32f4xx_rcu.c **** void rcu_all_reset_flag_clear(void)
 730:C:/Users/leonardo/Desktop/Code/Github/DawnGBC/Libraries/FWLIB/src\gd32f4xx_rcu.c **** {
 1731              		.loc 1 730 1
 1732              		.cfi_startproc
 1733              		@ args = 0, pretend = 0, frame = 0
 1734              		@ frame_needed = 1, uses_anonymous_args = 0
 1735              		@ link register save eliminated.
 1736 0000 80B4     		push	{r7}
 1737              		.cfi_def_cfa_offset 4
 1738              		.cfi_offset 7, -4
 1739 0002 00AF     		add	r7, sp, #0
 1740              		.cfi_def_cfa_register 7
 731:C:/Users/leonardo/Desktop/Code/Github/DawnGBC/Libraries/FWLIB/src\gd32f4xx_rcu.c ****     RCU_RSTSCK |= RCU_RSTSCK_RSTFC;
 1741              		.loc 1 731 16
 1742 0004 044B     		ldr	r3, .L82
 1743 0006 1B68     		ldr	r3, [r3]
 1744 0008 034A     		ldr	r2, .L82
 1745 000a 43F08073 		orr	r3, r3, #16777216
 1746 000e 1360     		str	r3, [r2]
 732:C:/Users/leonardo/Desktop/Code/Github/DawnGBC/Libraries/FWLIB/src\gd32f4xx_rcu.c **** }
 1747              		.loc 1 732 1
 1748 0010 00BF     		nop
 1749 0012 BD46     		mov	sp, r7
 1750              		.cfi_def_cfa_register 13
 1751              		@ sp needed
 1752 0014 80BC     		pop	{r7}
 1753              		.cfi_restore 7
 1754              		.cfi_def_cfa_offset 0
 1755 0016 7047     		bx	lr
 1756              	.L83:
 1757              		.align	2
 1758              	.L82:
 1759 0018 74380240 		.word	1073887348
 1760              		.cfi_endproc
 1761              	.LFE149:
 1763              		.section	.text.rcu_interrupt_flag_get,"ax",%progbits
 1764              		.align	1
 1765              		.global	rcu_interrupt_flag_get
 1766              		.syntax unified
 1767              		.thumb
 1768              		.thumb_func
 1769              		.fpu softvfp
 1771              	rcu_interrupt_flag_get:
 1772              	.LFB150:
 733:C:/Users/leonardo/Desktop/Code/Github/DawnGBC/Libraries/FWLIB/src\gd32f4xx_rcu.c **** 
 734:C:/Users/leonardo/Desktop/Code/Github/DawnGBC/Libraries/FWLIB/src\gd32f4xx_rcu.c **** /*!
 735:C:/Users/leonardo/Desktop/Code/Github/DawnGBC/Libraries/FWLIB/src\gd32f4xx_rcu.c ****     \brief      get the clock stabilization interrupt and ckm flags
 736:C:/Users/leonardo/Desktop/Code/Github/DawnGBC/Libraries/FWLIB/src\gd32f4xx_rcu.c ****     \param[in]  int_flag: interrupt and ckm flags, refer to rcu_int_flag_enum
 737:C:/Users/leonardo/Desktop/Code/Github/DawnGBC/Libraries/FWLIB/src\gd32f4xx_rcu.c ****                 only one parameter can be selected which is shown as below:
 738:C:/Users/leonardo/Desktop/Code/Github/DawnGBC/Libraries/FWLIB/src\gd32f4xx_rcu.c ****       \arg        RCU_INT_FLAG_IRC32KSTB: IRC32K stabilization interrupt flag
 739:C:/Users/leonardo/Desktop/Code/Github/DawnGBC/Libraries/FWLIB/src\gd32f4xx_rcu.c ****       \arg        RCU_INT_FLAG_LXTALSTB: LXTAL stabilization interrupt flag
 740:C:/Users/leonardo/Desktop/Code/Github/DawnGBC/Libraries/FWLIB/src\gd32f4xx_rcu.c ****       \arg        RCU_INT_FLAG_IRC16MSTB: IRC16M stabilization interrupt flag
 741:C:/Users/leonardo/Desktop/Code/Github/DawnGBC/Libraries/FWLIB/src\gd32f4xx_rcu.c ****       \arg        RCU_INT_FLAG_HXTALSTB: HXTAL stabilization interrupt flag
 742:C:/Users/leonardo/Desktop/Code/Github/DawnGBC/Libraries/FWLIB/src\gd32f4xx_rcu.c ****       \arg        RCU_INT_FLAG_PLLSTB: PLL stabilization interrupt flag
 743:C:/Users/leonardo/Desktop/Code/Github/DawnGBC/Libraries/FWLIB/src\gd32f4xx_rcu.c ****       \arg        RCU_INT_FLAG_PLLI2SSTB: PLLI2S stabilization interrupt flag
 744:C:/Users/leonardo/Desktop/Code/Github/DawnGBC/Libraries/FWLIB/src\gd32f4xx_rcu.c ****       \arg        RCU_INT_FLAG_PLLSAISTB: PLLSAI stabilization interrupt flag
 745:C:/Users/leonardo/Desktop/Code/Github/DawnGBC/Libraries/FWLIB/src\gd32f4xx_rcu.c ****       \arg        RCU_INT_FLAG_CKM: HXTAL clock stuck interrupt flag
 746:C:/Users/leonardo/Desktop/Code/Github/DawnGBC/Libraries/FWLIB/src\gd32f4xx_rcu.c ****       \arg        RCU_INT_FLAG_IRC48MSTB: IRC48M stabilization interrupt flag
 747:C:/Users/leonardo/Desktop/Code/Github/DawnGBC/Libraries/FWLIB/src\gd32f4xx_rcu.c ****     \param[out] none
 748:C:/Users/leonardo/Desktop/Code/Github/DawnGBC/Libraries/FWLIB/src\gd32f4xx_rcu.c ****     \retval     FlagStatus: SET or RESET
 749:C:/Users/leonardo/Desktop/Code/Github/DawnGBC/Libraries/FWLIB/src\gd32f4xx_rcu.c **** */
 750:C:/Users/leonardo/Desktop/Code/Github/DawnGBC/Libraries/FWLIB/src\gd32f4xx_rcu.c **** FlagStatus rcu_interrupt_flag_get(rcu_int_flag_enum int_flag)
 751:C:/Users/leonardo/Desktop/Code/Github/DawnGBC/Libraries/FWLIB/src\gd32f4xx_rcu.c **** {
 1773              		.loc 1 751 1
 1774              		.cfi_startproc
 1775              		@ args = 0, pretend = 0, frame = 8
 1776              		@ frame_needed = 1, uses_anonymous_args = 0
 1777              		@ link register save eliminated.
 1778 0000 80B4     		push	{r7}
 1779              		.cfi_def_cfa_offset 4
 1780              		.cfi_offset 7, -4
 1781 0002 83B0     		sub	sp, sp, #12
 1782              		.cfi_def_cfa_offset 16
 1783 0004 00AF     		add	r7, sp, #0
 1784              		.cfi_def_cfa_register 7
 1785 0006 0346     		mov	r3, r0
 1786 0008 FB80     		strh	r3, [r7, #6]	@ movhi
 752:C:/Users/leonardo/Desktop/Code/Github/DawnGBC/Libraries/FWLIB/src\gd32f4xx_rcu.c ****     /* get the rcu interrupt flag */
 753:C:/Users/leonardo/Desktop/Code/Github/DawnGBC/Libraries/FWLIB/src\gd32f4xx_rcu.c ****     if(RESET != (RCU_REG_VAL(int_flag) & BIT(RCU_BIT_POS(int_flag)))){
 1787              		.loc 1 753 18
 1788 000a FB88     		ldrh	r3, [r7, #6]
 1789 000c 9B09     		lsrs	r3, r3, #6
 1790 000e 9BB2     		uxth	r3, r3
 1791 0010 03F18043 		add	r3, r3, #1073741824
 1792 0014 03F50E33 		add	r3, r3, #145408
 1793 0018 1A68     		ldr	r2, [r3]
 1794              		.loc 1 753 42
 1795 001a FB88     		ldrh	r3, [r7, #6]
 1796 001c 03F01F03 		and	r3, r3, #31
 1797              		.loc 1 753 14
 1798 0020 22FA03F3 		lsr	r3, r2, r3
 1799 0024 03F00103 		and	r3, r3, #1
 1800              		.loc 1 753 7
 1801 0028 002B     		cmp	r3, #0
 1802 002a 01D0     		beq	.L85
 754:C:/Users/leonardo/Desktop/Code/Github/DawnGBC/Libraries/FWLIB/src\gd32f4xx_rcu.c ****         return SET;
 1803              		.loc 1 754 16
 1804 002c 0123     		movs	r3, #1
 1805 002e 00E0     		b	.L86
 1806              	.L85:
 755:C:/Users/leonardo/Desktop/Code/Github/DawnGBC/Libraries/FWLIB/src\gd32f4xx_rcu.c ****     }else{
 756:C:/Users/leonardo/Desktop/Code/Github/DawnGBC/Libraries/FWLIB/src\gd32f4xx_rcu.c ****         return RESET;
 1807              		.loc 1 756 16
 1808 0030 0023     		movs	r3, #0
 1809              	.L86:
 757:C:/Users/leonardo/Desktop/Code/Github/DawnGBC/Libraries/FWLIB/src\gd32f4xx_rcu.c ****     }
 758:C:/Users/leonardo/Desktop/Code/Github/DawnGBC/Libraries/FWLIB/src\gd32f4xx_rcu.c **** }
 1810              		.loc 1 758 1
 1811 0032 1846     		mov	r0, r3
 1812 0034 0C37     		adds	r7, r7, #12
 1813              		.cfi_def_cfa_offset 4
 1814 0036 BD46     		mov	sp, r7
 1815              		.cfi_def_cfa_register 13
 1816              		@ sp needed
 1817 0038 80BC     		pop	{r7}
 1818              		.cfi_restore 7
 1819              		.cfi_def_cfa_offset 0
 1820 003a 7047     		bx	lr
 1821              		.cfi_endproc
 1822              	.LFE150:
 1824              		.section	.text.rcu_interrupt_flag_clear,"ax",%progbits
 1825              		.align	1
 1826              		.global	rcu_interrupt_flag_clear
 1827              		.syntax unified
 1828              		.thumb
 1829              		.thumb_func
 1830              		.fpu softvfp
 1832              	rcu_interrupt_flag_clear:
 1833              	.LFB151:
 759:C:/Users/leonardo/Desktop/Code/Github/DawnGBC/Libraries/FWLIB/src\gd32f4xx_rcu.c **** 
 760:C:/Users/leonardo/Desktop/Code/Github/DawnGBC/Libraries/FWLIB/src\gd32f4xx_rcu.c **** /*!
 761:C:/Users/leonardo/Desktop/Code/Github/DawnGBC/Libraries/FWLIB/src\gd32f4xx_rcu.c ****     \brief      clear the interrupt flags
 762:C:/Users/leonardo/Desktop/Code/Github/DawnGBC/Libraries/FWLIB/src\gd32f4xx_rcu.c ****     \param[in]  int_flag_clear: clock stabilization and stuck interrupt flags clear, refer to rcu_i
 763:C:/Users/leonardo/Desktop/Code/Github/DawnGBC/Libraries/FWLIB/src\gd32f4xx_rcu.c ****                 only one parameter can be selected which is shown as below:
 764:C:/Users/leonardo/Desktop/Code/Github/DawnGBC/Libraries/FWLIB/src\gd32f4xx_rcu.c ****       \arg        RCU_INT_FLAG_IRC32KSTB_CLR: IRC32K stabilization interrupt flag clear
 765:C:/Users/leonardo/Desktop/Code/Github/DawnGBC/Libraries/FWLIB/src\gd32f4xx_rcu.c ****       \arg        RCU_INT_FLAG_LXTALSTB_CLR: LXTAL stabilization interrupt flag clear
 766:C:/Users/leonardo/Desktop/Code/Github/DawnGBC/Libraries/FWLIB/src\gd32f4xx_rcu.c ****       \arg        RCU_INT_FLAG_IRC16MSTB_CLR: IRC16M stabilization interrupt flag clear
 767:C:/Users/leonardo/Desktop/Code/Github/DawnGBC/Libraries/FWLIB/src\gd32f4xx_rcu.c ****       \arg        RCU_INT_FLAG_HXTALSTB_CLR: HXTAL stabilization interrupt flag clear
 768:C:/Users/leonardo/Desktop/Code/Github/DawnGBC/Libraries/FWLIB/src\gd32f4xx_rcu.c ****       \arg        RCU_INT_FLAG_PLLSTB_CLR: PLL stabilization interrupt flag clear
 769:C:/Users/leonardo/Desktop/Code/Github/DawnGBC/Libraries/FWLIB/src\gd32f4xx_rcu.c ****       \arg        RCU_INT_FLAG_PLLI2SSTB_CLR: PLLI2S stabilization interrupt flag clear
 770:C:/Users/leonardo/Desktop/Code/Github/DawnGBC/Libraries/FWLIB/src\gd32f4xx_rcu.c ****       \arg        RCU_INT_FLAG_PLLSAISTB_CLR: PLLSAI stabilization interrupt flag clear
 771:C:/Users/leonardo/Desktop/Code/Github/DawnGBC/Libraries/FWLIB/src\gd32f4xx_rcu.c ****       \arg        RCU_INT_FLAG_CKM_CLR: clock stuck interrupt flag clear
 772:C:/Users/leonardo/Desktop/Code/Github/DawnGBC/Libraries/FWLIB/src\gd32f4xx_rcu.c ****       \arg        RCU_INT_FLAG_IRC48MSTB_CLR: IRC48M stabilization interrupt flag clear
 773:C:/Users/leonardo/Desktop/Code/Github/DawnGBC/Libraries/FWLIB/src\gd32f4xx_rcu.c ****     \param[out] none
 774:C:/Users/leonardo/Desktop/Code/Github/DawnGBC/Libraries/FWLIB/src\gd32f4xx_rcu.c ****     \retval     none
 775:C:/Users/leonardo/Desktop/Code/Github/DawnGBC/Libraries/FWLIB/src\gd32f4xx_rcu.c **** */
 776:C:/Users/leonardo/Desktop/Code/Github/DawnGBC/Libraries/FWLIB/src\gd32f4xx_rcu.c **** void rcu_interrupt_flag_clear(rcu_int_flag_clear_enum int_flag_clear)
 777:C:/Users/leonardo/Desktop/Code/Github/DawnGBC/Libraries/FWLIB/src\gd32f4xx_rcu.c **** {
 1834              		.loc 1 777 1
 1835              		.cfi_startproc
 1836              		@ args = 0, pretend = 0, frame = 8
 1837              		@ frame_needed = 1, uses_anonymous_args = 0
 1838              		@ link register save eliminated.
 1839 0000 80B4     		push	{r7}
 1840              		.cfi_def_cfa_offset 4
 1841              		.cfi_offset 7, -4
 1842 0002 83B0     		sub	sp, sp, #12
 1843              		.cfi_def_cfa_offset 16
 1844 0004 00AF     		add	r7, sp, #0
 1845              		.cfi_def_cfa_register 7
 1846 0006 0346     		mov	r3, r0
 1847 0008 FB80     		strh	r3, [r7, #6]	@ movhi
 778:C:/Users/leonardo/Desktop/Code/Github/DawnGBC/Libraries/FWLIB/src\gd32f4xx_rcu.c ****     RCU_REG_VAL(int_flag_clear) |= BIT(RCU_BIT_POS(int_flag_clear));
 1848              		.loc 1 778 33
 1849 000a FB88     		ldrh	r3, [r7, #6]
 1850 000c 9B09     		lsrs	r3, r3, #6
 1851 000e 9BB2     		uxth	r3, r3
 1852 0010 03F18043 		add	r3, r3, #1073741824
 1853 0014 03F50E33 		add	r3, r3, #145408
 1854 0018 1968     		ldr	r1, [r3]
 1855              		.loc 1 778 36
 1856 001a FB88     		ldrh	r3, [r7, #6]
 1857 001c 03F01F03 		and	r3, r3, #31
 1858 0020 0122     		movs	r2, #1
 1859 0022 9A40     		lsls	r2, r2, r3
 1860              		.loc 1 778 33
 1861 0024 FB88     		ldrh	r3, [r7, #6]
 1862 0026 9B09     		lsrs	r3, r3, #6
 1863 0028 9BB2     		uxth	r3, r3
 1864 002a 03F18043 		add	r3, r3, #1073741824
 1865 002e 03F50E33 		add	r3, r3, #145408
 1866 0032 1846     		mov	r0, r3
 1867 0034 41EA0203 		orr	r3, r1, r2
 1868 0038 0360     		str	r3, [r0]
 779:C:/Users/leonardo/Desktop/Code/Github/DawnGBC/Libraries/FWLIB/src\gd32f4xx_rcu.c **** }
 1869              		.loc 1 779 1
 1870 003a 00BF     		nop
 1871 003c 0C37     		adds	r7, r7, #12
 1872              		.cfi_def_cfa_offset 4
 1873 003e BD46     		mov	sp, r7
 1874              		.cfi_def_cfa_register 13
 1875              		@ sp needed
 1876 0040 80BC     		pop	{r7}
 1877              		.cfi_restore 7
 1878              		.cfi_def_cfa_offset 0
 1879 0042 7047     		bx	lr
 1880              		.cfi_endproc
 1881              	.LFE151:
 1883              		.section	.text.rcu_interrupt_enable,"ax",%progbits
 1884              		.align	1
 1885              		.global	rcu_interrupt_enable
 1886              		.syntax unified
 1887              		.thumb
 1888              		.thumb_func
 1889              		.fpu softvfp
 1891              	rcu_interrupt_enable:
 1892              	.LFB152:
 780:C:/Users/leonardo/Desktop/Code/Github/DawnGBC/Libraries/FWLIB/src\gd32f4xx_rcu.c **** 
 781:C:/Users/leonardo/Desktop/Code/Github/DawnGBC/Libraries/FWLIB/src\gd32f4xx_rcu.c **** /*!
 782:C:/Users/leonardo/Desktop/Code/Github/DawnGBC/Libraries/FWLIB/src\gd32f4xx_rcu.c ****     \brief      enable the stabilization interrupt
 783:C:/Users/leonardo/Desktop/Code/Github/DawnGBC/Libraries/FWLIB/src\gd32f4xx_rcu.c ****     \param[in]  stab_int: clock stabilization interrupt, refer to rcu_int_enum
 784:C:/Users/leonardo/Desktop/Code/Github/DawnGBC/Libraries/FWLIB/src\gd32f4xx_rcu.c ****                 Only one parameter can be selected which is shown as below:
 785:C:/Users/leonardo/Desktop/Code/Github/DawnGBC/Libraries/FWLIB/src\gd32f4xx_rcu.c ****       \arg        RCU_INT_IRC32KSTB: IRC32K stabilization interrupt enable
 786:C:/Users/leonardo/Desktop/Code/Github/DawnGBC/Libraries/FWLIB/src\gd32f4xx_rcu.c ****       \arg        RCU_INT_LXTALSTB: LXTAL stabilization interrupt enable
 787:C:/Users/leonardo/Desktop/Code/Github/DawnGBC/Libraries/FWLIB/src\gd32f4xx_rcu.c ****       \arg        RCU_INT_IRC16MSTB: IRC16M stabilization interrupt enable
 788:C:/Users/leonardo/Desktop/Code/Github/DawnGBC/Libraries/FWLIB/src\gd32f4xx_rcu.c ****       \arg        RCU_INT_HXTALSTB: HXTAL stabilization interrupt enable
 789:C:/Users/leonardo/Desktop/Code/Github/DawnGBC/Libraries/FWLIB/src\gd32f4xx_rcu.c ****       \arg        RCU_INT_PLLSTB: PLL stabilization interrupt enable
 790:C:/Users/leonardo/Desktop/Code/Github/DawnGBC/Libraries/FWLIB/src\gd32f4xx_rcu.c ****       \arg        RCU_INT_PLLI2SSTB: PLLI2S stabilization interrupt enable
 791:C:/Users/leonardo/Desktop/Code/Github/DawnGBC/Libraries/FWLIB/src\gd32f4xx_rcu.c ****       \arg        RCU_INT_PLLSAISTB: PLLSAI stabilization interrupt enable
 792:C:/Users/leonardo/Desktop/Code/Github/DawnGBC/Libraries/FWLIB/src\gd32f4xx_rcu.c ****       \arg        RCU_INT_IRC48MSTB: IRC48M stabilization interrupt enable
 793:C:/Users/leonardo/Desktop/Code/Github/DawnGBC/Libraries/FWLIB/src\gd32f4xx_rcu.c ****     \param[out] none
 794:C:/Users/leonardo/Desktop/Code/Github/DawnGBC/Libraries/FWLIB/src\gd32f4xx_rcu.c ****     \retval     none
 795:C:/Users/leonardo/Desktop/Code/Github/DawnGBC/Libraries/FWLIB/src\gd32f4xx_rcu.c **** */
 796:C:/Users/leonardo/Desktop/Code/Github/DawnGBC/Libraries/FWLIB/src\gd32f4xx_rcu.c **** void rcu_interrupt_enable(rcu_int_enum stab_int)
 797:C:/Users/leonardo/Desktop/Code/Github/DawnGBC/Libraries/FWLIB/src\gd32f4xx_rcu.c **** {
 1893              		.loc 1 797 1
 1894              		.cfi_startproc
 1895              		@ args = 0, pretend = 0, frame = 8
 1896              		@ frame_needed = 1, uses_anonymous_args = 0
 1897              		@ link register save eliminated.
 1898 0000 80B4     		push	{r7}
 1899              		.cfi_def_cfa_offset 4
 1900              		.cfi_offset 7, -4
 1901 0002 83B0     		sub	sp, sp, #12
 1902              		.cfi_def_cfa_offset 16
 1903 0004 00AF     		add	r7, sp, #0
 1904              		.cfi_def_cfa_register 7
 1905 0006 0346     		mov	r3, r0
 1906 0008 FB80     		strh	r3, [r7, #6]	@ movhi
 798:C:/Users/leonardo/Desktop/Code/Github/DawnGBC/Libraries/FWLIB/src\gd32f4xx_rcu.c ****     RCU_REG_VAL(stab_int) |= BIT(RCU_BIT_POS(stab_int));
 1907              		.loc 1 798 27
 1908 000a FB88     		ldrh	r3, [r7, #6]
 1909 000c 9B09     		lsrs	r3, r3, #6
 1910 000e 9BB2     		uxth	r3, r3
 1911 0010 03F18043 		add	r3, r3, #1073741824
 1912 0014 03F50E33 		add	r3, r3, #145408
 1913 0018 1968     		ldr	r1, [r3]
 1914              		.loc 1 798 30
 1915 001a FB88     		ldrh	r3, [r7, #6]
 1916 001c 03F01F03 		and	r3, r3, #31
 1917 0020 0122     		movs	r2, #1
 1918 0022 9A40     		lsls	r2, r2, r3
 1919              		.loc 1 798 27
 1920 0024 FB88     		ldrh	r3, [r7, #6]
 1921 0026 9B09     		lsrs	r3, r3, #6
 1922 0028 9BB2     		uxth	r3, r3
 1923 002a 03F18043 		add	r3, r3, #1073741824
 1924 002e 03F50E33 		add	r3, r3, #145408
 1925 0032 1846     		mov	r0, r3
 1926 0034 41EA0203 		orr	r3, r1, r2
 1927 0038 0360     		str	r3, [r0]
 799:C:/Users/leonardo/Desktop/Code/Github/DawnGBC/Libraries/FWLIB/src\gd32f4xx_rcu.c **** }
 1928              		.loc 1 799 1
 1929 003a 00BF     		nop
 1930 003c 0C37     		adds	r7, r7, #12
 1931              		.cfi_def_cfa_offset 4
 1932 003e BD46     		mov	sp, r7
 1933              		.cfi_def_cfa_register 13
 1934              		@ sp needed
 1935 0040 80BC     		pop	{r7}
 1936              		.cfi_restore 7
 1937              		.cfi_def_cfa_offset 0
 1938 0042 7047     		bx	lr
 1939              		.cfi_endproc
 1940              	.LFE152:
 1942              		.section	.text.rcu_interrupt_disable,"ax",%progbits
 1943              		.align	1
 1944              		.global	rcu_interrupt_disable
 1945              		.syntax unified
 1946              		.thumb
 1947              		.thumb_func
 1948              		.fpu softvfp
 1950              	rcu_interrupt_disable:
 1951              	.LFB153:
 800:C:/Users/leonardo/Desktop/Code/Github/DawnGBC/Libraries/FWLIB/src\gd32f4xx_rcu.c **** 
 801:C:/Users/leonardo/Desktop/Code/Github/DawnGBC/Libraries/FWLIB/src\gd32f4xx_rcu.c **** 
 802:C:/Users/leonardo/Desktop/Code/Github/DawnGBC/Libraries/FWLIB/src\gd32f4xx_rcu.c **** /*!
 803:C:/Users/leonardo/Desktop/Code/Github/DawnGBC/Libraries/FWLIB/src\gd32f4xx_rcu.c ****     \brief      disable the stabilization interrupt
 804:C:/Users/leonardo/Desktop/Code/Github/DawnGBC/Libraries/FWLIB/src\gd32f4xx_rcu.c ****     \param[in]  stab_int: clock stabilization interrupt, refer to rcu_int_enum
 805:C:/Users/leonardo/Desktop/Code/Github/DawnGBC/Libraries/FWLIB/src\gd32f4xx_rcu.c ****                 only one parameter can be selected which is shown as below:
 806:C:/Users/leonardo/Desktop/Code/Github/DawnGBC/Libraries/FWLIB/src\gd32f4xx_rcu.c ****       \arg        RCU_INT_IRC32KSTB: IRC32K stabilization interrupt disable
 807:C:/Users/leonardo/Desktop/Code/Github/DawnGBC/Libraries/FWLIB/src\gd32f4xx_rcu.c ****       \arg        RCU_INT_LXTALSTB: LXTAL stabilization interrupt disable
 808:C:/Users/leonardo/Desktop/Code/Github/DawnGBC/Libraries/FWLIB/src\gd32f4xx_rcu.c ****       \arg        RCU_INT_IRC16MSTB: IRC16M stabilization interrupt disable
 809:C:/Users/leonardo/Desktop/Code/Github/DawnGBC/Libraries/FWLIB/src\gd32f4xx_rcu.c ****       \arg        RCU_INT_HXTALSTB: HXTAL stabilization interrupt disable
 810:C:/Users/leonardo/Desktop/Code/Github/DawnGBC/Libraries/FWLIB/src\gd32f4xx_rcu.c ****       \arg        RCU_INT_PLLSTB: PLL stabilization interrupt disable
 811:C:/Users/leonardo/Desktop/Code/Github/DawnGBC/Libraries/FWLIB/src\gd32f4xx_rcu.c ****       \arg        RCU_INT_PLLI2SSTB: PLLI2S stabilization interrupt disable
 812:C:/Users/leonardo/Desktop/Code/Github/DawnGBC/Libraries/FWLIB/src\gd32f4xx_rcu.c ****       \arg        RCU_INT_PLLSAISTB: PLLSAI stabilization interrupt disable
 813:C:/Users/leonardo/Desktop/Code/Github/DawnGBC/Libraries/FWLIB/src\gd32f4xx_rcu.c ****       \arg        RCU_INT_IRC48MSTB: IRC48M stabilization interrupt disable
 814:C:/Users/leonardo/Desktop/Code/Github/DawnGBC/Libraries/FWLIB/src\gd32f4xx_rcu.c ****     \param[out] none
 815:C:/Users/leonardo/Desktop/Code/Github/DawnGBC/Libraries/FWLIB/src\gd32f4xx_rcu.c ****     \retval     none
 816:C:/Users/leonardo/Desktop/Code/Github/DawnGBC/Libraries/FWLIB/src\gd32f4xx_rcu.c **** */
 817:C:/Users/leonardo/Desktop/Code/Github/DawnGBC/Libraries/FWLIB/src\gd32f4xx_rcu.c **** void rcu_interrupt_disable(rcu_int_enum stab_int)
 818:C:/Users/leonardo/Desktop/Code/Github/DawnGBC/Libraries/FWLIB/src\gd32f4xx_rcu.c **** {
 1952              		.loc 1 818 1
 1953              		.cfi_startproc
 1954              		@ args = 0, pretend = 0, frame = 8
 1955              		@ frame_needed = 1, uses_anonymous_args = 0
 1956              		@ link register save eliminated.
 1957 0000 80B4     		push	{r7}
 1958              		.cfi_def_cfa_offset 4
 1959              		.cfi_offset 7, -4
 1960 0002 83B0     		sub	sp, sp, #12
 1961              		.cfi_def_cfa_offset 16
 1962 0004 00AF     		add	r7, sp, #0
 1963              		.cfi_def_cfa_register 7
 1964 0006 0346     		mov	r3, r0
 1965 0008 FB80     		strh	r3, [r7, #6]	@ movhi
 819:C:/Users/leonardo/Desktop/Code/Github/DawnGBC/Libraries/FWLIB/src\gd32f4xx_rcu.c ****     RCU_REG_VAL(stab_int) &= ~BIT(RCU_BIT_POS(stab_int));
 1966              		.loc 1 819 27
 1967 000a FB88     		ldrh	r3, [r7, #6]
 1968 000c 9B09     		lsrs	r3, r3, #6
 1969 000e 9BB2     		uxth	r3, r3
 1970 0010 03F18043 		add	r3, r3, #1073741824
 1971 0014 03F50E33 		add	r3, r3, #145408
 1972 0018 1968     		ldr	r1, [r3]
 1973              		.loc 1 819 31
 1974 001a FB88     		ldrh	r3, [r7, #6]
 1975 001c 03F01F03 		and	r3, r3, #31
 1976 0020 0122     		movs	r2, #1
 1977 0022 02FA03F3 		lsl	r3, r2, r3
 1978              		.loc 1 819 30
 1979 0026 DA43     		mvns	r2, r3
 1980              		.loc 1 819 27
 1981 0028 FB88     		ldrh	r3, [r7, #6]
 1982 002a 9B09     		lsrs	r3, r3, #6
 1983 002c 9BB2     		uxth	r3, r3
 1984 002e 03F18043 		add	r3, r3, #1073741824
 1985 0032 03F50E33 		add	r3, r3, #145408
 1986 0036 1846     		mov	r0, r3
 1987 0038 01EA0203 		and	r3, r1, r2
 1988 003c 0360     		str	r3, [r0]
 820:C:/Users/leonardo/Desktop/Code/Github/DawnGBC/Libraries/FWLIB/src\gd32f4xx_rcu.c **** }
 1989              		.loc 1 820 1
 1990 003e 00BF     		nop
 1991 0040 0C37     		adds	r7, r7, #12
 1992              		.cfi_def_cfa_offset 4
 1993 0042 BD46     		mov	sp, r7
 1994              		.cfi_def_cfa_register 13
 1995              		@ sp needed
 1996 0044 80BC     		pop	{r7}
 1997              		.cfi_restore 7
 1998              		.cfi_def_cfa_offset 0
 1999 0046 7047     		bx	lr
 2000              		.cfi_endproc
 2001              	.LFE153:
 2003              		.section	.text.rcu_lxtal_drive_capability_config,"ax",%progbits
 2004              		.align	1
 2005              		.global	rcu_lxtal_drive_capability_config
 2006              		.syntax unified
 2007              		.thumb
 2008              		.thumb_func
 2009              		.fpu softvfp
 2011              	rcu_lxtal_drive_capability_config:
 2012              	.LFB154:
 821:C:/Users/leonardo/Desktop/Code/Github/DawnGBC/Libraries/FWLIB/src\gd32f4xx_rcu.c **** 
 822:C:/Users/leonardo/Desktop/Code/Github/DawnGBC/Libraries/FWLIB/src\gd32f4xx_rcu.c **** /*!
 823:C:/Users/leonardo/Desktop/Code/Github/DawnGBC/Libraries/FWLIB/src\gd32f4xx_rcu.c ****     \brief      configure the LXTAL drive capability
 824:C:/Users/leonardo/Desktop/Code/Github/DawnGBC/Libraries/FWLIB/src\gd32f4xx_rcu.c ****     \param[in]  lxtal_dricap: drive capability of LXTAL
 825:C:/Users/leonardo/Desktop/Code/Github/DawnGBC/Libraries/FWLIB/src\gd32f4xx_rcu.c ****                 only one parameter can be selected which is shown as below:
 826:C:/Users/leonardo/Desktop/Code/Github/DawnGBC/Libraries/FWLIB/src\gd32f4xx_rcu.c ****       \arg        RCU_LXTALDRI_LOWER_DRIVE: lower driving capability
 827:C:/Users/leonardo/Desktop/Code/Github/DawnGBC/Libraries/FWLIB/src\gd32f4xx_rcu.c ****       \arg        RCU_LXTALDRI_HIGHER_DRIVE: higher driving capability
 828:C:/Users/leonardo/Desktop/Code/Github/DawnGBC/Libraries/FWLIB/src\gd32f4xx_rcu.c ****     \param[out] none
 829:C:/Users/leonardo/Desktop/Code/Github/DawnGBC/Libraries/FWLIB/src\gd32f4xx_rcu.c ****     \retval     none
 830:C:/Users/leonardo/Desktop/Code/Github/DawnGBC/Libraries/FWLIB/src\gd32f4xx_rcu.c **** */
 831:C:/Users/leonardo/Desktop/Code/Github/DawnGBC/Libraries/FWLIB/src\gd32f4xx_rcu.c **** void rcu_lxtal_drive_capability_config(uint32_t lxtal_dricap)
 832:C:/Users/leonardo/Desktop/Code/Github/DawnGBC/Libraries/FWLIB/src\gd32f4xx_rcu.c **** {
 2013              		.loc 1 832 1
 2014              		.cfi_startproc
 2015              		@ args = 0, pretend = 0, frame = 16
 2016              		@ frame_needed = 1, uses_anonymous_args = 0
 2017              		@ link register save eliminated.
 2018 0000 80B4     		push	{r7}
 2019              		.cfi_def_cfa_offset 4
 2020              		.cfi_offset 7, -4
 2021 0002 85B0     		sub	sp, sp, #20
 2022              		.cfi_def_cfa_offset 24
 2023 0004 00AF     		add	r7, sp, #0
 2024              		.cfi_def_cfa_register 7
 2025 0006 7860     		str	r0, [r7, #4]
 833:C:/Users/leonardo/Desktop/Code/Github/DawnGBC/Libraries/FWLIB/src\gd32f4xx_rcu.c ****     uint32_t reg;
 834:C:/Users/leonardo/Desktop/Code/Github/DawnGBC/Libraries/FWLIB/src\gd32f4xx_rcu.c ****     
 835:C:/Users/leonardo/Desktop/Code/Github/DawnGBC/Libraries/FWLIB/src\gd32f4xx_rcu.c ****     reg = RCU_BDCTL;
 2026              		.loc 1 835 11
 2027 0008 084B     		ldr	r3, .L91
 2028              		.loc 1 835 9
 2029 000a 1B68     		ldr	r3, [r3]
 2030 000c FB60     		str	r3, [r7, #12]
 836:C:/Users/leonardo/Desktop/Code/Github/DawnGBC/Libraries/FWLIB/src\gd32f4xx_rcu.c ****     
 837:C:/Users/leonardo/Desktop/Code/Github/DawnGBC/Libraries/FWLIB/src\gd32f4xx_rcu.c ****     /* reset the LXTALDRI bits and set according to lxtal_dricap */
 838:C:/Users/leonardo/Desktop/Code/Github/DawnGBC/Libraries/FWLIB/src\gd32f4xx_rcu.c ****     reg &= ~RCU_BDCTL_LXTALDRI;
 2031              		.loc 1 838 9
 2032 000e FB68     		ldr	r3, [r7, #12]
 2033 0010 23F00803 		bic	r3, r3, #8
 2034 0014 FB60     		str	r3, [r7, #12]
 839:C:/Users/leonardo/Desktop/Code/Github/DawnGBC/Libraries/FWLIB/src\gd32f4xx_rcu.c ****     RCU_BDCTL = (reg | lxtal_dricap);
 2035              		.loc 1 839 5
 2036 0016 0549     		ldr	r1, .L91
 2037              		.loc 1 839 22
 2038 0018 FA68     		ldr	r2, [r7, #12]
 2039 001a 7B68     		ldr	r3, [r7, #4]
 2040 001c 1343     		orrs	r3, r3, r2
 2041              		.loc 1 839 15
 2042 001e 0B60     		str	r3, [r1]
 840:C:/Users/leonardo/Desktop/Code/Github/DawnGBC/Libraries/FWLIB/src\gd32f4xx_rcu.c **** }
 2043              		.loc 1 840 1
 2044 0020 00BF     		nop
 2045 0022 1437     		adds	r7, r7, #20
 2046              		.cfi_def_cfa_offset 4
 2047 0024 BD46     		mov	sp, r7
 2048              		.cfi_def_cfa_register 13
 2049              		@ sp needed
 2050 0026 80BC     		pop	{r7}
 2051              		.cfi_restore 7
 2052              		.cfi_def_cfa_offset 0
 2053 0028 7047     		bx	lr
 2054              	.L92:
 2055 002a 00BF     		.align	2
 2056              	.L91:
 2057 002c 70380240 		.word	1073887344
 2058              		.cfi_endproc
 2059              	.LFE154:
 2061              		.section	.text.rcu_osci_stab_wait,"ax",%progbits
 2062              		.align	1
 2063              		.global	rcu_osci_stab_wait
 2064              		.syntax unified
 2065              		.thumb
 2066              		.thumb_func
 2067              		.fpu softvfp
 2069              	rcu_osci_stab_wait:
 2070              	.LFB155:
 841:C:/Users/leonardo/Desktop/Code/Github/DawnGBC/Libraries/FWLIB/src\gd32f4xx_rcu.c **** 
 842:C:/Users/leonardo/Desktop/Code/Github/DawnGBC/Libraries/FWLIB/src\gd32f4xx_rcu.c **** /*!
 843:C:/Users/leonardo/Desktop/Code/Github/DawnGBC/Libraries/FWLIB/src\gd32f4xx_rcu.c ****     \brief      wait for oscillator stabilization flags is SET or oscillator startup is timeout
 844:C:/Users/leonardo/Desktop/Code/Github/DawnGBC/Libraries/FWLIB/src\gd32f4xx_rcu.c ****     \param[in]  osci: oscillator types, refer to rcu_osci_type_enum
 845:C:/Users/leonardo/Desktop/Code/Github/DawnGBC/Libraries/FWLIB/src\gd32f4xx_rcu.c ****                 only one parameter can be selected which is shown as below:
 846:C:/Users/leonardo/Desktop/Code/Github/DawnGBC/Libraries/FWLIB/src\gd32f4xx_rcu.c ****       \arg        RCU_HXTAL: HXTAL
 847:C:/Users/leonardo/Desktop/Code/Github/DawnGBC/Libraries/FWLIB/src\gd32f4xx_rcu.c ****       \arg        RCU_LXTAL: LXTAL
 848:C:/Users/leonardo/Desktop/Code/Github/DawnGBC/Libraries/FWLIB/src\gd32f4xx_rcu.c ****       \arg        RCU_IRC16M: IRC16M
 849:C:/Users/leonardo/Desktop/Code/Github/DawnGBC/Libraries/FWLIB/src\gd32f4xx_rcu.c ****       \arg        RCU_IRC48M: IRC48M
 850:C:/Users/leonardo/Desktop/Code/Github/DawnGBC/Libraries/FWLIB/src\gd32f4xx_rcu.c ****       \arg        RCU_IRC32K: IRC32K
 851:C:/Users/leonardo/Desktop/Code/Github/DawnGBC/Libraries/FWLIB/src\gd32f4xx_rcu.c ****       \arg        RCU_PLL_CK: PLL
 852:C:/Users/leonardo/Desktop/Code/Github/DawnGBC/Libraries/FWLIB/src\gd32f4xx_rcu.c ****       \arg        RCU_PLLI2S_CK: PLLI2S
 853:C:/Users/leonardo/Desktop/Code/Github/DawnGBC/Libraries/FWLIB/src\gd32f4xx_rcu.c ****       \arg        RCU_PLLSAI_CK: PLLSAI
 854:C:/Users/leonardo/Desktop/Code/Github/DawnGBC/Libraries/FWLIB/src\gd32f4xx_rcu.c ****     \param[out] none
 855:C:/Users/leonardo/Desktop/Code/Github/DawnGBC/Libraries/FWLIB/src\gd32f4xx_rcu.c ****     \retval     ErrStatus: SUCCESS or ERROR
 856:C:/Users/leonardo/Desktop/Code/Github/DawnGBC/Libraries/FWLIB/src\gd32f4xx_rcu.c **** */
 857:C:/Users/leonardo/Desktop/Code/Github/DawnGBC/Libraries/FWLIB/src\gd32f4xx_rcu.c **** ErrStatus rcu_osci_stab_wait(rcu_osci_type_enum osci)
 858:C:/Users/leonardo/Desktop/Code/Github/DawnGBC/Libraries/FWLIB/src\gd32f4xx_rcu.c **** {
 2071              		.loc 1 858 1
 2072              		.cfi_startproc
 2073              		@ args = 0, pretend = 0, frame = 16
 2074              		@ frame_needed = 1, uses_anonymous_args = 0
 2075 0000 80B5     		push	{r7, lr}
 2076              		.cfi_def_cfa_offset 8
 2077              		.cfi_offset 7, -8
 2078              		.cfi_offset 14, -4
 2079 0002 84B0     		sub	sp, sp, #16
 2080              		.cfi_def_cfa_offset 24
 2081 0004 00AF     		add	r7, sp, #0
 2082              		.cfi_def_cfa_register 7
 2083 0006 0346     		mov	r3, r0
 2084 0008 FB80     		strh	r3, [r7, #6]	@ movhi
 859:C:/Users/leonardo/Desktop/Code/Github/DawnGBC/Libraries/FWLIB/src\gd32f4xx_rcu.c ****     uint32_t stb_cnt = 0U;
 2085              		.loc 1 859 14
 2086 000a 0023     		movs	r3, #0
 2087 000c FB60     		str	r3, [r7, #12]
 860:C:/Users/leonardo/Desktop/Code/Github/DawnGBC/Libraries/FWLIB/src\gd32f4xx_rcu.c ****     ErrStatus reval = ERROR;
 2088              		.loc 1 860 15
 2089 000e 0023     		movs	r3, #0
 2090 0010 FB72     		strb	r3, [r7, #11]
 861:C:/Users/leonardo/Desktop/Code/Github/DawnGBC/Libraries/FWLIB/src\gd32f4xx_rcu.c ****     FlagStatus osci_stat = RESET;
 2091              		.loc 1 861 16
 2092 0012 0023     		movs	r3, #0
 2093 0014 BB72     		strb	r3, [r7, #10]
 862:C:/Users/leonardo/Desktop/Code/Github/DawnGBC/Libraries/FWLIB/src\gd32f4xx_rcu.c ****     
 863:C:/Users/leonardo/Desktop/Code/Github/DawnGBC/Libraries/FWLIB/src\gd32f4xx_rcu.c ****     switch(osci){
 2094              		.loc 1 863 5
 2095 0016 FB88     		ldrh	r3, [r7, #6]
 2096 0018 43F21002 		movw	r2, #12304
 2097 001c 9342     		cmp	r3, r2
 2098 001e 00F0AE80 		beq	.L118
 2099 0022 43F21002 		movw	r2, #12304
 2100 0026 9342     		cmp	r3, r2
 2101 0028 00F31C81 		bgt	.L139
 2102 002c B3F5E85F 		cmp	r3, #7424
 2103 0030 00F0BF80 		beq	.L122
 2104 0034 B3F5E85F 		cmp	r3, #7424
 2105 0038 00F31481 		bgt	.L139
 2106 003c 1C2B     		cmp	r3, #28
 2107 003e 43DC     		bgt	.L97
 2108 0040 002B     		cmp	r3, #0
 2109 0042 C0F20F81 		blt	.L139
 2110 0046 1C2B     		cmp	r3, #28
 2111 0048 00F20C81 		bhi	.L139
 2112 004c 01A2     		adr	r2, .L99
 2113 004e 52F823F0 		ldr	pc, [r2, r3, lsl #2]
 2114 0052 00BF     		.p2align 2
 2115              	.L99:
 2116 0054 4B010000 		.word	.L114+1
 2117 0058 65020000 		.word	.L139+1
 2118 005c 65020000 		.word	.L139+1
 2119 0060 65020000 		.word	.L139+1
 2120 0064 65020000 		.word	.L139+1
 2121 0068 65020000 		.word	.L139+1
 2122 006c 65020000 		.word	.L139+1
 2123 0070 65020000 		.word	.L139+1
 2124 0074 65020000 		.word	.L139+1
 2125 0078 65020000 		.word	.L139+1
 2126 007c 65020000 		.word	.L139+1
 2127 0080 65020000 		.word	.L139+1
 2128 0084 65020000 		.word	.L139+1
 2129 0088 65020000 		.word	.L139+1
 2130 008c 65020000 		.word	.L139+1
 2131 0090 65020000 		.word	.L139+1
 2132 0094 E1000000 		.word	.L105+1
 2133 0098 65020000 		.word	.L139+1
 2134 009c 65020000 		.word	.L139+1
 2135 00a0 65020000 		.word	.L139+1
 2136 00a4 65020000 		.word	.L139+1
 2137 00a8 65020000 		.word	.L139+1
 2138 00ac 65020000 		.word	.L139+1
 2139 00b0 65020000 		.word	.L139+1
 2140 00b4 E5010000 		.word	.L126+1
 2141 00b8 65020000 		.word	.L139+1
 2142 00bc 15020000 		.word	.L130+1
 2143 00c0 65020000 		.word	.L139+1
 2144 00c4 45020000 		.word	.L134+1
 2145              		.p2align 1
 2146              	.L97:
 2147 00c8 B3F5E05F 		cmp	r3, #7168
 2148 00cc 22D0     		beq	.L110
 864:C:/Users/leonardo/Desktop/Code/Github/DawnGBC/Libraries/FWLIB/src\gd32f4xx_rcu.c ****     /* wait HXTAL stable */
 865:C:/Users/leonardo/Desktop/Code/Github/DawnGBC/Libraries/FWLIB/src\gd32f4xx_rcu.c ****     case RCU_HXTAL:
 866:C:/Users/leonardo/Desktop/Code/Github/DawnGBC/Libraries/FWLIB/src\gd32f4xx_rcu.c ****         while((RESET == osci_stat) && (HXTAL_STARTUP_TIMEOUT != stb_cnt)){
 867:C:/Users/leonardo/Desktop/Code/Github/DawnGBC/Libraries/FWLIB/src\gd32f4xx_rcu.c ****             osci_stat = rcu_flag_get(RCU_FLAG_HXTALSTB);
 868:C:/Users/leonardo/Desktop/Code/Github/DawnGBC/Libraries/FWLIB/src\gd32f4xx_rcu.c ****             stb_cnt++;
 869:C:/Users/leonardo/Desktop/Code/Github/DawnGBC/Libraries/FWLIB/src\gd32f4xx_rcu.c ****         }
 870:C:/Users/leonardo/Desktop/Code/Github/DawnGBC/Libraries/FWLIB/src\gd32f4xx_rcu.c ****         
 871:C:/Users/leonardo/Desktop/Code/Github/DawnGBC/Libraries/FWLIB/src\gd32f4xx_rcu.c ****         /* check whether flag is set */
 872:C:/Users/leonardo/Desktop/Code/Github/DawnGBC/Libraries/FWLIB/src\gd32f4xx_rcu.c ****         if(RESET != rcu_flag_get(RCU_FLAG_HXTALSTB)){
 873:C:/Users/leonardo/Desktop/Code/Github/DawnGBC/Libraries/FWLIB/src\gd32f4xx_rcu.c ****             reval = SUCCESS;
 874:C:/Users/leonardo/Desktop/Code/Github/DawnGBC/Libraries/FWLIB/src\gd32f4xx_rcu.c ****         }
 875:C:/Users/leonardo/Desktop/Code/Github/DawnGBC/Libraries/FWLIB/src\gd32f4xx_rcu.c ****         break;
 876:C:/Users/leonardo/Desktop/Code/Github/DawnGBC/Libraries/FWLIB/src\gd32f4xx_rcu.c ****     /* wait LXTAL stable */
 877:C:/Users/leonardo/Desktop/Code/Github/DawnGBC/Libraries/FWLIB/src\gd32f4xx_rcu.c ****     case RCU_LXTAL:
 878:C:/Users/leonardo/Desktop/Code/Github/DawnGBC/Libraries/FWLIB/src\gd32f4xx_rcu.c ****         while((RESET == osci_stat) && (LXTAL_STARTUP_TIMEOUT != stb_cnt)){
 879:C:/Users/leonardo/Desktop/Code/Github/DawnGBC/Libraries/FWLIB/src\gd32f4xx_rcu.c ****             osci_stat = rcu_flag_get(RCU_FLAG_LXTALSTB);
 880:C:/Users/leonardo/Desktop/Code/Github/DawnGBC/Libraries/FWLIB/src\gd32f4xx_rcu.c ****             stb_cnt++;
 881:C:/Users/leonardo/Desktop/Code/Github/DawnGBC/Libraries/FWLIB/src\gd32f4xx_rcu.c ****         }
 882:C:/Users/leonardo/Desktop/Code/Github/DawnGBC/Libraries/FWLIB/src\gd32f4xx_rcu.c ****         
 883:C:/Users/leonardo/Desktop/Code/Github/DawnGBC/Libraries/FWLIB/src\gd32f4xx_rcu.c ****         /* check whether flag is set */
 884:C:/Users/leonardo/Desktop/Code/Github/DawnGBC/Libraries/FWLIB/src\gd32f4xx_rcu.c ****         if(RESET != rcu_flag_get(RCU_FLAG_LXTALSTB)){
 885:C:/Users/leonardo/Desktop/Code/Github/DawnGBC/Libraries/FWLIB/src\gd32f4xx_rcu.c ****             reval = SUCCESS;
 886:C:/Users/leonardo/Desktop/Code/Github/DawnGBC/Libraries/FWLIB/src\gd32f4xx_rcu.c ****         }
 887:C:/Users/leonardo/Desktop/Code/Github/DawnGBC/Libraries/FWLIB/src\gd32f4xx_rcu.c ****         break;
 888:C:/Users/leonardo/Desktop/Code/Github/DawnGBC/Libraries/FWLIB/src\gd32f4xx_rcu.c ****     /* wait IRC16M stable */    
 889:C:/Users/leonardo/Desktop/Code/Github/DawnGBC/Libraries/FWLIB/src\gd32f4xx_rcu.c ****     case RCU_IRC16M:
 890:C:/Users/leonardo/Desktop/Code/Github/DawnGBC/Libraries/FWLIB/src\gd32f4xx_rcu.c ****         while((RESET == osci_stat) && (IRC16M_STARTUP_TIMEOUT != stb_cnt)){
 891:C:/Users/leonardo/Desktop/Code/Github/DawnGBC/Libraries/FWLIB/src\gd32f4xx_rcu.c ****             osci_stat = rcu_flag_get(RCU_FLAG_IRC16MSTB);
 892:C:/Users/leonardo/Desktop/Code/Github/DawnGBC/Libraries/FWLIB/src\gd32f4xx_rcu.c ****             stb_cnt++;
 893:C:/Users/leonardo/Desktop/Code/Github/DawnGBC/Libraries/FWLIB/src\gd32f4xx_rcu.c ****         }
 894:C:/Users/leonardo/Desktop/Code/Github/DawnGBC/Libraries/FWLIB/src\gd32f4xx_rcu.c ****         
 895:C:/Users/leonardo/Desktop/Code/Github/DawnGBC/Libraries/FWLIB/src\gd32f4xx_rcu.c ****         /* check whether flag is set */
 896:C:/Users/leonardo/Desktop/Code/Github/DawnGBC/Libraries/FWLIB/src\gd32f4xx_rcu.c ****         if(RESET != rcu_flag_get(RCU_FLAG_IRC16MSTB)){
 897:C:/Users/leonardo/Desktop/Code/Github/DawnGBC/Libraries/FWLIB/src\gd32f4xx_rcu.c ****             reval = SUCCESS;
 898:C:/Users/leonardo/Desktop/Code/Github/DawnGBC/Libraries/FWLIB/src\gd32f4xx_rcu.c ****         }
 899:C:/Users/leonardo/Desktop/Code/Github/DawnGBC/Libraries/FWLIB/src\gd32f4xx_rcu.c ****         break;
 900:C:/Users/leonardo/Desktop/Code/Github/DawnGBC/Libraries/FWLIB/src\gd32f4xx_rcu.c ****     /* wait IRC48M stable */    
 901:C:/Users/leonardo/Desktop/Code/Github/DawnGBC/Libraries/FWLIB/src\gd32f4xx_rcu.c ****     case RCU_IRC48M:
 902:C:/Users/leonardo/Desktop/Code/Github/DawnGBC/Libraries/FWLIB/src\gd32f4xx_rcu.c ****         while((RESET == osci_stat) && (OSC_STARTUP_TIMEOUT != stb_cnt)){
 903:C:/Users/leonardo/Desktop/Code/Github/DawnGBC/Libraries/FWLIB/src\gd32f4xx_rcu.c ****             osci_stat = rcu_flag_get(RCU_FLAG_IRC48MSTB);
 904:C:/Users/leonardo/Desktop/Code/Github/DawnGBC/Libraries/FWLIB/src\gd32f4xx_rcu.c ****             stb_cnt++;
 905:C:/Users/leonardo/Desktop/Code/Github/DawnGBC/Libraries/FWLIB/src\gd32f4xx_rcu.c ****         }
 906:C:/Users/leonardo/Desktop/Code/Github/DawnGBC/Libraries/FWLIB/src\gd32f4xx_rcu.c ****         
 907:C:/Users/leonardo/Desktop/Code/Github/DawnGBC/Libraries/FWLIB/src\gd32f4xx_rcu.c ****         /* check whether flag is set */
 908:C:/Users/leonardo/Desktop/Code/Github/DawnGBC/Libraries/FWLIB/src\gd32f4xx_rcu.c ****         if (RESET != rcu_flag_get(RCU_FLAG_IRC48MSTB)){
 909:C:/Users/leonardo/Desktop/Code/Github/DawnGBC/Libraries/FWLIB/src\gd32f4xx_rcu.c ****             reval = SUCCESS;
 910:C:/Users/leonardo/Desktop/Code/Github/DawnGBC/Libraries/FWLIB/src\gd32f4xx_rcu.c ****         }
 911:C:/Users/leonardo/Desktop/Code/Github/DawnGBC/Libraries/FWLIB/src\gd32f4xx_rcu.c ****         break;
 912:C:/Users/leonardo/Desktop/Code/Github/DawnGBC/Libraries/FWLIB/src\gd32f4xx_rcu.c ****     /* wait IRC32K stable */
 913:C:/Users/leonardo/Desktop/Code/Github/DawnGBC/Libraries/FWLIB/src\gd32f4xx_rcu.c ****     case RCU_IRC32K:
 914:C:/Users/leonardo/Desktop/Code/Github/DawnGBC/Libraries/FWLIB/src\gd32f4xx_rcu.c ****         while((RESET == osci_stat) && (OSC_STARTUP_TIMEOUT != stb_cnt)){
 915:C:/Users/leonardo/Desktop/Code/Github/DawnGBC/Libraries/FWLIB/src\gd32f4xx_rcu.c ****             osci_stat = rcu_flag_get(RCU_FLAG_IRC32KSTB);
 916:C:/Users/leonardo/Desktop/Code/Github/DawnGBC/Libraries/FWLIB/src\gd32f4xx_rcu.c ****             stb_cnt++;
 917:C:/Users/leonardo/Desktop/Code/Github/DawnGBC/Libraries/FWLIB/src\gd32f4xx_rcu.c ****         }
 918:C:/Users/leonardo/Desktop/Code/Github/DawnGBC/Libraries/FWLIB/src\gd32f4xx_rcu.c ****         
 919:C:/Users/leonardo/Desktop/Code/Github/DawnGBC/Libraries/FWLIB/src\gd32f4xx_rcu.c ****         /* check whether flag is set */
 920:C:/Users/leonardo/Desktop/Code/Github/DawnGBC/Libraries/FWLIB/src\gd32f4xx_rcu.c ****         if(RESET != rcu_flag_get(RCU_FLAG_IRC32KSTB)){
 921:C:/Users/leonardo/Desktop/Code/Github/DawnGBC/Libraries/FWLIB/src\gd32f4xx_rcu.c ****             reval = SUCCESS;
 922:C:/Users/leonardo/Desktop/Code/Github/DawnGBC/Libraries/FWLIB/src\gd32f4xx_rcu.c ****         }
 923:C:/Users/leonardo/Desktop/Code/Github/DawnGBC/Libraries/FWLIB/src\gd32f4xx_rcu.c ****         break;
 924:C:/Users/leonardo/Desktop/Code/Github/DawnGBC/Libraries/FWLIB/src\gd32f4xx_rcu.c ****     /* wait PLL stable */    
 925:C:/Users/leonardo/Desktop/Code/Github/DawnGBC/Libraries/FWLIB/src\gd32f4xx_rcu.c ****     case RCU_PLL_CK:
 926:C:/Users/leonardo/Desktop/Code/Github/DawnGBC/Libraries/FWLIB/src\gd32f4xx_rcu.c ****         while((RESET == osci_stat) && (OSC_STARTUP_TIMEOUT != stb_cnt)){
 927:C:/Users/leonardo/Desktop/Code/Github/DawnGBC/Libraries/FWLIB/src\gd32f4xx_rcu.c ****             osci_stat = rcu_flag_get(RCU_FLAG_PLLSTB);
 928:C:/Users/leonardo/Desktop/Code/Github/DawnGBC/Libraries/FWLIB/src\gd32f4xx_rcu.c ****             stb_cnt++;
 929:C:/Users/leonardo/Desktop/Code/Github/DawnGBC/Libraries/FWLIB/src\gd32f4xx_rcu.c ****         }
 930:C:/Users/leonardo/Desktop/Code/Github/DawnGBC/Libraries/FWLIB/src\gd32f4xx_rcu.c ****         
 931:C:/Users/leonardo/Desktop/Code/Github/DawnGBC/Libraries/FWLIB/src\gd32f4xx_rcu.c ****         /* check whether flag is set */
 932:C:/Users/leonardo/Desktop/Code/Github/DawnGBC/Libraries/FWLIB/src\gd32f4xx_rcu.c ****         if(RESET != rcu_flag_get(RCU_FLAG_PLLSTB)){
 933:C:/Users/leonardo/Desktop/Code/Github/DawnGBC/Libraries/FWLIB/src\gd32f4xx_rcu.c ****             reval = SUCCESS;
 934:C:/Users/leonardo/Desktop/Code/Github/DawnGBC/Libraries/FWLIB/src\gd32f4xx_rcu.c ****         }
 935:C:/Users/leonardo/Desktop/Code/Github/DawnGBC/Libraries/FWLIB/src\gd32f4xx_rcu.c ****         break;
 936:C:/Users/leonardo/Desktop/Code/Github/DawnGBC/Libraries/FWLIB/src\gd32f4xx_rcu.c ****     /* wait PLLI2S stable */
 937:C:/Users/leonardo/Desktop/Code/Github/DawnGBC/Libraries/FWLIB/src\gd32f4xx_rcu.c ****     case RCU_PLLI2S_CK:
 938:C:/Users/leonardo/Desktop/Code/Github/DawnGBC/Libraries/FWLIB/src\gd32f4xx_rcu.c ****         while((RESET == osci_stat) && (OSC_STARTUP_TIMEOUT != stb_cnt)){
 939:C:/Users/leonardo/Desktop/Code/Github/DawnGBC/Libraries/FWLIB/src\gd32f4xx_rcu.c ****             osci_stat = rcu_flag_get(RCU_FLAG_PLLI2SSTB);
 940:C:/Users/leonardo/Desktop/Code/Github/DawnGBC/Libraries/FWLIB/src\gd32f4xx_rcu.c ****             stb_cnt++;
 941:C:/Users/leonardo/Desktop/Code/Github/DawnGBC/Libraries/FWLIB/src\gd32f4xx_rcu.c ****         }
 942:C:/Users/leonardo/Desktop/Code/Github/DawnGBC/Libraries/FWLIB/src\gd32f4xx_rcu.c ****         
 943:C:/Users/leonardo/Desktop/Code/Github/DawnGBC/Libraries/FWLIB/src\gd32f4xx_rcu.c ****         /* check whether flag is set */
 944:C:/Users/leonardo/Desktop/Code/Github/DawnGBC/Libraries/FWLIB/src\gd32f4xx_rcu.c ****         if(RESET != rcu_flag_get(RCU_FLAG_PLLI2SSTB)){
 945:C:/Users/leonardo/Desktop/Code/Github/DawnGBC/Libraries/FWLIB/src\gd32f4xx_rcu.c ****             reval = SUCCESS;
 946:C:/Users/leonardo/Desktop/Code/Github/DawnGBC/Libraries/FWLIB/src\gd32f4xx_rcu.c ****         }
 947:C:/Users/leonardo/Desktop/Code/Github/DawnGBC/Libraries/FWLIB/src\gd32f4xx_rcu.c ****         break;
 948:C:/Users/leonardo/Desktop/Code/Github/DawnGBC/Libraries/FWLIB/src\gd32f4xx_rcu.c ****     /* wait PLLSAI stable */    
 949:C:/Users/leonardo/Desktop/Code/Github/DawnGBC/Libraries/FWLIB/src\gd32f4xx_rcu.c ****     case RCU_PLLSAI_CK:
 950:C:/Users/leonardo/Desktop/Code/Github/DawnGBC/Libraries/FWLIB/src\gd32f4xx_rcu.c ****         while((RESET == osci_stat) && (OSC_STARTUP_TIMEOUT != stb_cnt)){
 951:C:/Users/leonardo/Desktop/Code/Github/DawnGBC/Libraries/FWLIB/src\gd32f4xx_rcu.c ****             osci_stat = rcu_flag_get(RCU_FLAG_PLLSAISTB);
 952:C:/Users/leonardo/Desktop/Code/Github/DawnGBC/Libraries/FWLIB/src\gd32f4xx_rcu.c ****             stb_cnt++;
 953:C:/Users/leonardo/Desktop/Code/Github/DawnGBC/Libraries/FWLIB/src\gd32f4xx_rcu.c ****         }
 954:C:/Users/leonardo/Desktop/Code/Github/DawnGBC/Libraries/FWLIB/src\gd32f4xx_rcu.c ****         
 955:C:/Users/leonardo/Desktop/Code/Github/DawnGBC/Libraries/FWLIB/src\gd32f4xx_rcu.c ****         /* check whether flag is set */
 956:C:/Users/leonardo/Desktop/Code/Github/DawnGBC/Libraries/FWLIB/src\gd32f4xx_rcu.c ****         if(RESET != rcu_flag_get(RCU_FLAG_PLLSAISTB)){
 957:C:/Users/leonardo/Desktop/Code/Github/DawnGBC/Libraries/FWLIB/src\gd32f4xx_rcu.c ****             reval = SUCCESS;
 958:C:/Users/leonardo/Desktop/Code/Github/DawnGBC/Libraries/FWLIB/src\gd32f4xx_rcu.c ****         }
 959:C:/Users/leonardo/Desktop/Code/Github/DawnGBC/Libraries/FWLIB/src\gd32f4xx_rcu.c ****         break;
 960:C:/Users/leonardo/Desktop/Code/Github/DawnGBC/Libraries/FWLIB/src\gd32f4xx_rcu.c ****     
 961:C:/Users/leonardo/Desktop/Code/Github/DawnGBC/Libraries/FWLIB/src\gd32f4xx_rcu.c ****     default:
 962:C:/Users/leonardo/Desktop/Code/Github/DawnGBC/Libraries/FWLIB/src\gd32f4xx_rcu.c ****         break;
 2149              		.loc 1 962 9
 2150 00ce C9E0     		b	.L139
 2151              	.L107:
 867:C:/Users/leonardo/Desktop/Code/Github/DawnGBC/Libraries/FWLIB/src\gd32f4xx_rcu.c ****             stb_cnt++;
 2152              		.loc 1 867 25
 2153 00d0 1120     		movs	r0, #17
 2154 00d2 FFF7FEFF 		bl	rcu_flag_get
 2155 00d6 0346     		mov	r3, r0
 2156 00d8 BB72     		strb	r3, [r7, #10]
 868:C:/Users/leonardo/Desktop/Code/Github/DawnGBC/Libraries/FWLIB/src\gd32f4xx_rcu.c ****         }
 2157              		.loc 1 868 20
 2158 00da FB68     		ldr	r3, [r7, #12]
 2159 00dc 0133     		adds	r3, r3, #1
 2160 00de FB60     		str	r3, [r7, #12]
 2161              	.L105:
 866:C:/Users/leonardo/Desktop/Code/Github/DawnGBC/Libraries/FWLIB/src\gd32f4xx_rcu.c ****             osci_stat = rcu_flag_get(RCU_FLAG_HXTALSTB);
 2162              		.loc 1 866 14
 2163 00e0 BB7A     		ldrb	r3, [r7, #10]	@ zero_extendqisi2
 2164 00e2 002B     		cmp	r3, #0
 2165 00e4 03D1     		bne	.L106
 866:C:/Users/leonardo/Desktop/Code/Github/DawnGBC/Libraries/FWLIB/src\gd32f4xx_rcu.c ****             osci_stat = rcu_flag_get(RCU_FLAG_HXTALSTB);
 2166              		.loc 1 866 36 discriminator 1
 2167 00e6 FB68     		ldr	r3, [r7, #12]
 2168 00e8 B3F5004F 		cmp	r3, #32768
 2169 00ec F0D1     		bne	.L107
 2170              	.L106:
 872:C:/Users/leonardo/Desktop/Code/Github/DawnGBC/Libraries/FWLIB/src\gd32f4xx_rcu.c ****             reval = SUCCESS;
 2171              		.loc 1 872 21
 2172 00ee 1120     		movs	r0, #17
 2173 00f0 FFF7FEFF 		bl	rcu_flag_get
 2174 00f4 0346     		mov	r3, r0
 872:C:/Users/leonardo/Desktop/Code/Github/DawnGBC/Libraries/FWLIB/src\gd32f4xx_rcu.c ****             reval = SUCCESS;
 2175              		.loc 1 872 11
 2176 00f6 002B     		cmp	r3, #0
 2177 00f8 00F0B680 		beq	.L140
 873:C:/Users/leonardo/Desktop/Code/Github/DawnGBC/Libraries/FWLIB/src\gd32f4xx_rcu.c ****         }
 2178              		.loc 1 873 19
 2179 00fc 0123     		movs	r3, #1
 2180 00fe FB72     		strb	r3, [r7, #11]
 875:C:/Users/leonardo/Desktop/Code/Github/DawnGBC/Libraries/FWLIB/src\gd32f4xx_rcu.c ****     /* wait LXTAL stable */
 2181              		.loc 1 875 9
 2182 0100 B2E0     		b	.L140
 2183              	.L112:
 879:C:/Users/leonardo/Desktop/Code/Github/DawnGBC/Libraries/FWLIB/src\gd32f4xx_rcu.c ****             stb_cnt++;
 2184              		.loc 1 879 25
 2185 0102 41F60140 		movw	r0, #7169
 2186 0106 FFF7FEFF 		bl	rcu_flag_get
 2187 010a 0346     		mov	r3, r0
 2188 010c BB72     		strb	r3, [r7, #10]
 880:C:/Users/leonardo/Desktop/Code/Github/DawnGBC/Libraries/FWLIB/src\gd32f4xx_rcu.c ****         }
 2189              		.loc 1 880 20
 2190 010e FB68     		ldr	r3, [r7, #12]
 2191 0110 0133     		adds	r3, r3, #1
 2192 0112 FB60     		str	r3, [r7, #12]
 2193              	.L110:
 878:C:/Users/leonardo/Desktop/Code/Github/DawnGBC/Libraries/FWLIB/src\gd32f4xx_rcu.c ****             osci_stat = rcu_flag_get(RCU_FLAG_LXTALSTB);
 2194              		.loc 1 878 14
 2195 0114 BB7A     		ldrb	r3, [r7, #10]	@ zero_extendqisi2
 2196 0116 002B     		cmp	r3, #0
 2197 0118 04D1     		bne	.L111
 878:C:/Users/leonardo/Desktop/Code/Github/DawnGBC/Libraries/FWLIB/src\gd32f4xx_rcu.c ****             osci_stat = rcu_flag_get(RCU_FLAG_LXTALSTB);
 2198              		.loc 1 878 36 discriminator 1
 2199 011a FB68     		ldr	r3, [r7, #12]
 2200 011c 6FF07C42 		mvn	r2, #-67108864
 2201 0120 9342     		cmp	r3, r2
 2202 0122 EED1     		bne	.L112
 2203              	.L111:
 884:C:/Users/leonardo/Desktop/Code/Github/DawnGBC/Libraries/FWLIB/src\gd32f4xx_rcu.c ****             reval = SUCCESS;
 2204              		.loc 1 884 21
 2205 0124 41F60140 		movw	r0, #7169
 2206 0128 FFF7FEFF 		bl	rcu_flag_get
 2207 012c 0346     		mov	r3, r0
 884:C:/Users/leonardo/Desktop/Code/Github/DawnGBC/Libraries/FWLIB/src\gd32f4xx_rcu.c ****             reval = SUCCESS;
 2208              		.loc 1 884 11
 2209 012e 002B     		cmp	r3, #0
 2210 0130 00F09C80 		beq	.L141
 885:C:/Users/leonardo/Desktop/Code/Github/DawnGBC/Libraries/FWLIB/src\gd32f4xx_rcu.c ****         }
 2211              		.loc 1 885 19
 2212 0134 0123     		movs	r3, #1
 2213 0136 FB72     		strb	r3, [r7, #11]
 887:C:/Users/leonardo/Desktop/Code/Github/DawnGBC/Libraries/FWLIB/src\gd32f4xx_rcu.c ****     /* wait IRC16M stable */    
 2214              		.loc 1 887 9
 2215 0138 98E0     		b	.L141
 2216              	.L116:
 891:C:/Users/leonardo/Desktop/Code/Github/DawnGBC/Libraries/FWLIB/src\gd32f4xx_rcu.c ****             stb_cnt++;
 2217              		.loc 1 891 25
 2218 013a 0120     		movs	r0, #1
 2219 013c FFF7FEFF 		bl	rcu_flag_get
 2220 0140 0346     		mov	r3, r0
 2221 0142 BB72     		strb	r3, [r7, #10]
 892:C:/Users/leonardo/Desktop/Code/Github/DawnGBC/Libraries/FWLIB/src\gd32f4xx_rcu.c ****         }
 2222              		.loc 1 892 20
 2223 0144 FB68     		ldr	r3, [r7, #12]
 2224 0146 0133     		adds	r3, r3, #1
 2225 0148 FB60     		str	r3, [r7, #12]
 2226              	.L114:
 890:C:/Users/leonardo/Desktop/Code/Github/DawnGBC/Libraries/FWLIB/src\gd32f4xx_rcu.c ****             osci_stat = rcu_flag_get(RCU_FLAG_IRC16MSTB);
 2227              		.loc 1 890 14
 2228 014a BB7A     		ldrb	r3, [r7, #10]	@ zero_extendqisi2
 2229 014c 002B     		cmp	r3, #0
 2230 014e 03D1     		bne	.L115
 890:C:/Users/leonardo/Desktop/Code/Github/DawnGBC/Libraries/FWLIB/src\gd32f4xx_rcu.c ****             osci_stat = rcu_flag_get(RCU_FLAG_IRC16MSTB);
 2231              		.loc 1 890 36 discriminator 1
 2232 0150 FB68     		ldr	r3, [r7, #12]
 2233 0152 B3F5A06F 		cmp	r3, #1280
 2234 0156 F0D1     		bne	.L116
 2235              	.L115:
 896:C:/Users/leonardo/Desktop/Code/Github/DawnGBC/Libraries/FWLIB/src\gd32f4xx_rcu.c ****             reval = SUCCESS;
 2236              		.loc 1 896 21
 2237 0158 0120     		movs	r0, #1
 2238 015a FFF7FEFF 		bl	rcu_flag_get
 2239 015e 0346     		mov	r3, r0
 896:C:/Users/leonardo/Desktop/Code/Github/DawnGBC/Libraries/FWLIB/src\gd32f4xx_rcu.c ****             reval = SUCCESS;
 2240              		.loc 1 896 11
 2241 0160 002B     		cmp	r3, #0
 2242 0162 00F08580 		beq	.L142
 897:C:/Users/leonardo/Desktop/Code/Github/DawnGBC/Libraries/FWLIB/src\gd32f4xx_rcu.c ****         }
 2243              		.loc 1 897 19
 2244 0166 0123     		movs	r3, #1
 2245 0168 FB72     		strb	r3, [r7, #11]
 899:C:/Users/leonardo/Desktop/Code/Github/DawnGBC/Libraries/FWLIB/src\gd32f4xx_rcu.c ****     /* wait IRC48M stable */    
 2246              		.loc 1 899 9
 2247 016a 81E0     		b	.L142
 2248              	.L120:
 903:C:/Users/leonardo/Desktop/Code/Github/DawnGBC/Libraries/FWLIB/src\gd32f4xx_rcu.c ****             stb_cnt++;
 2249              		.loc 1 903 25
 2250 016c 43F21100 		movw	r0, #12305
 2251 0170 FFF7FEFF 		bl	rcu_flag_get
 2252 0174 0346     		mov	r3, r0
 2253 0176 BB72     		strb	r3, [r7, #10]
 904:C:/Users/leonardo/Desktop/Code/Github/DawnGBC/Libraries/FWLIB/src\gd32f4xx_rcu.c ****         }
 2254              		.loc 1 904 20
 2255 0178 FB68     		ldr	r3, [r7, #12]
 2256 017a 0133     		adds	r3, r3, #1
 2257 017c FB60     		str	r3, [r7, #12]
 2258              	.L118:
 902:C:/Users/leonardo/Desktop/Code/Github/DawnGBC/Libraries/FWLIB/src\gd32f4xx_rcu.c ****             osci_stat = rcu_flag_get(RCU_FLAG_IRC48MSTB);
 2259              		.loc 1 902 14
 2260 017e BB7A     		ldrb	r3, [r7, #10]	@ zero_extendqisi2
 2261 0180 002B     		cmp	r3, #0
 2262 0182 03D1     		bne	.L119
 902:C:/Users/leonardo/Desktop/Code/Github/DawnGBC/Libraries/FWLIB/src\gd32f4xx_rcu.c ****             osci_stat = rcu_flag_get(RCU_FLAG_IRC48MSTB);
 2263              		.loc 1 902 36 discriminator 1
 2264 0184 FB68     		ldr	r3, [r7, #12]
 2265 0186 424A     		ldr	r2, .L148
 2266 0188 9342     		cmp	r3, r2
 2267 018a EFD1     		bne	.L120
 2268              	.L119:
 908:C:/Users/leonardo/Desktop/Code/Github/DawnGBC/Libraries/FWLIB/src\gd32f4xx_rcu.c ****             reval = SUCCESS;
 2269              		.loc 1 908 22
 2270 018c 43F21100 		movw	r0, #12305
 2271 0190 FFF7FEFF 		bl	rcu_flag_get
 2272 0194 0346     		mov	r3, r0
 908:C:/Users/leonardo/Desktop/Code/Github/DawnGBC/Libraries/FWLIB/src\gd32f4xx_rcu.c ****             reval = SUCCESS;
 2273              		.loc 1 908 12
 2274 0196 002B     		cmp	r3, #0
 2275 0198 6CD0     		beq	.L143
 909:C:/Users/leonardo/Desktop/Code/Github/DawnGBC/Libraries/FWLIB/src\gd32f4xx_rcu.c ****         }
 2276              		.loc 1 909 19
 2277 019a 0123     		movs	r3, #1
 2278 019c FB72     		strb	r3, [r7, #11]
 911:C:/Users/leonardo/Desktop/Code/Github/DawnGBC/Libraries/FWLIB/src\gd32f4xx_rcu.c ****     /* wait IRC32K stable */
 2279              		.loc 1 911 9
 2280 019e 69E0     		b	.L143
 2281              	.L124:
 915:C:/Users/leonardo/Desktop/Code/Github/DawnGBC/Libraries/FWLIB/src\gd32f4xx_rcu.c ****             stb_cnt++;
 2282              		.loc 1 915 25
 2283 01a0 41F60150 		movw	r0, #7425
 2284 01a4 FFF7FEFF 		bl	rcu_flag_get
 2285 01a8 0346     		mov	r3, r0
 2286 01aa BB72     		strb	r3, [r7, #10]
 916:C:/Users/leonardo/Desktop/Code/Github/DawnGBC/Libraries/FWLIB/src\gd32f4xx_rcu.c ****         }
 2287              		.loc 1 916 20
 2288 01ac FB68     		ldr	r3, [r7, #12]
 2289 01ae 0133     		adds	r3, r3, #1
 2290 01b0 FB60     		str	r3, [r7, #12]
 2291              	.L122:
 914:C:/Users/leonardo/Desktop/Code/Github/DawnGBC/Libraries/FWLIB/src\gd32f4xx_rcu.c ****             osci_stat = rcu_flag_get(RCU_FLAG_IRC32KSTB);
 2292              		.loc 1 914 14
 2293 01b2 BB7A     		ldrb	r3, [r7, #10]	@ zero_extendqisi2
 2294 01b4 002B     		cmp	r3, #0
 2295 01b6 03D1     		bne	.L123
 914:C:/Users/leonardo/Desktop/Code/Github/DawnGBC/Libraries/FWLIB/src\gd32f4xx_rcu.c ****             osci_stat = rcu_flag_get(RCU_FLAG_IRC32KSTB);
 2296              		.loc 1 914 36 discriminator 1
 2297 01b8 FB68     		ldr	r3, [r7, #12]
 2298 01ba 354A     		ldr	r2, .L148
 2299 01bc 9342     		cmp	r3, r2
 2300 01be EFD1     		bne	.L124
 2301              	.L123:
 920:C:/Users/leonardo/Desktop/Code/Github/DawnGBC/Libraries/FWLIB/src\gd32f4xx_rcu.c ****             reval = SUCCESS;
 2302              		.loc 1 920 21
 2303 01c0 41F60150 		movw	r0, #7425
 2304 01c4 FFF7FEFF 		bl	rcu_flag_get
 2305 01c8 0346     		mov	r3, r0
 920:C:/Users/leonardo/Desktop/Code/Github/DawnGBC/Libraries/FWLIB/src\gd32f4xx_rcu.c ****             reval = SUCCESS;
 2306              		.loc 1 920 11
 2307 01ca 002B     		cmp	r3, #0
 2308 01cc 54D0     		beq	.L144
 921:C:/Users/leonardo/Desktop/Code/Github/DawnGBC/Libraries/FWLIB/src\gd32f4xx_rcu.c ****         }
 2309              		.loc 1 921 19
 2310 01ce 0123     		movs	r3, #1
 2311 01d0 FB72     		strb	r3, [r7, #11]
 923:C:/Users/leonardo/Desktop/Code/Github/DawnGBC/Libraries/FWLIB/src\gd32f4xx_rcu.c ****     /* wait PLL stable */    
 2312              		.loc 1 923 9
 2313 01d2 51E0     		b	.L144
 2314              	.L128:
 927:C:/Users/leonardo/Desktop/Code/Github/DawnGBC/Libraries/FWLIB/src\gd32f4xx_rcu.c ****             stb_cnt++;
 2315              		.loc 1 927 25
 2316 01d4 1920     		movs	r0, #25
 2317 01d6 FFF7FEFF 		bl	rcu_flag_get
 2318 01da 0346     		mov	r3, r0
 2319 01dc BB72     		strb	r3, [r7, #10]
 928:C:/Users/leonardo/Desktop/Code/Github/DawnGBC/Libraries/FWLIB/src\gd32f4xx_rcu.c ****         }
 2320              		.loc 1 928 20
 2321 01de FB68     		ldr	r3, [r7, #12]
 2322 01e0 0133     		adds	r3, r3, #1
 2323 01e2 FB60     		str	r3, [r7, #12]
 2324              	.L126:
 926:C:/Users/leonardo/Desktop/Code/Github/DawnGBC/Libraries/FWLIB/src\gd32f4xx_rcu.c ****             osci_stat = rcu_flag_get(RCU_FLAG_PLLSTB);
 2325              		.loc 1 926 14
 2326 01e4 BB7A     		ldrb	r3, [r7, #10]	@ zero_extendqisi2
 2327 01e6 002B     		cmp	r3, #0
 2328 01e8 03D1     		bne	.L127
 926:C:/Users/leonardo/Desktop/Code/Github/DawnGBC/Libraries/FWLIB/src\gd32f4xx_rcu.c ****             osci_stat = rcu_flag_get(RCU_FLAG_PLLSTB);
 2329              		.loc 1 926 36 discriminator 1
 2330 01ea FB68     		ldr	r3, [r7, #12]
 2331 01ec 284A     		ldr	r2, .L148
 2332 01ee 9342     		cmp	r3, r2
 2333 01f0 F0D1     		bne	.L128
 2334              	.L127:
 932:C:/Users/leonardo/Desktop/Code/Github/DawnGBC/Libraries/FWLIB/src\gd32f4xx_rcu.c ****             reval = SUCCESS;
 2335              		.loc 1 932 21
 2336 01f2 1920     		movs	r0, #25
 2337 01f4 FFF7FEFF 		bl	rcu_flag_get
 2338 01f8 0346     		mov	r3, r0
 932:C:/Users/leonardo/Desktop/Code/Github/DawnGBC/Libraries/FWLIB/src\gd32f4xx_rcu.c ****             reval = SUCCESS;
 2339              		.loc 1 932 11
 2340 01fa 002B     		cmp	r3, #0
 2341 01fc 3ED0     		beq	.L145
 933:C:/Users/leonardo/Desktop/Code/Github/DawnGBC/Libraries/FWLIB/src\gd32f4xx_rcu.c ****         }
 2342              		.loc 1 933 19
 2343 01fe 0123     		movs	r3, #1
 2344 0200 FB72     		strb	r3, [r7, #11]
 935:C:/Users/leonardo/Desktop/Code/Github/DawnGBC/Libraries/FWLIB/src\gd32f4xx_rcu.c ****     /* wait PLLI2S stable */
 2345              		.loc 1 935 9
 2346 0202 3BE0     		b	.L145
 2347              	.L132:
 939:C:/Users/leonardo/Desktop/Code/Github/DawnGBC/Libraries/FWLIB/src\gd32f4xx_rcu.c ****             stb_cnt++;
 2348              		.loc 1 939 25
 2349 0204 1B20     		movs	r0, #27
 2350 0206 FFF7FEFF 		bl	rcu_flag_get
 2351 020a 0346     		mov	r3, r0
 2352 020c BB72     		strb	r3, [r7, #10]
 940:C:/Users/leonardo/Desktop/Code/Github/DawnGBC/Libraries/FWLIB/src\gd32f4xx_rcu.c ****         }
 2353              		.loc 1 940 20
 2354 020e FB68     		ldr	r3, [r7, #12]
 2355 0210 0133     		adds	r3, r3, #1
 2356 0212 FB60     		str	r3, [r7, #12]
 2357              	.L130:
 938:C:/Users/leonardo/Desktop/Code/Github/DawnGBC/Libraries/FWLIB/src\gd32f4xx_rcu.c ****             osci_stat = rcu_flag_get(RCU_FLAG_PLLI2SSTB);
 2358              		.loc 1 938 14
 2359 0214 BB7A     		ldrb	r3, [r7, #10]	@ zero_extendqisi2
 2360 0216 002B     		cmp	r3, #0
 2361 0218 03D1     		bne	.L131
 938:C:/Users/leonardo/Desktop/Code/Github/DawnGBC/Libraries/FWLIB/src\gd32f4xx_rcu.c ****             osci_stat = rcu_flag_get(RCU_FLAG_PLLI2SSTB);
 2362              		.loc 1 938 36 discriminator 1
 2363 021a FB68     		ldr	r3, [r7, #12]
 2364 021c 1C4A     		ldr	r2, .L148
 2365 021e 9342     		cmp	r3, r2
 2366 0220 F0D1     		bne	.L132
 2367              	.L131:
 944:C:/Users/leonardo/Desktop/Code/Github/DawnGBC/Libraries/FWLIB/src\gd32f4xx_rcu.c ****             reval = SUCCESS;
 2368              		.loc 1 944 21
 2369 0222 1B20     		movs	r0, #27
 2370 0224 FFF7FEFF 		bl	rcu_flag_get
 2371 0228 0346     		mov	r3, r0
 944:C:/Users/leonardo/Desktop/Code/Github/DawnGBC/Libraries/FWLIB/src\gd32f4xx_rcu.c ****             reval = SUCCESS;
 2372              		.loc 1 944 11
 2373 022a 002B     		cmp	r3, #0
 2374 022c 28D0     		beq	.L146
 945:C:/Users/leonardo/Desktop/Code/Github/DawnGBC/Libraries/FWLIB/src\gd32f4xx_rcu.c ****         }
 2375              		.loc 1 945 19
 2376 022e 0123     		movs	r3, #1
 2377 0230 FB72     		strb	r3, [r7, #11]
 947:C:/Users/leonardo/Desktop/Code/Github/DawnGBC/Libraries/FWLIB/src\gd32f4xx_rcu.c ****     /* wait PLLSAI stable */    
 2378              		.loc 1 947 9
 2379 0232 25E0     		b	.L146
 2380              	.L136:
 951:C:/Users/leonardo/Desktop/Code/Github/DawnGBC/Libraries/FWLIB/src\gd32f4xx_rcu.c ****             stb_cnt++;
 2381              		.loc 1 951 25
 2382 0234 1D20     		movs	r0, #29
 2383 0236 FFF7FEFF 		bl	rcu_flag_get
 2384 023a 0346     		mov	r3, r0
 2385 023c BB72     		strb	r3, [r7, #10]
 952:C:/Users/leonardo/Desktop/Code/Github/DawnGBC/Libraries/FWLIB/src\gd32f4xx_rcu.c ****         }
 2386              		.loc 1 952 20
 2387 023e FB68     		ldr	r3, [r7, #12]
 2388 0240 0133     		adds	r3, r3, #1
 2389 0242 FB60     		str	r3, [r7, #12]
 2390              	.L134:
 950:C:/Users/leonardo/Desktop/Code/Github/DawnGBC/Libraries/FWLIB/src\gd32f4xx_rcu.c ****             osci_stat = rcu_flag_get(RCU_FLAG_PLLSAISTB);
 2391              		.loc 1 950 14
 2392 0244 BB7A     		ldrb	r3, [r7, #10]	@ zero_extendqisi2
 2393 0246 002B     		cmp	r3, #0
 2394 0248 03D1     		bne	.L135
 950:C:/Users/leonardo/Desktop/Code/Github/DawnGBC/Libraries/FWLIB/src\gd32f4xx_rcu.c ****             osci_stat = rcu_flag_get(RCU_FLAG_PLLSAISTB);
 2395              		.loc 1 950 36 discriminator 1
 2396 024a FB68     		ldr	r3, [r7, #12]
 2397 024c 104A     		ldr	r2, .L148
 2398 024e 9342     		cmp	r3, r2
 2399 0250 F0D1     		bne	.L136
 2400              	.L135:
 956:C:/Users/leonardo/Desktop/Code/Github/DawnGBC/Libraries/FWLIB/src\gd32f4xx_rcu.c ****             reval = SUCCESS;
 2401              		.loc 1 956 21
 2402 0252 1D20     		movs	r0, #29
 2403 0254 FFF7FEFF 		bl	rcu_flag_get
 2404 0258 0346     		mov	r3, r0
 956:C:/Users/leonardo/Desktop/Code/Github/DawnGBC/Libraries/FWLIB/src\gd32f4xx_rcu.c ****             reval = SUCCESS;
 2405              		.loc 1 956 11
 2406 025a 002B     		cmp	r3, #0
 2407 025c 12D0     		beq	.L147
 957:C:/Users/leonardo/Desktop/Code/Github/DawnGBC/Libraries/FWLIB/src\gd32f4xx_rcu.c ****         }
 2408              		.loc 1 957 19
 2409 025e 0123     		movs	r3, #1
 2410 0260 FB72     		strb	r3, [r7, #11]
 959:C:/Users/leonardo/Desktop/Code/Github/DawnGBC/Libraries/FWLIB/src\gd32f4xx_rcu.c ****     
 2411              		.loc 1 959 9
 2412 0262 0FE0     		b	.L147
 2413              	.L139:
 2414              		.loc 1 962 9
 2415 0264 00BF     		nop
 2416 0266 0EE0     		b	.L109
 2417              	.L140:
 875:C:/Users/leonardo/Desktop/Code/Github/DawnGBC/Libraries/FWLIB/src\gd32f4xx_rcu.c ****     /* wait LXTAL stable */
 2418              		.loc 1 875 9
 2419 0268 00BF     		nop
 2420 026a 0CE0     		b	.L109
 2421              	.L141:
 887:C:/Users/leonardo/Desktop/Code/Github/DawnGBC/Libraries/FWLIB/src\gd32f4xx_rcu.c ****     /* wait IRC16M stable */    
 2422              		.loc 1 887 9
 2423 026c 00BF     		nop
 2424 026e 0AE0     		b	.L109
 2425              	.L142:
 899:C:/Users/leonardo/Desktop/Code/Github/DawnGBC/Libraries/FWLIB/src\gd32f4xx_rcu.c ****     /* wait IRC48M stable */    
 2426              		.loc 1 899 9
 2427 0270 00BF     		nop
 2428 0272 08E0     		b	.L109
 2429              	.L143:
 911:C:/Users/leonardo/Desktop/Code/Github/DawnGBC/Libraries/FWLIB/src\gd32f4xx_rcu.c ****     /* wait IRC32K stable */
 2430              		.loc 1 911 9
 2431 0274 00BF     		nop
 2432 0276 06E0     		b	.L109
 2433              	.L144:
 923:C:/Users/leonardo/Desktop/Code/Github/DawnGBC/Libraries/FWLIB/src\gd32f4xx_rcu.c ****     /* wait PLL stable */    
 2434              		.loc 1 923 9
 2435 0278 00BF     		nop
 2436 027a 04E0     		b	.L109
 2437              	.L145:
 935:C:/Users/leonardo/Desktop/Code/Github/DawnGBC/Libraries/FWLIB/src\gd32f4xx_rcu.c ****     /* wait PLLI2S stable */
 2438              		.loc 1 935 9
 2439 027c 00BF     		nop
 2440 027e 02E0     		b	.L109
 2441              	.L146:
 947:C:/Users/leonardo/Desktop/Code/Github/DawnGBC/Libraries/FWLIB/src\gd32f4xx_rcu.c ****     /* wait PLLSAI stable */    
 2442              		.loc 1 947 9
 2443 0280 00BF     		nop
 2444 0282 00E0     		b	.L109
 2445              	.L147:
 959:C:/Users/leonardo/Desktop/Code/Github/DawnGBC/Libraries/FWLIB/src\gd32f4xx_rcu.c ****     
 2446              		.loc 1 959 9
 2447 0284 00BF     		nop
 2448              	.L109:
 963:C:/Users/leonardo/Desktop/Code/Github/DawnGBC/Libraries/FWLIB/src\gd32f4xx_rcu.c ****     }
 964:C:/Users/leonardo/Desktop/Code/Github/DawnGBC/Libraries/FWLIB/src\gd32f4xx_rcu.c ****     
 965:C:/Users/leonardo/Desktop/Code/Github/DawnGBC/Libraries/FWLIB/src\gd32f4xx_rcu.c ****     /* return value */
 966:C:/Users/leonardo/Desktop/Code/Github/DawnGBC/Libraries/FWLIB/src\gd32f4xx_rcu.c ****     return reval;
 2449              		.loc 1 966 12
 2450 0286 FB7A     		ldrb	r3, [r7, #11]	@ zero_extendqisi2
 967:C:/Users/leonardo/Desktop/Code/Github/DawnGBC/Libraries/FWLIB/src\gd32f4xx_rcu.c **** }
 2451              		.loc 1 967 1
 2452 0288 1846     		mov	r0, r3
 2453 028a 1037     		adds	r7, r7, #16
 2454              		.cfi_def_cfa_offset 8
 2455 028c BD46     		mov	sp, r7
 2456              		.cfi_def_cfa_register 13
 2457              		@ sp needed
 2458 028e 80BD     		pop	{r7, pc}
 2459              	.L149:
 2460              		.align	2
 2461              	.L148:
 2462 0290 FFFF0F00 		.word	1048575
 2463              		.cfi_endproc
 2464              	.LFE155:
 2466              		.section	.text.rcu_osci_on,"ax",%progbits
 2467              		.align	1
 2468              		.global	rcu_osci_on
 2469              		.syntax unified
 2470              		.thumb
 2471              		.thumb_func
 2472              		.fpu softvfp
 2474              	rcu_osci_on:
 2475              	.LFB156:
 968:C:/Users/leonardo/Desktop/Code/Github/DawnGBC/Libraries/FWLIB/src\gd32f4xx_rcu.c **** 
 969:C:/Users/leonardo/Desktop/Code/Github/DawnGBC/Libraries/FWLIB/src\gd32f4xx_rcu.c **** /*!
 970:C:/Users/leonardo/Desktop/Code/Github/DawnGBC/Libraries/FWLIB/src\gd32f4xx_rcu.c ****     \brief      turn on the oscillator
 971:C:/Users/leonardo/Desktop/Code/Github/DawnGBC/Libraries/FWLIB/src\gd32f4xx_rcu.c ****     \param[in]  osci: oscillator types, refer to rcu_osci_type_enum
 972:C:/Users/leonardo/Desktop/Code/Github/DawnGBC/Libraries/FWLIB/src\gd32f4xx_rcu.c ****                 only one parameter can be selected which is shown as below:
 973:C:/Users/leonardo/Desktop/Code/Github/DawnGBC/Libraries/FWLIB/src\gd32f4xx_rcu.c ****       \arg        RCU_HXTAL: HXTAL
 974:C:/Users/leonardo/Desktop/Code/Github/DawnGBC/Libraries/FWLIB/src\gd32f4xx_rcu.c ****       \arg        RCU_LXTAL: LXTAL
 975:C:/Users/leonardo/Desktop/Code/Github/DawnGBC/Libraries/FWLIB/src\gd32f4xx_rcu.c ****       \arg        RCU_IRC16M: IRC16M
 976:C:/Users/leonardo/Desktop/Code/Github/DawnGBC/Libraries/FWLIB/src\gd32f4xx_rcu.c ****       \arg        RCU_IRC48M: IRC48M
 977:C:/Users/leonardo/Desktop/Code/Github/DawnGBC/Libraries/FWLIB/src\gd32f4xx_rcu.c ****       \arg        RCU_IRC32K: IRC32K
 978:C:/Users/leonardo/Desktop/Code/Github/DawnGBC/Libraries/FWLIB/src\gd32f4xx_rcu.c ****       \arg        RCU_PLL_CK: PLL
 979:C:/Users/leonardo/Desktop/Code/Github/DawnGBC/Libraries/FWLIB/src\gd32f4xx_rcu.c ****       \arg        RCU_PLLI2S_CK: PLLI2S
 980:C:/Users/leonardo/Desktop/Code/Github/DawnGBC/Libraries/FWLIB/src\gd32f4xx_rcu.c ****       \arg        RCU_PLLSAI_CK: PLLSAI
 981:C:/Users/leonardo/Desktop/Code/Github/DawnGBC/Libraries/FWLIB/src\gd32f4xx_rcu.c ****     \param[out] none
 982:C:/Users/leonardo/Desktop/Code/Github/DawnGBC/Libraries/FWLIB/src\gd32f4xx_rcu.c ****     \retval     none
 983:C:/Users/leonardo/Desktop/Code/Github/DawnGBC/Libraries/FWLIB/src\gd32f4xx_rcu.c **** */
 984:C:/Users/leonardo/Desktop/Code/Github/DawnGBC/Libraries/FWLIB/src\gd32f4xx_rcu.c **** void rcu_osci_on(rcu_osci_type_enum osci)
 985:C:/Users/leonardo/Desktop/Code/Github/DawnGBC/Libraries/FWLIB/src\gd32f4xx_rcu.c **** {
 2476              		.loc 1 985 1
 2477              		.cfi_startproc
 2478              		@ args = 0, pretend = 0, frame = 8
 2479              		@ frame_needed = 1, uses_anonymous_args = 0
 2480              		@ link register save eliminated.
 2481 0000 80B4     		push	{r7}
 2482              		.cfi_def_cfa_offset 4
 2483              		.cfi_offset 7, -4
 2484 0002 83B0     		sub	sp, sp, #12
 2485              		.cfi_def_cfa_offset 16
 2486 0004 00AF     		add	r7, sp, #0
 2487              		.cfi_def_cfa_register 7
 2488 0006 0346     		mov	r3, r0
 2489 0008 FB80     		strh	r3, [r7, #6]	@ movhi
 986:C:/Users/leonardo/Desktop/Code/Github/DawnGBC/Libraries/FWLIB/src\gd32f4xx_rcu.c ****     RCU_REG_VAL(osci) |= BIT(RCU_BIT_POS(osci));
 2490              		.loc 1 986 23
 2491 000a FB88     		ldrh	r3, [r7, #6]
 2492 000c 9B09     		lsrs	r3, r3, #6
 2493 000e 9BB2     		uxth	r3, r3
 2494 0010 03F18043 		add	r3, r3, #1073741824
 2495 0014 03F50E33 		add	r3, r3, #145408
 2496 0018 1968     		ldr	r1, [r3]
 2497              		.loc 1 986 26
 2498 001a FB88     		ldrh	r3, [r7, #6]
 2499 001c 03F01F03 		and	r3, r3, #31
 2500 0020 0122     		movs	r2, #1
 2501 0022 9A40     		lsls	r2, r2, r3
 2502              		.loc 1 986 23
 2503 0024 FB88     		ldrh	r3, [r7, #6]
 2504 0026 9B09     		lsrs	r3, r3, #6
 2505 0028 9BB2     		uxth	r3, r3
 2506 002a 03F18043 		add	r3, r3, #1073741824
 2507 002e 03F50E33 		add	r3, r3, #145408
 2508 0032 1846     		mov	r0, r3
 2509 0034 41EA0203 		orr	r3, r1, r2
 2510 0038 0360     		str	r3, [r0]
 987:C:/Users/leonardo/Desktop/Code/Github/DawnGBC/Libraries/FWLIB/src\gd32f4xx_rcu.c **** }
 2511              		.loc 1 987 1
 2512 003a 00BF     		nop
 2513 003c 0C37     		adds	r7, r7, #12
 2514              		.cfi_def_cfa_offset 4
 2515 003e BD46     		mov	sp, r7
 2516              		.cfi_def_cfa_register 13
 2517              		@ sp needed
 2518 0040 80BC     		pop	{r7}
 2519              		.cfi_restore 7
 2520              		.cfi_def_cfa_offset 0
 2521 0042 7047     		bx	lr
 2522              		.cfi_endproc
 2523              	.LFE156:
 2525              		.section	.text.rcu_osci_off,"ax",%progbits
 2526              		.align	1
 2527              		.global	rcu_osci_off
 2528              		.syntax unified
 2529              		.thumb
 2530              		.thumb_func
 2531              		.fpu softvfp
 2533              	rcu_osci_off:
 2534              	.LFB157:
 988:C:/Users/leonardo/Desktop/Code/Github/DawnGBC/Libraries/FWLIB/src\gd32f4xx_rcu.c **** 
 989:C:/Users/leonardo/Desktop/Code/Github/DawnGBC/Libraries/FWLIB/src\gd32f4xx_rcu.c **** /*!
 990:C:/Users/leonardo/Desktop/Code/Github/DawnGBC/Libraries/FWLIB/src\gd32f4xx_rcu.c ****     \brief      turn off the oscillator
 991:C:/Users/leonardo/Desktop/Code/Github/DawnGBC/Libraries/FWLIB/src\gd32f4xx_rcu.c ****     \param[in]  osci: oscillator types, refer to rcu_osci_type_enum
 992:C:/Users/leonardo/Desktop/Code/Github/DawnGBC/Libraries/FWLIB/src\gd32f4xx_rcu.c ****                 only one parameter can be selected which is shown as below:
 993:C:/Users/leonardo/Desktop/Code/Github/DawnGBC/Libraries/FWLIB/src\gd32f4xx_rcu.c ****       \arg        RCU_HXTAL: HXTAL
 994:C:/Users/leonardo/Desktop/Code/Github/DawnGBC/Libraries/FWLIB/src\gd32f4xx_rcu.c ****       \arg        RCU_LXTAL: LXTAL
 995:C:/Users/leonardo/Desktop/Code/Github/DawnGBC/Libraries/FWLIB/src\gd32f4xx_rcu.c ****       \arg        RCU_IRC16M: IRC16M
 996:C:/Users/leonardo/Desktop/Code/Github/DawnGBC/Libraries/FWLIB/src\gd32f4xx_rcu.c ****       \arg        RCU_IRC48M: IRC48M
 997:C:/Users/leonardo/Desktop/Code/Github/DawnGBC/Libraries/FWLIB/src\gd32f4xx_rcu.c ****       \arg        RCU_IRC32K: IRC32K
 998:C:/Users/leonardo/Desktop/Code/Github/DawnGBC/Libraries/FWLIB/src\gd32f4xx_rcu.c ****       \arg        RCU_PLL_CK: PLL
 999:C:/Users/leonardo/Desktop/Code/Github/DawnGBC/Libraries/FWLIB/src\gd32f4xx_rcu.c ****       \arg        RCU_PLLI2S_CK: PLLI2S
1000:C:/Users/leonardo/Desktop/Code/Github/DawnGBC/Libraries/FWLIB/src\gd32f4xx_rcu.c ****       \arg        RCU_PLLSAI_CK: PLLSAI
1001:C:/Users/leonardo/Desktop/Code/Github/DawnGBC/Libraries/FWLIB/src\gd32f4xx_rcu.c ****     \param[out] none
1002:C:/Users/leonardo/Desktop/Code/Github/DawnGBC/Libraries/FWLIB/src\gd32f4xx_rcu.c ****     \retval     none
1003:C:/Users/leonardo/Desktop/Code/Github/DawnGBC/Libraries/FWLIB/src\gd32f4xx_rcu.c **** */
1004:C:/Users/leonardo/Desktop/Code/Github/DawnGBC/Libraries/FWLIB/src\gd32f4xx_rcu.c **** void rcu_osci_off(rcu_osci_type_enum osci)
1005:C:/Users/leonardo/Desktop/Code/Github/DawnGBC/Libraries/FWLIB/src\gd32f4xx_rcu.c **** {
 2535              		.loc 1 1005 1
 2536              		.cfi_startproc
 2537              		@ args = 0, pretend = 0, frame = 8
 2538              		@ frame_needed = 1, uses_anonymous_args = 0
 2539              		@ link register save eliminated.
 2540 0000 80B4     		push	{r7}
 2541              		.cfi_def_cfa_offset 4
 2542              		.cfi_offset 7, -4
 2543 0002 83B0     		sub	sp, sp, #12
 2544              		.cfi_def_cfa_offset 16
 2545 0004 00AF     		add	r7, sp, #0
 2546              		.cfi_def_cfa_register 7
 2547 0006 0346     		mov	r3, r0
 2548 0008 FB80     		strh	r3, [r7, #6]	@ movhi
1006:C:/Users/leonardo/Desktop/Code/Github/DawnGBC/Libraries/FWLIB/src\gd32f4xx_rcu.c ****     RCU_REG_VAL(osci) &= ~BIT(RCU_BIT_POS(osci));
 2549              		.loc 1 1006 23
 2550 000a FB88     		ldrh	r3, [r7, #6]
 2551 000c 9B09     		lsrs	r3, r3, #6
 2552 000e 9BB2     		uxth	r3, r3
 2553 0010 03F18043 		add	r3, r3, #1073741824
 2554 0014 03F50E33 		add	r3, r3, #145408
 2555 0018 1968     		ldr	r1, [r3]
 2556              		.loc 1 1006 27
 2557 001a FB88     		ldrh	r3, [r7, #6]
 2558 001c 03F01F03 		and	r3, r3, #31
 2559 0020 0122     		movs	r2, #1
 2560 0022 02FA03F3 		lsl	r3, r2, r3
 2561              		.loc 1 1006 26
 2562 0026 DA43     		mvns	r2, r3
 2563              		.loc 1 1006 23
 2564 0028 FB88     		ldrh	r3, [r7, #6]
 2565 002a 9B09     		lsrs	r3, r3, #6
 2566 002c 9BB2     		uxth	r3, r3
 2567 002e 03F18043 		add	r3, r3, #1073741824
 2568 0032 03F50E33 		add	r3, r3, #145408
 2569 0036 1846     		mov	r0, r3
 2570 0038 01EA0203 		and	r3, r1, r2
 2571 003c 0360     		str	r3, [r0]
1007:C:/Users/leonardo/Desktop/Code/Github/DawnGBC/Libraries/FWLIB/src\gd32f4xx_rcu.c **** }
 2572              		.loc 1 1007 1
 2573 003e 00BF     		nop
 2574 0040 0C37     		adds	r7, r7, #12
 2575              		.cfi_def_cfa_offset 4
 2576 0042 BD46     		mov	sp, r7
 2577              		.cfi_def_cfa_register 13
 2578              		@ sp needed
 2579 0044 80BC     		pop	{r7}
 2580              		.cfi_restore 7
 2581              		.cfi_def_cfa_offset 0
 2582 0046 7047     		bx	lr
 2583              		.cfi_endproc
 2584              	.LFE157:
 2586              		.section	.text.rcu_osci_bypass_mode_enable,"ax",%progbits
 2587              		.align	1
 2588              		.global	rcu_osci_bypass_mode_enable
 2589              		.syntax unified
 2590              		.thumb
 2591              		.thumb_func
 2592              		.fpu softvfp
 2594              	rcu_osci_bypass_mode_enable:
 2595              	.LFB158:
1008:C:/Users/leonardo/Desktop/Code/Github/DawnGBC/Libraries/FWLIB/src\gd32f4xx_rcu.c **** 
1009:C:/Users/leonardo/Desktop/Code/Github/DawnGBC/Libraries/FWLIB/src\gd32f4xx_rcu.c **** /*!
1010:C:/Users/leonardo/Desktop/Code/Github/DawnGBC/Libraries/FWLIB/src\gd32f4xx_rcu.c ****     \brief      enable the oscillator bypass mode, HXTALEN or LXTALEN must be reset before it
1011:C:/Users/leonardo/Desktop/Code/Github/DawnGBC/Libraries/FWLIB/src\gd32f4xx_rcu.c ****     \param[in]  osci: oscillator types, refer to rcu_osci_type_enum
1012:C:/Users/leonardo/Desktop/Code/Github/DawnGBC/Libraries/FWLIB/src\gd32f4xx_rcu.c ****                 only one parameter can be selected which is shown as below:
1013:C:/Users/leonardo/Desktop/Code/Github/DawnGBC/Libraries/FWLIB/src\gd32f4xx_rcu.c ****       \arg        RCU_HXTAL: HXTAL
1014:C:/Users/leonardo/Desktop/Code/Github/DawnGBC/Libraries/FWLIB/src\gd32f4xx_rcu.c ****       \arg        RCU_LXTAL: LXTAL
1015:C:/Users/leonardo/Desktop/Code/Github/DawnGBC/Libraries/FWLIB/src\gd32f4xx_rcu.c ****     \param[out] none
1016:C:/Users/leonardo/Desktop/Code/Github/DawnGBC/Libraries/FWLIB/src\gd32f4xx_rcu.c ****     \retval     none
1017:C:/Users/leonardo/Desktop/Code/Github/DawnGBC/Libraries/FWLIB/src\gd32f4xx_rcu.c **** */
1018:C:/Users/leonardo/Desktop/Code/Github/DawnGBC/Libraries/FWLIB/src\gd32f4xx_rcu.c **** void rcu_osci_bypass_mode_enable(rcu_osci_type_enum osci)
1019:C:/Users/leonardo/Desktop/Code/Github/DawnGBC/Libraries/FWLIB/src\gd32f4xx_rcu.c **** {
 2596              		.loc 1 1019 1
 2597              		.cfi_startproc
 2598              		@ args = 0, pretend = 0, frame = 16
 2599              		@ frame_needed = 1, uses_anonymous_args = 0
 2600              		@ link register save eliminated.
 2601 0000 80B4     		push	{r7}
 2602              		.cfi_def_cfa_offset 4
 2603              		.cfi_offset 7, -4
 2604 0002 85B0     		sub	sp, sp, #20
 2605              		.cfi_def_cfa_offset 24
 2606 0004 00AF     		add	r7, sp, #0
 2607              		.cfi_def_cfa_register 7
 2608 0006 0346     		mov	r3, r0
 2609 0008 FB80     		strh	r3, [r7, #6]	@ movhi
1020:C:/Users/leonardo/Desktop/Code/Github/DawnGBC/Libraries/FWLIB/src\gd32f4xx_rcu.c ****     uint32_t reg;
1021:C:/Users/leonardo/Desktop/Code/Github/DawnGBC/Libraries/FWLIB/src\gd32f4xx_rcu.c **** 
1022:C:/Users/leonardo/Desktop/Code/Github/DawnGBC/Libraries/FWLIB/src\gd32f4xx_rcu.c ****     switch(osci){
 2610              		.loc 1 1022 5
 2611 000a FB88     		ldrh	r3, [r7, #6]
 2612 000c 43F21002 		movw	r2, #12304
 2613 0010 9342     		cmp	r3, r2
 2614 0012 6FD0     		beq	.L160
 2615 0014 43F21002 		movw	r2, #12304
 2616 0018 9342     		cmp	r3, r2
 2617 001a 6DDC     		bgt	.L161
 2618 001c B3F5E85F 		cmp	r3, #7424
 2619 0020 68D0     		beq	.L160
 2620 0022 B3F5E85F 		cmp	r3, #7424
 2621 0026 67DC     		bgt	.L161
 2622 0028 1C2B     		cmp	r3, #28
 2623 002a 41DC     		bgt	.L155
 2624 002c 002B     		cmp	r3, #0
 2625 002e 63DB     		blt	.L161
 2626 0030 1C2B     		cmp	r3, #28
 2627 0032 61D8     		bhi	.L161
 2628 0034 01A2     		adr	r2, .L156
 2629 0036 52F823F0 		ldr	pc, [r2, r3, lsl #2]
 2630 003a 00BF     		.p2align 2
 2631              	.L156:
 2632 003c F9000000 		.word	.L161+1
 2633 0040 F9000000 		.word	.L161+1
 2634 0044 F9000000 		.word	.L161+1
 2635 0048 F9000000 		.word	.L161+1
 2636 004c F9000000 		.word	.L161+1
 2637 0050 F9000000 		.word	.L161+1
 2638 0054 F9000000 		.word	.L161+1
 2639 0058 F9000000 		.word	.L161+1
 2640 005c F9000000 		.word	.L161+1
 2641 0060 F9000000 		.word	.L161+1
 2642 0064 F9000000 		.word	.L161+1
 2643 0068 F9000000 		.word	.L161+1
 2644 006c F9000000 		.word	.L161+1
 2645 0070 F9000000 		.word	.L161+1
 2646 0074 F9000000 		.word	.L161+1
 2647 0078 F9000000 		.word	.L161+1
 2648 007c B9000000 		.word	.L157+1
 2649 0080 F9000000 		.word	.L161+1
 2650 0084 F9000000 		.word	.L161+1
 2651 0088 F9000000 		.word	.L161+1
 2652 008c F9000000 		.word	.L161+1
 2653 0090 F9000000 		.word	.L161+1
 2654 0094 F9000000 		.word	.L161+1
 2655 0098 F9000000 		.word	.L161+1
 2656 009c F9000000 		.word	.L161+1
 2657 00a0 F9000000 		.word	.L161+1
 2658 00a4 F9000000 		.word	.L161+1
 2659 00a8 F9000000 		.word	.L161+1
 2660 00ac F9000000 		.word	.L161+1
 2661              		.p2align 1
 2662              	.L155:
 2663 00b0 B3F5E05F 		cmp	r3, #7168
 2664 00b4 0FD0     		beq	.L158
1023:C:/Users/leonardo/Desktop/Code/Github/DawnGBC/Libraries/FWLIB/src\gd32f4xx_rcu.c ****     /* enable HXTAL to bypass mode */    
1024:C:/Users/leonardo/Desktop/Code/Github/DawnGBC/Libraries/FWLIB/src\gd32f4xx_rcu.c ****     case RCU_HXTAL:
1025:C:/Users/leonardo/Desktop/Code/Github/DawnGBC/Libraries/FWLIB/src\gd32f4xx_rcu.c ****         reg = RCU_CTL;
1026:C:/Users/leonardo/Desktop/Code/Github/DawnGBC/Libraries/FWLIB/src\gd32f4xx_rcu.c ****         RCU_CTL &= ~RCU_CTL_HXTALEN;
1027:C:/Users/leonardo/Desktop/Code/Github/DawnGBC/Libraries/FWLIB/src\gd32f4xx_rcu.c ****         RCU_CTL = (reg | RCU_CTL_HXTALBPS);
1028:C:/Users/leonardo/Desktop/Code/Github/DawnGBC/Libraries/FWLIB/src\gd32f4xx_rcu.c ****         break;
1029:C:/Users/leonardo/Desktop/Code/Github/DawnGBC/Libraries/FWLIB/src\gd32f4xx_rcu.c ****     /* enable LXTAL to bypass mode */
1030:C:/Users/leonardo/Desktop/Code/Github/DawnGBC/Libraries/FWLIB/src\gd32f4xx_rcu.c ****     case RCU_LXTAL:
1031:C:/Users/leonardo/Desktop/Code/Github/DawnGBC/Libraries/FWLIB/src\gd32f4xx_rcu.c ****         reg = RCU_BDCTL;
1032:C:/Users/leonardo/Desktop/Code/Github/DawnGBC/Libraries/FWLIB/src\gd32f4xx_rcu.c ****         RCU_BDCTL &= ~RCU_BDCTL_LXTALEN;
1033:C:/Users/leonardo/Desktop/Code/Github/DawnGBC/Libraries/FWLIB/src\gd32f4xx_rcu.c ****         RCU_BDCTL = (reg | RCU_BDCTL_LXTALBPS);
1034:C:/Users/leonardo/Desktop/Code/Github/DawnGBC/Libraries/FWLIB/src\gd32f4xx_rcu.c ****         break;
1035:C:/Users/leonardo/Desktop/Code/Github/DawnGBC/Libraries/FWLIB/src\gd32f4xx_rcu.c ****     case RCU_IRC16M:
1036:C:/Users/leonardo/Desktop/Code/Github/DawnGBC/Libraries/FWLIB/src\gd32f4xx_rcu.c ****     case RCU_IRC48M:
1037:C:/Users/leonardo/Desktop/Code/Github/DawnGBC/Libraries/FWLIB/src\gd32f4xx_rcu.c ****     case RCU_IRC32K:
1038:C:/Users/leonardo/Desktop/Code/Github/DawnGBC/Libraries/FWLIB/src\gd32f4xx_rcu.c ****     case RCU_PLL_CK:
1039:C:/Users/leonardo/Desktop/Code/Github/DawnGBC/Libraries/FWLIB/src\gd32f4xx_rcu.c ****     case RCU_PLLI2S_CK:
1040:C:/Users/leonardo/Desktop/Code/Github/DawnGBC/Libraries/FWLIB/src\gd32f4xx_rcu.c ****     case RCU_PLLSAI_CK:    
1041:C:/Users/leonardo/Desktop/Code/Github/DawnGBC/Libraries/FWLIB/src\gd32f4xx_rcu.c ****         break;
1042:C:/Users/leonardo/Desktop/Code/Github/DawnGBC/Libraries/FWLIB/src\gd32f4xx_rcu.c ****     default:
1043:C:/Users/leonardo/Desktop/Code/Github/DawnGBC/Libraries/FWLIB/src\gd32f4xx_rcu.c ****         break;
 2665              		.loc 1 1043 9
 2666 00b6 1FE0     		b	.L161
 2667              	.L157:
1025:C:/Users/leonardo/Desktop/Code/Github/DawnGBC/Libraries/FWLIB/src\gd32f4xx_rcu.c ****         RCU_CTL &= ~RCU_CTL_HXTALEN;
 2668              		.loc 1 1025 15
 2669 00b8 124B     		ldr	r3, .L163
1025:C:/Users/leonardo/Desktop/Code/Github/DawnGBC/Libraries/FWLIB/src\gd32f4xx_rcu.c ****         RCU_CTL &= ~RCU_CTL_HXTALEN;
 2670              		.loc 1 1025 13
 2671 00ba 1B68     		ldr	r3, [r3]
 2672 00bc FB60     		str	r3, [r7, #12]
1026:C:/Users/leonardo/Desktop/Code/Github/DawnGBC/Libraries/FWLIB/src\gd32f4xx_rcu.c ****         RCU_CTL = (reg | RCU_CTL_HXTALBPS);
 2673              		.loc 1 1026 17
 2674 00be 114B     		ldr	r3, .L163
 2675 00c0 1B68     		ldr	r3, [r3]
 2676 00c2 104A     		ldr	r2, .L163
 2677 00c4 23F48033 		bic	r3, r3, #65536
 2678 00c8 1360     		str	r3, [r2]
1027:C:/Users/leonardo/Desktop/Code/Github/DawnGBC/Libraries/FWLIB/src\gd32f4xx_rcu.c ****         break;
 2679              		.loc 1 1027 9
 2680 00ca 0E4A     		ldr	r2, .L163
1027:C:/Users/leonardo/Desktop/Code/Github/DawnGBC/Libraries/FWLIB/src\gd32f4xx_rcu.c ****         break;
 2681              		.loc 1 1027 24
 2682 00cc FB68     		ldr	r3, [r7, #12]
 2683 00ce 43F48023 		orr	r3, r3, #262144
1027:C:/Users/leonardo/Desktop/Code/Github/DawnGBC/Libraries/FWLIB/src\gd32f4xx_rcu.c ****         break;
 2684              		.loc 1 1027 17
 2685 00d2 1360     		str	r3, [r2]
1028:C:/Users/leonardo/Desktop/Code/Github/DawnGBC/Libraries/FWLIB/src\gd32f4xx_rcu.c ****     /* enable LXTAL to bypass mode */
 2686              		.loc 1 1028 9
 2687 00d4 11E0     		b	.L159
 2688              	.L158:
1031:C:/Users/leonardo/Desktop/Code/Github/DawnGBC/Libraries/FWLIB/src\gd32f4xx_rcu.c ****         RCU_BDCTL &= ~RCU_BDCTL_LXTALEN;
 2689              		.loc 1 1031 15
 2690 00d6 0C4B     		ldr	r3, .L163+4
1031:C:/Users/leonardo/Desktop/Code/Github/DawnGBC/Libraries/FWLIB/src\gd32f4xx_rcu.c ****         RCU_BDCTL &= ~RCU_BDCTL_LXTALEN;
 2691              		.loc 1 1031 13
 2692 00d8 1B68     		ldr	r3, [r3]
 2693 00da FB60     		str	r3, [r7, #12]
1032:C:/Users/leonardo/Desktop/Code/Github/DawnGBC/Libraries/FWLIB/src\gd32f4xx_rcu.c ****         RCU_BDCTL = (reg | RCU_BDCTL_LXTALBPS);
 2694              		.loc 1 1032 19
 2695 00dc 0A4B     		ldr	r3, .L163+4
 2696 00de 1B68     		ldr	r3, [r3]
 2697 00e0 094A     		ldr	r2, .L163+4
 2698 00e2 23F00103 		bic	r3, r3, #1
 2699 00e6 1360     		str	r3, [r2]
1033:C:/Users/leonardo/Desktop/Code/Github/DawnGBC/Libraries/FWLIB/src\gd32f4xx_rcu.c ****         break;
 2700              		.loc 1 1033 9
 2701 00e8 074A     		ldr	r2, .L163+4
1033:C:/Users/leonardo/Desktop/Code/Github/DawnGBC/Libraries/FWLIB/src\gd32f4xx_rcu.c ****         break;
 2702              		.loc 1 1033 26
 2703 00ea FB68     		ldr	r3, [r7, #12]
 2704 00ec 43F00403 		orr	r3, r3, #4
1033:C:/Users/leonardo/Desktop/Code/Github/DawnGBC/Libraries/FWLIB/src\gd32f4xx_rcu.c ****         break;
 2705              		.loc 1 1033 19
 2706 00f0 1360     		str	r3, [r2]
1034:C:/Users/leonardo/Desktop/Code/Github/DawnGBC/Libraries/FWLIB/src\gd32f4xx_rcu.c ****     case RCU_IRC16M:
 2707              		.loc 1 1034 9
 2708 00f2 02E0     		b	.L159
 2709              	.L160:
1041:C:/Users/leonardo/Desktop/Code/Github/DawnGBC/Libraries/FWLIB/src\gd32f4xx_rcu.c ****     default:
 2710              		.loc 1 1041 9
 2711 00f4 00BF     		nop
 2712 00f6 00E0     		b	.L162
 2713              	.L161:
 2714              		.loc 1 1043 9
 2715 00f8 00BF     		nop
 2716              	.L159:
 2717              	.L162:
1044:C:/Users/leonardo/Desktop/Code/Github/DawnGBC/Libraries/FWLIB/src\gd32f4xx_rcu.c ****     }
1045:C:/Users/leonardo/Desktop/Code/Github/DawnGBC/Libraries/FWLIB/src\gd32f4xx_rcu.c **** }
 2718              		.loc 1 1045 1
 2719 00fa 00BF     		nop
 2720 00fc 1437     		adds	r7, r7, #20
 2721              		.cfi_def_cfa_offset 4
 2722 00fe BD46     		mov	sp, r7
 2723              		.cfi_def_cfa_register 13
 2724              		@ sp needed
 2725 0100 80BC     		pop	{r7}
 2726              		.cfi_restore 7
 2727              		.cfi_def_cfa_offset 0
 2728 0102 7047     		bx	lr
 2729              	.L164:
 2730              		.align	2
 2731              	.L163:
 2732 0104 00380240 		.word	1073887232
 2733 0108 70380240 		.word	1073887344
 2734              		.cfi_endproc
 2735              	.LFE158:
 2737              		.section	.text.rcu_osci_bypass_mode_disable,"ax",%progbits
 2738              		.align	1
 2739              		.global	rcu_osci_bypass_mode_disable
 2740              		.syntax unified
 2741              		.thumb
 2742              		.thumb_func
 2743              		.fpu softvfp
 2745              	rcu_osci_bypass_mode_disable:
 2746              	.LFB159:
1046:C:/Users/leonardo/Desktop/Code/Github/DawnGBC/Libraries/FWLIB/src\gd32f4xx_rcu.c **** 
1047:C:/Users/leonardo/Desktop/Code/Github/DawnGBC/Libraries/FWLIB/src\gd32f4xx_rcu.c **** /*!
1048:C:/Users/leonardo/Desktop/Code/Github/DawnGBC/Libraries/FWLIB/src\gd32f4xx_rcu.c ****     \brief      disable the oscillator bypass mode, HXTALEN or LXTALEN must be reset before it
1049:C:/Users/leonardo/Desktop/Code/Github/DawnGBC/Libraries/FWLIB/src\gd32f4xx_rcu.c ****     \param[in]  osci: oscillator types, refer to rcu_osci_type_enum
1050:C:/Users/leonardo/Desktop/Code/Github/DawnGBC/Libraries/FWLIB/src\gd32f4xx_rcu.c ****                 only one parameter can be selected which is shown as below:
1051:C:/Users/leonardo/Desktop/Code/Github/DawnGBC/Libraries/FWLIB/src\gd32f4xx_rcu.c ****       \arg        RCU_HXTAL: HXTAL
1052:C:/Users/leonardo/Desktop/Code/Github/DawnGBC/Libraries/FWLIB/src\gd32f4xx_rcu.c ****       \arg        RCU_LXTAL: LXTAL
1053:C:/Users/leonardo/Desktop/Code/Github/DawnGBC/Libraries/FWLIB/src\gd32f4xx_rcu.c ****     \param[out] none
1054:C:/Users/leonardo/Desktop/Code/Github/DawnGBC/Libraries/FWLIB/src\gd32f4xx_rcu.c ****     \retval     none
1055:C:/Users/leonardo/Desktop/Code/Github/DawnGBC/Libraries/FWLIB/src\gd32f4xx_rcu.c **** */
1056:C:/Users/leonardo/Desktop/Code/Github/DawnGBC/Libraries/FWLIB/src\gd32f4xx_rcu.c **** void rcu_osci_bypass_mode_disable(rcu_osci_type_enum osci)
1057:C:/Users/leonardo/Desktop/Code/Github/DawnGBC/Libraries/FWLIB/src\gd32f4xx_rcu.c **** {
 2747              		.loc 1 1057 1
 2748              		.cfi_startproc
 2749              		@ args = 0, pretend = 0, frame = 16
 2750              		@ frame_needed = 1, uses_anonymous_args = 0
 2751              		@ link register save eliminated.
 2752 0000 80B4     		push	{r7}
 2753              		.cfi_def_cfa_offset 4
 2754              		.cfi_offset 7, -4
 2755 0002 85B0     		sub	sp, sp, #20
 2756              		.cfi_def_cfa_offset 24
 2757 0004 00AF     		add	r7, sp, #0
 2758              		.cfi_def_cfa_register 7
 2759 0006 0346     		mov	r3, r0
 2760 0008 FB80     		strh	r3, [r7, #6]	@ movhi
1058:C:/Users/leonardo/Desktop/Code/Github/DawnGBC/Libraries/FWLIB/src\gd32f4xx_rcu.c ****     uint32_t reg;
1059:C:/Users/leonardo/Desktop/Code/Github/DawnGBC/Libraries/FWLIB/src\gd32f4xx_rcu.c ****     
1060:C:/Users/leonardo/Desktop/Code/Github/DawnGBC/Libraries/FWLIB/src\gd32f4xx_rcu.c ****     switch(osci){
 2761              		.loc 1 1060 5
 2762 000a FB88     		ldrh	r3, [r7, #6]
 2763 000c 43F21002 		movw	r2, #12304
 2764 0010 9342     		cmp	r3, r2
 2765 0012 6FD0     		beq	.L173
 2766 0014 43F21002 		movw	r2, #12304
 2767 0018 9342     		cmp	r3, r2
 2768 001a 6DDC     		bgt	.L174
 2769 001c B3F5E85F 		cmp	r3, #7424
 2770 0020 68D0     		beq	.L173
 2771 0022 B3F5E85F 		cmp	r3, #7424
 2772 0026 67DC     		bgt	.L174
 2773 0028 1C2B     		cmp	r3, #28
 2774 002a 41DC     		bgt	.L168
 2775 002c 002B     		cmp	r3, #0
 2776 002e 63DB     		blt	.L174
 2777 0030 1C2B     		cmp	r3, #28
 2778 0032 61D8     		bhi	.L174
 2779 0034 01A2     		adr	r2, .L169
 2780 0036 52F823F0 		ldr	pc, [r2, r3, lsl #2]
 2781 003a 00BF     		.p2align 2
 2782              	.L169:
 2783 003c F9000000 		.word	.L174+1
 2784 0040 F9000000 		.word	.L174+1
 2785 0044 F9000000 		.word	.L174+1
 2786 0048 F9000000 		.word	.L174+1
 2787 004c F9000000 		.word	.L174+1
 2788 0050 F9000000 		.word	.L174+1
 2789 0054 F9000000 		.word	.L174+1
 2790 0058 F9000000 		.word	.L174+1
 2791 005c F9000000 		.word	.L174+1
 2792 0060 F9000000 		.word	.L174+1
 2793 0064 F9000000 		.word	.L174+1
 2794 0068 F9000000 		.word	.L174+1
 2795 006c F9000000 		.word	.L174+1
 2796 0070 F9000000 		.word	.L174+1
 2797 0074 F9000000 		.word	.L174+1
 2798 0078 F9000000 		.word	.L174+1
 2799 007c B9000000 		.word	.L170+1
 2800 0080 F9000000 		.word	.L174+1
 2801 0084 F9000000 		.word	.L174+1
 2802 0088 F9000000 		.word	.L174+1
 2803 008c F9000000 		.word	.L174+1
 2804 0090 F9000000 		.word	.L174+1
 2805 0094 F9000000 		.word	.L174+1
 2806 0098 F9000000 		.word	.L174+1
 2807 009c F9000000 		.word	.L174+1
 2808 00a0 F9000000 		.word	.L174+1
 2809 00a4 F9000000 		.word	.L174+1
 2810 00a8 F9000000 		.word	.L174+1
 2811 00ac F9000000 		.word	.L174+1
 2812              		.p2align 1
 2813              	.L168:
 2814 00b0 B3F5E05F 		cmp	r3, #7168
 2815 00b4 0FD0     		beq	.L171
1061:C:/Users/leonardo/Desktop/Code/Github/DawnGBC/Libraries/FWLIB/src\gd32f4xx_rcu.c ****     /* disable HXTAL to bypass mode */    
1062:C:/Users/leonardo/Desktop/Code/Github/DawnGBC/Libraries/FWLIB/src\gd32f4xx_rcu.c ****     case RCU_HXTAL:
1063:C:/Users/leonardo/Desktop/Code/Github/DawnGBC/Libraries/FWLIB/src\gd32f4xx_rcu.c ****         reg = RCU_CTL;
1064:C:/Users/leonardo/Desktop/Code/Github/DawnGBC/Libraries/FWLIB/src\gd32f4xx_rcu.c ****         RCU_CTL &= ~RCU_CTL_HXTALEN;
1065:C:/Users/leonardo/Desktop/Code/Github/DawnGBC/Libraries/FWLIB/src\gd32f4xx_rcu.c ****         RCU_CTL = (reg & ~RCU_CTL_HXTALBPS);
1066:C:/Users/leonardo/Desktop/Code/Github/DawnGBC/Libraries/FWLIB/src\gd32f4xx_rcu.c ****         break;
1067:C:/Users/leonardo/Desktop/Code/Github/DawnGBC/Libraries/FWLIB/src\gd32f4xx_rcu.c ****     /* disable LXTAL to bypass mode */
